 RMG_CustomizeObjectProperties

 Timestamp is 6793ef87 (Fri Jan 24 22:52:39 2025)

 Preferred load address is 10000000

 Start         Length     Name                   Class
 0001:00000000 00000d00H .text$di                CODE
 0001:00000d00 00038ea0H .text$mn                CODE
 0001:00039ba0 00001350H .text$x                 CODE
 0001:0003aef0 000003feH .text$yd                CODE
 0002:00000000 00000150H .idata$5                DATA
 0002:00000150 00000008H .00cfg                  DATA
 0002:00000158 00000004H .CRT$XCA                DATA
 0002:0000015c 0000000cH .CRT$XCC                DATA
 0002:00000168 00000008H .CRT$XCL                DATA
 0002:00000170 00000174H .CRT$XCU                DATA
 0002:000002e4 00000004H .CRT$XCZ                DATA
 0002:000002e8 00000004H .CRT$XIA                DATA
 0002:000002ec 00000014H .CRT$XIC                DATA
 0002:00000300 00000004H .CRT$XIZ                DATA
 0002:00000304 00000004H .CRT$XLA                DATA
 0002:00000308 00000004H .CRT$XLZ                DATA
 0002:0000030c 00000004H .CRT$XPA                DATA
 0002:00000310 00000008H .CRT$XPX                DATA
 0002:00000318 00000004H .CRT$XPXA               DATA
 0002:0000031c 00000004H .CRT$XPZ                DATA
 0002:00000320 00000004H .CRT$XTA                DATA
 0002:00000324 0000001cH .CRT$XTZ                DATA
 0002:00000328 00000000H .gfids$y                DATA
 0002:00000340 00009540H .rdata                  DATA
 0002:00009880 00000000H .rdata$CastGuardVftablesA DATA
 0002:00009880 00000000H .rdata$CastGuardVftablesC DATA
 0002:00009880 00000018H .rdata$T                DATA
 0002:00009898 00000f80H .rdata$r                DATA
 0002:0000a818 00000298H .rdata$sxdata           DATA
 0002:0000aab0 00000108H .rdata$voltmd           DATA
 0002:0000abb8 00000410H .rdata$zzzdbg           DATA
 0002:0000afc8 00000004H .rtc$IAA                DATA
 0002:0000afcc 00000004H .rtc$IZZ                DATA
 0002:0000afd0 00000004H .rtc$TAA                DATA
 0002:0000afd4 00000004H .rtc$TZZ                DATA
 0002:0000afd8 00000004H .tls                    DATA
 0002:0000afdc 00000004H .tls$                   DATA
 0002:0000afe0 00000008H .tls$ZZZ                DATA
 0002:0000afe8 00003928H .xdata$x                DATA
 0002:0000e910 00000070H .edata                  DATA
 0002:0000e980 00000014H .idata$2                DATA
 0002:0000e994 00000014H .idata$3                DATA
 0002:0000e9a8 00000150H .idata$4                DATA
 0002:0000eaf8 0000064cH .idata$6                DATA
 0003:00000000 00000ae0H .data                   DATA
 0003:00000ae0 00000268H .data$r                 DATA
 0003:00000d48 00000578H .data$rs                DATA
 0003:000012c0 00004df4H .bss                    DATA
 0004:00000000 00000060H .rsrc$01                DATA
 0004:00000060 00000098H .rsrc$02                DATA

  Address         Publics by Value              Rva+Base       Lib:Object

 0000:00000000       ___AbsoluteZero            00000000     <absolute>
 0000:00000000       ___arm64x_extra_rfe_table  00000000     <absolute>
 0000:00000000       ___arm64x_extra_rfe_table_size 00000000     <absolute>
 0000:00000000       ___arm64x_native_entrypoint 00000000     <absolute>
 0000:00000000       ___arm64x_redirection_metadata 00000000     <absolute>
 0000:00000000       ___arm64x_redirection_metadata_count 00000000     <absolute>
 0000:00000000       ___dynamic_value_reloc_table 00000000     <absolute>
 0000:00000000       ___enclave_config          00000000     <absolute>
 0000:00000000       ___guard_check_icall_a64n_fptr 00000000     <absolute>
 0000:00000000       ___guard_eh_cont_count     00000000     <absolute>
 0000:00000000       ___guard_eh_cont_table     00000000     <absolute>
 0000:00000000       ___guard_fids_count        00000000     <absolute>
 0000:00000000       ___guard_fids_table        00000000     <absolute>
 0000:00000000       ___guard_iat_count         00000000     <absolute>
 0000:00000000       ___guard_iat_table         00000000     <absolute>
 0000:00000000       ___guard_longjmp_count     00000000     <absolute>
 0000:00000000       ___guard_longjmp_table     00000000     <absolute>
 0000:00000000       ___hybrid_auxiliary_delayload_iat 00000000     <absolute>
 0000:00000000       ___hybrid_auxiliary_delayload_iat_copy 00000000     <absolute>
 0000:00000000       ___hybrid_auxiliary_iat    00000000     <absolute>
 0000:00000000       ___hybrid_auxiliary_iat_copy 00000000     <absolute>
 0000:00000000       ___hybrid_code_map         00000000     <absolute>
 0000:00000000       ___hybrid_code_map_count   00000000     <absolute>
 0000:00000000       ___hybrid_image_info_bitfield 00000000     <absolute>
 0000:00000000       ___x64_code_ranges_to_entry_points 00000000     <absolute>
 0000:00000000       ___x64_code_ranges_to_entry_points_count 00000000     <absolute>
 0000:00000000       __except_list              00000000     <absolute>
 0000:0000002c       __tls_array                0000002c     <absolute>
 0000:000000a6       ___safe_se_handler_count   000000a6     <absolute>
 0000:00000100       ___guard_flags             00000100     <absolute>
 0000:00000000       ___ImageBase               10000000     <linker-defined>
 0001:00000d00       ?OnCancel@H3Dlg@h3@@UAEXXZ 10001d00 f i RMG_SettingsDlg.obj
 0001:00000d00       ?OnOK@H3Dlg@h3@@UAEXXZ     10001d00 f i RMG_SettingsDlg.obj
 0001:00000d00       ?_Lock@?$basic_streambuf@DU?$char_traits@D@std@@@std@@UAEXXZ 10001d00 f i ObjectsExtender.obj
 0001:00000d00       ?_Unlock@?$basic_streambuf@DU?$char_traits@D@std@@@std@@UAEXXZ 10001d00 f i ObjectsExtender.obj
 0001:00000d00       ?__empty_global_delete@@YAXPAXI@Z 10001d00 f i DrawPcx16ResizedBicubic.obj
 0001:00000d00       ?__global_delete@@YAXPAXI@Z 10001d00 f i * CIL library *:* CIL module *
 0001:00000d00       @_guard_check_icall_nop@4  10001d00 f i LIBCMT:guard_support.obj
 0001:00000d10       ___local_stdio_printf_options 10001d10 f i era.obj
 0001:00000d20       _sprintf_s                 10001d20 f i era.obj
 0001:00000d50       ??0exception@std@@QAE@ABV01@@Z 10001d50 f i era.obj
 0001:00000d80       ?what@exception@std@@UBEPBDXZ 10001d80 f i era.obj
 0001:00000d90       ??_Ebad_alloc@std@@UAEPAXI@Z 10001d90 f i * CIL library *:* CIL module *
 0001:00000d90       ??_Ebad_array_new_length@std@@UAEPAXI@Z 10001d90 f i * CIL library *:* CIL module *
 0001:00000d90       ??_Ebad_cast@std@@UAEPAXI@Z 10001d90 f i * CIL library *:* CIL module *
 0001:00000d90       ??_Eexception@std@@UAEPAXI@Z 10001d90 f i * CIL library *:* CIL module *
 0001:00000d90       ??_Eruntime_error@std@@UAEPAXI@Z 10001d90 f i * CIL library *:* CIL module *
 0001:00000d90       ??_Gbad_alloc@std@@UAEPAXI@Z 10001d90 f i era.obj
 0001:00000d90       ??_Gbad_array_new_length@std@@UAEPAXI@Z 10001d90 f i era.obj
 0001:00000d90       ??_Gbad_cast@std@@UAEPAXI@Z 10001d90 f i ObjectsExtender.obj
 0001:00000d90       ??_Gexception@std@@UAEPAXI@Z 10001d90 f i era.obj
 0001:00000d90       ??_Gruntime_error@std@@UAEPAXI@Z 10001d90 f i ObjectsExtender.obj
 0001:00000dc0       ??1__non_rtti_object@std@@UAE@XZ 10001dc0 f i libvcruntime:rtti.obj
 0001:00000dc0       ??1bad_alloc@std@@UAE@XZ   10001dc0 f i era.obj
 0001:00000dc0       ??1bad_array_new_length@std@@UAE@XZ 10001dc0 f i era.obj
 0001:00000dc0       ??1bad_cast@std@@UAE@XZ    10001dc0 f i ObjectsExtender.obj
 0001:00000dc0       ??1bad_exception@std@@UAE@XZ 10001dc0 f i libvcruntime:frame.obj
 0001:00000dc0       ??1failure@ios_base@std@@UAE@XZ 10001dc0 f i ObjectsExtender.obj
 0001:00000dc0       ??1length_error@std@@UAE@XZ 10001dc0 f i libcpmt:xthrow.obj
 0001:00000dc0       ??1out_of_range@std@@UAE@XZ 10001dc0 f i libcpmt:xthrow.obj
 0001:00000dc0       ??1runtime_error@std@@UAE@XZ 10001dc0 f i ObjectsExtender.obj
 0001:00000dc0       ??1system_error@std@@UAE@XZ 10001dc0 f i ObjectsExtender.obj
 0001:00000de0       ??0bad_array_new_length@std@@QAE@XZ 10001de0 f i era.obj
 0001:00000e00       ?_Throw_bad_array_new_length@std@@YAXXZ 10001e00 f i era.obj
 0001:00000e00       ?__scrt_throw_std_bad_array_new_length@@YAXXZ 10001e00 f i LIBCMT:throw_bad_alloc.obj
 0001:00000e20       ??0bad_array_new_length@std@@QAE@ABV01@@Z 10001e20 f i era.obj
 0001:00000e60       ??0bad_alloc@std@@QAE@ABV01@@Z 10001e60 f i era.obj
 0001:00000ea0       ?_Xlen_string@std@@YAXXZ   10001ea0 f i era.obj
 0001:00000eb0       ??1?$basic_string@DU?$char_traits@D@std@@V?$allocator@D@2@@std@@QAE@XZ 10001eb0 f i era.obj
 0001:00000eb0       ??1?$pair@V?$basic_string@DU?$char_traits@D@std@@V?$allocator@D@2@@std@@I@std@@QAE@XZ 10001eb0 f i SoundManager.obj
 0001:00000eb0       ?_Tidy_deallocate@?$basic_string@DU?$char_traits@D@std@@V?$allocator@D@2@@std@@AAEXXZ 10001eb0 f i era.obj
 0001:00000f00       ??0?$basic_string@DU?$char_traits@D@std@@V?$allocator@D@2@@std@@QAE@QBD@Z 10001f00 f i era.obj
 0001:00000f40       ?deallocate@?$allocator@D@std@@QAEXQADI@Z 10001f40 f i era.obj
 0001:00000f80       ??$_Construct@$00PBD@?$basic_string@DU?$char_traits@D@std@@V?$allocator@D@2@@std@@AAEXQBDI@Z 10001f80 f i era.obj
 0001:00001010       ??0?$basic_string@DU?$char_traits@D@std@@V?$allocator@D@2@@std@@QAE@U_String_constructor_concat_tag@1@AAV01@1@Z 10002010 f i era.obj
 0001:000011a0       ??$_Allocate_for_capacity@$0A@@?$basic_string@DU?$char_traits@D@std@@V?$allocator@D@2@@std@@CAPADAAV?$allocator@D@1@AAI@Z 100021a0 f i era.obj
 0001:00001200       ??$_Allocate_at_least_helper@V?$allocator@D@std@@@std@@YAPADAAV?$allocator@D@0@AAI@Z 10002200 f i era.obj
 0001:00001250       __vsnprintf_l              10002250 f i dllmain.obj
 0001:00001290       _sprintf                   10002290 f i dllmain.obj
 0001:000012b0       _ceilf                     100022b0 f i SoundManager.obj
 0001:000012f0       ??1H3String@h3@@QAE@XZ     100022f0 f i SoundManager.obj
 0001:00001330       ?Format@H3String@h3@@SA?AU12@PBDZZ 10002330 f i SoundManager.obj
 0001:000013d0       ??1?$_Hash@V?$_Umap_traits@KHV?$_Uhash_compare@KU?$hash@K@std@@U?$equal_to@K@2@@std@@V?$allocator@U?$pair@$$CBKH@std@@@2@$0A@@std@@@std@@QAE@XZ 100023d0 f i SoundManager.obj
 0001:000013d0       ??1?$_Hash@V?$_Uset_traits@URMGObjectSetable@extender@@V?$_Uhash_compare@URMGObjectSetable@extender@@UHashFunction@12@U?$equal_to@URMGObjectSetable@extender@@@std@@@std@@V?$allocator@URMGObjectSetable@extender@@@4@$0A@@std@@@std@@QAE@XZ 100023d0 f i ObjectsExtender.obj
 0001:00001460       ??1?$unordered_map@V?$basic_string@DU?$char_traits@D@std@@V?$allocator@D@2@@std@@IU?$hash@V?$basic_string@DU?$char_traits@D@std@@V?$allocator@D@2@@std@@@2@U?$equal_to@V?$basic_string@DU?$char_traits@D@std@@V?$allocator@D@2@@std@@@2@V?$allocator@U?$pair@$$CBV?$basic_string@DU?$char_traits@D@std@@V?$allocator@D@2@@std@@I@std@@@2@@std@@QAE@XZ 10002460 f i SoundManager.obj
 0001:00001470       ??1?$_Hash@V?$_Umap_traits@V?$basic_string@DU?$char_traits@D@std@@V?$allocator@D@2@@std@@IV?$_Uhash_compare@V?$basic_string@DU?$char_traits@D@std@@V?$allocator@D@2@@std@@U?$hash@V?$basic_string@DU?$char_traits@D@std@@V?$allocator@D@2@@std@@@2@U?$equal_to@V?$basic_string@DU?$char_traits@D@std@@V?$allocator@D@2@@std@@@2@@2@V?$allocator@U?$pair@$$CBV?$basic_string@DU?$char_traits@D@std@@V?$allocator@D@2@@std@@I@std@@@2@$0A@@std@@@std@@QAE@XZ 10002470 f i SoundManager.obj
 0001:000014e0       ??1?$_Hash_vec@V?$allocator@V?$_List_unchecked_const_iterator@V?$_List_val@U?$_List_simple_types@I@std@@@std@@U_Iterator_base0@2@@std@@@std@@@std@@QAE@XZ 100024e0 f i RMGObjectsEditor.obj
 0001:000014e0       ??1?$_Hash_vec@V?$allocator@V?$_List_unchecked_const_iterator@V?$_List_val@U?$_List_simple_types@PBD@std@@@std@@U_Iterator_base0@2@@std@@@std@@@std@@QAE@XZ 100024e0 f i ObjectsExtender.obj
 0001:000014e0       ??1?$_Hash_vec@V?$allocator@V?$_List_unchecked_const_iterator@V?$_List_val@U?$_List_simple_types@URMGObjectSetable@extender@@@std@@@std@@U_Iterator_base0@2@@std@@@std@@@std@@QAE@XZ 100024e0 f i ObjectsExtender.obj
 0001:000014e0       ??1?$_Hash_vec@V?$allocator@V?$_List_unchecked_iterator@V?$_List_val@U?$_List_simple_types@U?$pair@$$CBKH@std@@@std@@@std@@@std@@@std@@@std@@QAE@XZ 100024e0 f i SoundManager.obj
 0001:000014e0       ??1?$_Hash_vec@V?$allocator@V?$_List_unchecked_iterator@V?$_List_val@U?$_List_simple_types@U?$pair@$$CBV?$basic_string@DU?$char_traits@D@std@@V?$allocator@D@2@@std@@I@std@@@std@@@std@@@std@@@std@@@std@@QAE@XZ 100024e0 f i SoundManager.obj
 0001:00001540       ??1?$list@U?$pair@$$CBV?$basic_string@DU?$char_traits@D@std@@V?$allocator@D@2@@std@@I@std@@V?$allocator@U?$pair@$$CBV?$basic_string@DU?$char_traits@D@std@@V?$allocator@D@2@@std@@I@std@@@2@@std@@QAE@XZ 10002540 f i SoundManager.obj
 0001:00001560       ??1?$list@U?$pair@$$CBKH@std@@V?$allocator@U?$pair@$$CBKH@std@@@2@@std@@QAE@XZ 10002560 f i SoundManager.obj
 0001:00001560       ??1?$list@URMGObjectSetable@extender@@V?$allocator@URMGObjectSetable@extender@@@std@@@std@@QAE@XZ 10002560 f i ObjectsExtender.obj
 0001:000015a0       ??1?$vector@HV?$allocator@H@std@@@std@@QAE@XZ 100025a0 f i SoundManager.obj
 0001:000015a0       ??1?$vector@PADV?$allocator@PAD@std@@@std@@QAE@XZ 100025a0 f i SoundManager.obj
 0001:000015a0       ??1?$vector@PAUH3DlgCaptionButton@h3@@V?$allocator@PAUH3DlgCaptionButton@h3@@@std@@@std@@QAE@XZ 100025a0 f i RMG_SettingsDlg.obj
 0001:000015a0       ??1?$vector@PAUH3DlgDef@h3@@V?$allocator@PAUH3DlgDef@h3@@@std@@@std@@QAE@XZ 100025a0 f i RMG_SettingsDlg.obj
 0001:000015a0       ??1?$vector@PAUH3DlgItem@h3@@V?$allocator@PAUH3DlgItem@h3@@@std@@@std@@QAE@XZ 100025a0 f i RMG_SettingsDlg.obj
 0001:000015a0       ??1?$vector@PAUH3WavFile@h3@@V?$allocator@PAUH3WavFile@h3@@@std@@@std@@QAE@XZ 100025a0 f i SoundManager.obj
 0001:000015a0       ??1?$vector@PAUObjectsPanel@RMG_SettingsDlg@rmgdlg@@V?$allocator@PAUObjectsPanel@RMG_SettingsDlg@rmgdlg@@@std@@@std@@QAE@XZ 100025a0 f i RMG_SettingsDlg.obj
 0001:000015a0       ??1?$vector@PAUPage@RMG_SettingsDlg@rmgdlg@@V?$allocator@PAUPage@RMG_SettingsDlg@rmgdlg@@@std@@@std@@QAE@XZ 100025a0 f i RMG_SettingsDlg.obj
 0001:000015a0       ?_Tidy@?$vector@HV?$allocator@H@std@@@std@@AAEXXZ 100025a0 f i SoundManager.obj
 0001:000015a0       ?_Tidy@?$vector@PADV?$allocator@PAD@std@@@std@@AAEXXZ 100025a0 f i SoundManager.obj
 0001:00001600       ??0?$basic_string@DU?$char_traits@D@std@@V?$allocator@D@2@@std@@QAE@ABV01@@Z 10002600 f i SoundManager.obj
 0001:000016b0       ?_Assign_grow@?$_Hash_vec@V?$allocator@V?$_List_unchecked_const_iterator@V?$_List_val@U?$_List_simple_types@I@std@@@std@@U_Iterator_base0@2@@std@@@std@@@std@@QAEXIV?$_List_unchecked_const_iterator@V?$_List_val@U?$_List_simple_types@I@std@@@std@@U_Iterator_base0@2@@2@@Z 100026b0 f i RMGObjectsEditor.obj
 0001:000016b0       ?_Assign_grow@?$_Hash_vec@V?$allocator@V?$_List_unchecked_const_iterator@V?$_List_val@U?$_List_simple_types@URMGObjectSetable@extender@@@std@@@std@@U_Iterator_base0@2@@std@@@std@@@std@@QAEXIV?$_List_unchecked_const_iterator@V?$_List_val@U?$_List_simple_types@URMGObjectSetable@extender@@@std@@@std@@U_Iterator_base0@2@@2@@Z 100026b0 f i ObjectsExtender.obj
 0001:000016b0       ?_Assign_grow@?$_Hash_vec@V?$allocator@V?$_List_unchecked_iterator@V?$_List_val@U?$_List_simple_types@U?$pair@$$CBKH@std@@@std@@@std@@@std@@@std@@@std@@QAEXIV?$_List_unchecked_iterator@V?$_List_val@U?$_List_simple_types@U?$pair@$$CBKH@std@@@std@@@std@@@2@@Z 100026b0 f i SoundManager.obj
 0001:000016b0       ?_Assign_grow@?$_Hash_vec@V?$allocator@V?$_List_unchecked_iterator@V?$_List_val@U?$_List_simple_types@U?$pair@$$CBV?$basic_string@DU?$char_traits@D@std@@V?$allocator@D@2@@std@@I@std@@@std@@@std@@@std@@@std@@@std@@QAEXIV?$_List_unchecked_iterator@V?$_List_val@U?$_List_simple_types@U?$pair@$$CBV?$basic_string@DU?$char_traits@D@std@@V?$allocator@D@2@@std@@I@std@@@std@@@std@@@2@@Z 100026b0 f i SoundManager.obj
 0001:000017a0       ??$_Reallocate@$00@?$vector@HV?$allocator@H@std@@@std@@AAEXAAI@Z 100027a0 f i CreatureBanksExtender.obj
 0001:000017a0       ??$_Reallocate@$00@?$vector@PADV?$allocator@PAD@std@@@std@@AAEXAAI@Z 100027a0 f i SoundManager.obj
 0001:000017a0       ??$_Reallocate@$0A@@?$vector@HV?$allocator@H@std@@@std@@AAEXAAI@Z 100027a0 f i CreatureBanksExtender.obj
 0001:000017a0       ??$_Reallocate@$0A@@?$vector@PAUH3DlgItem@h3@@V?$allocator@PAUH3DlgItem@h3@@@std@@@std@@AAEXAAI@Z 100027a0 f i RMG_SettingsDlg.obj
 0001:00001870       ??$_Free_non_head@V?$allocator@U?$_List_node@U?$pair@$$CBV?$basic_string@DU?$char_traits@D@std@@V?$allocator@D@2@@std@@I@std@@PAX@std@@@std@@@?$_List_node@U?$pair@$$CBV?$basic_string@DU?$char_traits@D@std@@V?$allocator@D@2@@std@@I@std@@PAX@std@@SAXAAV?$allocator@U?$_List_node@U?$pair@$$CBV?$basic_string@DU?$char_traits@D@std@@V?$allocator@D@2@@std@@I@std@@PAX@std@@@1@PAU01@@Z 10002870 f i SoundManager.obj
 0001:000018e0       ??$uninitialized_fill@PAV?$_List_unchecked_const_iterator@V?$_List_val@U?$_List_simple_types@I@std@@@std@@U_Iterator_base0@2@@std@@V12@@std@@YAXQAV?$_List_unchecked_const_iterator@V?$_List_val@U?$_List_simple_types@I@std@@@std@@U_Iterator_base0@2@@0@0ABV10@@Z 100028e0 f i RMGObjectsEditor.obj
 0001:000018e0       ??$uninitialized_fill@PAV?$_List_unchecked_const_iterator@V?$_List_val@U?$_List_simple_types@PBD@std@@@std@@U_Iterator_base0@2@@std@@V12@@std@@YAXQAV?$_List_unchecked_const_iterator@V?$_List_val@U?$_List_simple_types@PBD@std@@@std@@U_Iterator_base0@2@@0@0ABV10@@Z 100028e0 f i ObjectsExtender.obj
 0001:000018e0       ??$uninitialized_fill@PAV?$_List_unchecked_const_iterator@V?$_List_val@U?$_List_simple_types@URMGObjectSetable@extender@@@std@@@std@@U_Iterator_base0@2@@std@@V12@@std@@YAXQAV?$_List_unchecked_const_iterator@V?$_List_val@U?$_List_simple_types@URMGObjectSetable@extender@@@std@@@std@@U_Iterator_base0@2@@0@0ABV10@@Z 100028e0 f i ObjectsExtender.obj
 0001:000018e0       ??$uninitialized_fill@PAV?$_List_unchecked_iterator@V?$_List_val@U?$_List_simple_types@U?$pair@$$CBKH@std@@@std@@@std@@@std@@V12@@std@@YAXQAV?$_List_unchecked_iterator@V?$_List_val@U?$_List_simple_types@U?$pair@$$CBKH@std@@@std@@@std@@@0@0ABV10@@Z 100028e0 f i SoundManager.obj
 0001:000018e0       ??$uninitialized_fill@PAV?$_List_unchecked_iterator@V?$_List_val@U?$_List_simple_types@U?$pair@$$CBV?$basic_string@DU?$char_traits@D@std@@V?$allocator@D@2@@std@@I@std@@@std@@@std@@@std@@V12@@std@@YAXQAV?$_List_unchecked_iterator@V?$_List_val@U?$_List_simple_types@U?$pair@$$CBV?$basic_string@DU?$char_traits@D@std@@V?$allocator@D@2@@std@@I@std@@@std@@@std@@@0@0ABV10@@Z 100028e0 f i SoundManager.obj
 0001:00001900       ??$fill@PAV?$_List_unchecked_const_iterator@V?$_List_val@U?$_List_simple_types@I@std@@@std@@U_Iterator_base0@2@@std@@V12@@std@@YAXQAV?$_List_unchecked_const_iterator@V?$_List_val@U?$_List_simple_types@I@std@@@std@@U_Iterator_base0@2@@0@0ABV10@@Z 10002900 f i RMGObjectsEditor.obj
 0001:00001900       ??$fill@PAV?$_List_unchecked_const_iterator@V?$_List_val@U?$_List_simple_types@PBD@std@@@std@@U_Iterator_base0@2@@std@@V12@@std@@YAXQAV?$_List_unchecked_const_iterator@V?$_List_val@U?$_List_simple_types@PBD@std@@@std@@U_Iterator_base0@2@@0@0ABV10@@Z 10002900 f i ObjectsExtender.obj
 0001:00001900       ??$fill@PAV?$_List_unchecked_const_iterator@V?$_List_val@U?$_List_simple_types@URMGObjectSetable@extender@@@std@@@std@@U_Iterator_base0@2@@std@@V12@@std@@YAXQAV?$_List_unchecked_const_iterator@V?$_List_val@U?$_List_simple_types@URMGObjectSetable@extender@@@std@@@std@@U_Iterator_base0@2@@0@0ABV10@@Z 10002900 f i ObjectsExtender.obj
 0001:00001900       ??$fill@PAV?$_List_unchecked_iterator@V?$_List_val@U?$_List_simple_types@U?$pair@$$CBKH@std@@@std@@@std@@@std@@V12@@std@@YAXQAV?$_List_unchecked_iterator@V?$_List_val@U?$_List_simple_types@U?$pair@$$CBKH@std@@@std@@@std@@@0@0ABV10@@Z 10002900 f i SoundManager.obj
 0001:00001900       ??$fill@PAV?$_List_unchecked_iterator@V?$_List_val@U?$_List_simple_types@U?$pair@$$CBV?$basic_string@DU?$char_traits@D@std@@V?$allocator@D@2@@std@@I@std@@@std@@@std@@@std@@V12@@std@@YAXQAV?$_List_unchecked_iterator@V?$_List_val@U?$_List_simple_types@U?$pair@$$CBV?$basic_string@DU?$char_traits@D@std@@V?$allocator@D@2@@std@@I@std@@@std@@@std@@@0@0ABV10@@Z 10002900 f i SoundManager.obj
 0001:00001970       ?_Change_array@?$vector@HV?$allocator@H@std@@@std@@AAEXQAHII@Z 10002970 f i SoundManager.obj
 0001:00001970       ?_Change_array@?$vector@PADV?$allocator@PAD@std@@@std@@AAEXQAPADII@Z 10002970 f i SoundManager.obj
 0001:00001970       ?_Change_array@?$vector@PAUH3DlgItem@h3@@V?$allocator@PAUH3DlgItem@h3@@@std@@@std@@AAEXQAPAUH3DlgItem@h3@@II@Z 10002970 f i RMG_SettingsDlg.obj
 0001:00001970       ?_Change_array@?$vector@PAUPage@RMG_SettingsDlg@rmgdlg@@V?$allocator@PAUPage@RMG_SettingsDlg@rmgdlg@@@std@@@std@@AAEXQAPAUPage@RMG_SettingsDlg@rmgdlg@@II@Z 10002970 f i RMG_SettingsDlg.obj
 0001:000019d0       ??$emplace@U?$pair@V?$basic_string@DU?$char_traits@D@std@@V?$allocator@D@2@@std@@I@std@@@?$_Hash@V?$_Umap_traits@V?$basic_string@DU?$char_traits@D@std@@V?$allocator@D@2@@std@@IV?$_Uhash_compare@V?$basic_string@DU?$char_traits@D@std@@V?$allocator@D@2@@std@@U?$hash@V?$basic_string@DU?$char_traits@D@std@@V?$allocator@D@2@@std@@@2@U?$equal_to@V?$basic_string@DU?$char_traits@D@std@@V?$allocator@D@2@@std@@@2@@2@V?$allocator@U?$pair@$$CBV?$basic_string@DU?$char_traits@D@std@@V?$allocator@D@2@@std@@I@std@@@2@$0A@@std@@@std@@QAE?AU?$pair@V?$_List_iterator@V?$_List_val@U?$_List_simple_types@U?$pair@$$CBV?$basic_string@DU?$char_traits@D@std@@V?$allocator@D@2@@std@@I@std@@@std@@@std@@@std@@_N@1@$$QAU?$pair@V?$basic_string@DU?$char_traits@D@std@@V?$allocator@D@2@@std@@I@1@@Z 100029d0 f i SoundManager.obj
 0001:00001ba0       ??$emplace@U?$pair@PBDI@std@@@?$_Hash@V?$_Umap_traits@V?$basic_string@DU?$char_traits@D@std@@V?$allocator@D@2@@std@@IV?$_Uhash_compare@V?$basic_string@DU?$char_traits@D@std@@V?$allocator@D@2@@std@@U?$hash@V?$basic_string@DU?$char_traits@D@std@@V?$allocator@D@2@@std@@@2@U?$equal_to@V?$basic_string@DU?$char_traits@D@std@@V?$allocator@D@2@@std@@@2@@2@V?$allocator@U?$pair@$$CBV?$basic_string@DU?$char_traits@D@std@@V?$allocator@D@2@@std@@I@std@@@2@$0A@@std@@@std@@QAE?AU?$pair@V?$_List_iterator@V?$_List_val@U?$_List_simple_types@U?$pair@$$CBV?$basic_string@DU?$char_traits@D@std@@V?$allocator@D@2@@std@@I@std@@@std@@@std@@@std@@_N@1@$$QAU?$pair@PBDI@1@@Z 10002ba0 f i SoundManager.obj
 0001:00001de0       ??$_Emplace_reallocate@AAH@?$vector@HV?$allocator@H@std@@@std@@AAEPAHQAHAAH@Z 10002de0 f i CreatureBanksExtender.obj
 0001:00001de0       ??$_Emplace_reallocate@AAPAD@?$vector@PADV?$allocator@PAD@std@@@std@@AAEPAPADQAPADAAPAD@Z 10002de0 f i SoundManager.obj
 0001:00001de0       ??$_Emplace_reallocate@AAPAUH3DlgDef@h3@@@?$vector@PAUH3DlgItem@h3@@V?$allocator@PAUH3DlgItem@h3@@@std@@@std@@AAEPAPAUH3DlgItem@h3@@QAPAU23@AAPAUH3DlgDef@3@@Z 10002de0 f i RMG_SettingsDlg.obj
 0001:00001de0       ??$_Emplace_reallocate@AAPAUH3DlgDefButton@h3@@@?$vector@PAUH3DlgItem@h3@@V?$allocator@PAUH3DlgItem@h3@@@std@@@std@@AAEPAPAUH3DlgItem@h3@@QAPAU23@AAPAUH3DlgDefButton@3@@Z 10002de0 f i RMG_SettingsDlg.obj
 0001:00001de0       ??$_Emplace_reallocate@AAPAUH3DlgEdit@h3@@@?$vector@PAUH3DlgItem@h3@@V?$allocator@PAUH3DlgItem@h3@@@std@@@std@@AAEPAPAUH3DlgItem@h3@@QAPAU23@AAPAUH3DlgEdit@3@@Z 10002de0 f i RMG_SettingsDlg.obj
 0001:00001de0       ??$_Emplace_reallocate@AAPAUH3DlgFrame@h3@@@?$vector@PAUH3DlgItem@h3@@V?$allocator@PAUH3DlgItem@h3@@@std@@@std@@AAEPAPAUH3DlgItem@h3@@QAPAU23@AAPAUH3DlgFrame@3@@Z 10002de0 f i RMG_SettingsDlg.obj
 0001:00001de0       ??$_Emplace_reallocate@AAPAUH3DlgPcx16@h3@@@?$vector@PAUH3DlgItem@h3@@V?$allocator@PAUH3DlgItem@h3@@@std@@@std@@AAEPAPAUH3DlgItem@h3@@QAPAU23@AAPAUH3DlgPcx16@3@@Z 10002de0 f i RMG_SettingsDlg.obj
 0001:00001de0       ??$_Emplace_reallocate@AAPAUH3DlgText@h3@@@?$vector@PAUH3DlgItem@h3@@V?$allocator@PAUH3DlgItem@h3@@@std@@@std@@AAEPAPAUH3DlgItem@h3@@QAPAU23@AAPAUH3DlgText@3@@Z 10002de0 f i RMG_SettingsDlg.obj
 0001:00001de0       ??$_Emplace_reallocate@PAUBanksPage@RMG_SettingsDlg@rmgdlg@@@?$vector@PAUPage@RMG_SettingsDlg@rmgdlg@@V?$allocator@PAUPage@RMG_SettingsDlg@rmgdlg@@@std@@@std@@AAEPAPAUPage@RMG_SettingsDlg@rmgdlg@@QAPAU234@$$QAPAUBanksPage@34@@Z 10002de0 f i RMG_SettingsDlg.obj
 0001:00001de0       ??$_Emplace_reallocate@PAUH3DlgFrame@h3@@@?$vector@PAUH3DlgItem@h3@@V?$allocator@PAUH3DlgItem@h3@@@std@@@std@@AAEPAPAUH3DlgItem@h3@@QAPAU23@$$QAPAUH3DlgFrame@3@@Z 10002de0 f i RMG_SettingsDlg.obj
 0001:00001de0       ??$_Emplace_reallocate@PAUObjectsPage@RMG_SettingsDlg@rmgdlg@@@?$vector@PAUPage@RMG_SettingsDlg@rmgdlg@@V?$allocator@PAUPage@RMG_SettingsDlg@rmgdlg@@@std@@@std@@AAEPAPAUPage@RMG_SettingsDlg@rmgdlg@@QAPAU234@$$QAPAUObjectsPage@34@@Z 10002de0 f i RMG_SettingsDlg.obj
 0001:00001f10       ??$emplace@U?$pair@KH@std@@@?$_Hash@V?$_Umap_traits@KHV?$_Uhash_compare@KU?$hash@K@std@@U?$equal_to@K@2@@std@@V?$allocator@U?$pair@$$CBKH@std@@@2@$0A@@std@@@std@@QAE?AU?$pair@V?$_List_iterator@V?$_List_val@U?$_List_simple_types@U?$pair@$$CBKH@std@@@std@@@std@@@std@@_N@1@$$QAU?$pair@KH@1@@Z 10002f10 f i SoundManager.obj
 0001:000020e0       ??$_Resize_reallocate@H@?$vector@HV?$allocator@H@std@@@std@@AAEXIABH@Z 100030e0 f i SoundManager.obj
 0001:000021c0       ??$_Uninitialized_fill_n@V?$allocator@H@std@@@std@@YAPAHPAHIABHAAV?$allocator@H@0@@Z 100031c0 f i SoundManager.obj
 0001:000021c0       ??$_Uninitialized_fill_n@V?$allocator@PAUH3WavFile@h3@@@std@@@std@@YAPAPAUH3WavFile@h3@@PAPAU12@IABQAU12@AAV?$allocator@PAUH3WavFile@h3@@@0@@Z 100031c0 f i SoundManager.obj
 0001:00002220       ??$_Resize_reallocate@PAUH3WavFile@h3@@@?$vector@PAUH3WavFile@h3@@V?$allocator@PAUH3WavFile@h3@@@std@@@std@@AAEXIABQAUH3WavFile@h3@@@Z 10003220 f i SoundManager.obj
 0001:00002340       ??$_Resize_reallocate@U_Value_init_tag@std@@@?$vector@PADV?$allocator@PAD@std@@@std@@AAEXIABU_Value_init_tag@1@@Z 10003340 f i SoundManager.obj
 0001:00002420       ??1?$_Alloc_construct_ptr@V?$allocator@U?$_List_node@U?$pair@$$CBKH@std@@PAX@std@@@std@@@std@@QAE@XZ 10003420 f i SoundManager.obj
 0001:00002420       ??1?$_Alloc_construct_ptr@V?$allocator@U?$_List_node@URMGObjectSetable@extender@@PAX@std@@@std@@@std@@QAE@XZ 10003420 f i ObjectsExtender.obj
 0001:00002420       ??1?$_List_node_emplace_op2@V?$allocator@U?$_List_node@U?$pair@$$CBKH@std@@PAX@std@@@std@@@std@@QAE@XZ 10003420 f i SoundManager.obj
 0001:00002420       ??1?$_List_node_emplace_op2@V?$allocator@U?$_List_node@URMGObjectSetable@extender@@PAX@std@@@std@@@std@@QAE@XZ 10003420 f i ObjectsExtender.obj
 0001:00002440       ??1?$_List_node_emplace_op2@V?$allocator@U?$_List_node@U?$pair@$$CBV?$basic_string@DU?$char_traits@D@std@@V?$allocator@D@2@@std@@I@std@@PAX@std@@@std@@@std@@QAE@XZ 10003440 f i SoundManager.obj
 0001:000024b0       ?_Rehash_for_1@?$_Hash@V?$_Umap_traits@V?$basic_string@DU?$char_traits@D@std@@V?$allocator@D@2@@std@@IV?$_Uhash_compare@V?$basic_string@DU?$char_traits@D@std@@V?$allocator@D@2@@std@@U?$hash@V?$basic_string@DU?$char_traits@D@std@@V?$allocator@D@2@@std@@@2@U?$equal_to@V?$basic_string@DU?$char_traits@D@std@@V?$allocator@D@2@@std@@@2@@2@V?$allocator@U?$pair@$$CBV?$basic_string@DU?$char_traits@D@std@@V?$allocator@D@2@@std@@I@std@@@2@$0A@@std@@@std@@IAEXXZ 100034b0 f i SoundManager.obj
 0001:00002510       ?_Xlength@?$vector@HV?$allocator@H@std@@@std@@CAXXZ 10003510 f i SoundManager.obj
 0001:00002510       ?_Xlength@?$vector@PADV?$allocator@PAD@std@@@std@@CAXXZ 10003510 f i SoundManager.obj
 0001:00002510       ?_Xlength@?$vector@PAUH3DlgDef@h3@@V?$allocator@PAUH3DlgDef@h3@@@std@@@std@@CAXXZ 10003510 f i RMG_SettingsDlg.obj
 0001:00002510       ?_Xlength@?$vector@PAUH3DlgItem@h3@@V?$allocator@PAUH3DlgItem@h3@@@std@@@std@@CAXXZ 10003510 f i RMG_SettingsDlg.obj
 0001:00002510       ?_Xlength@?$vector@PAUH3WavFile@h3@@V?$allocator@PAUH3WavFile@h3@@@std@@@std@@CAXXZ 10003510 f i SoundManager.obj
 0001:00002510       ?_Xlength@?$vector@PAUObjectsPanel@RMG_SettingsDlg@rmgdlg@@V?$allocator@PAUObjectsPanel@RMG_SettingsDlg@rmgdlg@@@std@@@std@@CAXXZ 10003510 f i RMG_SettingsDlg.obj
 0001:00002510       ?_Xlength@?$vector@PAUPage@RMG_SettingsDlg@rmgdlg@@V?$allocator@PAUPage@RMG_SettingsDlg@rmgdlg@@@std@@@std@@CAXXZ 10003510 f i RMG_SettingsDlg.obj
 0001:00002510       ?_Xlength@?$vector@PAV?$vector@U?$pair@UH3ObjectAttributes@h3@@PAUH3LoadedPcx16@2@@std@@V?$allocator@U?$pair@UH3ObjectAttributes@h3@@PAUH3LoadedPcx16@2@@std@@@2@@std@@V?$allocator@PAV?$vector@U?$pair@UH3ObjectAttributes@h3@@PAUH3LoadedPcx16@2@@std@@V?$allocator@U?$pair@UH3ObjectAttributes@h3@@PAUH3LoadedPcx16@2@@std@@@2@@std@@@2@@std@@CAXXZ 10003510 f i RMG_SettingsDlg.obj
 0001:00002510       ?_Xlength@?$vector@PAVObjectsExtender@extender@@V?$allocator@PAVObjectsExtender@extender@@@std@@@std@@CAXXZ 10003510 f i ObjectsExtender.obj
 0001:00002510       ?_Xlength@?$vector@U?$pair@UH3ObjectAttributes@h3@@PAUH3LoadedPcx16@2@@std@@V?$allocator@U?$pair@UH3ObjectAttributes@h3@@PAUH3LoadedPcx16@2@@std@@@2@@std@@CAXXZ 10003510 f i RMG_SettingsDlg.obj
 0001:00002510       ?_Xlength@?$vector@UH3CreatureBankSetup@h3@@V?$allocator@UH3CreatureBankSetup@h3@@@std@@@std@@CAXXZ 10003510 f i CreatureBanksExtender.obj
 0001:00002510       ?_Xlength@?$vector@UObjectSound@SoundManager@sound@@V?$allocator@UObjectSound@SoundManager@sound@@@std@@@std@@CAXXZ 10003510 f i ObjectsExtender.obj
 0001:00002510       ?_Xlength@?$vector@URMGObjectInfo@@V?$allocator@URMGObjectInfo@@@std@@@std@@CAXXZ 10003510 f i ObjectsExtender.obj
 0001:00002510       ?_Xlength@?$vector@V?$array@H$04@std@@V?$allocator@V?$array@H$04@std@@@2@@std@@CAXXZ 10003510 f i CreatureBanksExtender.obj
 0001:00002510       ?_Xlength@?$vector@V?$basic_string@DU?$char_traits@D@std@@V?$allocator@D@2@@std@@V?$allocator@V?$basic_string@DU?$char_traits@D@std@@V?$allocator@D@2@@std@@@2@@std@@CAXXZ 10003510 f i ObjectsExtender.obj
 0001:00002510       ?_Xlength@?$vector@VRMGObject@rmgdlg@@V?$allocator@VRMGObject@rmgdlg@@@std@@@std@@CAXXZ 10003510 f i RMG_SettingsDlg.obj
 0001:00002520       ??1?$_Alloc_construct_ptr@V?$allocator@U?$_List_node@U?$pair@$$CBV?$basic_string@DU?$char_traits@D@std@@V?$allocator@D@2@@std@@I@std@@PAX@std@@@std@@@std@@QAE@XZ 10003520 f i SoundManager.obj
 0001:00002540       ?_Forced_rehash@?$_Hash@V?$_Umap_traits@V?$basic_string@DU?$char_traits@D@std@@V?$allocator@D@2@@std@@IV?$_Uhash_compare@V?$basic_string@DU?$char_traits@D@std@@V?$allocator@D@2@@std@@U?$hash@V?$basic_string@DU?$char_traits@D@std@@V?$allocator@D@2@@std@@@2@U?$equal_to@V?$basic_string@DU?$char_traits@D@std@@V?$allocator@D@2@@std@@@2@@2@V?$allocator@U?$pair@$$CBV?$basic_string@DU?$char_traits@D@std@@V?$allocator@D@2@@std@@I@std@@@2@$0A@@std@@@std@@IAEXI@Z 10003540 f i SoundManager.obj
 0001:00002860       ?_Forced_rehash@?$_Hash@V?$_Umap_traits@KHV?$_Uhash_compare@KU?$hash@K@std@@U?$equal_to@K@2@@std@@V?$allocator@U?$pair@$$CBKH@std@@@2@$0A@@std@@@std@@IAEXI@Z 10003860 f i SoundManager.obj
 0001:000029d0       ??$_Find_last@V?$basic_string@DU?$char_traits@D@std@@V?$allocator@D@2@@std@@@?$_Hash@V?$_Umap_traits@V?$basic_string@DU?$char_traits@D@std@@V?$allocator@D@2@@std@@IV?$_Uhash_compare@V?$basic_string@DU?$char_traits@D@std@@V?$allocator@D@2@@std@@U?$hash@V?$basic_string@DU?$char_traits@D@std@@V?$allocator@D@2@@std@@@2@U?$equal_to@V?$basic_string@DU?$char_traits@D@std@@V?$allocator@D@2@@std@@@2@@2@V?$allocator@U?$pair@$$CBV?$basic_string@DU?$char_traits@D@std@@V?$allocator@D@2@@std@@I@std@@@2@$0A@@std@@@std@@IBE?AU?$_Hash_find_last_result@PAU?$_List_node@U?$pair@$$CBV?$basic_string@DU?$char_traits@D@std@@V?$allocator@D@2@@std@@I@std@@PAX@std@@@1@ABV?$basic_string@DU?$char_traits@D@std@@V?$allocator@D@2@@1@I@Z 100039d0 f i SoundManager.obj
 0001:00002ac0       ??$_Find_last@I@?$_Hash@V?$_Uset_traits@IV?$_Uhash_compare@IU?$hash@I@std@@U?$equal_to@I@2@@std@@V?$allocator@I@2@$0A@@std@@@std@@IBE?AU?$_Hash_find_last_result@PAU?$_List_node@IPAX@std@@@1@ABII@Z 10003ac0 f i RMGObjectsEditor.obj
 0001:00002ac0       ??$_Find_last@K@?$_Hash@V?$_Umap_traits@KHV?$_Uhash_compare@KU?$hash@K@std@@U?$equal_to@K@2@@std@@V?$allocator@U?$pair@$$CBKH@std@@@2@$0A@@std@@@std@@IBE?AU?$_Hash_find_last_result@PAU?$_List_node@U?$pair@$$CBKH@std@@PAX@std@@@1@ABKI@Z 10003ac0 f i SoundManager.obj
 0001:00002ac0       ??$_Find_last@PBD@?$_Hash@V?$_Uset_traits@PBDV?$_Uhash_compare@PBDU?$hash@PBD@std@@U?$equal_to@PBD@2@@std@@V?$allocator@PBD@2@$0A@@std@@@std@@IBE?AU?$_Hash_find_last_result@PAU?$_List_node@PBDPAX@std@@@1@ABQBDI@Z 10003ac0 f i ObjectsExtender.obj
 0001:00002b30       ?Show@H3Messagebox@h3@@SAXPBDABUH3PictureCategories@2@11@Z 10003b30 f i ColosseumOfTheMagiExtender.obj
 0001:00002b60       ??_EColosseumOfTheMagiExtender@colosseumOfTheMagi@@EAEPAXI@Z 10003b60 f i * CIL library *:* CIL module *
 0001:00002b60       ??_EGazeboExtender@gazebo@@EAEPAXI@Z 10003b60 f i * CIL library *:* CIL module *
 0001:00002b60       ??_EObjectsExtender@extender@@MAEPAXI@Z 10003b60 f i * CIL library *:* CIL module *
 0001:00002b60       ??_EShrinesExternder@shrines@@EAEPAXI@Z 10003b60 f i * CIL library *:* CIL module *
 0001:00002b60       ??_EWarehousesExtender@warehouses@@EAEPAXI@Z 10003b60 f i * CIL library *:* CIL module *
 0001:00002b60       ??_EWoGObjectsExtender@wog@@EAEPAXI@Z 10003b60 f i * CIL library *:* CIL module *
 0001:00002b60       ??_GColosseumOfTheMagiExtender@colosseumOfTheMagi@@EAEPAXI@Z 10003b60 f i ColosseumOfTheMagiExtender.obj
 0001:00002b60       ??_GGazeboExtender@gazebo@@EAEPAXI@Z 10003b60 f i GazeboExtender.obj
 0001:00002b60       ??_GObjectsExtender@extender@@MAEPAXI@Z 10003b60 f i ObjectsExtender.obj
 0001:00002b60       ??_GShrinesExternder@shrines@@EAEPAXI@Z 10003b60 f i ShrinesExternder.obj
 0001:00002b60       ??_GWarehousesExtender@warehouses@@EAEPAXI@Z 10003b60 f i WarehousesExtender.obj
 0001:00002b60       ??_GWoGObjectsExtender@wog@@EAEPAXI@Z 10003b60 f i WoGObjectsExtender.obj
 0001:00002bb0       ??_ECreatureBanksExtender@cbanks@@EAEPAXI@Z 10003bb0 f i * CIL library *:* CIL module *
 0001:00002bb0       ??_GCreatureBanksExtender@cbanks@@EAEPAXI@Z 10003bb0 f i CreatureBanksExtender.obj
 0001:00002c10       ??1CreatureBank@CreatureBanksExtender@cbanks@@QAE@XZ 10003c10 f i CreatureBanksExtender.obj
 0001:00002cc0       ??0H3CreatureBankSetup@h3@@QAE@XZ 10003cc0 f i CreatureBanksExtender.obj
 0001:00002d70       ??1?$pair@UH3ObjectAttributes@h3@@$$T@std@@QAE@XZ 10003d70 f i RMG_SettingsDlg.obj
 0001:00002d70       ??1H3CreatureBankSetup@h3@@QAE@XZ 10003d70 f i CreatureBanksExtender.obj
 0001:00002db0       ?_Tidy@?$vector@UH3CreatureBankSetup@h3@@V?$allocator@UH3CreatureBankSetup@h3@@@std@@@std@@AAEXXZ 10003db0 f i CreatureBanksExtender.obj
 0001:00002e20       ?_Tidy@?$vector@V?$array@H$04@std@@V?$allocator@V?$array@H$04@std@@@2@@std@@AAEXXZ 10003e20 f i CreatureBanksExtender.obj
 0001:00002e90       ?deallocate@?$allocator@UH3CreatureBankSetup@h3@@@std@@QAEXQAUH3CreatureBankSetup@h3@@I@Z 10003e90 f i CreatureBanksExtender.obj
 0001:00002ed0       ??$_Reallocate@$00@?$vector@UH3CreatureBankSetup@h3@@V?$allocator@UH3CreatureBankSetup@h3@@@std@@@std@@AAEXAAI@Z 10003ed0 f i CreatureBanksExtender.obj
 0001:00002ed0       ??$_Reallocate@$0A@@?$vector@UH3CreatureBankSetup@h3@@V?$allocator@UH3CreatureBankSetup@h3@@@std@@@std@@AAEXAAI@Z 10003ed0 f i CreatureBanksExtender.obj
 0001:00002fa0       ??$_Reallocate@$00@?$vector@V?$array@H$04@std@@V?$allocator@V?$array@H$04@std@@@2@@std@@AAEXAAI@Z 10003fa0 f i CreatureBanksExtender.obj
 0001:00002fa0       ??$_Reallocate@$0A@@?$vector@V?$array@H$04@std@@V?$allocator@V?$array@H$04@std@@@2@@std@@AAEXAAI@Z 10003fa0 f i CreatureBanksExtender.obj
 0001:00003000       ??$_Destroy_range@V?$allocator@UH3CreatureBankSetup@h3@@@std@@@std@@YAXPAUH3CreatureBankSetup@h3@@QAU12@AAV?$allocator@UH3CreatureBankSetup@h3@@@0@@Z 10004000 f i CreatureBanksExtender.obj
 0001:00003070       ?_Change_array@?$vector@UH3CreatureBankSetup@h3@@V?$allocator@UH3CreatureBankSetup@h3@@@std@@@std@@AAEXQAUH3CreatureBankSetup@h3@@II@Z 10004070 f i CreatureBanksExtender.obj
 0001:000030f0       ?allocate@?$allocator@UH3CreatureBankSetup@h3@@@std@@QAEPAUH3CreatureBankSetup@h3@@I@Z 100040f0 f i CreatureBanksExtender.obj
 0001:00003150       ?_Change_array@?$vector@V?$array@H$04@std@@V?$allocator@V?$array@H$04@std@@@2@@std@@AAEXQAV?$array@H$04@2@II@Z 10004150 f i CreatureBanksExtender.obj
 0001:000031d0       ?allocate@?$allocator@V?$array@H$04@std@@@std@@QAEPAV?$array@H$04@2@I@Z 100041d0 f i CreatureBanksExtender.obj
 0001:00003230       ??$_Emplace_reallocate@AAUH3CreatureBankSetup@h3@@@?$vector@UH3CreatureBankSetup@h3@@V?$allocator@UH3CreatureBankSetup@h3@@@std@@@std@@AAEPAUH3CreatureBankSetup@h3@@QAU23@AAU23@@Z 10004230 f i CreatureBanksExtender.obj
 0001:00003380       ??$_Emplace_reallocate@AAV?$array@H$04@std@@@?$vector@V?$array@H$04@std@@V?$allocator@V?$array@H$04@std@@@2@@std@@AAEPAV?$array@H$04@1@QAV21@AAV21@@Z 10004380 f i CreatureBanksExtender.obj
 0001:00003490       ??$_Uninitialized_copy@PAUH3CreatureBankSetup@h3@@PAU12@V?$allocator@UH3CreatureBankSetup@h3@@@std@@@std@@YAPAUH3CreatureBankSetup@h3@@PAU12@00AAV?$allocator@UH3CreatureBankSetup@h3@@@0@@Z 10004490 f i CreatureBanksExtender.obj
 0001:00003510       ??$_Resize_reallocate@U_Value_init_tag@std@@@?$vector@UH3CreatureBankSetup@h3@@V?$allocator@UH3CreatureBankSetup@h3@@@std@@@std@@AAEXIABU_Value_init_tag@1@@Z 10004510 f i CreatureBanksExtender.obj
 0001:00003640       ??$_Uninitialized_value_construct_n@V?$allocator@UH3CreatureBankSetup@h3@@@std@@@std@@YAPAUH3CreatureBankSetup@h3@@PAU12@IAAV?$allocator@UH3CreatureBankSetup@h3@@@0@@Z 10004640 f i CreatureBanksExtender.obj
 0001:000036b0       ??$_Resize_reallocate@U_Value_init_tag@std@@@?$vector@V?$array@H$04@std@@V?$allocator@V?$array@H$04@std@@@2@@std@@AAEXIABU_Value_init_tag@1@@Z 100046b0 f i CreatureBanksExtender.obj
 0001:00003780       ??$_Resize_reallocate@U_Value_init_tag@std@@@?$vector@HV?$allocator@H@std@@@std@@AAEXIABU_Value_init_tag@1@@Z 10004780 f i CreatureBanksExtender.obj
 0001:00003870       ??1?$_Uninitialized_backout_al@V?$allocator@UH3CreatureBankSetup@h3@@@std@@@std@@QAE@XZ 10004870 f i CreatureBanksExtender.obj
 0001:000038e0       ??$construct@UH3CreatureBankSetup@h3@@AAU12@@?$_Default_allocator_traits@V?$allocator@UH3CreatureBankSetup@h3@@@std@@@std@@SAXAAV?$allocator@UH3CreatureBankSetup@h3@@@1@QAUH3CreatureBankSetup@h3@@AAU34@@Z 100048e0 f i CreatureBanksExtender.obj
 0001:00003a20       ??$_Uninitialized_move@PAUH3CreatureBankSetup@h3@@V?$allocator@UH3CreatureBankSetup@h3@@@std@@@std@@YAPAUH3CreatureBankSetup@h3@@QAU12@0PAU12@AAV?$allocator@UH3CreatureBankSetup@h3@@@0@@Z 10004a20 f i CreatureBanksExtender.obj
 0001:00003bd0       ?Reserve@?$H3Vector@V?$array@H$01@std@@@h3@@QAEHI@Z 10004bd0 f i CreatureBanksExtender.obj
 0001:00003cc0       ?Choice@H3Messagebox@h3@@SAHABUH3String@2@ABUH3PictureCategories@2@11@Z 10004cc0 f i GazeboExtender.obj
 0001:00003d10       ?sprintf@libc@h3@@YAHPADPBDZZ 10004d10 f i WarehousesExtender.obj
 0001:00003d30       ??0exception@std@@QAE@QBD@Z 10004d30 f i ObjectsExtender.obj
 0001:00003d70       ??0runtime_error@std@@QAE@ABV01@@Z 10004d70 f i ObjectsExtender.obj
 0001:00003db0       ?default_error_condition@error_category@std@@UBE?AVerror_condition@2@H@Z 10004db0 f i ObjectsExtender.obj
 0001:00003dd0       ?equivalent@error_category@std@@UBE_NHABVerror_condition@2@@Z 10004dd0 f i ObjectsExtender.obj
 0001:00003e10       ?equivalent@error_category@std@@UBE_NABVerror_code@2@H@Z 10004e10 f i ObjectsExtender.obj
 0001:00003e40       ?make_error_code@std@@YA?AVerror_code@1@W4io_errc@1@@Z 10004e40 f i ObjectsExtender.obj
 0001:00003e60       ??0_System_error@std@@IAE@Verror_code@1@ABV?$basic_string@DU?$char_traits@D@std@@V?$allocator@D@2@@1@@Z 10004e60 f i ObjectsExtender.obj
 0001:00003ff0       ??_E_System_error@std@@UAEPAXI@Z 10004ff0 f i * CIL library *:* CIL module *
 0001:00003ff0       ??_Efailure@ios_base@std@@UAEPAXI@Z 10004ff0 f i * CIL library *:* CIL module *
 0001:00003ff0       ??_Esystem_error@std@@UAEPAXI@Z 10004ff0 f i * CIL library *:* CIL module *
 0001:00003ff0       ??_G_System_error@std@@UAEPAXI@Z 10004ff0 f i ObjectsExtender.obj
 0001:00003ff0       ??_Gfailure@ios_base@std@@UAEPAXI@Z 10004ff0 f i ObjectsExtender.obj
 0001:00003ff0       ??_Gsystem_error@std@@UAEPAXI@Z 10004ff0 f i ObjectsExtender.obj
 0001:00004020       ??0system_error@std@@QAE@ABV01@@Z 10005020 f i ObjectsExtender.obj
 0001:00004070       ??0_System_error@std@@QAE@ABV01@@Z 10005070 f i ObjectsExtender.obj
 0001:000040c0       ?name@_Iostream_error_category2@std@@UBEPBDXZ 100050c0 f i ObjectsExtender.obj
 0001:000040d0       ?message@_Iostream_error_category2@std@@UBE?AV?$basic_string@DU?$char_traits@D@std@@V?$allocator@D@2@@2@H@Z 100050d0 f i ObjectsExtender.obj
 0001:00004190       ??_E_Iostream_error_category2@std@@UAEPAXI@Z 10005190 f i * CIL library *:* CIL module *
 0001:00004190       ??_G_Iostream_error_category2@std@@UAEPAXI@Z 10005190 f i ObjectsExtender.obj
 0001:000041b0       ??0bad_cast@std@@QAE@XZ    100051b0 f i ObjectsExtender.obj
 0001:000041d0       ?_Throw_bad_cast@std@@YAXXZ 100051d0 f i ObjectsExtender.obj
 0001:000041f0       ??0bad_cast@std@@QAE@ABV01@@Z 100051f0 f i ObjectsExtender.obj
 0001:00004230       ??_E_Facet_base@std@@UAEPAXI@Z 10005230 f i * CIL library *:* CIL module *
 0001:00004230       ??_G_Facet_base@std@@UAEPAXI@Z 10005230 f i ObjectsExtender.obj
 0001:00004260       ?_Incref@facet@locale@std@@UAEXXZ 10005260 f i ObjectsExtender.obj
 0001:00004270       ?_Decref@facet@locale@std@@UAEPAV_Facet_base@3@XZ 10005270 f i ObjectsExtender.obj
 0001:00004290       ??1locale@std@@QAE@XZ      10005290 f i ObjectsExtender.obj
 0001:000042b0       ?_Getcat@?$ctype@D@std@@SAIPAPBVfacet@locale@2@PBV42@@Z 100052b0 f i ObjectsExtender.obj
 0001:00004470       ?do_tolower@?$ctype@D@std@@MBEDD@Z 10005470 f i ObjectsExtender.obj
 0001:00004490       ?do_tolower@?$ctype@D@std@@MBEPBDPADPBD@Z 10005490 f i ObjectsExtender.obj
 0001:000044c0       ?do_toupper@?$ctype@D@std@@MBEDD@Z 100054c0 f i ObjectsExtender.obj
 0001:000044e0       ?do_toupper@?$ctype@D@std@@MBEPBDPADPBD@Z 100054e0 f i ObjectsExtender.obj
 0001:00004510       ?do_widen@?$ctype@D@std@@MBEDD@Z 10005510 f i ObjectsExtender.obj
 0001:00004520       ?do_widen@?$ctype@D@std@@MBEPBDPBD0PAD@Z 10005520 f i ObjectsExtender.obj
 0001:00004540       ?do_narrow@?$ctype@D@std@@MBEDDD@Z 10005540 f i ObjectsExtender.obj
 0001:00004550       ?do_narrow@?$ctype@D@std@@MBEPBDPBD0DPAD@Z 10005550 f i ObjectsExtender.obj
 0001:00004570       ??_E?$ctype@D@std@@MAEPAXI@Z 10005570 f i * CIL library *:* CIL module *
 0001:00004570       ??_G?$ctype@D@std@@MAEPAXI@Z 10005570 f i ObjectsExtender.obj
 0001:000045d0       ??0failure@ios_base@std@@QAE@PBDABVerror_code@2@@Z 100055d0 f i ObjectsExtender.obj
 0001:000046b0       ?clear@ios_base@std@@QAEXH_N@Z 100056b0 f i ObjectsExtender.obj
 0001:00004730       ??0failure@ios_base@std@@QAE@ABV012@@Z 10005730 f i ObjectsExtender.obj
 0001:00004780       ??_Eios_base@std@@UAEPAXI@Z 10005780 f i * CIL library *:* CIL module *
 0001:00004780       ??_Gios_base@std@@UAEPAXI@Z 10005780 f i ObjectsExtender.obj
 0001:000047e0       ?GetEraModList@modList@@YAHAAV?$vector@V?$basic_string@DU?$char_traits@D@std@@V?$allocator@D@2@@std@@V?$allocator@V?$basic_string@DU?$char_traits@D@std@@V?$allocator@D@2@@std@@@2@@std@@H@Z 100057e0 f i ObjectsExtender.obj
 0001:00004d40       ??_D?$basic_istringstream@DU?$char_traits@D@std@@V?$allocator@D@2@@std@@QAEXXZ 10005d40 f i ObjectsExtender.obj
 0001:00004dd0       ??1?$unordered_set@IU?$hash@I@std@@U?$equal_to@I@2@V?$allocator@I@2@@std@@QAE@XZ 10005dd0 f i RMGObjectsEditor.obj
 0001:00004dd0       ??1?$unordered_set@PBDU?$hash@PBD@std@@U?$equal_to@PBD@2@V?$allocator@PBD@2@@std@@QAE@XZ 10005dd0 f i ObjectsExtender.obj
 0001:00004de0       ??1?$_Hash@V?$_Uset_traits@IV?$_Uhash_compare@IU?$hash@I@std@@U?$equal_to@I@2@@std@@V?$allocator@I@2@$0A@@std@@@std@@QAE@XZ 10005de0 f i RMGObjectsEditor.obj
 0001:00004de0       ??1?$_Hash@V?$_Uset_traits@PBDV?$_Uhash_compare@PBDU?$hash@PBD@std@@U?$equal_to@PBD@2@@std@@V?$allocator@PBD@2@$0A@@std@@@std@@QAE@XZ 10005de0 f i ObjectsExtender.obj
 0001:00004e70       ??1?$unordered_set@URMGObjectSetable@extender@@UHashFunction@12@U?$equal_to@URMGObjectSetable@extender@@@std@@V?$allocator@URMGObjectSetable@extender@@@5@@std@@QAE@XZ 10005e70 f i ObjectsExtender.obj
 0001:00004e80       ??1?$vector@UObjectSound@SoundManager@sound@@V?$allocator@UObjectSound@SoundManager@sound@@@std@@@std@@QAE@XZ 10005e80 f i ObjectsExtender.obj
 0001:00004ee0       ??1?$list@IV?$allocator@I@std@@@std@@QAE@XZ 10005ee0 f i RMGObjectsEditor.obj
 0001:00004ee0       ??1?$list@PBDV?$allocator@PBD@std@@@std@@QAE@XZ 10005ee0 f i ObjectsExtender.obj
 0001:00004f20       ??1?$vector@URMGObjectInfo@@V?$allocator@URMGObjectInfo@@@std@@@std@@QAE@XZ 10005f20 f i ObjectsExtender.obj
 0001:00004f90       ??0?$vector@URMGObjectInfo@@V?$allocator@URMGObjectInfo@@@std@@@std@@QAE@XZ 10005f90 f i ObjectsExtender.obj
 0001:00004fb0       ?seekpos@?$basic_stringbuf@DU?$char_traits@D@std@@V?$allocator@D@2@@std@@MAE?AV?$fpos@U_Mbstatet@@@2@V32@H@Z 10005fb0 f i ObjectsExtender.obj
 0001:00005120       ?seekoff@?$basic_stringbuf@DU?$char_traits@D@std@@V?$allocator@D@2@@std@@MAE?AV?$fpos@U_Mbstatet@@@2@_JHH@Z 10006120 f i ObjectsExtender.obj
 0001:00005310       ?underflow@?$basic_stringbuf@DU?$char_traits@D@std@@V?$allocator@D@2@@std@@MAEHXZ 10006310 f i ObjectsExtender.obj
 0001:00005380       ?pbackfail@?$basic_stringbuf@DU?$char_traits@D@std@@V?$allocator@D@2@@std@@MAEHH@Z 10006380 f i ObjectsExtender.obj
 0001:000053e0       ?overflow@?$basic_stringbuf@DU?$char_traits@D@std@@V?$allocator@D@2@@std@@MAEHH@Z 100063e0 f i ObjectsExtender.obj
 0001:00005540       ??1?$basic_stringbuf@DU?$char_traits@D@std@@V?$allocator@D@2@@std@@UAE@XZ 10006540 f i ObjectsExtender.obj
 0001:00005660       ?OnClose@H3Dlg@h3@@UAEXH@Z 10006660 f i RMG_SettingsDlg.obj
 0001:00005660       ?imbue@?$basic_streambuf@DU?$char_traits@D@std@@@std@@MAEXABVlocale@2@@Z 10006660 f i ObjectsExtender.obj
 0001:00005660       ?vParentActivate_10@H3Dlg@h3@@MAEXPAUH3DlgItem@2@@Z 10006660 f i RMG_SettingsDlg.obj
 0001:00005670       ?sync@?$basic_streambuf@DU?$char_traits@D@std@@@std@@MAEHXZ 10006670 f i ObjectsExtender.obj
 0001:00005670       ?vGetStatusBar@H3Dlg@h3@@MAEPAUH3DlgTextPcx@2@XZ 10006670 f i RMG_SettingsDlg.obj
 0001:00005680       ?setbuf@?$basic_streambuf@DU?$char_traits@D@std@@@std@@MAEPAV12@PAD_J@Z 10006680 f i ObjectsExtender.obj
 0001:00005690       ?seekpos@?$basic_streambuf@DU?$char_traits@D@std@@@std@@MAE?AV?$fpos@U_Mbstatet@@@2@V32@H@Z 10006690 f i ObjectsExtender.obj
 0001:000056c0       ?seekoff@?$basic_streambuf@DU?$char_traits@D@std@@@std@@MAE?AV?$fpos@U_Mbstatet@@@2@_JHH@Z 100066c0 f i ObjectsExtender.obj
 0001:000056f0       ?xsputn@?$basic_streambuf@DU?$char_traits@D@std@@@std@@MAE_JPBD_J@Z 100066f0 f i ObjectsExtender.obj
 0001:000057d0       ?xsgetn@?$basic_streambuf@DU?$char_traits@D@std@@@std@@MAE_JPAD_J@Z 100067d0 f i ObjectsExtender.obj
 0001:000058b0       ?uflow@?$basic_streambuf@DU?$char_traits@D@std@@@std@@MAEHXZ 100068b0 f i ObjectsExtender.obj
 0001:000058e0       ?underflow@?$basic_streambuf@DU?$char_traits@D@std@@@std@@MAEHXZ 100068e0 f i ObjectsExtender.obj
 0001:000058f0       ?showmanyc@?$basic_streambuf@DU?$char_traits@D@std@@@std@@MAE_JXZ 100068f0 f i ObjectsExtender.obj
 0001:00005900       ?overflow@?$basic_streambuf@DU?$char_traits@D@std@@@std@@MAEHH@Z 10006900 f i ObjectsExtender.obj
 0001:00005900       ?pbackfail@?$basic_streambuf@DU?$char_traits@D@std@@@std@@MAEHH@Z 10006900 f i ObjectsExtender.obj
 0001:00005910       ??1?$basic_streambuf@DU?$char_traits@D@std@@@std@@UAE@XZ 10006910 f i ObjectsExtender.obj
 0001:00005950       ??0?$basic_istringstream@DU?$char_traits@D@std@@V?$allocator@D@2@@std@@QAE@ABV?$basic_string@DU?$char_traits@D@std@@V?$allocator@D@2@@1@H@Z 10006950 f i ObjectsExtender.obj
 0001:00005c30       ??1?$basic_istream@DU?$char_traits@D@std@@@std@@UAE@XZ 10006c30 f i ObjectsExtender.obj
 0001:00005c50       ??1?$basic_ios@DU?$char_traits@D@std@@@std@@UAE@XZ 10006c50 f i ObjectsExtender.obj
 0001:00005ca0       ??1?$vector@V?$basic_string@DU?$char_traits@D@std@@V?$allocator@D@2@@std@@V?$allocator@V?$basic_string@DU?$char_traits@D@std@@V?$allocator@D@2@@std@@@2@@std@@QAE@XZ 10006ca0 f i ObjectsExtender.obj
 0001:00005d10       ??1?$_Yarn@D@std@@QAE@XZ   10006d10 f i ObjectsExtender.obj
 0001:00005d10       ??1?$_Yarn@_W@std@@QAE@XZ  10006d10 f i ObjectsExtender.obj
 0001:00005d30       ?find@?$basic_string@DU?$char_traits@D@std@@V?$allocator@D@2@@std@@QBEIQBDI@Z 10006d30 f i ObjectsExtender.obj
 0001:00005e40       ??_E?$basic_stringbuf@DU?$char_traits@D@std@@V?$allocator@D@2@@std@@UAEPAXI@Z 10006e40 f i * CIL library *:* CIL module *
 0001:00005e40       ??_G?$basic_stringbuf@DU?$char_traits@D@std@@V?$allocator@D@2@@std@@UAEPAXI@Z 10006e40 f i ObjectsExtender.obj
 0001:00005e70       ??_E?$basic_streambuf@DU?$char_traits@D@std@@@std@@UAEPAXI@Z 10006e70 f i * CIL library *:* CIL module *
 0001:00005e70       ??_G?$basic_streambuf@DU?$char_traits@D@std@@@std@@UAEPAXI@Z 10006e70 f i ObjectsExtender.obj
 0001:00005ec0       ??_E?$basic_istringstream@DU?$char_traits@D@std@@V?$allocator@D@2@@std@@UAEPAXI@Z 10006ec0 f i * CIL library *:* CIL module *
 0001:00005ec0       ??_G?$basic_istringstream@DU?$char_traits@D@std@@V?$allocator@D@2@@std@@UAEPAXI@Z 10006ec0 f i ObjectsExtender.obj
 0001:00005f60       ??_E?$basic_istream@DU?$char_traits@D@std@@@std@@UAEPAXI@Z 10006f60 f i * CIL library *:* CIL module *
 0001:00005f60       ??_G?$basic_istream@DU?$char_traits@D@std@@@std@@UAEPAXI@Z 10006f60 f i ObjectsExtender.obj
 0001:00005fe0       ??_E?$basic_ios@DU?$char_traits@D@std@@@std@@UAEPAXI@Z 10006fe0 f i * CIL library *:* CIL module *
 0001:00005fe0       ??_G?$basic_ios@DU?$char_traits@D@std@@@std@@UAEPAXI@Z 10006fe0 f i ObjectsExtender.obj
 0001:00006040       ??0?$fpos@U_Mbstatet@@@std@@QAE@_J@Z 10007040 f i ObjectsExtender.obj
 0001:00006070       ??0?$basic_ios@DU?$char_traits@D@std@@@std@@IAE@XZ 10007070 f i ObjectsExtender.obj
 0001:000060e0       ?append@?$basic_string@DU?$char_traits@D@std@@V?$allocator@D@2@@std@@QAEAAV12@QBDI@Z 100070e0 f i ObjectsExtender.obj
 0001:00006240       ?deallocate@?$allocator@V?$basic_string@DU?$char_traits@D@std@@V?$allocator@D@2@@std@@@std@@QAEXQAV?$basic_string@DU?$char_traits@D@std@@V?$allocator@D@2@@2@I@Z 10007240 f i ObjectsExtender.obj
 0001:00006280       ?setstate@?$basic_ios@DU?$char_traits@D@std@@@std@@QAEXH_N@Z 10007280 f i ObjectsExtender.obj
 0001:000062b0       ?_Xran@?$_String_val@U?$_Simple_types@D@std@@@std@@SAXXZ 100072b0 f i ObjectsExtender.obj
 0001:000062c0       ??$use_facet@V?$ctype@D@std@@@std@@YAABV?$ctype@D@0@ABVlocale@0@@Z 100072c0 f i ObjectsExtender.obj
 0001:000063e0       ??$getline@DU?$char_traits@D@std@@V?$allocator@D@2@@std@@YAAAV?$basic_istream@DU?$char_traits@D@std@@@0@AAV10@AAV?$basic_string@DU?$char_traits@D@std@@V?$allocator@D@2@@0@@Z 100073e0 f i ObjectsExtender.obj
 0001:00006480       ??$emplace@URMGObjectSetable@extender@@@?$_Hash@V?$_Uset_traits@URMGObjectSetable@extender@@V?$_Uhash_compare@URMGObjectSetable@extender@@UHashFunction@12@U?$equal_to@URMGObjectSetable@extender@@@std@@@std@@V?$allocator@URMGObjectSetable@extender@@@4@$0A@@std@@@std@@QAE?AU?$pair@V?$_List_const_iterator@V?$_List_val@U?$_List_simple_types@URMGObjectSetable@extender@@@std@@@std@@@std@@_N@1@$$QAURMGObjectSetable@extender@@@Z 10007480 f i ObjectsExtender.obj
 0001:00006620       ??$_Destroy_range@V?$allocator@V?$basic_string@DU?$char_traits@D@std@@V?$allocator@D@2@@std@@@std@@@std@@YAXPAV?$basic_string@DU?$char_traits@D@std@@V?$allocator@D@2@@0@QAV10@AAV?$allocator@V?$basic_string@DU?$char_traits@D@std@@V?$allocator@D@2@@std@@@0@@Z 10007620 f i ObjectsExtender.obj
 0001:00006680       ??1?$_Alloc_construct_ptr@V?$allocator@U?$_List_node@IPAX@std@@@std@@@std@@QAE@XZ 10007680 f i RMGObjectsEditor.obj
 0001:00006680       ??1?$_Alloc_construct_ptr@V?$allocator@U?$_List_node@PBDPAX@std@@@std@@@std@@QAE@XZ 10007680 f i ObjectsExtender.obj
 0001:00006680       ??1?$_List_node_emplace_op2@V?$allocator@U?$_List_node@IPAX@std@@@std@@@std@@QAE@XZ 10007680 f i RMGObjectsEditor.obj
 0001:00006680       ??1?$_List_node_emplace_op2@V?$allocator@U?$_List_node@PBDPAX@std@@@std@@@std@@QAE@XZ 10007680 f i ObjectsExtender.obj
 0001:000066a0       ??1?$unique_ptr@V_Facet_base@std@@U?$default_delete@V_Facet_base@std@@@2@@std@@QAE@XZ 100076a0 f i ObjectsExtender.obj
 0001:000066b0       ?_Rehash_for_1@?$_Hash@V?$_Uset_traits@PBDV?$_Uhash_compare@PBDU?$hash@PBD@std@@U?$equal_to@PBD@2@@std@@V?$allocator@PBD@2@$0A@@std@@@std@@IAEXXZ 100076b0 f i ObjectsExtender.obj
 0001:00006710       ?_Forced_rehash@?$_Hash@V?$_Uset_traits@URMGObjectSetable@extender@@V?$_Uhash_compare@URMGObjectSetable@extender@@UHashFunction@12@U?$equal_to@URMGObjectSetable@extender@@@std@@@std@@V?$allocator@URMGObjectSetable@extender@@@4@$0A@@std@@@std@@IAEXI@Z 10007710 f i ObjectsExtender.obj
 0001:00006850       ?_Assign_grow@?$_Hash_vec@V?$allocator@V?$_List_unchecked_const_iterator@V?$_List_val@U?$_List_simple_types@PBD@std@@@std@@U_Iterator_base0@2@@std@@@std@@@std@@QAEXIV?$_List_unchecked_const_iterator@V?$_List_val@U?$_List_simple_types@PBD@std@@@std@@U_Iterator_base0@2@@2@@Z 10007850 f i ObjectsExtender.obj
 0001:00006940       ?_Forced_rehash@?$_Hash@V?$_Uset_traits@PBDV?$_Uhash_compare@PBDU?$hash@PBD@std@@U?$equal_to@PBD@2@@std@@V?$allocator@PBD@2@$0A@@std@@@std@@IAEXI@Z 10007940 f i ObjectsExtender.obj
 0001:00006aa0       ??$getline@DU?$char_traits@D@std@@V?$allocator@D@2@@std@@YAAAV?$basic_istream@DU?$char_traits@D@std@@@0@$$QAV10@AAV?$basic_string@DU?$char_traits@D@std@@V?$allocator@D@2@@0@D@Z 10007aa0 f i ObjectsExtender.obj
 0001:00006d60       ??$_Emplace_reallocate@AAV?$basic_string@DU?$char_traits@D@std@@V?$allocator@D@2@@std@@@?$vector@V?$basic_string@DU?$char_traits@D@std@@V?$allocator@D@2@@std@@V?$allocator@V?$basic_string@DU?$char_traits@D@std@@V?$allocator@D@2@@std@@@2@@std@@AAEPAV?$basic_string@DU?$char_traits@D@std@@V?$allocator@D@2@@1@QAV21@AAV21@@Z 10007d60 f i ObjectsExtender.obj
 0001:00006f00       ??$_Emplace_reallocate@PAVObjectsExtender@extender@@@?$vector@PAVObjectsExtender@extender@@V?$allocator@PAVObjectsExtender@extender@@@std@@@std@@AAEPAPAVObjectsExtender@extender@@QAPAV23@$$QAPAV23@@Z 10007f00 f i ObjectsExtender.obj
 0001:00007080       ??$_Emplace_reallocate@AAPBD@?$vector@V?$basic_string@DU?$char_traits@D@std@@V?$allocator@D@2@@std@@V?$allocator@V?$basic_string@DU?$char_traits@D@std@@V?$allocator@D@2@@std@@@2@@std@@AAEPAV?$basic_string@DU?$char_traits@D@std@@V?$allocator@D@2@@1@QAV21@AAPBD@Z 10008080 f i ObjectsExtender.obj
 0001:00007260       ??$_Emplace_reallocate@AAURMGObjectInfo@@@?$vector@URMGObjectInfo@@V?$allocator@URMGObjectInfo@@@std@@@std@@AAEPAURMGObjectInfo@@QAU2@AAU2@@Z 10008260 f i ObjectsExtender.obj
 0001:00007380       ??$_Emplace_reallocate@UObjectSound@SoundManager@sound@@@?$vector@UObjectSound@SoundManager@sound@@V?$allocator@UObjectSound@SoundManager@sound@@@std@@@std@@AAEPAUObjectSound@SoundManager@sound@@QAU234@$$QAU234@@Z 10008380 f i ObjectsExtender.obj
 0001:000074e0       ??$?RURMGObjectSetable@extender@@@?$_Uhash_compare@URMGObjectSetable@extender@@UHashFunction@12@U?$equal_to@URMGObjectSetable@extender@@@std@@@std@@QBEIABURMGObjectSetable@extender@@@Z 100084e0 f i ObjectsExtender.obj
 0001:00007560       ??$_Find_last@URMGObjectSetable@extender@@@?$_Hash@V?$_Uset_traits@URMGObjectSetable@extender@@V?$_Uhash_compare@URMGObjectSetable@extender@@UHashFunction@12@U?$equal_to@URMGObjectSetable@extender@@@std@@@std@@V?$allocator@URMGObjectSetable@extender@@@4@$0A@@std@@@std@@IBE?AU?$_Hash_find_last_result@PAU?$_List_node@URMGObjectSetable@extender@@PAX@std@@@1@ABURMGObjectSetable@extender@@I@Z 10008560 f i ObjectsExtender.obj
 0001:000075d0       ??1sentry@?$basic_istream@DU?$char_traits@D@std@@@std@@QAE@XZ 100085d0 f i ObjectsExtender.obj
 0001:00007620       ??1_Sentry_base@?$basic_istream@DU?$char_traits@D@std@@@std@@QAE@XZ 10008620 f i ObjectsExtender.obj
 0001:00007620       ??1_Sentry_base@?$basic_ostream@DU?$char_traits@D@std@@@std@@QAE@XZ 10008620 f i ObjectsExtender.obj
 0001:00007660       ?_Change_array@?$vector@URMGObjectInfo@@V?$allocator@URMGObjectInfo@@@std@@@std@@AAEXQAURMGObjectInfo@@II@Z 10008660 f i ObjectsExtender.obj
 0001:000076e0       ?snextc@?$basic_streambuf@DU?$char_traits@D@std@@@std@@QAEHXZ 100086e0 f i ObjectsExtender.obj
 0001:00007750       ?_Change_array@?$vector@V?$basic_string@DU?$char_traits@D@std@@V?$allocator@D@2@@std@@V?$allocator@V?$basic_string@DU?$char_traits@D@std@@V?$allocator@D@2@@std@@@2@@std@@AAEXQAV?$basic_string@DU?$char_traits@D@std@@V?$allocator@D@2@@2@II@Z 10008750 f i ObjectsExtender.obj
 0001:000077d0       ?_Ipfx@?$basic_istream@DU?$char_traits@D@std@@@std@@QAE_N_N@Z 100087d0 f i ObjectsExtender.obj
 0001:00007860       ?flush@?$basic_ostream@DU?$char_traits@D@std@@@std@@QAEAAV12@XZ 10008860 f i ObjectsExtender.obj
 0001:000079a0       ??1sentry@?$basic_ostream@DU?$char_traits@D@std@@@std@@QAE@XZ 100089a0 f i ObjectsExtender.obj
 0001:00007a00       ?_Osfx@?$basic_ostream@DU?$char_traits@D@std@@@std@@QAEXXZ 10008a00 f i ObjectsExtender.obj
 0001:00007a80       ?Reserve@?$H3Vector@H@h3@@QAEHI@Z 10008a80 f i RMG_SettingsDlg.obj
 0001:00007a80       ?Reserve@?$H3Vector@PAUH3DlgItem@h3@@@h3@@QAEHI@Z 10008a80 f i RMG_SettingsDlg.obj
 0001:00007a80       ?Reserve@?$H3Vector@PAUH3RmgObjectGenerator@h3@@@h3@@QAEHI@Z 10008a80 f i ObjectsExtender.obj
 0001:00007a80       ?Reserve@?$H3Vector@PBD@h3@@QAEHI@Z 10008a80 f i ObjectsExtender.obj
 0001:00007b70       ??$_Uninitialized_move@PAV?$basic_string@DU?$char_traits@D@std@@V?$allocator@D@2@@std@@V?$allocator@V?$basic_string@DU?$char_traits@D@std@@V?$allocator@D@2@@std@@@2@@std@@YAPAV?$basic_string@DU?$char_traits@D@std@@V?$allocator@D@2@@0@QAV10@0PAV10@AAV?$allocator@V?$basic_string@DU?$char_traits@D@std@@V?$allocator@D@2@@std@@@0@@Z 10008b70 f i ObjectsExtender.obj
 0001:00007be0       ??$_Insert_range_unchecked@PAPBDPAPBD@?$_Hash@V?$_Uset_traits@PBDV?$_Uhash_compare@PBDU?$hash@PBD@std@@U?$equal_to@PBD@2@@std@@V?$allocator@PBD@2@$0A@@std@@@std@@IAEXPAPBDQAPBD@Z 10008be0 f i ObjectsExtender.obj
 0001:00007d90       ??$_Allocate_at_least_helper@V?$allocator@URMGObjectInfo@@@std@@@std@@YAPAURMGObjectInfo@@AAV?$allocator@URMGObjectInfo@@@0@AAI@Z 10008d90 f i ObjectsExtender.obj
 0001:00007de6       ??_E?$basic_istream@DU?$char_traits@D@std@@@std@@$4PPPPPPPM@A@AEPAXI@Z 10008de6 f i ObjectsExtender.obj
 0001:00007dee       ??_E?$basic_istringstream@DU?$char_traits@D@std@@V?$allocator@D@2@@std@@$4PPPPPPPM@A@AEPAXI@Z 10008dee f i ObjectsExtender.obj
 0001:00007e00       ??1thread@std@@QAE@XZ      10008e00 f i RMGObjectsEditor.obj
 0001:00007e10       ??_ERMGObjectsEditor@editor@@EAEPAXI@Z 10008e10 f i * CIL library *:* CIL module *
 0001:00007e10       ??_GRMGObjectsEditor@editor@@EAEPAXI@Z 10008e10 f i RMGObjectsEditor.obj
 0001:00007e40       ??1PseudoH3RmgRandomMapGenerator@editor@@QAE@XZ 10008e40 f i RMGObjectsEditor.obj
 0001:00007f10       ?resize@?$vector@URMGObjectInfo@@V?$allocator@URMGObjectInfo@@@std@@@std@@QAEXI@Z 10008f10 f i RMGObjectsEditor.obj
 0001:00007f80       ??0?$H3Vector@UH3ObjectAttributes@h3@@@h3@@QAE@XZ 10008f80 f i RMGObjectsEditor.obj
 0001:00007fa0       ??1?$H3Vector@UH3ObjectAttributes@h3@@@h3@@QAE@XZ 10008fa0 f i RMGObjectsEditor.obj
 0001:00008030       ??1?$H3Vector@PAUH3RmgObjectGenerator@h3@@@h3@@QAE@XZ 10009030 f i RMGObjectsEditor.obj
 0001:00008090       ??$fill@PAHH@std@@YAXQAH0ABH@Z 10009090 f i RMGObjectsEditor.obj
 0001:00008110       ??$swap@U?$H3Vector@PAUH3RmgObjectGenerator@h3@@@h3@@$0A@@std@@YAXAAU?$H3Vector@PAUH3RmgObjectGenerator@h3@@@h3@@0@Z 10009110 f i RMGObjectsEditor.obj
 0001:000081e0       ??$emplace@I@?$_Hash@V?$_Uset_traits@IV?$_Uhash_compare@IU?$hash@I@std@@U?$equal_to@I@2@@std@@V?$allocator@I@2@$0A@@std@@@std@@QAE?AU?$pair@V?$_List_const_iterator@V?$_List_val@U?$_List_simple_types@I@std@@@std@@@std@@_N@1@$$QAI@Z 100091e0 f i RMGObjectsEditor.obj
 0001:000083a0       ??$_Assign_counted_range@PAURMGObjectInfo@@@?$vector@URMGObjectInfo@@V?$allocator@URMGObjectInfo@@@std@@@std@@AAEXPAURMGObjectInfo@@I@Z 100093a0 f i RMGObjectsEditor.obj
 0001:00008550       ?_Forced_rehash@?$_Hash@V?$_Uset_traits@IV?$_Uhash_compare@IU?$hash@I@std@@U?$equal_to@I@2@@std@@V?$allocator@I@2@$0A@@std@@@std@@IAEXI@Z 10009550 f i RMGObjectsEditor.obj
 0001:000086b0       ??$?0PAD$0A@@?$basic_string@DU?$char_traits@D@std@@V?$allocator@D@2@@std@@QAE@PAD0ABV?$allocator@D@1@@Z 100096b0 f i RMGObjectsEditor.obj
 0001:00008770       ??$_Resize_reallocate@U_Value_init_tag@std@@@?$vector@URMGObjectInfo@@V?$allocator@URMGObjectInfo@@@std@@@std@@AAEXIABU_Value_init_tag@1@@Z 10009770 f i RMGObjectsEditor.obj
 0001:00008820       ??$_Uninitialized_value_construct_n@V?$allocator@URMGObjectInfo@@@std@@@std@@YAPAURMGObjectInfo@@PAU1@IAAV?$allocator@URMGObjectInfo@@@0@@Z 10009820 f i RMGObjectsEditor.obj
 0001:00008870       ??1?$unique_ptr@V?$tuple@P6AXPBF@ZPBF@std@@U?$default_delete@V?$tuple@P6AXPBF@ZPBF@std@@@2@@std@@QAE@XZ 10009870 f i RMGObjectsEditor.obj
 0001:00008890       ??$_Invoke@V?$tuple@P6AXPBF@ZPBF@std@@$0A@$00@thread@std@@CGIPAX@Z 10009890 f i RMGObjectsEditor.obj
 0001:000088f0       ??1H3BasePalette565@h3@@QAE@XZ 100098f0 f i RMG_SettingsDlg.obj
 0001:00008930       ?FrameRegion@H3LoadedPcx16@h3@@QAEHHHHHHHH@Z 10009930 f i RMG_SettingsDlg.obj
 0001:00008bd0       ?AddItem@H3BaseDlg@h3@@QAEPAUH3DlgItem@2@PAU32@H@Z 10009bd0 f i RMG_SettingsDlg.obj
 0001:00008c30       ?CreateText@H3BaseDlg@h3@@QAEPAUH3DlgText@2@HHHHPBD0HHW4eTextAlignment@NTextAlignment@NH3Dlg@2@H@Z 10009c30 f i RMG_SettingsDlg.obj
 0001:00008cf0       ??0H3Dlg@h3@@QAE@HHHHHHH@Z 10009cf0 f i RMG_SettingsDlg.obj
 0001:00008e50       ??1H3NetworkDlg@h3@@QAE@XZ 10009e50 f i RMG_SettingsDlg.obj
 0001:00008eb0       ??1H3Dlg@h3@@QAE@XZ        10009eb0 f i RMG_SettingsDlg.obj
 0001:00008f40       ?AddBackground@H3Dlg@h3@@QAEHHHHHHHHH@Z 10009f40 f i RMG_SettingsDlg.obj
 0001:00009170       ?vDestroy@H3Dlg@h3@@MAEPAU12@XZ 1000a170 f i RMG_SettingsDlg.obj
 0001:00009180       ?vShow@H3Dlg@h3@@MAEHHD@Z  1000a180 f i RMG_SettingsDlg.obj
 0001:00009190       ?vHide@H3Dlg@h3@@MAEHD@Z   1000a190 f i RMG_SettingsDlg.obj
 0001:000091a0       ?vPreProcess@H3Dlg@h3@@MAEHAAUH3Msg@2@@Z 1000a1a0 f i RMG_SettingsDlg.obj
 0001:000091b0       ?vRedraw@H3Dlg@h3@@MAEDDHH@Z 1000a1b0 f i RMG_SettingsDlg.obj
 0001:000091c0       ?vShowAndRun@H3Dlg@h3@@MAEHD@Z 1000a1c0 f i RMG_SettingsDlg.obj
 0001:000091d0       ?vInitiateItems@H3Dlg@h3@@MAEHXZ 1000a1d0 f i RMG_SettingsDlg.obj
 0001:000091e0       ?vActivateItems@H3Dlg@h3@@MAEHD@Z 1000a1e0 f i RMG_SettingsDlg.obj
 0001:000091f0       ?vOnMouseMove@H3Dlg@h3@@MAEDHH@Z 1000a1f0 f i RMG_SettingsDlg.obj
 0001:00009200       ?vOnRightClick@H3Dlg@h3@@MAEDH@Z 1000a200 f i RMG_SettingsDlg.obj
 0001:00009210       ?vOnLeftClick@H3Dlg@h3@@MAEDHAAD@Z 1000a210 f i RMG_SettingsDlg.obj
 0001:00009220       ?vEndDialogOnTimeExpired@H3Dlg@h3@@MAEHAAUH3Msg@2@@Z 1000a220 f i RMG_SettingsDlg.obj
 0001:00009230       ?vDialogProc@H3Dlg@h3@@MAEHAAUH3Msg@2@@Z 1000a230 f i RMG_SettingsDlg.obj
 0001:000094b0       ?OnDoubleClick@H3Dlg@h3@@UAEHHAAUH3Msg@2@@Z 1000a4b0 f i RMG_SettingsDlg.obj
 0001:000094b0       ?OnKeyHeld@H3Dlg@h3@@UAEHW4eVirtualKeys@NH3VKey@2@W4eMessageMsgFlag@NMessageMsgFlag@NH3Messages@2@@Z 1000a4b0 f i RMG_SettingsDlg.obj
 0001:000094b0       ?OnKeyPress@H3Dlg@h3@@UAEHW4eVirtualKeys@NH3VKey@2@W4eMessageMsgFlag@NMessageMsgFlag@NH3Messages@2@@Z 1000a4b0 f i RMG_SettingsDlg.obj
 0001:000094b0       ?OnLeftClick@H3Dlg@h3@@UAEHHAAUH3Msg@2@@Z 1000a4b0 f i RMG_SettingsDlg.obj
 0001:000094b0       ?OnMouseHover@H3Dlg@h3@@UAEHHH@Z 1000a4b0 f i RMG_SettingsDlg.obj
 0001:000094b0       ?OnNotify@H3Dlg@h3@@UAEHPAUH3DlgItem@2@AAUH3Msg@2@@Z 1000a4b0 f i RMG_SettingsDlg.obj
 0001:000094c0       ?DialogProc@H3Dlg@h3@@UAEHAAUH3Msg@2@@Z 1000a4c0 f i RMG_SettingsDlg.obj
 0001:000094c0       ?OnMouseHover@H3Dlg@h3@@UAEHPAUH3DlgItem@2@@Z 1000a4c0 f i RMG_SettingsDlg.obj
 0001:000094c0       ?OnMouseWheel@H3Dlg@h3@@UAEHH@Z 1000a4c0 f i RMG_SettingsDlg.obj
 0001:000094c0       ?OnRightClick@H3Dlg@h3@@UAEHPAUH3DlgItem@2@@Z 1000a4c0 f i RMG_SettingsDlg.obj
 0001:000094c0       ?OnWheelButton@H3Dlg@h3@@UAEHPAUH3DlgItem@2@@Z 1000a4c0 f i RMG_SettingsDlg.obj
 0001:000094d0       ?OnCreate@H3Dlg@h3@@UAEHXZ 1000a4d0 f i RMG_SettingsDlg.obj
 0001:000094d0       ?OnLeftClickOutside@H3Dlg@h3@@UAEHXZ 1000a4d0 f i RMG_SettingsDlg.obj
 0001:000094d0       ?OnRightClickOutside@H3Dlg@h3@@UAEHXZ 1000a4d0 f i RMG_SettingsDlg.obj
 0001:000094e0       ?ClickSound@H3SoundManager@h3@@QAEXXZ 1000a4e0 f i RMG_SettingsDlg.obj
 0001:00009520       ??_ERMG_SettingsDlg@rmgdlg@@EAEPAXI@Z 1000a520 f i * CIL library *:* CIL module *
 0001:00009520       ??_GRMG_SettingsDlg@rmgdlg@@EAEPAXI@Z 1000a520 f i RMG_SettingsDlg.obj
 0001:000095a0       ??_EBanksPage@RMG_SettingsDlg@rmgdlg@@UAEPAXI@Z 1000a5a0 f i * CIL library *:* CIL module *
 0001:000095a0       ??_GBanksPage@RMG_SettingsDlg@rmgdlg@@UAEPAXI@Z 1000a5a0 f i RMG_SettingsDlg.obj
 0001:000095d0       ??_EObjectsPanel@RMG_SettingsDlg@rmgdlg@@UAEPAXI@Z 1000a5d0 f i * CIL library *:* CIL module *
 0001:000095d0       ??_GObjectsPanel@RMG_SettingsDlg@rmgdlg@@UAEPAXI@Z 1000a5d0 f i RMG_SettingsDlg.obj
 0001:00009660       ??_EPage@RMG_SettingsDlg@rmgdlg@@UAEPAXI@Z 1000a660 f i * CIL library *:* CIL module *
 0001:00009660       ??_GPage@RMG_SettingsDlg@rmgdlg@@UAEPAXI@Z 1000a660 f i RMG_SettingsDlg.obj
 0001:00009690       ??_EObjectsPage@RMG_SettingsDlg@rmgdlg@@UAEPAXI@Z 1000a690 f i * CIL library *:* CIL module *
 0001:00009690       ??_GObjectsPage@RMG_SettingsDlg@rmgdlg@@UAEPAXI@Z 1000a690 f i RMG_SettingsDlg.obj
 0001:000096c0       ??_EMiscPage@RMG_SettingsDlg@rmgdlg@@UAEPAXI@Z 1000a6c0 f i * CIL library *:* CIL module *
 0001:000096c0       ??_GMiscPage@RMG_SettingsDlg@rmgdlg@@UAEPAXI@Z 1000a6c0 f i RMG_SettingsDlg.obj
 0001:000096f0       ??1?$array@V?$vector@HV?$allocator@H@std@@@std@@$03@std@@QAE@XZ 1000a6f0 f i RMG_SettingsDlg.obj
 0001:00009730       ??1?$vector@U?$pair@UH3ObjectAttributes@h3@@PAUH3LoadedPcx16@2@@std@@V?$allocator@U?$pair@UH3ObjectAttributes@h3@@PAUH3LoadedPcx16@2@@std@@@2@@std@@QAE@XZ 1000a730 f i RMG_SettingsDlg.obj
 0001:00009740       ??1?$vector@VRMGObject@rmgdlg@@V?$allocator@VRMGObject@rmgdlg@@@std@@@std@@QAE@XZ 1000a740 f i RMG_SettingsDlg.obj
 0001:00009750       ??0?$vector@HV?$allocator@H@std@@@std@@QAE@V?$initializer_list@H@1@ABV?$allocator@H@1@@Z 1000a750 f i RMG_SettingsDlg.obj
 0001:00009810       ?_Tidy@?$vector@U?$pair@UH3ObjectAttributes@h3@@PAUH3LoadedPcx16@2@@std@@V?$allocator@U?$pair@UH3ObjectAttributes@h3@@PAUH3LoadedPcx16@2@@std@@@2@@std@@AAEXXZ 1000a810 f i RMG_SettingsDlg.obj
 0001:000098d0       ?_Tidy@?$vector@VRMGObject@rmgdlg@@V?$allocator@VRMGObject@rmgdlg@@@std@@@std@@AAEXXZ 1000a8d0 f i RMG_SettingsDlg.obj
 0001:00009930       ?deallocate@?$allocator@U?$pair@UH3ObjectAttributes@h3@@PAUH3LoadedPcx16@2@@std@@@std@@QAEXQAU?$pair@UH3ObjectAttributes@h3@@PAUH3LoadedPcx16@2@@2@I@Z 1000a930 f i RMG_SettingsDlg.obj
 0001:00009970       ??1?$H3BinaryLoader@UH3LoadedDef@h3@@@h3@@QAE@XZ 1000a970 f i RMG_SettingsDlg.obj
 0001:00009970       ??1?$H3BinaryLoader@UH3LoadedPcx@h3@@@h3@@QAE@XZ 1000a970 f i RMG_SettingsDlg.obj
 0001:000099b0       ??$_Destroy_range@V?$allocator@U?$pair@UH3ObjectAttributes@h3@@PAUH3LoadedPcx16@2@@std@@@std@@@std@@YAXPAU?$pair@UH3ObjectAttributes@h3@@PAUH3LoadedPcx16@2@@0@QAU10@AAV?$allocator@U?$pair@UH3ObjectAttributes@h3@@PAUH3LoadedPcx16@2@@std@@@0@@Z 1000a9b0 f i RMG_SettingsDlg.obj
 0001:00009a10       ??$_Reallocate@$00@?$vector@U?$pair@UH3ObjectAttributes@h3@@PAUH3LoadedPcx16@2@@std@@V?$allocator@U?$pair@UH3ObjectAttributes@h3@@PAUH3LoadedPcx16@2@@std@@@2@@std@@AAEXAAI@Z 1000aa10 f i RMG_SettingsDlg.obj
 0001:00009a10       ??$_Reallocate@$0A@@?$vector@U?$pair@UH3ObjectAttributes@h3@@PAUH3LoadedPcx16@2@@std@@V?$allocator@U?$pair@UH3ObjectAttributes@h3@@PAUH3LoadedPcx16@2@@std@@@2@@std@@AAEXAAI@Z 1000aa10 f i RMG_SettingsDlg.obj
 0001:00009ab0       ??$_Assign_counted_range@PAU?$pair@UH3ObjectAttributes@h3@@PAUH3LoadedPcx16@2@@std@@@?$vector@U?$pair@UH3ObjectAttributes@h3@@PAUH3LoadedPcx16@2@@std@@V?$allocator@U?$pair@UH3ObjectAttributes@h3@@PAUH3LoadedPcx16@2@@std@@@2@@std@@AAEXPAU?$pair@UH3ObjectAttributes@h3@@PAUH3LoadedPcx16@2@@1@I@Z 1000aab0 f i RMG_SettingsDlg.obj
 0001:00009d50       ??$_Reallocate@$00@?$vector@VRMGObject@rmgdlg@@V?$allocator@VRMGObject@rmgdlg@@@std@@@std@@AAEXAAI@Z 1000ad50 f i RMG_SettingsDlg.obj
 0001:00009d50       ??$_Reallocate@$0A@@?$vector@VRMGObject@rmgdlg@@V?$allocator@VRMGObject@rmgdlg@@@std@@@std@@AAEXAAI@Z 1000ad50 f i RMG_SettingsDlg.obj
 0001:00009da0       ??0H3ObjectAttributes@h3@@QAE@$$QAU01@@Z 1000ada0 f i RMG_SettingsDlg.obj
 0001:00009e40       ?_Change_array@?$vector@U?$pair@UH3ObjectAttributes@h3@@PAUH3LoadedPcx16@2@@std@@V?$allocator@U?$pair@UH3ObjectAttributes@h3@@PAUH3LoadedPcx16@2@@std@@@2@@std@@AAEXQAU?$pair@UH3ObjectAttributes@h3@@PAUH3LoadedPcx16@2@@2@II@Z 1000ae40 f i RMG_SettingsDlg.obj
 0001:00009f10       ?allocate@?$allocator@U?$pair@UH3ObjectAttributes@h3@@PAUH3LoadedPcx16@2@@std@@@std@@QAEPAU?$pair@UH3ObjectAttributes@h3@@PAUH3LoadedPcx16@2@@2@I@Z 1000af10 f i RMG_SettingsDlg.obj
 0001:00009f70       ?_Change_array@?$vector@VRMGObject@rmgdlg@@V?$allocator@VRMGObject@rmgdlg@@@std@@@std@@AAEXQAVRMGObject@rmgdlg@@II@Z 1000af70 f i RMG_SettingsDlg.obj
 0001:00009fe0       ?allocate@?$allocator@VRMGObject@rmgdlg@@@std@@QAEPAVRMGObject@rmgdlg@@I@Z 1000afe0 f i RMG_SettingsDlg.obj
 0001:0000a190       ??$_Emplace_reallocate@ABUH3ObjectAttributes@h3@@ABQAUH3LoadedPcx16@2@@?$vector@VRMGObject@rmgdlg@@V?$allocator@VRMGObject@rmgdlg@@@std@@@std@@AAEPAVRMGObject@rmgdlg@@QAV23@ABUH3ObjectAttributes@h3@@ABQAUH3LoadedPcx16@5@@Z 1000b190 f i RMG_SettingsDlg.obj
 0001:0000a310       ??$_Emplace_reallocate@AAPAUH3DlgDef@h3@@@?$vector@PAUH3DlgDef@h3@@V?$allocator@PAUH3DlgDef@h3@@@std@@@std@@AAEPAPAUH3DlgDef@h3@@QAPAU23@AAPAU23@@Z 1000b310 f i RMG_SettingsDlg.obj
 0001:0000a310       ??$_Emplace_reallocate@PAUObjectsPanel@RMG_SettingsDlg@rmgdlg@@@?$vector@PAUObjectsPanel@RMG_SettingsDlg@rmgdlg@@V?$allocator@PAUObjectsPanel@RMG_SettingsDlg@rmgdlg@@@std@@@std@@AAEPAPAUObjectsPanel@RMG_SettingsDlg@rmgdlg@@QAPAU234@$$QAPAU234@@Z 1000b310 f i RMG_SettingsDlg.obj
 0001:0000a470       ??0H3ObjectAttributes@h3@@QAE@ABU01@@Z 1000b470 f i RMG_SettingsDlg.obj
 0001:0000a510       ??$_Emplace_reallocate@U?$pair@UH3ObjectAttributes@h3@@$$T@std@@@?$vector@U?$pair@UH3ObjectAttributes@h3@@PAUH3LoadedPcx16@2@@std@@V?$allocator@U?$pair@UH3ObjectAttributes@h3@@PAUH3LoadedPcx16@2@@std@@@2@@std@@AAEPAU?$pair@UH3ObjectAttributes@h3@@PAUH3LoadedPcx16@2@@1@QAU21@$$QAU?$pair@UH3ObjectAttributes@h3@@$$T@1@@Z 1000b510 f i RMG_SettingsDlg.obj
 0001:0000a670       ??$_Emplace_reallocate@AAU?$pair@UH3ObjectAttributes@h3@@PAUH3LoadedPcx16@2@@std@@@?$vector@U?$pair@UH3ObjectAttributes@h3@@PAUH3LoadedPcx16@2@@std@@V?$allocator@U?$pair@UH3ObjectAttributes@h3@@PAUH3LoadedPcx16@2@@std@@@2@@std@@AAEPAU?$pair@UH3ObjectAttributes@h3@@PAUH3LoadedPcx16@2@@1@QAU21@AAU21@@Z 1000b670 f i RMG_SettingsDlg.obj
 0001:0000a800       ??$?4U?$pair@UH3ObjectAttributes@h3@@PAUH3LoadedPcx16@2@@std@@$0A@@?$pair@UH3ObjectAttributes@h3@@PAUH3LoadedPcx16@2@@std@@QAEAAU01@ABU01@@Z 1000b800 f i RMG_SettingsDlg.obj
 0001:0000a890       ??$_Resize_reallocate@U_Value_init_tag@std@@@?$vector@PAUH3DlgCaptionButton@h3@@V?$allocator@PAUH3DlgCaptionButton@h3@@@std@@@std@@AAEXIABU_Value_init_tag@1@@Z 1000b890 f i RMG_SettingsDlg.obj
 0001:0000a9b0       ??1?$_Uninitialized_backout_al@V?$allocator@U?$pair@UH3ObjectAttributes@h3@@PAUH3LoadedPcx16@2@@std@@@std@@@std@@QAE@XZ 1000b9b0 f i RMG_SettingsDlg.obj
 0001:0000aa10       ??1?$unique_ptr@V?$tuple@P6AXXZ@std@@U?$default_delete@V?$tuple@P6AXXZ@std@@@2@@std@@QAE@XZ 1000ba10 f i RMG_SettingsDlg.obj
 0001:0000c870       ??$_Invoke@V?$tuple@P6AXXZ@std@@$0A@@thread@std@@CGIPAX@Z 1000d870 f i RMG_SettingsDlg.obj
 0001:0000cf86       ??0bad_alloc@std@@QAE@XZ   1000df86 f i libcpmt:xthrow.obj
 0001:0000cf9e       ??0length_error@std@@QAE@ABV01@@Z 1000df9e f i libcpmt:xthrow.obj
 0001:0000cfb9       ??0length_error@std@@QAE@PBD@Z 1000dfb9 f i libcpmt:xthrow.obj
 0001:0000cfd8       ??0logic_error@std@@QAE@ABV01@@Z 1000dfd8 f i libcpmt:xthrow.obj
 0001:0000cff3       ??0out_of_range@std@@QAE@ABV01@@Z 1000dff3 f i libcpmt:xthrow.obj
 0001:0000d00e       ??0out_of_range@std@@QAE@PBD@Z 1000e00e f i libcpmt:xthrow.obj
 0001:0000d02d       ??0runtime_error@std@@QAE@PBD@Z 1000e02d f i libcpmt:xthrow.obj
 0001:0000d04c       ??_E__non_rtti_object@std@@UAEPAXI@Z 1000e04c f i libvcruntime:rtti.obj
 0001:0000d04c       ??_Ebad_exception@std@@UAEPAXI@Z 1000e04c f i libvcruntime:frame.obj
 0001:0000d04c       ??_Ebad_typeid@std@@UAEPAXI@Z 1000e04c f i libvcruntime:rtti.obj
 0001:0000d04c       ??_Elength_error@std@@UAEPAXI@Z 1000e04c f i libcpmt:xthrow.obj
 0001:0000d04c       ??_Elogic_error@std@@UAEPAXI@Z 1000e04c f i libcpmt:xthrow.obj
 0001:0000d04c       ??_Eout_of_range@std@@UAEPAXI@Z 1000e04c f i libcpmt:xthrow.obj
 0001:0000d04c       ??_G__non_rtti_object@std@@UAEPAXI@Z 1000e04c f i libvcruntime:rtti.obj
 0001:0000d04c       ??_Gbad_exception@std@@UAEPAXI@Z 1000e04c f i libvcruntime:frame.obj
 0001:0000d04c       ??_Gbad_typeid@std@@UAEPAXI@Z 1000e04c f i libvcruntime:rtti.obj
 0001:0000d04c       ??_Glength_error@std@@UAEPAXI@Z 1000e04c f i libcpmt:xthrow.obj
 0001:0000d04c       ??_Glogic_error@std@@UAEPAXI@Z 1000e04c f i libcpmt:xthrow.obj
 0001:0000d04c       ??_Gout_of_range@std@@UAEPAXI@Z 1000e04c f i libcpmt:xthrow.obj
 0001:0000d079       ?_Xbad_alloc@std@@YAXXZ    1000e079 f   libcpmt:xthrow.obj
 0001:0000d079       ?__scrt_throw_std_bad_alloc@@YAXXZ 1000e079 f   LIBCMT:throw_bad_alloc.obj
 0001:0000d096       ?_Xlength_error@std@@YAXPBD@Z 1000e096 f   libcpmt:xthrow.obj
 0001:0000d0b6       ?_Xout_of_range@std@@YAXPBD@Z 1000e0b6 f   libcpmt:xthrow.obj
 0001:0000d0d6       ?_Xruntime_error@std@@YAXPBD@Z 1000e0d6 f   libcpmt:xthrow.obj
 0001:0000d0f6       ??0_Init_locks@std@@QAE@XZ 1000e0f6 f   libcpmt:xlock.obj
 0001:0000d123       ??0_Lockit@std@@QAE@H@Z    1000e123 f   libcpmt:xlock.obj
 0001:0000d154       ??1_Init_locks@std@@QAE@XZ 1000e154 f   libcpmt:xlock.obj
 0001:0000d17b       ??1_Lockit@std@@QAE@XZ     1000e17b f   libcpmt:xlock.obj
 0001:0000d19a       ??0_Locimp@locale@std@@AAE@_N@Z 1000e19a f i libcpmt:locale0.obj
 0001:0000d1db       ??1_Fac_node@std@@QAE@XZ   1000e1db f i libcpmt:locale0.obj
 0001:0000d20c       ??1_Fac_tidy_reg_t@std@@QAE@XZ 1000e20c f i libcpmt:locale0.obj
 0001:0000d230       ??1_Locimp@locale@std@@MAE@XZ 1000e230 f i libcpmt:locale0.obj
 0001:0000d25b       ??4?$_Yarn@D@std@@QAEAAV01@PBD@Z 1000e25b f i libcpmt:locale0.obj
 0001:0000d2af       ??_E_Locimp@locale@std@@MAEPAXI@Z 1000e2af f i libcpmt:locale0.obj
 0001:0000d2af       ??_G_Locimp@locale@std@@MAEPAXI@Z 1000e2af f i libcpmt:locale0.obj
 0001:0000d2d1       ?_Facet_Register@std@@YAXPAV_Facet_base@1@@Z 1000e2d1 f   libcpmt:locale0.obj
 0001:0000d2fe       ?_Getgloballocale@locale@std@@CAPAV_Locimp@12@XZ 1000e2fe f   libcpmt:locale0.obj
 0001:0000d304       ?_Init@locale@std@@CAPAV_Locimp@12@_N@Z 1000e304 f   libcpmt:locale0.obj
 0001:0000d391       ?_Locimp_dtor@_Locimp@locale@std@@CAXPAV123@@Z 1000e391 f   libcpmt:locale0.obj
 0001:0000d402       ?_Locinfo_ctor@_Locinfo@std@@SAXPAV12@PBD@Z 1000e402 f   libcpmt:locale0.obj
 0001:0000d44e       ?_Locinfo_dtor@_Locinfo@std@@SAXPAV12@@Z 1000e44e f   libcpmt:locale0.obj
 0001:0000d468       ?_New_Locimp@_Locimp@locale@std@@CAPAV123@_N@Z 1000e468 f   libcpmt:locale0.obj
 0001:0000d48b       ?_Setgloballocale@locale@std@@CAXPAX@Z 1000e48b f   libcpmt:locale0.obj
 0001:0000d4b3       __Deletegloballocale       1000e4b3 f   libcpmt:locale0.obj
 0001:0000d518       ?uncaught_exception@std@@YA_NXZ 1000e518 f   libcpmt:uncaught_exception.obj
 0001:0000d51d       ?_Callfns@ios_base@std@@AAEXW4event@12@@Z 1000e51d f i libcpmt:ios.obj
 0001:0000d550       ?_Ios_base_dtor@ios_base@std@@CAXPAV12@@Z 1000e550 f   libcpmt:ios.obj
 0001:0000d590       ?_Tidy@ios_base@std@@AAEXXZ 1000e590 f i libcpmt:ios.obj
 0001:0000d60b       ?_Syserror_map@std@@YAPBDH@Z 1000e60b f   libcpmt:syserror.obj
 0001:0000d630       __Getctype                 1000e630 f   libcpmt:_tolower.obj
 0001:0000d69b       __Tolower                  1000e69b f   libcpmt:_tolower.obj
 0001:0000d78a       __Toupper                  1000e78a f   libcpmt:_toupper.obj
 0001:0000d879       ??0system_error@std@@QAE@HABVerror_category@1@PBD@Z 1000e879 f i libcpmt:thread0.obj
 0001:0000d8c6       ??_E_Generic_error_category@std@@UAEPAXI@Z 1000e8c6 f i libcpmt:thread0.obj
 0001:0000d8c6       ??_G_Generic_error_category@std@@UAEPAXI@Z 1000e8c6 f i libcpmt:thread0.obj
 0001:0000d8e3       ?_Throw_Cpp_error@std@@YAXH@Z 1000e8e3 f   libcpmt:thread0.obj
 0001:0000d918       ?generic_category@std@@YAABVerror_category@1@XZ 1000e918 f i libcpmt:thread0.obj
 0001:0000d91e       ?message@_Generic_error_category@std@@UBE?AV?$basic_string@DU?$char_traits@D@std@@V?$allocator@D@2@@2@H@Z 1000e91e f i libcpmt:thread0.obj
 0001:0000d93b       ?name@_Generic_error_category@std@@UBEPBDXZ 1000e93b f i libcpmt:thread0.obj
 0001:0000d941       ?_Verify_ownership_levels@_Mutex_base@std@@IAE_NXZ 1000e941 f i libcpmt:xnotify.obj
 0001:0000d957       ?lock@_Mutex_base@std@@QAEXXZ 1000e957 f i libcpmt:xnotify.obj
 0001:0000d97e       __Cnd_do_broadcast_at_thread_exit 1000e97e f   libcpmt:xnotify.obj
 0001:0000da3f       __Thrd_detach              1000ea3f f   libcpmt:cthread.obj
 0001:0000da57       __Thrd_id                  1000ea57 f   libcpmt:cthread.obj
 0001:0000db50       ___std_find_trivial_4@12   1000eb50 f   libcpmt:vector_algorithms.obj
 0001:0000db59       __Mtxdst                   1000eb59 f   libcpmt:xmtx.obj
 0001:0000db67       __Mtxinit                  1000eb67 f   libcpmt:xmtx.obj
 0001:0000db7c       __Mtxlock                  1000eb7c f   libcpmt:xmtx.obj
 0001:0000db8a       __Mtxunlock                1000eb8a f   libcpmt:xmtx.obj
 0001:0000db98       ??1_Init_atexit@@QAE@XZ    1000eb98 f i libcpmt:iosptrs.obj
 0001:0000dc00       ?_Atexit@@YAXP6AXXZ@Z      1000ec00 f   libcpmt:iosptrs.obj
 0001:0000dc2f       ??1?$__crt_scoped_stack_ptr@_W@@QAE@XZ 1000ec2f f i libcpmt:StlLCMapStringA.obj
 0001:0000dc48       ___crtLCMapStringA         1000ec48 f   libcpmt:StlLCMapStringA.obj
 0001:0000de12       __freea_crt                1000ee12 f i libcpmt:StlLCMapStringA.obj
 0001:0000de30       __Mtx_lock                 1000ee30 f   libcpmt:mutex.obj
 0001:0000de41       __Mtx_unlock               1000ee41 f   libcpmt:mutex.obj
 0001:0000df8c       __Cnd_broadcast            1000ef8c f   libcpmt:cond.obj
 0001:0000dfa0       __Timespec64_get_sys       1000efa0 f   libcpmt:xtime.obj
 0001:0000dfde       __Xtime_get_ticks          1000efde f   libcpmt:xtime.obj
 0001:0000e039       ___crtGetSystemTimePreciseAsFileTime 1000f039 f   libcpmt:winapisupp.obj
 0001:0000e08e       ??_V@YAXPAX@Z              1000f08e f   LIBCMT:delete_array.obj
 0001:0000e093       ??_U@YAPAXI@Z              1000f093 f   LIBCMT:new_array.obj
 0001:0000e09c       ??2@YAPAXI@Z               1000f09c f   LIBCMT:new_scalar.obj
 0001:0000e0cc       ??3@YAXPAXI@Z              1000f0cc f   LIBCMT:delete_scalar_size.obj
 0001:0000e0da       ??_Etype_info@@UAEPAXI@Z   1000f0da f i LIBCMT:std_type_info_static.obj
 0001:0000e0da       ??_Gtype_info@@UAEPAXI@Z   1000f0da f i LIBCMT:std_type_info_static.obj
 0001:0000e13f       ___scrt_acquire_startup_lock 1000f13f f   LIBCMT:utility.obj
 0001:0000e171       ___scrt_dllmain_after_initialize_c 1000f171 f   LIBCMT:utility.obj
 0001:0000e19c       ___scrt_dllmain_before_initialize_c 1000f19c f   LIBCMT:utility.obj
 0001:0000e1aa       ___scrt_dllmain_crt_thread_attach 1000f1aa f   LIBCMT:utility.obj
 0001:0000e1c9       ___scrt_dllmain_crt_thread_detach 1000f1c9 f   LIBCMT:utility.obj
 0001:0000e1d6       ___scrt_dllmain_exception_filter 1000f1d6 f   LIBCMT:utility.obj
 0001:0000e20a       ___scrt_dllmain_uninitialize_c 1000f20a f   LIBCMT:utility.obj
 0001:0000e22d       ___scrt_dllmain_uninitialize_critical 1000f22d f   LIBCMT:utility.obj
 0001:0000e23a       ___scrt_initialize_crt     1000f23a f   LIBCMT:utility.obj
 0001:0000e273       ___scrt_initialize_onexit_tables 1000f273 f   LIBCMT:utility.obj
 0001:0000e2fa       ___scrt_is_nonwritable_in_current_image 1000f2fa f   LIBCMT:utility.obj
 0001:0000e38e       ___scrt_release_startup_lock 1000f38e f   LIBCMT:utility.obj
 0001:0000e3ab       ___scrt_uninitialize_crt   1000f3ab f   LIBCMT:utility.obj
 0001:0000e3d3       __onexit                   1000f3d3 f   LIBCMT:utility.obj
 0001:0000e401       _atexit                    1000f401 f   LIBCMT:utility.obj
 0001:0000e416       __Init_thread_abort        1000f416 f   LIBCMT:thread_safe_statics.obj
 0001:0000e441       __Init_thread_footer       1000f441 f   LIBCMT:thread_safe_statics.obj
 0001:0000e492       __Init_thread_header       1000f492 f   LIBCMT:thread_safe_statics.obj
 0001:0000e4e1       __Init_thread_wait_v2      1000f4e1 f   LIBCMT:thread_safe_statics.obj
 0001:0000e4f6       ??_M@YGXPAXIIP6EX0@Z@Z     1000f4f6 f   LIBCMT:ehvecdtr.obj
 0001:0000e57b       ?__ArrayUnwind@@YGXPAXIIP6EX0@Z@Z 1000f57b f   LIBCMT:ehvecdtr.obj
 0001:0000e60b       ??_L@YGXPAXIIP6EX0@Z1@Z    1000f60b f   LIBCMT:ehvecctr.obj
 0001:0000e9bd       __DllMainCRTStartup@12     1000f9bd f   LIBCMT:dll_dllmain.obj
 0001:0000e9e0       @__security_check_cookie@4 1000f9e0 f   LIBCMT:secchk.obj
 0001:0000e9ee       __EH_epilog3               1000f9ee f   LIBCMT:ehprolg3.obj
 0001:0000ea02       __EH_epilog3_GS            1000fa02 f   LIBCMT:ehprolg3.obj
 0001:0000ea11       __EH_prolog3               1000fa11 f   LIBCMT:ehprolg3.obj
 0001:0000ea44       __EH_prolog3_GS            1000fa44 f   LIBCMT:ehprolg3.obj
 0001:0000ea7a       __EH_prolog3_catch         1000fa7a f   LIBCMT:ehprolg3.obj
 0001:0000eab0       ___isa_available_init      1000fab0 f   LIBCMT:cpu_disp.obj
 0001:0000ede0       __alloca_probe_16          1000fde0 f   LIBCMT:alloca16.obj
 0001:0000edf6       __alloca_probe_8           1000fdf6     LIBCMT:alloca16.obj
 0001:0000ee10       __aulldiv                  1000fe10 f   LIBCMT:ulldiv.obj
 0001:0000ee80       __aullrem                  1000fe80 f   LIBCMT:ullrem.obj
 0001:0000ef00       __allmul                   1000ff00 f   LIBCMT:llmul.obj
 0001:0000ef34       ??3@YAXPAX@Z               1000ff34 f   LIBCMT:delete_scalar.obj
 0001:0000ef39       __get_startup_argv_mode    1000ff39 f   LIBCMT:argv_mode.obj
 0001:0000ef3d       ___scrt_is_ucrt_dll_in_use 1000ff3d f   LIBCMT:ucrt_detection.obj
 0001:0000ef49       ___scrt_fastfail           1000ff49 f   LIBCMT:utility_desktop.obj
 0001:0000f05e       __crt_debugger_hook        1001005e f   LIBCMT:utility_desktop.obj
 0001:0000f070       __SEH_prolog4              10010070 f   LIBCMT:sehprolg4.obj
 0001:0000f102       ___security_init_cookie    10010102 f   LIBCMT:gs_support.obj
 0001:0000f14d       ?__scrt_initialize_type_info@@YAXXZ 1001014d f   LIBCMT:tncleanup.obj
 0001:0000f159       ?__scrt_uninitialize_type_info@@YAXXZ 10010159 f   LIBCMT:tncleanup.obj
 0001:0000f165       ___local_stdio_scanf_options 10010165 f i LIBCMT:default_local_stdio_options.obj
 0001:0000f16b       ___scrt_initialize_default_local_stdio_options 1001016b f   LIBCMT:default_local_stdio_options.obj
 0001:0000f188       ___scrt_get_dyn_tls_init_callback 10010188 f   LIBCMT:dyn_tls_init.obj
 0001:0000f18e       __RTC_Initialize           1001018e f   LIBCMT:initsect.obj
 0001:0000f1ba       __RTC_Terminate            100101ba f   LIBCMT:initsect.obj
 0001:0000f1e6       ___raise_securityfailure   100101e6 f   LIBCMT:gs_report.obj
 0001:0000f20e       ___report_gsfailure        1001020e f   LIBCMT:gs_report.obj
 0001:0000f309       ___report_rangecheckfailure 10010309 f   LIBCMT:gs_report.obj
 0001:0000f316       ___report_securityfailure  10010316 f   LIBCMT:gs_report.obj
 0001:0000f3f0       __alloca_probe             100103f0 f   LIBCMT:chkstk.obj
 0001:0000f3f0       __chkstk                   100103f0 f   LIBCMT:chkstk.obj
 0001:0000f41b       ?GetRangeOfTrysToCheck@__FrameHandler3@@SA?AU?$pair@Viterator@TryBlockMap@__FrameHandler3@@V123@@std@@AAVTryBlockMap@1@HPAXPBU_s_FuncInfo@@H@Z 1001041b f   libvcruntime:trnsctrl.obj
 0001:0000f48a       ?_CallCatchBlock2@@YAPAXPAUEHRegistrationNode@@PBU_s_FuncInfo@@PAXHK@Z 1001048a f   libvcruntime:trnsctrl.obj
 0001:0000f4e7       ?_CallSETranslator@@YAHPAUEHExceptionRecord@@PAUEHRegistrationNode@@PAX2PBU_s_FuncInfo@@H1@Z 100104e7 f   libvcruntime:trnsctrl.obj
 0001:0000f5d7       ?_JumpToContinuation@@YGXPAXPAUEHRegistrationNode@@@Z 100105d7 f   libvcruntime:trnsctrl.obj
 0001:0000f607       ?_UnwindNestedFrames@@YGXPAUEHRegistrationNode@@PAUEHExceptionRecord@@@Z 10010607 f   libvcruntime:trnsctrl.obj
 0001:0000f65b       __CatchGuardHandler        1001065b f   libvcruntime:trnsctrl.obj
 0001:0000f68c       __CreateFrameInfo          1001068c f   libvcruntime:trnsctrl.obj
 0001:0000f6b0       __FindAndUnlinkFrame       100106b0 f   libvcruntime:trnsctrl.obj
 0001:0000f6f8       __TranslatorGuardHandler   100106f8 f   libvcruntime:trnsctrl.obj
 0001:0000f797       ___CxxFrameHandler3        10010797 f   libvcruntime:trnsctrl.obj
 0001:0000f7cd       ___DestructExceptionObject 100107cd f   libvcruntime:ehhelpers.obj
 0001:0000f86e       ?_CallMemberFunction0@@YGXQAX0@Z 1001086e f i libvcruntime:ehhelpers.obj
 0001:0000f8d3       __IsExceptionObjectToBeDestroyed 100108d3 f   libvcruntime:ehhelpers.obj
 0001:0000f8f9       ___AdjustPointer           100108f9 f   libvcruntime:ehhelpers.obj
 0001:0000f91e       ___FrameUnwindFilter       1001091e f   libvcruntime:ehhelpers.obj
 0001:0000f974       ___current_exception       10010974 f   libvcruntime:ehhelpers.obj
 0001:0000f97d       ___current_exception_context 1001097d f   libvcruntime:ehhelpers.obj
 0001:0000f986       ___std_terminate           10010986 f   libvcruntime:ehhelpers.obj
 0001:0000f98b       ___std_exception_copy      1001098b f   libvcruntime:std_exception.obj
 0001:0000f9ee       ___std_exception_destroy   100109ee f   libvcruntime:std_exception.obj
 0001:0000fa0d       __get_purecall_handler     10010a0d f   libvcruntime:purevirt.obj
 0001:0000fa14       __purecall                 10010a14 f   libvcruntime:purevirt.obj
 0001:0000fa30       __CxxThrowException@8      10010a30 f   libvcruntime:throw.obj
 0001:0000faa0       _memcpy                    10010aa0 f   libvcruntime:memcpy.obj
 0001:0000faa0       _memmove                   10010aa0 f   libvcruntime:memmove.obj
 0001:00010014       ___uncaught_exception      10011014 f   libvcruntime:uncaught_exception.obj
 0001:00010030       _memchr                    10011030 f   libvcruntime:memchr.obj
 0001:000100e0       _memset                    100110e0 f   libvcruntime:memset.obj
 0001:0001023a       _memcmp                    1001123a f   libvcruntime:memcmp.obj
 0001:000115fe       ___vcrt_initialize         100125fe f   libvcruntime:initialization.obj
 0001:0001161d       ___vcrt_thread_attach      1001261d f   libvcruntime:initialization.obj
 0001:00011628       ___vcrt_thread_detach      10012628 f   libvcruntime:initialization.obj
 0001:00011630       ___vcrt_uninitialize       10012630 f   libvcruntime:initialization.obj
 0001:00011647       ___vcrt_uninitialize_critical 10012647 f   libvcruntime:initialization.obj
 0001:00011690       __except_handler4          10012690 f   libvcruntime:chandler4.obj
 0001:000117ee       ___std_type_info_compare   100127ee f   libvcruntime:std_type_info.obj
 0001:0001182a       ___std_type_info_destroy_list 1001282a f   libvcruntime:std_type_info.obj
 0001:0001184d       ___vcrt_freefls@4          1001284d f   libvcruntime:per_thread_data.obj
 0001:00011869       ___vcrt_freeptd_for_this_thread 10012869 f   libvcruntime:per_thread_data.obj
 0001:00011894       ___vcrt_getptd             10012894 f   libvcruntime:per_thread_data.obj
 0001:000118a2       ___vcrt_getptd_noexit      100128a2 f   libvcruntime:per_thread_data.obj
 0001:00011934       ___vcrt_getptd_noinit      10012934 f   libvcruntime:per_thread_data.obj
 0001:0001196c       ___vcrt_initialize_ptd     1001296c f   libvcruntime:per_thread_data.obj
 0001:0001199f       ___vcrt_uninitialize_ptd   1001299f f   libvcruntime:per_thread_data.obj
 0001:000120eb       ??$TypeMatchHelper@V__FrameHandler3@@@@YAHPBU_s_HandlerType@@PBU_s_CatchableType@@PBU_s_ThrowInfo@@@Z 100130eb f i libvcruntime:frame.obj
 0001:00012179       ??$__InternalCxxFrameHandler@V__FrameHandler3@@@@YA?AW4_EXCEPTION_DISPOSITION@@PAUEHExceptionRecord@@PAUEHRegistrationNode@@PAU_CONTEXT@@PAXPBU_s_FuncInfo@@H1E@Z 10013179 f i libvcruntime:frame.obj
 0001:0001227b       ??$__InternalCxxFrameHandlerWrapper@V__FrameHandler3@@@@YA?AW4_EXCEPTION_DISPOSITION@@PAUEHExceptionRecord@@PAUEHRegistrationNode@@PAU_CONTEXT@@PAXPBU_s_FuncInfo@@H1E@Z 1001327b f i libvcruntime:frame.obj
 0001:00012284       ??0bad_exception@std@@QAE@ABV01@@Z 10013284 f i libvcruntime:frame.obj
 0001:0001229f       ??0bad_exception@std@@QAE@XZ 1001329f f i libvcruntime:frame.obj
 0001:000122b7       ??8type_info@@QBE_NABV0@@Z 100132b7 f i libvcruntime:frame.obj
 0001:0001252e       ?FrameUnwindToEmptyState@__FrameHandler3@@SAXPAUEHRegistrationNode@@PAXPBU_s_FuncInfo@@@Z 1001352e f   libvcruntime:frame.obj
 0001:00012546       ?FrameUnwindToState@__FrameHandler3@@SAXPAUEHRegistrationNode@@PAXPBU_s_FuncInfo@@H@Z 10013546 f   libvcruntime:frame.obj
 0001:000126c8       ?_CallMemberFunction1@@YGXQAX00@Z 100136c8 f i libvcruntime:frame.obj
 0001:000126d8       ?_CallMemberFunction2@@YGXQAX00H@Z 100136d8 f i libvcruntime:frame.obj
 0001:000126eb       ?getESTypes@__FrameHandler3@@SAPBU_s_ESTypeList@@PBU_s_FuncInfo@@@Z 100136eb f i libvcruntime:frame.obj
 0001:00012700       __CallSettingFrame@12      10013700 f   libvcruntime:lowhelpr.obj
 0001:00012727       __NLG_Return               10013727     libvcruntime:lowhelpr.obj
 0001:0001274c       ___except_validate_context_record 1001374c f   libvcruntime:jbcxrval.obj
 0001:0001277c       ___vcrt_initialize_locks   1001377c f   libvcruntime:locks.obj
 0001:000127b8       ___vcrt_uninitialize_locks 100137b8 f   libvcruntime:locks.obj
 0001:000127f0       __local_unwind4            100137f0 f   libvcruntime:exsup4.obj
 0001:000128e0       @_EH4_CallFilterFunc@8     100138e0 f   libvcruntime:exsup4.obj
 0001:00012900       @_EH4_TransferToHandler@8  10013900 f   libvcruntime:exsup4.obj
 0001:00012920       @_EH4_GlobalUnwind2@8      10013920 f   libvcruntime:exsup4.obj
 0001:00012940       @_EH4_LocalUnwind@16       10013940 f   libvcruntime:exsup4.obj
 0001:00012a42       ___vcrt_FlsAlloc           10013a42 f   libvcruntime:winapi_downlevel.obj
 0001:00012a7d       ___vcrt_FlsFree            10013a7d f   libvcruntime:winapi_downlevel.obj
 0001:00012ab8       ___vcrt_FlsGetValue        10013ab8 f   libvcruntime:winapi_downlevel.obj
 0001:00012af3       ___vcrt_FlsSetValue        10013af3 f   libvcruntime:winapi_downlevel.obj
 0001:00012b31       ___vcrt_InitializeCriticalSectionEx 10013b31 f   libvcruntime:winapi_downlevel.obj
 0001:00012b78       _unexpected                10013b78 f   libvcruntime:unexpected.obj
 0001:00012b95       ?GetCurrentState@__FrameHandler3@@SAHPAUEHRegistrationNode@@PAXPBU_s_FuncInfo@@@Z 10013b95 f   libvcruntime:ehstate.obj
 0001:00012bb2       ?SetState@__FrameHandler3@@SAXPAUEHRegistrationNode@@PBU_s_FuncInfo@@H@Z 10013bb2 f   libvcruntime:ehstate.obj
 0001:00012bc0       __NLG_Notify1              10013bc0 f   libvcruntime:exsup.obj
 0001:00012bd0       __NLG_Notify               10013bd0 f   libvcruntime:exsup.obj
 0001:00012be7       __NLG_Dispatch             10013be7     libvcruntime:exsup.obj
 0001:00012be7       __NLG_Dispatch2            10013be7     libvcruntime:exsup.obj
 0001:00012bf0       __NLG_Call                 10013bf0 f   libvcruntime:exsup.obj
 0001:00012bf2       __NLG_Return2              10013bf2     libvcruntime:exsup.obj
 0001:00012f7a       ??$count@D@formatting_buffer@__crt_stdio_output@@QBEIXZ 10013f7a f i libucrt:output.obj
 0001:00012f92       ??$ensure_buffer_is_big_enough@D@formatting_buffer@__crt_stdio_output@@QAE_NIAAV__crt_cached_ptd_host@@@Z 10013f92 f i libucrt:output.obj
 0001:00013013       ??$is_overflow_condition@K@__crt_strtox@@YA_NIK@Z 10014013 f i libucrt:output.obj
 0001:00013047       ??$is_wide_character_specifier@D@__crt_stdio_output@@YA_N_KDW4length_modifier@0@@Z 10014047 f i libucrt:output.obj
 0001:00013078       ??$parse_integer@KV?$c_string_character_source@D@__crt_strtox@@$0A@@__crt_strtox@@YAKAAV__crt_cached_ptd_host@@V?$c_string_character_source@D@0@H_N@Z 10014078 f i libucrt:output.obj
 0001:00013287       ??$scratch_data@D@formatting_buffer@__crt_stdio_output@@QAEPADXZ 10014287 f i libucrt:output.obj
 0001:000132a5       ??$type_case_integer@$07@?$output_processor@DV?$string_output_adapter@D@__crt_stdio_output@@V?$format_validation_base@DV?$string_output_adapter@D@__crt_stdio_output@@@2@@__crt_stdio_output@@AAE_N_N@Z 100142a5 f i libucrt:output.obj
 0001:000132a5       ??$type_case_integer@$07@?$output_processor@DV?$string_output_adapter@D@__crt_stdio_output@@V?$standard_base@DV?$string_output_adapter@D@__crt_stdio_output@@@2@@__crt_stdio_output@@AAE_N_N@Z 100142a5 f i libucrt:output.obj
 0001:00013432       ??$type_case_integer@$09@?$output_processor@DV?$string_output_adapter@D@__crt_stdio_output@@V?$format_validation_base@DV?$string_output_adapter@D@__crt_stdio_output@@@2@@__crt_stdio_output@@AAE_N_N@Z 10014432 f i libucrt:output.obj
 0001:00013432       ??$type_case_integer@$09@?$output_processor@DV?$string_output_adapter@D@__crt_stdio_output@@V?$standard_base@DV?$string_output_adapter@D@__crt_stdio_output@@@2@@__crt_stdio_output@@AAE_N_N@Z 10014432 f i libucrt:output.obj
 0001:000135bf       ??$type_case_integer@$0BA@@?$output_processor@DV?$string_output_adapter@D@__crt_stdio_output@@V?$format_validation_base@DV?$string_output_adapter@D@__crt_stdio_output@@@2@@__crt_stdio_output@@AAE_N_N@Z 100145bf f i libucrt:output.obj
 0001:000135bf       ??$type_case_integer@$0BA@@?$output_processor@DV?$string_output_adapter@D@__crt_stdio_output@@V?$standard_base@DV?$string_output_adapter@D@__crt_stdio_output@@@2@@__crt_stdio_output@@AAE_N_N@Z 100145bf f i libucrt:output.obj
 0001:0001374c       ??$type_case_integer_parse_into_buffer@I$07@?$output_processor@DV?$string_output_adapter@D@__crt_stdio_output@@V?$format_validation_base@DV?$string_output_adapter@D@__crt_stdio_output@@@2@@__crt_stdio_output@@AAEXI_N@Z 1001474c f i libucrt:output.obj
 0001:0001374c       ??$type_case_integer_parse_into_buffer@I$07@?$output_processor@DV?$string_output_adapter@D@__crt_stdio_output@@V?$standard_base@DV?$string_output_adapter@D@__crt_stdio_output@@@2@@__crt_stdio_output@@AAEXI_N@Z 1001474c f i libucrt:output.obj
 0001:000137af       ??$type_case_integer_parse_into_buffer@I$09@?$output_processor@DV?$string_output_adapter@D@__crt_stdio_output@@V?$format_validation_base@DV?$string_output_adapter@D@__crt_stdio_output@@@2@@__crt_stdio_output@@AAEXI_N@Z 100147af f i libucrt:output.obj
 0001:000137af       ??$type_case_integer_parse_into_buffer@I$09@?$output_processor@DV?$string_output_adapter@D@__crt_stdio_output@@V?$standard_base@DV?$string_output_adapter@D@__crt_stdio_output@@@2@@__crt_stdio_output@@AAEXI_N@Z 100147af f i libucrt:output.obj
 0001:00013836       ??$type_case_integer_parse_into_buffer@I$0BA@@?$output_processor@DV?$string_output_adapter@D@__crt_stdio_output@@V?$format_validation_base@DV?$string_output_adapter@D@__crt_stdio_output@@@2@@__crt_stdio_output@@AAEXI_N@Z 10014836 f i libucrt:output.obj
 0001:00013836       ??$type_case_integer_parse_into_buffer@I$0BA@@?$output_processor@DV?$string_output_adapter@D@__crt_stdio_output@@V?$standard_base@DV?$string_output_adapter@D@__crt_stdio_output@@@2@@__crt_stdio_output@@AAEXI_N@Z 10014836 f i libucrt:output.obj
 0001:000138b3       ??$type_case_integer_parse_into_buffer@_K$07@?$output_processor@DV?$string_output_adapter@D@__crt_stdio_output@@V?$format_validation_base@DV?$string_output_adapter@D@__crt_stdio_output@@@2@@__crt_stdio_output@@AAEX_K_N@Z 100148b3 f i libucrt:output.obj
 0001:000138b3       ??$type_case_integer_parse_into_buffer@_K$07@?$output_processor@DV?$string_output_adapter@D@__crt_stdio_output@@V?$standard_base@DV?$string_output_adapter@D@__crt_stdio_output@@@2@@__crt_stdio_output@@AAEX_K_N@Z 100148b3 f i libucrt:output.obj
 0001:0001392b       ??$type_case_integer_parse_into_buffer@_K$09@?$output_processor@DV?$string_output_adapter@D@__crt_stdio_output@@V?$format_validation_base@DV?$string_output_adapter@D@__crt_stdio_output@@@2@@__crt_stdio_output@@AAEX_K_N@Z 1001492b f i libucrt:output.obj
 0001:0001392b       ??$type_case_integer_parse_into_buffer@_K$09@?$output_processor@DV?$string_output_adapter@D@__crt_stdio_output@@V?$standard_base@DV?$string_output_adapter@D@__crt_stdio_output@@@2@@__crt_stdio_output@@AAEX_K_N@Z 1001492b f i libucrt:output.obj
 0001:000139d2       ??$type_case_integer_parse_into_buffer@_K$0BA@@?$output_processor@DV?$string_output_adapter@D@__crt_stdio_output@@V?$format_validation_base@DV?$string_output_adapter@D@__crt_stdio_output@@@2@@__crt_stdio_output@@AAEX_K_N@Z 100149d2 f i libucrt:output.obj
 0001:000139d2       ??$type_case_integer_parse_into_buffer@_K$0BA@@?$output_processor@DV?$string_output_adapter@D@__crt_stdio_output@@V?$standard_base@DV?$string_output_adapter@D@__crt_stdio_output@@@2@@__crt_stdio_output@@AAEX_K_N@Z 100149d2 f i libucrt:output.obj
 0001:00013a5c       ??0?$output_adapter_data@DV?$string_output_adapter@D@__crt_stdio_output@@@__crt_stdio_output@@IAE@ABV?$string_output_adapter@D@1@_KQBDAAV__crt_cached_ptd_host@@QAD@Z 10014a5c f i libucrt:output.obj
 0001:00013ad0       ??0__crt_cached_ptd_host@@QAE@QAU__crt_locale_pointers@@@Z 10014ad0 f i libucrt:output.obj
 0001:00013b30       ??1__crt_cached_ptd_host@@QAE@XZ 10014b30 f i libucrt:output.obj
 0001:00013b6c       ??1formatting_buffer@__crt_stdio_output@@QAE@XZ 10014b6c f i libucrt:output.obj
 0001:00013b86       ??4?$__crt_unique_heap_ptr@DU__crt_internal_free_policy@@@@QAEAAV0@$$QAV0@@Z 10014b86 f i libucrt:output.obj
 0001:00013baa       ?crop_zeroes@__crt_stdio_output@@YAXPADQAU__crt_locale_pointers@@@Z 10014baa f i libucrt:output.obj
 0001:00013c0a       ?find_next_state@?$output_processor@DV?$string_output_adapter@D@__crt_stdio_output@@V?$format_validation_base@DV?$string_output_adapter@D@__crt_stdio_output@@@2@@__crt_stdio_output@@ABE?AW4state@2@DW432@@Z 10014c0a f i libucrt:output.obj
 0001:00013c47       ?find_next_state@?$output_processor@DV?$string_output_adapter@D@__crt_stdio_output@@V?$standard_base@DV?$string_output_adapter@D@__crt_stdio_output@@@2@@__crt_stdio_output@@ABE?AW4state@2@DW432@@Z 10014c47 f i libucrt:output.obj
 0001:00013c82       ?force_decimal_point@__crt_stdio_output@@YAXPADQAU__crt_locale_pointers@@@Z 10014c82 f i libucrt:output.obj
 0001:00013ce0       ?force_synchronize_per_thread_data@__crt_cached_ptd_host@@AAEPAU__acrt_ptd@@XZ 10014ce0 f i libucrt:output.obj
 0001:00013d30       ?get_raw_ptd@__crt_cached_ptd_host@@QAEPAU__acrt_ptd@@XZ 10014d30 f i libucrt:output.obj
 0001:00013d8c       ?parse_int_from_format_string@?$output_processor@DV?$string_output_adapter@D@__crt_stdio_output@@V?$format_validation_base@DV?$string_output_adapter@D@__crt_stdio_output@@@2@@__crt_stdio_output@@AAE_NQAH@Z 10014d8c f i libucrt:output.obj
 0001:00013d8c       ?parse_int_from_format_string@?$output_processor@DV?$string_output_adapter@D@__crt_stdio_output@@V?$standard_base@DV?$string_output_adapter@D@__crt_stdio_output@@@2@@__crt_stdio_output@@AAE_NQAH@Z 10014d8c f i libucrt:output.obj
 0001:00013e04       ?process@?$output_processor@DV?$string_output_adapter@D@__crt_stdio_output@@V?$format_validation_base@DV?$string_output_adapter@D@__crt_stdio_output@@@2@@__crt_stdio_output@@QAEHXZ 10014e04 f i libucrt:output.obj
 0001:000140e8       ?process@?$output_processor@DV?$string_output_adapter@D@__crt_stdio_output@@V?$standard_base@DV?$string_output_adapter@D@__crt_stdio_output@@@2@@__crt_stdio_output@@QAEHXZ 100150e8 f i libucrt:output.obj
 0001:000143bc       ?state_case_size@?$output_processor@DV?$string_output_adapter@D@__crt_stdio_output@@V?$format_validation_base@DV?$string_output_adapter@D@__crt_stdio_output@@@2@@__crt_stdio_output@@AAE_NXZ 100153bc f i libucrt:output.obj
 0001:000143bc       ?state_case_size@?$output_processor@DV?$string_output_adapter@D@__crt_stdio_output@@V?$standard_base@DV?$string_output_adapter@D@__crt_stdio_output@@@2@@__crt_stdio_output@@AAE_NXZ 100153bc f i libucrt:output.obj
 0001:00014515       ?state_case_type@?$output_processor@DV?$string_output_adapter@D@__crt_stdio_output@@V?$format_validation_base@DV?$string_output_adapter@D@__crt_stdio_output@@@2@@__crt_stdio_output@@AAE_NXZ 10015515 f i libucrt:output.obj
 0001:00014515       ?state_case_type@?$output_processor@DV?$string_output_adapter@D@__crt_stdio_output@@V?$standard_base@DV?$string_output_adapter@D@__crt_stdio_output@@@2@@__crt_stdio_output@@AAE_NXZ 10015515 f i libucrt:output.obj
 0001:00014874       ?to_integer_size@__crt_stdio_output@@YAIW4length_modifier@1@@Z 10015874 f i libucrt:output.obj
 0001:000148c8       ?type_case_Z@?$output_processor@DV?$string_output_adapter@D@__crt_stdio_output@@V?$format_validation_base@DV?$string_output_adapter@D@__crt_stdio_output@@@2@@__crt_stdio_output@@AAE_NXZ 100158c8 f i libucrt:output.obj
 0001:000148c8       ?type_case_Z@?$output_processor@DV?$string_output_adapter@D@__crt_stdio_output@@V?$standard_base@DV?$string_output_adapter@D@__crt_stdio_output@@@2@@__crt_stdio_output@@AAE_NXZ 100158c8 f i libucrt:output.obj
 0001:0001492b       ?type_case_a@?$output_processor@DV?$string_output_adapter@D@__crt_stdio_output@@V?$format_validation_base@DV?$string_output_adapter@D@__crt_stdio_output@@@2@@__crt_stdio_output@@AAE_NXZ 1001592b f i libucrt:output.obj
 0001:0001492b       ?type_case_a@?$output_processor@DV?$string_output_adapter@D@__crt_stdio_output@@V?$standard_base@DV?$string_output_adapter@D@__crt_stdio_output@@@2@@__crt_stdio_output@@AAE_NXZ 1001592b f i libucrt:output.obj
 0001:00014abc       ?type_case_c_tchar@?$output_processor@DV?$string_output_adapter@D@__crt_stdio_output@@V?$format_validation_base@DV?$string_output_adapter@D@__crt_stdio_output@@@2@@__crt_stdio_output@@AAE_ND@Z 10015abc f i libucrt:output.obj
 0001:00014abc       ?type_case_c_tchar@?$output_processor@DV?$string_output_adapter@D@__crt_stdio_output@@V?$standard_base@DV?$string_output_adapter@D@__crt_stdio_output@@@2@@__crt_stdio_output@@AAE_ND@Z 10015abc f i libucrt:output.obj
 0001:00014b51       ?type_case_n@?$output_processor@DV?$string_output_adapter@D@__crt_stdio_output@@V?$format_validation_base@DV?$string_output_adapter@D@__crt_stdio_output@@@2@@__crt_stdio_output@@AAE_NXZ 10015b51 f i libucrt:output.obj
 0001:00014b51       ?type_case_n@?$output_processor@DV?$string_output_adapter@D@__crt_stdio_output@@V?$standard_base@DV?$string_output_adapter@D@__crt_stdio_output@@@2@@__crt_stdio_output@@AAE_NXZ 10015b51 f i libucrt:output.obj
 0001:00014bd6       ?type_case_o@?$output_processor@DV?$string_output_adapter@D@__crt_stdio_output@@V?$format_validation_base@DV?$string_output_adapter@D@__crt_stdio_output@@@2@@__crt_stdio_output@@AAE_NXZ 10015bd6 f i libucrt:output.obj
 0001:00014bd6       ?type_case_o@?$output_processor@DV?$string_output_adapter@D@__crt_stdio_output@@V?$standard_base@DV?$string_output_adapter@D@__crt_stdio_output@@@2@@__crt_stdio_output@@AAE_NXZ 10015bd6 f i libucrt:output.obj
 0001:00014bf3       ?type_case_p@?$output_processor@DV?$string_output_adapter@D@__crt_stdio_output@@V?$format_validation_base@DV?$string_output_adapter@D@__crt_stdio_output@@@2@@__crt_stdio_output@@AAE_NXZ 10015bf3 f i libucrt:output.obj
 0001:00014bf3       ?type_case_p@?$output_processor@DV?$string_output_adapter@D@__crt_stdio_output@@V?$standard_base@DV?$string_output_adapter@D@__crt_stdio_output@@@2@@__crt_stdio_output@@AAE_NXZ 10015bf3 f i libucrt:output.obj
 0001:00014c09       ?type_case_s@?$output_processor@DV?$string_output_adapter@D@__crt_stdio_output@@V?$format_validation_base@DV?$string_output_adapter@D@__crt_stdio_output@@@2@@__crt_stdio_output@@AAE_NXZ 10015c09 f i libucrt:output.obj
 0001:00014c09       ?type_case_s@?$output_processor@DV?$string_output_adapter@D@__crt_stdio_output@@V?$standard_base@DV?$string_output_adapter@D@__crt_stdio_output@@@2@@__crt_stdio_output@@AAE_NXZ 10015c09 f i libucrt:output.obj
 0001:00014c7b       ?unget@?$c_string_character_source@D@__crt_strtox@@QAEXD@Z 10015c7b f i libucrt:output.obj
 0001:00014ca4       ?unget@?$c_string_character_source@_W@__crt_strtox@@QAEX_W@Z 10015ca4 f i libucrt:output.obj
 0001:00014ce0       ?update_locale_slow@__crt_cached_ptd_host@@AAEXXZ 10015ce0 f i libucrt:output.obj
 0001:00014d3b       ?validate@?$c_string_character_source@D@__crt_strtox@@QBE_NXZ 10015d3b f i libucrt:output.obj
 0001:00014d3b       ?validate@?$c_string_character_source@_W@__crt_strtox@@QBE_NXZ 10015d3b f i libucrt:output.obj
 0001:00014d56       ?validate@?$string_output_adapter@D@__crt_stdio_output@@QBE_NAAV__crt_cached_ptd_host@@@Z 10015d56 f i libucrt:output.obj
 0001:00014d87       ?write_string@?$string_output_adapter@D@__crt_stdio_output@@QBEXQBDHQAHAAV__crt_cached_ptd_host@@@Z 10015d87 f i libucrt:output.obj
 0001:00014dee       ___acrt_locale_get_ctype_array_value 10015dee f i libucrt:output.obj
 0001:00014e10       ___stdio_common_vsprintf   10015e10 f   libucrt:output.obj
 0001:00014e51       ___stdio_common_vsprintf_s 10015e51 f   libucrt:output.obj
 0001:00014e92       ?check_synchronize_global_state_index@__crt_cached_ptd_host@@AAEIXZ 10015e92 f i libucrt:invalid_parameter.obj
 0001:00014ebb       ___acrt_call_reportfault   10015ebb f   libucrt:invalid_parameter.obj
 0001:00014ff7       ___acrt_initialize_invalid_parameter_handler 10015ff7 f   libucrt:invalid_parameter.obj
 0001:00015006       __invalid_parameter        10016006 f   libucrt:invalid_parameter.obj
 0001:0001503d       __invalid_parameter_internal 1001603d f   libucrt:invalid_parameter.obj
 0001:000150ba       __invalid_parameter_noinfo 100160ba f   libucrt:invalid_parameter.obj
 0001:000150ca       __invalid_parameter_noinfo_noreturn 100160ca f   libucrt:invalid_parameter.obj
 0001:000150e7       __invoke_watson            100160e7 f   libucrt:invalid_parameter.obj
 0001:0001511b       ??0_LocaleUpdate@@QAE@QAU__crt_locale_pointers@@@Z 1001611b f i libucrt:tolower_toupper.obj
 0001:0001519d       __tolower_l                1001619d f   libucrt:tolower_toupper.obj
 0001:0001529b       _tolower                   1001629b f   libucrt:tolower_toupper.obj
 0001:000152cb       ??$parse_integer@KV?$c_string_character_source@D@__crt_strtox@@$00@__crt_strtox@@YAKAAV__crt_cached_ptd_host@@V?$c_string_character_source@D@0@H_N@Z 100162cb f i libucrt:atox.obj
 0001:00015512       ??$parse_integer@KV?$c_string_character_source@_W@__crt_strtox@@$00@__crt_strtox@@YAKAAV__crt_cached_ptd_host@@V?$c_string_character_source@_W@0@H_N@Z 10016512 f i libucrt:atox.obj
 0001:00015b20       __ischartype_l             10016b20 f i libucrt:atox.obj
 0001:00015b77       __wtol                     10016b77 f   libucrt:atox.obj
 0001:00015bb6       _atoi                      10016bb6 f   libucrt:atox.obj
 0001:00015bb6       _atol                      10016bb6 f   libucrt:atox.obj
 0001:00015bf5       _free                      10016bf5 f   libucrt:free.obj
 0001:00015d6c       __beginthreadex            10016d6c f   libucrt:thread.obj
 0001:00015def       __endthreadex              10016def f   libucrt:thread.obj
 0001:00015dfd       _rand                      10016dfd f   libucrt:rand.obj
 0001:00015e1e       _terminate                 10016e1e f   libucrt:terminate.obj
 0001:00015e5a       ??$assemble_floating_point_snan@N@__crt_strtox@@YAX_NAAN@Z 10016e5a f i libucrt:atof.obj
 0001:00015e7b       ??$assemble_floating_point_value_t@M@__crt_strtox@@YA?AW4SLD_STATUS@@_NH_KAAM@Z 10016e7b f i libucrt:atof.obj
 0001:00015eab       ??$assemble_floating_point_value_t@N@__crt_strtox@@YA?AW4SLD_STATUS@@_NH_KAAN@Z 10016eab f i libucrt:atof.obj
 0001:00015f51       ??$convert_decimal_string_to_floating_type@N@__crt_strtox@@YA?AW4SLD_STATUS@@ABUfloating_point_string@0@AAN@Z 10016f51 f i libucrt:atof.obj
 0001:00015f72       ??$convert_hexadecimal_string_to_floating_type@N@__crt_strtox@@YA?AW4SLD_STATUS@@ABUfloating_point_string@0@AAN@Z 10016f72 f i libucrt:atof.obj
 0001:00015f93       ??$parse_floating_point@V?$c_string_character_source@D@__crt_strtox@@N@__crt_strtox@@YA?AW4SLD_STATUS@@QAU__crt_locale_pointers@@V?$c_string_character_source@D@0@QAN@Z 10016f93 f i libucrt:atof.obj
 0001:00016013       ??$parse_floating_point_from_source@V?$c_string_character_source@D@__crt_strtox@@@__crt_strtox@@YA?AW4floating_point_parse_result@0@QAU__crt_locale_pointers@@AAV?$c_string_character_source@D@0@AAUfloating_point_string@0@@Z 10017013 f i libucrt:atof.obj
 0001:0001642b       ??$parse_floating_point_possible_infinity@DV?$c_string_character_source@D@__crt_strtox@@PBD@__crt_strtox@@YA?AW4floating_point_parse_result@0@AADAAV?$c_string_character_source@D@0@PBD@Z 1001742b f i libucrt:atof.obj
 0001:000164de       ??$parse_floating_point_possible_nan@DV?$c_string_character_source@D@__crt_strtox@@PBD@__crt_strtox@@YA?AW4floating_point_parse_result@0@AADAAV?$c_string_character_source@D@0@PBD@Z 100174de f i libucrt:atof.obj
 0001:000165e2       ??$parse_floating_point_possible_nan_is_ind@DV?$c_string_character_source@D@__crt_strtox@@@__crt_strtox@@YA_NAADAAV?$c_string_character_source@D@0@@Z 100175e2 f i libucrt:atof.obj
 0001:0001661e       ??$parse_floating_point_possible_nan_is_snan@DV?$c_string_character_source@D@__crt_strtox@@@__crt_strtox@@YA_NAADAAV?$c_string_character_source@D@0@@Z 1001761e f i libucrt:atof.obj
 0001:0001665a       ??$parse_floating_point_write_result@N@__crt_strtox@@YA?AW4SLD_STATUS@@W4floating_point_parse_result@0@ABUfloating_point_string@0@QAN@Z 1001765a f i libucrt:atof.obj
 0001:0001677e       ??R<lambda_32aa245da1b5b882fa96db788295c8b2>@@QBE@XZ 1001777e f i libucrt:atof.obj
 0001:0001677e       ??R<lambda_690cf26ff5d754c94c32cf642e9f01bc>@@QBE@XZ 1001777e f i libucrt:atof.obj
 0001:0001677e       ??R<lambda_e51f7abad2595a5950d3223319845217>@@QBE@XZ 1001777e f i libucrt:atof.obj
 0001:000167a4       ?as_double@floating_point_value@__crt_strtox@@QBEAANXZ 100177a4 f i libucrt:atof.obj
 0001:000167c9       ?as_float@floating_point_value@__crt_strtox@@QBEAAMXZ 100177c9 f i libucrt:atof.obj
 0001:000167ee       ?assemble_floating_point_infinity@__crt_strtox@@YAX_NABVfloating_point_value@1@@Z 100177ee f i libucrt:atof.obj
 0001:0001682e       ?assemble_floating_point_value@__crt_strtox@@YA?AW4SLD_STATUS@@_KH_N1ABVfloating_point_value@1@@Z 1001782e f i libucrt:atof.obj
 0001:00016b87       ?assemble_floating_point_value_from_big_integer@__crt_strtox@@YA?AW4SLD_STATUS@@ABUbig_integer@1@I_N1ABVfloating_point_value@1@@Z 10017b87 f i libucrt:atof.obj
 0001:00016d19       ?assemble_floating_point_zero@__crt_strtox@@YAX_NABVfloating_point_value@1@@Z 10017d19 f i libucrt:atof.obj
 0001:00016d4e       ?convert_decimal_string_to_floating_type_common@__crt_strtox@@YA?AW4SLD_STATUS@@ABUfloating_point_string@1@ABVfloating_point_value@1@@Z 10017d4e f i libucrt:atof.obj
 0001:00018af4       ?convert_hexadecimal_string_to_floating_type_common@__crt_strtox@@YA?AW4SLD_STATUS@@ABUfloating_point_string@1@ABVfloating_point_value@1@@Z 10019af4 f i libucrt:atof.obj
 0001:00018b9a       ?denormal_mantissa_mask@floating_point_value@__crt_strtox@@QBE_KXZ 10019b9a f i libucrt:atof.obj
 0001:00018bc0       ?divide@__crt_strtox@@YA_KAAUbig_integer@1@ABU21@@Z 10019bc0 f i libucrt:atof.obj
 0001:0001906b       ?normal_mantissa_mask@floating_point_value@__crt_strtox@@QBE_KXZ 1001a06b f i libucrt:atof.obj
 0001:00019082       _atof                      1001a082 f   libucrt:atof.obj
 0001:00019116       ___acrt_initialize_locks   1001a116 f   libucrt:locks.obj
 0001:00019157       ___acrt_lock               1001a157 f   libucrt:locks.obj
 0001:0001916e       ___acrt_uninitialize_locks 1001a16e f   libucrt:locks.obj
 0001:0001919f       ___acrt_unlock             1001a19f f   libucrt:locks.obj
 0001:000191b6       __lock_locales             1001a1b6 f   libucrt:locks.obj
 0001:000191c4       __unlock_locales           1001a1c4 f   libucrt:locks.obj
 0001:000191cd       _malloc                    1001a1cd f   libucrt:malloc.obj
 0001:0001942d       _setlocale                 1001a42d f   libucrt:setlocale.obj
 0001:00019465       ___pctype_func             1001a465 f   libucrt:ctype.obj
 0001:00019490       _islower                   1001a490 f   libucrt:_ctype.obj
 0001:00019520       _isupper                   1001a520 f   libucrt:_ctype.obj
 0001:000195a4       ____lc_codepage_func       1001a5a4 f   libucrt:initctype.obj
 0001:000195c9       ____lc_locale_name_func    1001a5c9 f   libucrt:initctype.obj
 0001:000195f0       ___acrt_locale_initialize_ctype 1001a5f0 f   libucrt:initctype.obj
 0001:00019a4d       _calloc                    1001aa4d f   libucrt:calloc.obj
 0001:00019a58       __wcsdup                   1001aa58 f   libucrt:wcsdup.obj
 0001:00019ab7       _abort                     1001aab7 f   libucrt:abort.obj
 0001:00019afb       ___acrt_errno_from_os_error 1001aafb f   libucrt:errno.obj
 0001:00019b3e       ___acrt_errno_map_os_error 1001ab3e f   libucrt:errno.obj
 0001:00019b61       ___acrt_errno_map_os_error_ptd 1001ab61 f   libucrt:errno.obj
 0001:00019b85       ___doserrno                1001ab85 f   libucrt:errno.obj
 0001:00019b98       __errno                    1001ab98 f   libucrt:errno.obj
 0001:00019bb0       _strcspn                   1001abb0 f   libucrt:strcspn.obj
 0001:00019bf6       ___strncnt                 1001abf6 f   libucrt:strncnt.obj
 0001:00019c12       ___acrt_initialize_stdio   1001ac12 f   libucrt:_file.obj
 0001:00019cda       ___acrt_uninitialize_stdio 1001acda f   libucrt:_file.obj
 0001:00019d26       __lock_file                1001ad26 f   libucrt:_file.obj
 0001:00019d3a       __unlock_file              1001ad3a f   libucrt:_file.obj
 0001:00019d4e       ??$__acrt_convert_wcs_mbs_cp@D_WV<lambda_62f6974d9771e494a5ea317cc32e971c>@@U__crt_win32_buffer_internal_dynamic_resizing@@@@YAHQBDAAV?$__crt_win32_buffer@_WU__crt_win32_buffer_internal_dynamic_resizing@@@@ABV<lambda_62f6974d9771e494a5ea317cc32e971c>@@I@Z 1001ad4e f i libucrt:strftime.obj
 0001:00019e00       ??$__acrt_convert_wcs_mbs_cp@_WDV<lambda_0fec1a7b3f42a53036604e18c2d5e07e>@@U__crt_win32_buffer_no_resizing@@@@YAHQB_WAAV?$__crt_win32_buffer@DU__crt_win32_buffer_no_resizing@@@@ABV<lambda_0fec1a7b3f42a53036604e18c2d5e07e>@@I@Z 1001ae00 f i libucrt:strftime.obj
 0001:00019ec2       ??$__acrt_mbs_to_wcs_cp@U__crt_win32_buffer_internal_dynamic_resizing@@@@YAHQBDAAV?$__crt_win32_buffer@_WU__crt_win32_buffer_internal_dynamic_resizing@@@@I@Z 1001aec2 f i libucrt:strftime.obj
 0001:00019edf       ??R<lambda_0fec1a7b3f42a53036604e18c2d5e07e>@@QBE@IQB_WQADI@Z 1001aedf f i libucrt:strftime.obj
 0001:00019edf       ??R<lambda_28bda7af82a03b66c1cb3803a755f95d>@@QBE@IQB_WQADI@Z 1001aedf f i libucrt:argv_wildcards.obj
 0001:00019f03       ?_deallocate@?$__crt_win32_buffer@DU__crt_win32_buffer_internal_dynamic_resizing@@@@AAEXXZ 1001af03 f i libucrt:argv_wildcards.obj
 0001:00019f03       ?_deallocate@?$__crt_win32_buffer@_WU__crt_win32_buffer_internal_dynamic_resizing@@@@AAEXXZ 1001af03 f i libucrt:strftime.obj
 0001:00019f1d       ?allocate@?$__crt_win32_buffer@DU__crt_win32_buffer_no_resizing@@@@QAEHI@Z 1001af1d f i libucrt:strftime.obj
 0001:00019f44       ?allocate@?$__crt_win32_buffer@_WU__crt_win32_buffer_internal_dynamic_resizing@@@@QAEHI@Z 1001af44 f i libucrt:strftime.obj
 0001:00019f83       ?allocate@__crt_win32_buffer_internal_dynamic_resizing@@SAHQAPAXIABV__crt_win32_buffer_empty_debug_info@@@Z 1001af83 f i libucrt:strftime.obj
 0001:00019fa2       ?set_to_nullptr@?$__crt_win32_buffer@DU__crt_win32_buffer_no_resizing@@@@QAEXXZ 1001afa2 f i libucrt:strftime.obj
 0001:00019fb6       _strnlen                   1001afb6 f   libucrt:strnlen.obj
 0001:0001a0d8       _wcsnlen                   1001b0d8 f   libucrt:strnlen.obj
 0001:0001a288       ??$__crt_fast_decode_pointer@P6AHI@Z@@YAP6AHI@ZQ6AHI@Z@Z 1001b288 f i libucrt:new_handler.obj
 0001:0001a288       ??$__crt_fast_decode_pointer@P6AXH@Z@@YAP6AXH@ZQ6AXH@Z@Z 1001b288 f i libucrt:signal.obj
 0001:0001a288       ??$__crt_fast_decode_pointer@P6GXPAXK0@Z@@YAP6GXPAXK0@ZQ6GX0K0@Z@Z 1001b288 f i libucrt:exit.obj
 0001:0001a2a3       ___acrt_initialize_new_handler 1001b2a3 f   libucrt:new_handler.obj
 0001:0001a2b2       __callnewh                 1001b2b2 f   libucrt:new_handler.obj
 0001:0001a2de       __query_new_handler        1001b2de f   libucrt:new_handler.obj
 0001:0001a335       __seh_filter_dll           1001b335 f   libucrt:exception_filter.obj
 0001:0001a355       __seh_filter_exe           1001b355 f   libucrt:exception_filter.obj
 0001:0001a775       ___acrt_initialize_thread_local_exit_callback 1001b775 f   libucrt:exit.obj
 0001:0001a784       __cexit                    1001b784 f   libucrt:exit.obj
 0001:0001a793       __exit                     1001b793 f   libucrt:exit.obj
 0001:0001a7a9       __is_c_termination_complete 1001b7a9 f   libucrt:exit.obj
 0001:0001aa61       ___acrt_allocate_buffer_for_argv 1001ba61 f   libucrt:argv_parsing.obj
 0001:0001aab0       __configure_narrow_argv    1001bab0 f   libucrt:argv_parsing.obj
 0001:0001ac5c       ___dcrt_uninitialize_environments_nolock 1001bc5c f   libucrt:environment_initialization.obj
 0001:0001acad       __initialize_narrow_environment 1001bcad f   libucrt:environment_initialization.obj
 0001:0001ad68       ??$__crt_fast_encode_pointer@P6AHXZ@@YAP6AHXZQ6AHXZ@Z 1001bd68 f i libucrt:onexit.obj
 0001:0001ad68       ??$__crt_fast_encode_pointer@P6GHPA_WKJ@Z@@YAP6GHPA_WKJ@ZQ6GH0KJ@Z@Z 1001bd68 f i libucrt:winapi_thunks.obj
 0001:0001ad68       ??$__crt_fast_encode_pointer@PAP6AXXZ@@YAPAP6AXXZQAP6AXXZ@Z 1001bd68 f i libucrt:onexit.obj
 0001:0001ad68       ??$__crt_fast_encode_pointer@PAX@@YAPAXQAX@Z 1001bd68 f i libucrt:initialization.obj
 0001:0001af63       __crt_atexit               1001bf63 f   libucrt:onexit.obj
 0001:0001af79       __execute_onexit_table     1001bf79 f   libucrt:onexit.obj
 0001:0001afb7       __initialize_onexit_table  1001bfb7 f   libucrt:onexit.obj
 0001:0001afe0       __register_onexit_function 1001bfe0 f   libucrt:onexit.obj
 0001:0001b03a       ___acrt_uninitialize_command_line 1001c03a f   libucrt:argv_data.obj
 0001:0001b111       ___acrt_initialize         1001c111 f   libucrt:initialization.obj
 0001:0001b123       ___acrt_thread_attach      1001c123 f   libucrt:initialization.obj
 0001:0001b12e       ___acrt_thread_detach      1001c12e f   libucrt:initialization.obj
 0001:0001b136       ___acrt_uninitialize       1001c136 f   libucrt:initialization.obj
 0001:0001b166       ___acrt_uninitialize_critical 1001c166 f   libucrt:initialization.obj
 0001:0001b178       __initterm                 1001c178 f   libucrt:initterm.obj
 0001:0001b1a3       __initterm_e               1001c1a3 f   libucrt:initterm.obj
 0001:0001b1d1       _strcpy_s                  1001c1d1 f   libucrt:strcpy_s.obj
 0001:0001b230       _strncmp                   1001c230 f   libucrt:strncmp.obj
 0001:0001b2a8       _wcsncmp                   1001c2a8 f   libucrt:wcsncmp.obj
 0001:0001b2e2       __free_base                1001c2e2 f   libucrt:free_base.obj
 0001:0001b31c       __malloc_base              1001c31c f   libucrt:malloc_base.obj
 0001:0001b36a       ___acrt_update_locale_info 1001c36a f   libucrt:locale_update.obj
 0001:0001b397       ___acrt_update_locale_info_explicit 1001c397 f   libucrt:locale_update.obj
 0001:0001b3c8       ___acrt_update_multibyte_info 1001c3c8 f   libucrt:locale_update.obj
 0001:0001b3f5       ___acrt_update_multibyte_info_explicit 1001c3f5 f   libucrt:locale_update.obj
 0001:0001b426       ?__acrt_fp_classify@@YA?AW4__acrt_fp_class@@ABN@Z 1001c426 f i libucrt:cvt.obj
 0001:0001bdfe       ___acrt_fp_format          1001cdfe f   libucrt:cvt.obj
 0001:0001bf7f       __wctomb_internal          1001cf7f f   libucrt:wctomb.obj
 0001:0001c0e9       __mbtowc_internal          1001d0e9 f   libucrt:mbtowc.obj
 0001:0001c21c       __fileno                   1001d21c f   libucrt:fileno.obj
 0001:0001c243       __get_printf_count_output  1001d243 f   libucrt:printf_count_output.obj
 0001:0001c596       ___acrt_freeptd            1001d596 f   libucrt:per_thread_data.obj
 0001:0001c5c2       ___acrt_getptd             1001d5c2 f   libucrt:per_thread_data.obj
 0001:0001c67d       ___acrt_getptd_head        1001d67d f   libucrt:per_thread_data.obj
 0001:0001c713       ___acrt_getptd_noexit      1001d713 f   libucrt:per_thread_data.obj
 0001:0001c7c4       ___acrt_getptd_noexit_explicit 1001d7c4 f   libucrt:per_thread_data.obj
 0001:0001c867       ___acrt_initialize_ptd     1001d867 f   libucrt:per_thread_data.obj
 0001:0001c893       ___acrt_uninitialize_ptd   1001d893 f   libucrt:per_thread_data.obj
 0001:0001c9ad       ??0_expandlocale_locale_name_cache@@QAE@QA_WIQAU__crt_qualified_locale_data@@@Z 1001d9ad f i libucrt:wsetlocale.obj
 0001:0001c9f7       ??1_expandlocale_locale_name_cache@@QAE@XZ 1001d9f7 f i libucrt:wsetlocale.obj
 0001:0001cb8f       ?commit_locale_name@_expandlocale_locale_name_cache@@QAEXQB_WI@Z 1001db8f f i libucrt:wsetlocale.obj
 0001:0001cbd3       ?commit_locale_name_cache_already_updated@_expandlocale_locale_name_cache@@QAEXQB_WI@Z 1001dbd3 f i libucrt:wsetlocale.obj
 0001:0001cc08       ___acrt_copy_locale_name   1001dc08 f   libucrt:wsetlocale.obj
 0001:0001cc68       ___acrt_set_locale_changed 1001dc68 f   libucrt:wsetlocale.obj
 0001:0001cc73       ___acrt_uninitialize_locale 1001dc73 f   libucrt:wsetlocale.obj
 0001:0001cc9a       ___lc_lctowcs              1001dc9a f   libucrt:wsetlocale.obj
 0001:0001cd0a       ___lc_wcstolc              1001dd0a f   libucrt:wsetlocale.obj
 0001:0001d23c       __wcscats                  1001e23c f   libucrt:wsetlocale.obj
 0001:0001d27d       __wsetlocale               1001e27d f   libucrt:wsetlocale.obj
 0001:0001e0d8       ___acrt_initialize_lowio   1001f0d8 f   libucrt:ioinit.obj
 0001:0001e138       ___acrt_uninitialize_lowio 1001f138 f   libucrt:ioinit.obj
 0001:0001e353       ___acrt_LCMapStringA       1001f353 f   libucrt:lcmapstringa.obj
 0001:0001e39c       _iswctype                  1001f39c f   libucrt:iswctype.obj
 0001:0001e405       __isctype_l                1001f405 f   libucrt:isctype.obj
 0001:0001e4d0       __calloc_base              1001f4d0 f   libucrt:calloc_base.obj
 0001:0001e857       ___acrt_AppPolicyGetProcessTerminationMethodInternal@4 1001f857 f   libucrt:winapi_thunks.obj
 0001:0001e897       ___acrt_AppPolicyGetThreadInitializationTypeInternal@4 1001f897 f   libucrt:winapi_thunks.obj
 0001:0001e8d7       ___acrt_AreFileApisANSI@0  1001f8d7 f   libucrt:winapi_thunks.obj
 0001:0001e8f6       ___acrt_EnumSystemLocalesEx@16 1001f8f6 f   libucrt:winapi_thunks.obj
 0001:0001e94a       ___acrt_FlsAlloc@4         1001f94a f   libucrt:winapi_thunks.obj
 0001:0001e989       ___acrt_FlsFree@4          1001f989 f   libucrt:winapi_thunks.obj
 0001:0001e9c8       ___acrt_FlsGetValue@4      1001f9c8 f   libucrt:winapi_thunks.obj
 0001:0001ea07       ___acrt_FlsSetValue@8      1001fa07 f   libucrt:winapi_thunks.obj
 0001:0001ea49       ___acrt_GetLocaleInfoEx@16 1001fa49 f   libucrt:winapi_thunks.obj
 0001:0001ea88       ___acrt_GetUserDefaultLocaleName@8 1001fa88 f   libucrt:winapi_thunks.obj
 0001:0001eac4       ___acrt_InitializeCriticalSectionEx@12 1001fac4 f   libucrt:winapi_thunks.obj
 0001:0001eb0f       ___acrt_IsValidLocaleName@4 1001fb0f f   libucrt:winapi_thunks.obj
 0001:0001eb47       ___acrt_LCIDToLocaleName@16 1001fb47 f   libucrt:winapi_thunks.obj
 0001:0001eb86       ___acrt_LCMapStringEx@36   1001fb86 f   libucrt:winapi_thunks.obj
 0001:0001ebe3       ___acrt_LocaleNameToLCID@8 1001fbe3 f   libucrt:winapi_thunks.obj
 0001:0001ec14       ___acrt_RoInitialize@4     1001fc14 f   libucrt:winapi_thunks.obj
 0001:0001ec4f       ___acrt_RoUninitialize@0   1001fc4f f   libucrt:winapi_thunks.obj
 0001:0001ec7d       ___acrt_can_use_vista_locale_apis 1001fc7d f   libucrt:winapi_thunks.obj
 0001:0001ec88       ___acrt_eagerly_load_locale_apis 1001fc88 f   libucrt:winapi_thunks.obj
 0001:0001ecbf       ___acrt_initialize_winapi_thunks 1001fcbf f   libucrt:winapi_thunks.obj
 0001:0001ecd3       ___acrt_uninitialize_winapi_thunks 1001fcd3 f   libucrt:winapi_thunks.obj
 0001:0001ed09       ___acrt_get_begin_thread_init_policy 1001fd09 f   libucrt:win_policies.obj
 0001:0001ed43       ___acrt_get_process_end_policy 1001fd43 f   libucrt:win_policies.obj
 0001:0001ed6a       _fegetround                1001fd6a f   libucrt:fegetround.obj
 0001:0001f01a       _mbstowcs_s                1002001a f   libucrt:mbstowcs.obj
 0001:0001f3d3       __wcstombs_s_l             100203d3 f   libucrt:wcstombs.obj
 0001:0001f4f0       ___acrt_GetLocaleInfoA     100204f0 f   libucrt:getlocaleinfoa.obj
 0001:0001f6a0       ___acrt_GetStringTypeA     100206a0 f   libucrt:getstringtypea.obj
 0001:0001f7a1       _wcscpy_s                  100207a1 f   libucrt:wcscpy_s.obj
 0001:0001f8d7       ___acrt_get_sigabrt_handler 100208d7 f   libucrt:signal.obj
 0001:0001f8fe       ___acrt_initialize_signal_handlers 100208fe f   libucrt:signal.obj
 0001:0001f91c       _raise                     1002091c f   libucrt:signal.obj
 0001:0001fb0e       __errcode                  10020b0e f   libucrt:fpexcept.obj
 0001:0001fb42       __except1                  10020b42 f   libucrt:fpexcept.obj
 0001:0001fc10       __handle_exc               10020c10 f   libucrt:fpexcept.obj
 0001:0001fe90       __raise_exc                10020e90 f   libucrt:fpexcept.obj
 0001:0001feb3       __raise_exc_ex             10020eb3 f   libucrt:fpexcept.obj
 0001:000201a4       __set_errno_from_matherr   100211a4 f   libucrt:fpexcept.obj
 0001:000201d5       __umatherr                 100211d5 f   libucrt:fpexcept.obj
 0001:00020275       __decomp                   10021275 f   libucrt:util.obj
 0001:00020347       __set_exp                  10021347 f   libucrt:util.obj
 0001:00020374       __sptype                   10021374 f   libucrt:util.obj
 0001:000203d7       ___set_fpsr_sse2           100213d7 f   libucrt:fpctrl.obj
 0001:00020457       __clrfp                    10021457 f   libucrt:fpctrl.obj
 0001:00020468       __ctrlfp                   10021468 f   libucrt:fpctrl.obj
 0001:00020492       __set_statfp               10021492 f   libucrt:fpctrl.obj
 0001:000204eb       __statfp                   100214eb f   libucrt:fpctrl.obj
 0001:000204fb       __realloc_base             100214fb f   libucrt:realloc_base.obj
 0001:00020564       __fcloseall                10021564 f   libucrt:closeall.obj
 0001:000207e8       ___acrt_stdio_flush_nolock 100217e8 f   libucrt:fflush.obj
 0001:00020851       __fflush_nolock            10021851 f   libucrt:fflush.obj
 0001:000208b6       __flushall                 100218b6 f   libucrt:fflush.obj
 0001:000208bf       ___acrt_stdio_free_buffer_nolock 100218bf f   libucrt:_freebuf.obj
 0001:00020997       ___acrt_MultiByteToWideChar 10021997 f   libucrt:multibytetowidechar.obj
 0001:00020a51       ___acrt_WideCharToMultiByte 10021a51 f   libucrt:widechartomultibyte.obj
 0001:00020abd       ___ascii_wcsicmp           10021abd f   libucrt:wcsicmp.obj
 0001:00020afa       __towlower_internal        10021afa f i libucrt:wcsicmp.obj
 0001:00020b39       __wcsicmp                  10021b39 f   libucrt:wcsicmp.obj
 0001:00020b82       __wcsicmp_l                10021b82 f   libucrt:wcsicmp.obj
 0001:00020c3a       ___acrt_initialize_timeset 10021c3a f   libucrt:timeset.obj
 0001:00020c6f       ?__acrt_get_utf8_acp_compatibility_codepage@@YAIXZ 10021c6f f i libucrt:tzset.obj
 0001:00020cae       ___acrt_app_verifier_enabled 10021cae f   libucrt:peb_access.obj
 0001:00020cc0       ___acrt_is_secure_process  10021cc0 f   libucrt:peb_access.obj
 0001:00020ceb       ??$__acrt_convert_wcs_mbs_cp@_WDV<lambda_28bda7af82a03b66c1cb3803a755f95d>@@U__crt_win32_buffer_internal_dynamic_resizing@@@@YAHQB_WAAV?$__crt_win32_buffer@DU__crt_win32_buffer_internal_dynamic_resizing@@@@ABV<lambda_28bda7af82a03b66c1cb3803a755f95d>@@I@Z 10021ceb f i libucrt:argv_wildcards.obj
 0001:00021289       ?allocate@?$__crt_win32_buffer@DU__crt_win32_buffer_internal_dynamic_resizing@@@@QAEHI@Z 10022289 f i libucrt:argv_wildcards.obj
 0001:0002134c       ___acrt_expand_narrow_argv_wildcards 1002234c f   libucrt:argv_wildcards.obj
 0001:00021357       ___acrt_GetModuleFileNameA 10022357 f   libucrt:getmodulefilenamea.obj
 0001:00021974       ___acrt_initialize_multibyte 10022974 f   libucrt:mbctype.obj
 0001:000219bc       ___acrt_update_thread_multibyte_data 100229bc f   libucrt:mbctype.obj
 0001:000219cf       __setmbcp_nolock           100229cf f   libucrt:mbctype.obj
 0001:00021c24       __ismbblead                10022c24 f   libucrt:ismbbyte.obj
 0001:00021c3c       ___acrt_initialize_command_line 10022c3c f   libucrt:argv_data.obj
 0001:00021c8c       ___dcrt_get_narrow_environment_from_os 10022c8c f   libucrt:get_environment_from_os.obj
 0001:00021d2c       __recalloc_base            10022d2c f   libucrt:recalloc.obj
 0001:00021d99       ___acrt_initialize_heap    10022d99 f   libucrt:heap_handle.obj
 0001:00021daa       ___acrt_uninitialize_heap  10022daa f   libucrt:heap_handle.obj
 0001:00021db4       ___acrt_execute_initializers 10022db4 f   libucrt:shared_initialization.obj
 0001:00021e1c       ___acrt_execute_uninitializers 10022e1c f   libucrt:shared_initialization.obj
 0001:00021e4d       ___acrt_has_user_matherr   10022e4d f   libucrt:matherr.obj
 0001:00021e6a       ___acrt_initialize_user_matherr 10022e6a f   libucrt:matherr.obj
 0001:00021e79       ___acrt_invoke_user_matherr 10022e79 f   libucrt:matherr.obj
 0001:00021eaf       __query_new_mode           10022eaf f   libucrt:new_mode.obj
 0001:00021eb6       ___acrt_add_locale_ref     10022eb6 f   libucrt:locale_refcounting.obj
 0001:00021f33       ___acrt_free_locale        10022f33 f   libucrt:locale_refcounting.obj
 0001:0002207b       ___acrt_locale_add_lc_time_reference 1002307b f   libucrt:locale_refcounting.obj
 0001:000220a4       ___acrt_locale_free_lc_time_if_unreferenced 100230a4 f   libucrt:locale_refcounting.obj
 0001:000220d5       ___acrt_locale_release_lc_time_reference 100230d5 f   libucrt:locale_refcounting.obj
 0001:000220fe       ___acrt_release_locale_ref 100230fe f   libucrt:locale_refcounting.obj
 0001:0002217f       ___acrt_update_thread_locale_data 1002317f f   libucrt:locale_refcounting.obj
 0001:00022200       __updatetlocinfoEx_nolock  10023200 f   libucrt:locale_refcounting.obj
 0001:00022301       ___acrt_fp_strflt_to_string 10023301 f   libucrt:_fptostr.obj
 0001:000223fb       ___acrt_fltout             100233fb f   libucrt:cfout.obj
 0001:000239e3       ?__c32rtomb_utf8@__crt_mbstring@@YAIPAD_UPAU_Mbstatet@@AAV__crt_cached_ptd_host@@@Z 100249e3 f   libucrt:c32rtomb.obj
 0001:00023abf       ?__mbrtowc_utf8@__crt_mbstring@@YAIPA_WPBDIPAU_Mbstatet@@AAV__crt_cached_ptd_host@@@Z 10024abf f   libucrt:mbrtowc.obj
 0001:00023b02       ?__mbsrtowcs_utf8@__crt_mbstring@@YAIPA_WPAPBDIPAU_Mbstatet@@AAV__crt_cached_ptd_host@@@Z 10024b02 f   libucrt:mbrtowc.obj
 0001:00023c0a       __isatty                   10024c0a f   libucrt:isatty.obj
 0001:00023c60       ___acrt_locale_free_monetary 10024c60 f   libucrt:initmon.obj
 0001:00023d5e       ___acrt_locale_initialize_monetary 10024d5e f   libucrt:initmon.obj
 0001:000240bf       ___acrt_locale_free_numeric 100250bf f   libucrt:initnum.obj
 0001:00024128       ___acrt_locale_initialize_numeric 10025128 f   libucrt:initnum.obj
 0001:000245e6       ___acrt_locale_free_time   100255e6 f   libucrt:inittime.obj
 0001:000246ca       ___acrt_locale_initialize_time 100256ca f   libucrt:inittime.obj
 0001:00024745       _wcscat_s                  10025745 f   libucrt:wcscat_s.obj
 0001:0002489c       _wcsncat_s                 1002589c f   libucrt:wcsncat_s.obj
 0001:00024975       _wcsncpy_s                 10025975 f   libucrt:wcsncpy_s.obj
 0001:00024980       _wcscspn                   10025980 f   libucrt:wcscspn.obj
 0001:000249d9       _wcspbrk                   100259d9 f   libucrt:wcspbrk.obj
 0001:0002511e       ___acrt_get_qualified_locale 1002611e f   libucrt:get_qualified_locale.obj
 0001:00025a93       ___acrt_get_qualified_locale_downlevel 10026a93 f   libucrt:getqloc_downlevel.obj
 0001:00025c83       ___acrt_lowio_create_handle_array 10026c83 f   libucrt:osfinfo.obj
 0001:00025cfe       ___acrt_lowio_destroy_handle_array 10026cfe f   libucrt:osfinfo.obj
 0001:00025d33       ___acrt_lowio_ensure_fh_exists 10026d33 f   libucrt:osfinfo.obj
 0001:00025dd1       ___acrt_lowio_lock_fh      10026dd1 f   libucrt:osfinfo.obj
 0001:00025df4       ___acrt_lowio_unlock_fh    10026df4 f   libucrt:osfinfo.obj
 0001:00025e17       __free_osfhnd              10026e17 f   libucrt:osfinfo.obj
 0001:00025ea8       __get_osfhandle            10026ea8 f   libucrt:osfinfo.obj
 0001:00025f12       ___acrt_GetStringTypeW     10026f12 f   libucrt:getstringtypew.obj
 0001:00025f7b       ___acrt_DownlevelLCIDToLocaleName 10026f7b f   libucrt:lcidtoname_downlevel.obj
 0001:0002601e       ___acrt_DownlevelLocaleNameToLCID 1002701e f   libucrt:lcidtoname_downlevel.obj
 0001:00026313       ___acrt_fenv_get_common_round_control 10027313 f   libucrt:_fenvutils.obj
 0001:00026335       ___acrt_fenv_get_control   10027335 f   libucrt:_fenvutils.obj
 0001:000263b5       ___acrt_fenv_get_status    100273b5 f   libucrt:_fenvutils.obj
 0001:0002645f       ___acrt_fenv_set_control   1002745f f   libucrt:_fenvutils.obj
 0001:000264da       ___acrt_fenv_set_status    100274da f   libucrt:_fenvutils.obj
 0001:000265d6       ?__wcsrtombs_utf8@__crt_mbstring@@YAIPADPAPB_WIPAU_Mbstatet@@AAV__crt_cached_ptd_host@@@Z 100275d6 f   libucrt:wcrtomb.obj
 0001:0002679c       _strncpy_s                 1002779c f   libucrt:strncpy_s.obj
 0001:000268cc       _fclose                    100278cc f   libucrt:fclose.obj
 0001:0002699e       __commit                   1002799e f   libucrt:commit.obj
 0001:000271bd       __write_internal           100281bd f   libucrt:write.obj
 0001:000272ce       __write_nolock             100282ce f   libucrt:write.obj
 0001:0002756d       __lseeki64_nolock_internal 1002856d f   libucrt:lseek.obj
 0001:0002758b       __towlower_l               1002858b f   libucrt:towlower.obj
 0001:00027660       _qsort                     10028660 f   libucrt:qsort.obj
 0001:00027b50       _strpbrk                   10028b50 f   libucrt:strpbrk.obj
 0001:00027b90       __mbsdec                   10028b90 f   libucrt:mbsdec.obj
 0001:00027ba7       __mbsdec_l                 10028ba7 f   libucrt:mbsdec.obj
 0001:00027c43       __msize_base               10028c43 f   libucrt:msize.obj
 0001:00027c76       __controlfp_s              10028c76 f   libucrt:contrlfp.obj
 0001:00027cd5       _fegetenv                  10028cd5 f   libucrt:fegetenv.obj
 0001:00027cf2       _fesetenv                  10028cf2 f   libucrt:fesetenv.obj
 0001:00027d3e       _feholdexcept              10028d3e f   libucrt:feholdexcept.obj
 0001:00027d90       __CIlog10                  10028d90 f   libucrt:log10_impl.obj
 0001:00027dcb       __CIlog10_default          10028dcb f   libucrt:log10_impl.obj
 0001:00027ddf       __log10_default            10028ddf     libucrt:log10_impl.obj
 0001:00027ea0       _ceil                      10028ea0 f   libucrt:ceil_pentium4.obj
 0001:00027ee0       __ceil_pentium4            10028ee0 f   libucrt:ceil_pentium4.obj
 0001:00027fbd       ?reset_and_return@__crt_mbstring@@YAIIPAU_Mbstatet@@@Z 10028fbd f   libucrt:common_utf8.obj
 0001:00027fd1       ?return_illegal_sequence@__crt_mbstring@@YAIPAU_Mbstatet@@AAV__crt_cached_ptd_host@@@Z 10028fd1 f   libucrt:common_utf8.obj
 0001:00027ff3       ?__mbrtoc32_utf8@__crt_mbstring@@YAIPA_UPBDIPAU_Mbstatet@@AAV__crt_cached_ptd_host@@@Z 10028ff3 f   libucrt:mbrtoc32.obj
 0001:000282d2       __itow_s                   100292d2 f   libucrt:xtoa.obj
 0001:00028305       ___ascii_wcsnicmp          10029305 f   libucrt:wcsnicmp.obj
 0001:00028354       __wcsnicmp                 10029354 f   libucrt:wcsnicmp.obj
 0001:000283a0       __wcsnicmp_l               100293a0 f   libucrt:wcsnicmp.obj
 0001:00028473       __query_app_type           10029473 f   libucrt:report_runtime_error.obj
 0001:00028479       ?__c16rtomb_utf8@__crt_mbstring@@YAIPAD_SPAU_Mbstatet@@AAV__crt_cached_ptd_host@@@Z 10029479 f   libucrt:c16rtomb.obj
 0001:000285b4       __close_internal           100295b4 f   libucrt:close.obj
 0001:00028657       __close_nolock_internal    10029657 f   libucrt:close.obj
 0001:000286f7       ?__acrt_stdio_free_stream@@YAXV__crt_stdio_stream@@@Z 100296f7 f   libucrt:stream.obj
 0001:00028732       __putwch_nolock            10029732 f   libucrt:putwch.obj
 0001:00028764       ___acrt_LCMapStringW       10029764 f   libucrt:lcmapstringw.obj
 0001:00028849       __clearfp                  10029849 f   libucrt:ieee87.obj
 0001:00028927       __control87                10029927 f   libucrt:ieee87.obj
 0001:00028cc6       ___acrt_initialize_sse2    10029cc6 f   libucrt:mathfcns.obj
 0001:00028ce0       __CIlog10_pentium4         10029ce0 f   libucrt:log10_pentium4.obj
 0001:00028cf8       __log10_pentium4           10029cf8     libucrt:log10_pentium4.obj
 0001:00028f90       __fFEXP                    10029f90 f   libucrt:87tran.obj
 0001:00028fe7       __rtinfpopse               10029fe7     libucrt:87tran.obj
 0001:00028fe9       __rtinfnpopse              10029fe9     libucrt:87tran.obj
 0001:00028ff9       __fFLN                     10029ff9     libucrt:87tran.obj
 0001:000290ae       __rtinfpop                 1002a0ae     libucrt:87tran.obj
 0001:000290b0       __rtinfnpop                1002a0b0     libucrt:87tran.obj
 0001:000290c0       __rtforexpinf              1002a0c0 f   libucrt:87tran.obj
 0001:000290cd       __ffexpm1                  1002a0cd     libucrt:87tran.obj
 0001:00029180       __trandisp1                1002a180 f   libucrt:87disp.obj
 0001:000291f5       __trandisp2                1002a1f5 f   libucrt:87disp.obj
 0001:0002928f       __rttospopde               1002a28f     libucrt:87disp.obj
 0001:00029294       __rttospop                 1002a294     libucrt:87disp.obj
 0001:000292a0       __rtnospop                 1002a2a0 f   libucrt:87disp.obj
 0001:000292b0       __rttosnpop                1002a2b0 f   libucrt:87disp.obj
 0001:000292b1       __rtnospopde               1002a2b1     libucrt:87disp.obj
 0001:000292b8       __rtzeropop                1002a2b8     libucrt:87disp.obj
 0001:000292ba       __rtzeronpop               1002a2ba     libucrt:87disp.obj
 0001:000292c0       __rtzerospop               1002a2c0 f   libucrt:87disp.obj
 0001:000292cd       __rtonepop                 1002a2cd     libucrt:87disp.obj
 0001:000292d0       __rtonenpop                1002a2d0 f   libucrt:87disp.obj
 0001:000292e0       __tosnan1                  1002a2e0 f   libucrt:87disp.obj
 0001:00029310       __nosnan2                  1002a310 f   libucrt:87disp.obj
 0001:00029320       __tosnan2                  1002a320 f   libucrt:87disp.obj
 0001:00029350       __nan2                     1002a350 f   libucrt:87disp.obj
 0001:00029390       __rtindfpop                1002a390 f   libucrt:87disp.obj
 0001:00029392       __rtindfnpop               1002a392     libucrt:87disp.obj
 0001:000293a3       __rttosnpopde              1002a3a3     libucrt:87disp.obj
 0001:000293b0       __rtatan2inf               1002a3b0 f   libucrt:87disp.obj
 0001:000293cd       __rtchsifneg               1002a3cd     libucrt:87disp.obj
 0001:000293e0       __twoToTOS                 1002a3e0 f   libucrt:common.obj
 0001:000293f5       __load_CW                  1002a3f5 f   libucrt:common.obj
 0001:0002940c       __convertTOStoQNaN         1002a40c f   libucrt:common.obj
 0001:00029425       __fload_withFB             1002a425 f   libucrt:common.obj
 0001:00029468       __checkTOS_withFB          1002a468 f   libucrt:common.obj
 0001:0002947e       __fast_exit                1002a47e f   libucrt:common.obj
 0001:0002948b       __math_exit                1002a48b f   libucrt:common.obj
 0001:000294b5       __check_overflow_exit      1002a4b5 f   libucrt:common.obj
 0001:000294c9       __check_range_exit         1002a4c9 f   libucrt:common.obj
 0001:00029570       __startTwoArgErrorHandling 1002a570 f   libucrt:genexcep.obj
 0001:00029587       __startOneArgErrorHandling 1002a587 f   libucrt:genexcep.obj
 0001:000295c3       ___libm_error_support      1002a5c3 f   libucrt:libm_error.obj
 0001:000297b7       __ceil_default             1002a7b7 f   libucrt:ceil.obj
 0001:00029894       ___dcrt_lowio_ensure_console_output_initialized 1002a894 f   libucrt:initcon.obj
 0001:000298b3       ___dcrt_terminate_console_output 1002a8b3 f   libucrt:initcon.obj
 0001:000298ca       ___dcrt_write_console      1002a8ca f   libucrt:initcon.obj
 0001:00029920       ___ascii_strnicmp          1002a920 f   libucrt:_strnicm.obj
 0001:00029981       __d_inttype                1002a981 f   libucrt:powhlp.obj
 0001:000299e9       __powhlp                   1002a9e9 f   libucrt:powhlp.obj
 0001:00029b14       __87except                 1002ab14 f   libucrt:87except.obj
 0001:00029c24       __frnd                     1002ac24 f   libucrt:frnd.obj
 0001:00029c38       __fpclass                  1002ac38 f   libucrt:ieeemisc.obj
 0001:00029cdc       @_guard_check_icall@4      1002acdc f i LIBCMT:checkcfg.obj
 0001:00029cf0       __FindPESection            1002acf0 f   LIBCMT:pesect.obj
 0001:00029d40       __IsNonwritableInCurrentImage 1002ad40 f   LIBCMT:pesect.obj
 0001:00029e00       __ValidateImageBase        1002ae00 f   LIBCMT:pesect.obj
 0001:00029e40       __allshl                   1002ae40 f   LIBCMT:llshl.obj
 0001:00029e60       __aullshr                  1002ae60 f   LIBCMT:ullshr.obj
 0001:00029e80       __alldiv                   1002ae80 f   LIBCMT:lldiv.obj
 0001:00029f30       __allrem                   1002af30 f   LIBCMT:llrem.obj
 0001:00029ff0       __ftol2_sse                1002aff0 f   LIBCMT:ftol2.obj
 0001:0002a000       __ftoi2                    1002b000 f   LIBCMT:ftol2.obj
 0001:0002a080       _strrchr                   1002b080 f   libvcruntime:strrchr.obj
 0001:0002a1c0       _wcschr                    1002b1c0 f   libvcruntime:wcschr.obj
 0001:0002a25a       __filter_x86_sse2_floating_point_exception 1002b25a f   LIBCMT:x86_exception_filter.obj
 0001:0002a25a       __filter_x86_sse2_floating_point_exception_default 1002b25a f   LIBCMT:x86_exception_filter.obj
 0001:0002a2e0       ?DrawPcx16ResizedBicubic@H3LoadedPcx16Resized@resized@@SAXPAUH3LoadedPcx16@h3@@0HHHHHH@Z 1002b2e0 f   DrawPcx16ResizedBicubic.obj
 0001:0002ab50       ?BiCubicKernel@resized@@YANN@Z 1002bb50 f   DrawPcx16ResizedBicubic.obj
 0001:0002ac10       ?IntToStr@Era@@YA?AV?$basic_string@DU?$char_traits@D@std@@V?$allocator@D@2@@std@@H@Z 1002bc10 f   era.obj
 0001:0002ac70       ?tr@Era@@YAPADPBD@Z        1002bc70 f   era.obj
 0001:0002ac80       ?ConnectEra@Era@@YAXPAUHINSTANCE__@@PBD@Z 1002bc80 f   era.obj
 0001:0002af90       ?GetModuleFileNameA@Era@@YA?AV?$basic_string@DU?$char_traits@D@std@@V?$allocator@D@2@@std@@PAUHINSTANCE__@@@Z 1002bf90 f   era.obj
 0001:0002aff0       _DllMain@12                1002bff0 f   dllmain.obj
 0001:0002b080       ?CrBanksTxt_AfterLoad@@YGHPAVLoHook@@PAUHookContext@@@Z 1002c080 f   dllmain.obj
 0001:0002b400       ?OnReportVersion@@YGXPAUTEvent@Era@@@Z 1002c400 f   dllmain.obj
 0001:0002b4e0       ?H3AdventureManager__ObjectVisit_SoundPlay@SoundManager@sound@@CGHPAVLoHook@@PAUHookContext@@@Z 1002c4e0 f   SoundManager.obj
 0001:0002b630       ?H3AdventureManager_AtGettingLoopSoundId@SoundManager@sound@@CGHPAVLoHook@@PAUHookContext@@@Z 1002c630 f   SoundManager.obj
 0001:0002b6e0       ?Init@SoundManager@sound@@SAXABV?$vector@UObjectSound@SoundManager@sound@@V?$allocator@UObjectSound@SoundManager@sound@@@std@@@std@@@Z 1002c6e0 f   SoundManager.obj
 0001:0002b6f0       ?GetLoopSoundId@SoundManager@sound@@ABE?AW4eLoopSooundId@12@PBUH3MapItem@h3@@@Z 1002c6f0 f   SoundManager.obj
 0001:0002b780       ?H3AdventureManager__AtTrimSound@SoundManager@sound@@CGHPAVLoHook@@PAUHookContext@@@Z 1002c780 f   SoundManager.obj
 0001:0002b8a0       ?H3AdventureManager__AtHide@SoundManager@sound@@CGHPAVLoHook@@PAUHookContext@@@Z 1002c8a0 f   SoundManager.obj
 0001:0002b8e0       ?H3AdventureManager__AtShow@SoundManager@sound@@CGHPAVLoHook@@PAUHookContext@@@Z 1002c8e0 f   SoundManager.obj
 0001:0002b920       ?H3AdventureManager__AtLoadingWav@SoundManager@sound@@CGHPAVLoHook@@PAUHookContext@@@Z 1002c920 f   SoundManager.obj
 0001:0002b950       ?ReplaceAdventureManagerLoadedWavsArray@SoundManager@sound@@AAEXXZ 1002c950 f   SoundManager.obj
 0001:0002bb70       ?CreateNewLoopSoundsTable@SoundManager@sound@@AAEXABV?$vector@UObjectSound@SoundManager@sound@@V?$allocator@UObjectSound@SoundManager@sound@@@std@@@std@@@Z 1002cb70 f   SoundManager.obj
 0001:0002c1d0       ?CreateRMGObjectGen@ColosseumOfTheMagiExtender@colosseumOfTheMagi@@EBEPAUH3RmgObjectGenerator@h3@@ABURMGObjectInfo@@@Z 1002d1d0 f   ColosseumOfTheMagiExtender.obj
 0001:0002c260       ?CreatePatches@ColosseumOfTheMagiExtender@colosseumOfTheMagi@@EAEXXZ 1002d260 f   ColosseumOfTheMagiExtender.obj
 0001:0002c290       ?SetHintInH3TextBuffer@ColosseumOfTheMagiExtender@colosseumOfTheMagi@@EBEHPAUH3MapItem@h3@@PBUH3Hero@4@PBUH3Player@4@H@Z 1002d290 f   ColosseumOfTheMagiExtender.obj
 0001:0002c420       ?Game__NewGameBeforeSetObjectsInitialParameters@colosseumOfTheMagi@@YGHPAVLoHook@@PAUHookContext@@@Z 1002d420 f   ColosseumOfTheMagiExtender.obj
 0001:0002c440       ?InitNewGameMapItemSetup@ColosseumOfTheMagiExtender@colosseumOfTheMagi@@EBEHPAUH3MapItem@h3@@@Z 1002d440 f   ColosseumOfTheMagiExtender.obj
 0001:0002c480       ?VisitMapItem@ColosseumOfTheMagiExtender@colosseumOfTheMagi@@EBEHPAUH3Hero@h3@@PAUH3MapItem@4@UH3Position@4@H@Z 1002d480 f   ColosseumOfTheMagiExtender.obj
 0001:0002c700       ?AskQuestionWithTwoOptions@colosseumOfTheMagi@@YA?AW4ePick@H3Messagebox@h3@@PBUH3MapItem@4@@Z 1002d700 f   ColosseumOfTheMagiExtender.obj
 0001:0002c820       ?ShowMessage@colosseumOfTheMagi@@YAXPBUH3MapItem@h3@@@Z 1002d820 f   ColosseumOfTheMagiExtender.obj
 0001:0002c970       ?SetAiMapItemWeight@ColosseumOfTheMagiExtender@colosseumOfTheMagi@@EBEHPAUH3MapItem@h3@@PBUH3Hero@4@PBUH3Player@4@AAH@Z 1002d970 f   ColosseumOfTheMagiExtender.obj
 0001:0002ca30       ??1ColosseumOfTheMagiExtender@colosseumOfTheMagi@@EAE@XZ 1002da30 f   ColosseumOfTheMagiExtender.obj
 0001:0002ca60       ??0ColosseumOfTheMagiExtender@colosseumOfTheMagi@@AAE@XZ 1002da60 f   ColosseumOfTheMagiExtender.obj
 0001:0002caf0       ?Get@ColosseumOfTheMagiExtender@colosseumOfTheMagi@@SAAAV12@XZ 1002daf0 f   ColosseumOfTheMagiExtender.obj
 0001:0002cbd0       ?ShrinkToFit@CreatureBanksExtender@cbanks@@AAEXXZ 1002dbd0 f   CreatureBanksExtender.obj
 0001:0002ccd0       ?Reserve@CreatureBanksExtender@cbanks@@AAEXG@Z 1002dcd0 f   CreatureBanksExtender.obj
 0001:0002cda0       ?Resize@CreatureBanksExtender@cbanks@@AAEXG@Z 1002dda0 f   CreatureBanksExtender.obj
 0001:0002cf90       ??1CreatureBanksExtender@cbanks@@EAE@XZ 1002df90 f   CreatureBanksExtender.obj
 0001:0002cfd0       ?CopyDefaultData@CreatureBank@CreatureBanksExtender@cbanks@@QAEXI@Z 1002dfd0 f   CreatureBanksExtender.obj
 0001:0002d170       ?Size@CreatureBanksExtender@cbanks@@QBEIXZ 1002e170 f   CreatureBanksExtender.obj
 0001:0002d180       ?GetBankSetupsNumberFromJson@CreatureBanksExtender@cbanks@@AAE?BHF@Z 1002e180 f   CreatureBanksExtender.obj
 0001:0002d8f0       ?CreateRMGObjectGen@CreatureBanksExtender@cbanks@@MBEPAUH3RmgObjectGenerator@h3@@ABURMGObjectInfo@@@Z 1002e8f0 f   CreatureBanksExtender.obj
 0001:0002d970       ?AfterLoadingObjectTxtProc@CreatureBanksExtender@cbanks@@EAEXPBF@Z 1002e970 f   CreatureBanksExtender.obj
 0001:0002db60       ?GetCreatureBankObjectType@CreatureBanksExtender@cbanks@@SA?AW4eObjectTypes@NObjectTypes@NH3Objects@h3@@H@Z 1002eb60 f   CreatureBanksExtender.obj
 0001:0002dbb0       ?GetCreatureBankId@CreatureBanksExtender@cbanks@@SAHHH@Z 1002ebb0 f   CreatureBanksExtender.obj
 0001:0002dce0       ?CrBank_AskForVisitMessage@CreatureBanksExtender@cbanks@@CGXPAVHiHook@@PADHHHHHHHHHHH@Z 1002ece0 f   CreatureBanksExtender.obj
 0001:0002df80       ?CrBank_CombatStart@CreatureBanksExtender@cbanks@@CGHPAVHiHook@@IIIIHIIIHHH@Z 1002ef80 f   CreatureBanksExtender.obj
 0001:0002dfd0       ?SpecialCrBank_DisplayPreCombatMessage@CreatureBanksExtender@cbanks@@CGHPAVLoHook@@PAUHookContext@@@Z 1002efd0 f   CreatureBanksExtender.obj
 0001:0002e050       ?CustomAskForCombatStartDlg@cbanks@@YAXPADPAUH3MapItem@h3@@HHH@Z 1002f050 f   CreatureBanksExtender.obj
 0001:0002e080       ?CrBank_BeforeCombatStart@CreatureBanksExtender@cbanks@@CGHPAVLoHook@@PAUHookContext@@@Z 1002f080 f   CreatureBanksExtender.obj
 0001:0002e0c0       ?CrBank_DisplayPreCombatMessage@CreatureBanksExtender@cbanks@@CGHPAVLoHook@@PAUHookContext@@@Z 1002f0c0 f   CreatureBanksExtender.obj
 0001:0002e140       ?CreatePatches@CreatureBanksExtender@cbanks@@EAEXXZ 1002f140 f   CreatureBanksExtender.obj
 0001:0002e290       ?OnAfterReloadLanguageData@CreatureBanksExtender@cbanks@@CGXPAUTEvent@Era@@@Z 1002f290 f   CreatureBanksExtender.obj
 0001:0002e420       ??0CreatureBanksExtender@cbanks@@AAE@XZ 1002f420 f   CreatureBanksExtender.obj
 0001:0002e520       ?ShowMultiplePicsArmyMessage@cbanks@@YAHPBDHHHPAUH3Army@h3@@@Z 1002f520 f   CreatureBanksExtender.obj
 0001:0002e900       ?GetArmyMessage@cbanks@@YAHPBUH3CreatureBank@h3@@AAUH3String@3@_N@Z 1002f900 f   CreatureBanksExtender.obj
 0001:0002e950       ?Get@CreatureBanksExtender@cbanks@@SAAAV12@XZ 1002f950 f   CreatureBanksExtender.obj
 0001:0002ea30       ?CreateRMGObjectGen@GazeboExtender@gazebo@@EBEPAUH3RmgObjectGenerator@h3@@ABURMGObjectInfo@@@Z 1002fa30 f   GazeboExtender.obj
 0001:0002eac0       ?CreatePatches@GazeboExtender@gazebo@@EAEXXZ 1002fac0 f   GazeboExtender.obj
 0001:0002eaf0       ?SetHintInH3TextBuffer@GazeboExtender@gazebo@@EBEHPAUH3MapItem@h3@@PBUH3Hero@4@PBUH3Player@4@H@Z 1002faf0 f   GazeboExtender.obj
 0001:0002ec80       ?Game__NewGameBeforeSetObjectsInitialParameters@gazebo@@YGHPAVLoHook@@PAUHookContext@@@Z 1002fc80 f   GazeboExtender.obj
 0001:0002eca0       ?InitNewGameMapItemSetup@GazeboExtender@gazebo@@EBEHPAUH3MapItem@h3@@@Z 1002fca0 f   GazeboExtender.obj
 0001:0002ece0       ?GetHeroLearningPower@gazebo@@YAMPBUH3Hero@h3@@@Z 1002fce0 f   GazeboExtender.obj
 0001:0002ed00       ?VisitMapItem@GazeboExtender@gazebo@@EBEHPAUH3Hero@h3@@PAUH3MapItem@4@UH3Position@4@H@Z 1002fd00 f   GazeboExtender.obj
 0001:0002ef60       ?ShowMessage@gazebo@@YAXPBUH3MapItem@h3@@H_N@Z 1002ff60 f   GazeboExtender.obj
 0001:0002f200       ?SetAiMapItemWeight@GazeboExtender@gazebo@@EBEHPAUH3MapItem@h3@@PBUH3Hero@4@PBUH3Player@4@AAH@Z 10030200 f   GazeboExtender.obj
 0001:0002f2e0       ??1GazeboExtender@gazebo@@EAE@XZ 100302e0 f   GazeboExtender.obj
 0001:0002f310       ??0GazeboExtender@gazebo@@AAE@XZ 10030310 f   GazeboExtender.obj
 0001:0002f3a0       ?Get@GazeboExtender@gazebo@@SAAAV12@XZ 100303a0 f   GazeboExtender.obj
 0001:0002f480       ?CreateRMGObjectGen@ShrinesExternder@shrines@@MBEPAUH3RmgObjectGenerator@h3@@ABURMGObjectInfo@@@Z 10030480 f   ShrinesExternder.obj
 0001:0002f510       ?CreatePatches@ShrinesExternder@shrines@@MAEXXZ 10030510 f   ShrinesExternder.obj
 0001:0002f560       ?Shrine__AtGetHint@ShrinesExternder@shrines@@CGHPAVLoHook@@PAUHookContext@@@Z 10030560 f   ShrinesExternder.obj
 0001:0002f640       ?Shrine__AtGetName@ShrinesExternder@shrines@@CGHPAVLoHook@@PAUHookContext@@@Z 10030640 f   ShrinesExternder.obj
 0001:0002f740       ?Game__AtShrineOfMagicIncantationSettingSpell@ShrinesExternder@shrines@@CGHPAVLoHook@@PAUHookContext@@@Z 10030740 f   ShrinesExternder.obj
 0001:0002f790       ??1ShrinesExternder@shrines@@EAE@XZ 10030790 f   ShrinesExternder.obj
 0001:0002f7c0       ??0ShrinesExternder@shrines@@AAE@XZ 100307c0 f   ShrinesExternder.obj
 0001:0002f880       ?Get@ShrinesExternder@shrines@@SAAAV12@XZ 10030880 f   ShrinesExternder.obj
 0001:0002f980       ?Reset@H3MapItemWarehouse@warehouses@@QAEXXZ 10030980 f   WarehousesExtender.obj
 0001:0002f9e0       ?CreatePatches@WarehousesExtender@warehouses@@EAEXXZ 100309e0 f   WarehousesExtender.obj
 0001:0002f9f0       ?CreateRMGObjectGen@WarehousesExtender@warehouses@@EBEPAUH3RmgObjectGenerator@h3@@ABURMGObjectInfo@@@Z 100309f0 f   WarehousesExtender.obj
 0001:0002fa70       ?SetAiMapItemWeight@WarehousesExtender@warehouses@@EBEHPAUH3MapItem@h3@@PBUH3Hero@4@PBUH3Player@4@AAH@Z 10030a70 f   WarehousesExtender.obj
 0001:0002fb30       ?VisitMapItem@WarehousesExtender@warehouses@@EBEHPAUH3Hero@h3@@PAUH3MapItem@4@UH3Position@4@H@Z 10030b30 f   WarehousesExtender.obj
 0001:0002fc20       ?InitNewWeekMapItemSetup@WarehousesExtender@warehouses@@EBEHPAUH3MapItem@h3@@@Z 10030c20 f   WarehousesExtender.obj
 0001:0002fc50       ?InitNewGameMapItemSetup@WarehousesExtender@warehouses@@EBEHPAUH3MapItem@h3@@@Z 10030c50 f   WarehousesExtender.obj
 0001:0002fc90       ?SetHintInH3TextBuffer@WarehousesExtender@warehouses@@EBEHPAUH3MapItem@h3@@PBUH3Hero@4@PBUH3Player@4@H@Z 10030c90 f   WarehousesExtender.obj
 0001:0002fdd0       ?ShowMessage@warehouses@@YAXPBUH3MapItem@h3@@HH@Z 10030dd0 f   WarehousesExtender.obj
 0001:00030010       ??1WarehousesExtender@warehouses@@EAE@XZ 10031010 f   WarehousesExtender.obj
 0001:00030040       ??0WarehousesExtender@warehouses@@AAE@XZ 10031040 f   WarehousesExtender.obj
 0001:00030090       ?Get@WarehousesExtender@warehouses@@SAAAV12@XZ 10031090 f   WarehousesExtender.obj
 0001:00030150       ?CreateRMGObjectGen@WateringPlaceExtender@wateringPlace@@EBEPAUH3RmgObjectGenerator@h3@@ABURMGObjectInfo@@@Z 10031150 f   WateringPlaceExtender.obj
 0001:000301e0       ?CreatePatches@WateringPlaceExtender@wateringPlace@@EAEXXZ 100311e0 f   WateringPlaceExtender.obj
 0001:00030220       ?WateringPlace_HeroReset@wateringPlace@@YGHPAVLoHook@@PAUHookContext@@@Z 10031220 f   WateringPlaceExtender.obj
 0001:00030260       ?OnEveryDay@wateringPlace@@YGXPAUTEvent@Era@@@Z 10031260 f   WateringPlaceExtender.obj
 0001:00030360       ?SetHintInH3TextBuffer@WateringPlaceExtender@wateringPlace@@EBEHPAUH3MapItem@h3@@PBUH3Hero@4@PBUH3Player@4@H@Z 10031360 f   WateringPlaceExtender.obj
 0001:000304f0       ?VisitMapItem@WateringPlaceExtender@wateringPlace@@EBEHPAUH3Hero@h3@@PAUH3MapItem@4@UH3Position@4@H@Z 100314f0 f   WateringPlaceExtender.obj
 0001:00030730       ?AskQuestion@wateringPlace@@YAHPBUH3MapItem@h3@@@Z 10031730 f   WateringPlaceExtender.obj
 0001:00030840       ?ShowMessage@wateringPlace@@YAXPBUH3MapItem@h3@@@Z 10031840 f   WateringPlaceExtender.obj
 0001:00030990       ?SetAiMapItemWeight@WateringPlaceExtender@wateringPlace@@EBEHPAUH3MapItem@h3@@PBUH3Hero@4@PBUH3Player@4@AAH@Z 10031990 f   WateringPlaceExtender.obj
 0001:000309a0       ??1WateringPlaceExtender@wateringPlace@@EAE@XZ 100319a0 f   WateringPlaceExtender.obj
 0001:000309d0       ?WoGObjectHasOptionEnabled@WoGObjectsExtender@wog@@SAHPBUH3RmgObjectGenerator@h3@@@Z 100319d0 f   WoGObjectsExtender.obj
 0001:000309f0       ?IsWoGObject@WoGObjectsExtender@wog@@SAHPBUH3RmgObjectGenerator@h3@@@Z 100319f0 f   WoGObjectsExtender.obj
 0001:00030a10       ?AfterLoadingObjectTxtProc@WoGObjectsExtender@wog@@MAEXPBF@Z 10031a10 f   WoGObjectsExtender.obj
 0001:00030ab0       ?CreateRMGObjectGen@WoGObjectsExtender@wog@@MBEPAUH3RmgObjectGenerator@h3@@ABURMGObjectInfo@@@Z 10031ab0 f   WoGObjectsExtender.obj
 0001:00030b40       ?CreatePatches@WoGObjectsExtender@wog@@MAEXXZ 10031b40 f   WoGObjectsExtender.obj
 0001:00030b50       ??1WoGObjectsExtender@wog@@EAE@XZ 10031b50 f   WoGObjectsExtender.obj
 0001:00030b80       ??0WoGObjectsExtender@wog@@AAE@XZ 10031b80 f   WoGObjectsExtender.obj
 0001:00030bd0       ?Get@WoGObjectsExtender@wog@@SAAAV12@XZ 10031bd0 f   WoGObjectsExtender.obj
 0001:00030c90       ?CreatePatches@ObjectsExtender@extender@@MAEXXZ 10031c90 f   ObjectsExtender.obj
 0001:00030d80       ?Game__NewWeekObjectIteration@ObjectsExtender@extender@@CGHPAVLoHook@@PAUHookContext@@@Z 10031d80 f   ObjectsExtender.obj
 0001:00030dc0       ?Game__NewGameObjectIteration@ObjectsExtender@extender@@CGHPAVLoHook@@PAUHookContext@@@Z 10031dc0 f   ObjectsExtender.obj
 0001:00030e00       ?AIHero_GetObjectPosWeight@ObjectsExtender@extender@@CGHPAVLoHook@@PAUHookContext@@@Z 10031e00 f   ObjectsExtender.obj
 0001:00030e90       ?H3AdventureManager__GetDefaultObjectHoverHint@ObjectsExtender@extender@@CGHPAVLoHook@@PAUHookContext@@@Z 10031e90 f   ObjectsExtender.obj
 0001:00030eb0       ?H3AdventureManager__GetDefaultObjectClickHint@ObjectsExtender@extender@@CGHPAVLoHook@@PAUHookContext@@@Z 10031eb0 f   ObjectsExtender.obj
 0001:00030ed0       ?ShowObjectHint@ObjectsExtender@extender@@CAHPAVLoHook@@PAUHookContext@@H@Z 10031ed0 f   ObjectsExtender.obj
 0001:00031010       ?H3AdventureManager__ObjectVisit@ObjectsExtender@extender@@CGHPAVLoHook@@PAUHookContext@@@Z 10032010 f   ObjectsExtender.obj
 0001:00031080       ?AddObjectsToObjectGenList@ObjectsExtender@extender@@SAXPAU?$H3Vector@PAUH3RmgObjectGenerator@h3@@@h3@@@Z 10032080 f   ObjectsExtender.obj
 0001:00031280       ??RHashFunction@RMGObjectSetable@extender@@QBEIABU12@@Z 10032280 f   ObjectsExtender.obj
 0001:00031300       ??8RMGObjectSetable@extender@@QBE_NABU01@@Z 10032300 f   ObjectsExtender.obj
 0001:00031320       ?CreateRMGObjectGen@ObjectsExtender@extender@@MBEPAUH3RmgObjectGenerator@h3@@ABURMGObjectInfo@@@Z 10032320 f   ObjectsExtender.obj
 0001:00031390       ?H3GameMainSetup__LoadObjects@ObjectsExtender@extender@@CGXPAVHiHook@@PBUH3MainSetup@h3@@@Z 10032390 f   ObjectsExtender.obj
 0001:00031990       ?LoadMapObjectPropertiesFromLoadedMods@ObjectsExtender@extender@@CAXXZ 10032990 f   ObjectsExtender.obj
 0001:00031b80       ?LoadMapObjectPropertiesByTypeSubtypes@ObjectsExtender@extender@@CAXXZ 10032b80 f   ObjectsExtender.obj
 0001:00031ce0       ?LoadObjectsTxt@ObjectsExtender@extender@@CGHPAVLoHook@@PAUHookContext@@@Z 10032ce0 f   ObjectsExtender.obj
 0001:00032050       ?AddLine@EditableH3TextFile@extender@@QAEXPBD@Z 10033050 f   ObjectsExtender.obj
 0001:00032090       ?SetAiMapItemWeight@ObjectsExtender@extender@@MBEHPAUH3MapItem@h3@@PBUH3Hero@4@PBUH3Player@4@AAH@Z 10033090 f   ObjectsExtender.obj
 0001:000320a0       ?SetHintInH3TextBuffer@ObjectsExtender@extender@@MBEHPAUH3MapItem@h3@@PBUH3Hero@4@PBUH3Player@4@H@Z 100330a0 f   ObjectsExtender.obj
 0001:000320b0       ?VisitMapItem@ObjectsExtender@extender@@MBEHPAUH3Hero@h3@@PAUH3MapItem@4@UH3Position@4@H@Z 100330b0 f   ObjectsExtender.obj
 0001:000320c0       ?InitNewGameMapItemSetup@ObjectsExtender@extender@@MBEHPAUH3MapItem@h3@@@Z 100330c0 f   ObjectsExtender.obj
 0001:000320d0       ?CreateDefaultH3RmgObjectGenerator@ObjectsExtender@extender@@KAPAUH3RmgObjectGenerator@h3@@ABURMGObjectInfo@@@Z 100330d0 f   ObjectsExtender.obj
 0001:00032140       ?InitNewWeekMapItemSetup@ObjectsExtender@extender@@MBEHPAUH3MapItem@h3@@@Z 10033140 f   ObjectsExtender.obj
 0001:00032150       ?AfterLoadingObjectTxtProc@ObjectsExtender@extender@@MAEXPBF@Z 10033150 f   ObjectsExtender.obj
 0001:00032160       ??1ObjectsExtender@extender@@MAE@XZ 10033160 f   ObjectsExtender.obj
 0001:00032190       ??0ObjectsExtender@extender@@IAE@PAVPatcherInstance@@@Z 10033190 f   ObjectsExtender.obj
 0001:000322d0       ?Inited@GeneratedInfo@@QBEHXZ 100332d0 f   RMGObjectsEditor.obj
 0001:000322e0       ?Clear@GeneratedInfo@@QAEXPBUH3RmgRandomMapGenerator@h3@@@Z 100332e0 f   RMGObjectsEditor.obj
 0001:00032330       ?ObjectCantBeGenerated@GeneratedInfo@@QBEHPBUH3RmgObjectGenerator@h3@@H@Z 10033330 f   RMGObjectsEditor.obj
 0001:000323a0       ?Assign@GeneratedInfo@@QAEXPBUH3RmgRandomMapGenerator@h3@@AAY0OI@$$CBV?$vector@URMGObjectInfo@@V?$allocator@URMGObjectInfo@@@std@@@std@@@Z 100333a0 f   RMGObjectsEditor.obj
 0001:00032660       ?create2DArray@@YAPAHHH@Z  10033660 f   RMGObjectsEditor.obj
 0001:00032680       ?create3DArray@@YAPAHHHH@Z 10033680 f   RMGObjectsEditor.obj
 0001:000326b0       ?GetObjectName@RMGObjectInfo@@SAPBDHH@Z 100336b0 f   RMGObjectsEditor.obj
 0001:000328f0       ?LoadUserProperties@RMGObjectInfo@@SAXPBF@Z 100338f0 f   RMGObjectsEditor.obj
 0001:00032a20       ?InitDefaultProperties@RMGObjectInfo@@SAXABUObjectLimitsInfo@@PBF@Z 10033a20 f   RMGObjectsEditor.obj
 0001:00032d60       ?InitFromRmgObjectGenerator@RMGObjectInfo@@SAXABUH3RmgObjectGenerator@h3@@@Z 10033d60 f   RMGObjectsEditor.obj
 0001:00032e10       ?WriteToINI@RMGObjectInfo@@QBEHXZ 10033e10 f   RMGObjectsEditor.obj
 0001:00032fb0       ?GetName@RMGObjectInfo@@QBEPBDXZ 10033fb0 f   RMGObjectsEditor.obj
 0001:00032ff0       ??0RMGObjectInfo@@QAE@XZ   10033ff0 f   RMGObjectsEditor.obj
 0001:00033030       ?MakeReal@RMGObjectInfo@@QBEXXZ 10034030 f   RMGObjectsEditor.obj
 0001:00033080       ?SetRandom@RMGObjectInfo@@QAEXXZ 10034080 f   RMGObjectsEditor.obj
 0001:000331f0       ?RestoreDefault@RMGObjectInfo@@QAEXXZ 100341f0 f   RMGObjectsEditor.obj
 0001:00033230       ?Clamp@RMGObjectInfo@@QAEHXZ 10034230 f   RMGObjectsEditor.obj
 0001:000332e0       ?IncreaseObjectsCounters@GeneratedInfo@@QAEXPBUH3RmgObjectProperties@h3@@H@Z 100342e0 f   RMGObjectsEditor.obj
 0001:00033320       ?CreatePatches@RMGObjectsEditor@editor@@EAEXXZ 10034320 f   RMGObjectsEditor.obj
 0001:00033450       ?AfterMapGeneration@RMGObjectsEditor@editor@@AAEXPAUH3RmgRandomMapGenerator@h3@@@Z 10034450 f   RMGObjectsEditor.obj
 0001:00033500       ?RMG__AfterMapGenerated@RMGObjectsEditor@editor@@CGXPAVHiHook@@PAUH3RmgRandomMapGenerator@h3@@@Z 10034500 f   RMGObjectsEditor.obj
 0001:000335c0       ?BeforeMapGeneration@RMGObjectsEditor@editor@@ABEXPBUH3RmgRandomMapGenerator@h3@@@Z 100345c0 f   RMGObjectsEditor.obj
 0001:00033640       ?RMG__InitGenZones@RMGObjectsEditor@editor@@CGXPAVHiHook@@PBUH3RmgRandomMapGenerator@h3@@PBUH3RmgTemplate@5@@Z 10034640 f   RMGObjectsEditor.obj
 0001:000336d0       ?RMG__RMGDwellingObject_AtGettingValue@editor@@YGHPAVHiHook@@PBUH3RmgObjectGenerator@h3@@PBUH3RmgZoneGenerator@4@PBUH3RmgRandomMapGenerator@4@@Z 100346d0 f   RMGObjectsEditor.obj
 0001:000337f0       ?RMG__RMGObject_AtPlacement@RMGObjectsEditor@editor@@CGHPAVLoHook@@PAUHookContext@@@Z 100347f0 f   RMGObjectsEditor.obj
 0001:00033850       ?RMG__ZoneGeneration__AfterObjectTypeZoneLimitCheck@RMGObjectsEditor@editor@@CGHPAVLoHook@@PAUHookContext@@@Z 10034850 f   RMGObjectsEditor.obj
 0001:000338f0       ?RMG__CreateObjectGenerators@RMGObjectsEditor@editor@@CGXPAVHiHook@@PAUH3RmgRandomMapGenerator@h3@@@Z 100348f0 f   RMGObjectsEditor.obj
 0001:00033c70       ??1RMGObjectsEditor@editor@@EAE@XZ 10034c70 f   RMGObjectsEditor.obj
 0001:00033d10       ?GetObjectGeneratorsList@RMGObjectsEditor@editor@@QBEABU?$H3Vector@PAUH3RmgObjectGenerator@h3@@@h3@@XZ 10034d10 f   RMGObjectsEditor.obj
 0001:00033d20       ?InitDefaultProperties@RMGObjectsEditor@editor@@AAEXPBF@Z 10034d20 f   RMGObjectsEditor.obj
 0001:00033e80       ?MaxMapTypeLimit@RMGObjectsEditor@editor@@QBEHI@Z 10034e80 f   RMGObjectsEditor.obj
 0001:00033ea0       ??0RMGObjectsEditor@editor@@AAE@XZ 10034ea0 f   RMGObjectsEditor.obj
 0001:00034030       ?Init@RMGObjectsEditor@editor@@SAXPBF@Z 10035030 f   RMGObjectsEditor.obj
 0001:00034220       ??0RMGObjectInfo@@QAE@HH@Z 10035220 f   RMGObjectsEditor.obj
 0001:00034260       ?GetObjectName@RMGObjectInfo@@SAPBDPBUH3MapItem@h3@@@Z 10035260 f   RMGObjectsEditor.obj
 0001:00034280       ?Get@RMGObjectsEditor@editor@@SAAAV12@XZ 10035280 f   RMGObjectsEditor.obj
 0001:00034450       ?GameStart@rmgdlg@@YGXPAVHiHook@@K@Z 10035450 f   RMG_SettingsDlg.obj
 0001:00034610       ?CreateGraphics@rmgdlg@@YAXABU?$H3Vector@PAUH3RmgObjectGenerator@h3@@@h3@@@Z 10035610 f   RMG_SettingsDlg.obj
 0001:00034740       ?CreateResizedObjectPcx@rmgdlg@@YAXXZ 10035740 f   RMG_SettingsDlg.obj
 0001:000348b0       ?NewScenarioDlg_Create@RMG_SettingsDlg@rmgdlg@@CGXPAVHiHook@@PAUH3SelectScenarioDialog@h3@@K@Z 100358b0 f   RMG_SettingsDlg.obj
 0001:00034c40       ?SelectScenarioDlgRandomizeProc@rmgdlg@@YIHPAUH3Msg@h3@@@Z 10035c40 f   RMG_SettingsDlg.obj
 0001:00034e30       ?RMG_SetRandSeed@rmgdlg@@YGXPAVHiHook@@PAK@Z 10035e30 f   RMG_SettingsDlg.obj
 0001:00034e60       ?H3SelectScenarioDialog_HideRandomMapsSettings@RMG_SettingsDlg@rmgdlg@@CGHPAVLoHook@@PAUHookContext@@@Z 10035e60 f   RMG_SettingsDlg.obj
 0001:00034eb0       ?H3SelectScenarioDialog_ShowRandomMapsSettings@RMG_SettingsDlg@rmgdlg@@CGHPAVLoHook@@PAUHookContext@@@Z 10035eb0 f   RMG_SettingsDlg.obj
 0001:00035020       ?H3SelectScenarioDialog_StartButtonClick@RMG_SettingsDlg@rmgdlg@@CGHPAVLoHook@@PAUHookContext@@@Z 10036020 f   RMG_SettingsDlg.obj
 0001:00035070       ?Dlg_SelectScenario_Proc@RMG_SettingsDlg@rmgdlg@@CGHPAVLoHook@@PAUHookContext@@@Z 10036070 f   RMG_SettingsDlg.obj
 0001:00035210       ?GetObjectPrototypesLists@rmgdlg@@YAXXZ 10036210 f   RMG_SettingsDlg.obj
 0001:00035660       ?FindDataInObjectGeneratorsList@rmgdlg@@YAXAAV?$vector@U?$pair@UH3ObjectAttributes@h3@@PAUH3LoadedPcx16@2@@std@@V?$allocator@U?$pair@UH3ObjectAttributes@h3@@PAUH3LoadedPcx16@2@@std@@@2@@std@@@Z 10036660 f   RMG_SettingsDlg.obj
 0001:00035800       ?GetObjectPrototypesByTypes@rmgdlg@@YAXAAV?$vector@U?$pair@UH3ObjectAttributes@h3@@PAUH3LoadedPcx16@2@@std@@V?$allocator@U?$pair@UH3ObjectAttributes@h3@@PAUH3LoadedPcx16@2@@std@@@2@@std@@PBHI@Z 10036800 f   RMG_SettingsDlg.obj
 0001:00035950       ??1MiscPage@RMG_SettingsDlg@rmgdlg@@UAE@XZ 10036950 f   RMG_SettingsDlg.obj
 0001:00035960       ?SetVisible@PageHeader@ObjectsPage@RMG_SettingsDlg@rmgdlg@@QAEX_N@Z 10036960 f   RMG_SettingsDlg.obj
 0001:000359d0       ??0PageHeader@ObjectsPage@RMG_SettingsDlg@rmgdlg@@QAE@HHHHH@Z 100369d0 f   RMG_SettingsDlg.obj
 0001:00035e70       ??0RMGObject@rmgdlg@@QAE@ABUH3ObjectAttributes@h3@@PAUH3LoadedPcx16@3@@Z 10036e70 f   RMG_SettingsDlg.obj
 0001:00035f20       ?SetActivePage@RMG_SettingsDlg@rmgdlg@@AAEHPAUPage@12@@Z 10036f20 f   RMG_SettingsDlg.obj
 0001:00036040       ?OnCreate@RMG_SettingsDlg@rmgdlg@@EAEHXZ 10037040 f   RMG_SettingsDlg.obj
 0001:000360e0       ?HorizontalScrollBarProc@ObjectsPage@RMG_SettingsDlg@rmgdlg@@CIXHPAUH3BaseDlg@h3@@@Z 100370e0 f   RMG_SettingsDlg.obj
 0001:00036100       ?VerticalScrollBarProc@ObjectsPage@RMG_SettingsDlg@rmgdlg@@CIXHPAUH3BaseDlg@h3@@@Z 10037100 f   RMG_SettingsDlg.obj
 0001:00036150       ?ResetSortingState@ObjectsPage@RMG_SettingsDlg@rmgdlg@@QAEXXZ 10037150 f   RMG_SettingsDlg.obj
 0001:00036180       ??0Page@RMG_SettingsDlg@rmgdlg@@QAE@PAUH3DlgCaptionButton@h3@@@Z 10037180 f   RMG_SettingsDlg.obj
 0001:000361d0       ?Proc@ObjectsPage@RMG_SettingsDlg@rmgdlg@@MAEHAAUH3Msg@h3@@@Z 100371d0 f   RMG_SettingsDlg.obj
 0001:00036560       ??1BanksPage@RMG_SettingsDlg@rmgdlg@@UAE@XZ 10037560 f   RMG_SettingsDlg.obj
 0001:00036570       ?ShowObjectExtendedInfo@BanksPage@RMG_SettingsDlg@rmgdlg@@UBEHPBUObjectsPanel@23@ABUH3Msg@h3@@@Z 10037570 f   RMG_SettingsDlg.obj
 0001:000365b0       ?ShowObjectExtendedInfo@ObjectsPage@RMG_SettingsDlg@rmgdlg@@MBEHPBUObjectsPanel@23@ABUH3Msg@h3@@@Z 100375b0 f   RMG_SettingsDlg.obj
 0001:00036790       ?FillObjects@ObjectsPage@RMG_SettingsDlg@rmgdlg@@MAEXH@Z 10037790 f   RMG_SettingsDlg.obj
 0001:000368b0       ??0ObjectsPage@RMG_SettingsDlg@rmgdlg@@QAE@PAUH3DlgCaptionButton@h3@@ABV?$vector@U?$pair@UH3ObjectAttributes@h3@@PAUH3LoadedPcx16@2@@std@@V?$allocator@U?$pair@UH3ObjectAttributes@h3@@PAUH3LoadedPcx16@2@@std@@@2@@std@@H@Z 100378b0 f   RMG_SettingsDlg.obj
 0001:00036d20       ?SetDefault@ObjectsPage@RMG_SettingsDlg@rmgdlg@@MAEXXZ 10037d20 f   RMG_SettingsDlg.obj
 0001:00036d80       ?SetRandom@ObjectsPage@RMG_SettingsDlg@rmgdlg@@MAEXABUH3Msg@h3@@@Z 10037d80 f   RMG_SettingsDlg.obj
 0001:00036db0       ?SaveData@ObjectsPage@RMG_SettingsDlg@rmgdlg@@MAEXXZ 10037db0 f   RMG_SettingsDlg.obj
 0001:00036e20       ?SetVisible@ObjectsPage@RMG_SettingsDlg@rmgdlg@@MAEX_N@Z 10037e20 f   RMG_SettingsDlg.obj
 0001:00036f10       ??1RMG_SettingsDlg@rmgdlg@@EAE@XZ 10037f10 f   RMG_SettingsDlg.obj
 0001:000370d0       ?H3DlgEdit__TranslateInputKey@RMG_SettingsDlg@rmgdlg@@CGPAUH3Msg@h3@@PAVHiHook@@PAUH3InputManager@4@PAU34@@Z 100380d0 f   RMG_SettingsDlg.obj
 0001:00037120       ??1ObjectsPage@RMG_SettingsDlg@rmgdlg@@UAE@XZ 10038120 f   RMG_SettingsDlg.obj
 0001:00037290       ??1Page@RMG_SettingsDlg@rmgdlg@@UAE@XZ 10038290 f   RMG_SettingsDlg.obj
 0001:000372a0       ?PanelInfoToObjectInfo@ObjectsPanel@RMG_SettingsDlg@rmgdlg@@QAEXXZ 100382a0 f   RMG_SettingsDlg.obj
 0001:00037320       ?ObjectInfoToPanelInfo@ObjectsPanel@RMG_SettingsDlg@rmgdlg@@QAEXXZ 10038320 f   RMG_SettingsDlg.obj
 0001:00037460       ?UnfocusEdits@ObjectsPanel@RMG_SettingsDlg@rmgdlg@@QAE?BHH@Z 10038460 f   RMG_SettingsDlg.obj
 0001:00037550       ?SetObject@ObjectsPanel@RMG_SettingsDlg@rmgdlg@@QAEXPAVRMGObject@3@@Z 10038550 f   RMG_SettingsDlg.obj
 0001:000375c0       ?SetVisible@ObjectsPanel@RMG_SettingsDlg@rmgdlg@@QAEXH@Z 100385c0 f   RMG_SettingsDlg.obj
 0001:00037620       ??1ObjectsPanel@RMG_SettingsDlg@rmgdlg@@UAE@XZ 10038620 f   RMG_SettingsDlg.obj
 0001:00037690       ??0ObjectsPanel@RMG_SettingsDlg@rmgdlg@@QAE@HHPAUPage@12@@Z 10038690 f   RMG_SettingsDlg.obj
 0001:00037ca0       ??0BanksPage@RMG_SettingsDlg@rmgdlg@@QAE@PAUH3DlgCaptionButton@h3@@ABV?$vector@U?$pair@UH3ObjectAttributes@h3@@PAUH3LoadedPcx16@2@@std@@V?$allocator@U?$pair@UH3ObjectAttributes@h3@@PAUH3LoadedPcx16@2@@std@@@2@@std@@H@Z 10038ca0 f   RMG_SettingsDlg.obj
 0001:00037cd0       ?CreateHorizontalScrollBar@ObjectsPage@RMG_SettingsDlg@rmgdlg@@IAEXXZ 10038cd0 f   RMG_SettingsDlg.obj
 0001:00037e10       ?CreateVerticalScrollBar@ObjectsPage@RMG_SettingsDlg@rmgdlg@@IAEXXZ 10038e10 f   RMG_SettingsDlg.obj
 0001:00037f10       ?SaveRMGObjectsInfo@RMG_SettingsDlg@rmgdlg@@ABEHH@Z 10038f10 f   RMG_SettingsDlg.obj
 0001:00038030       ?WriteIniDlgSettings@RMG_SettingsDlg@rmgdlg@@ABEHXZ 10039030 f   RMG_SettingsDlg.obj
 0001:00038120       ?ReadIniDlgSettings@RMG_SettingsDlg@rmgdlg@@AAEHXZ 10039120 f   RMG_SettingsDlg.obj
 0001:00038190       ?OnCancel@RMG_SettingsDlg@rmgdlg@@EAEXXZ 10039190 f   RMG_SettingsDlg.obj
 0001:000381d0       ?OnOK@RMG_SettingsDlg@rmgdlg@@EAEXXZ 100391d0 f   RMG_SettingsDlg.obj
 0001:00038380       ?RemoveEditsFocus@RMG_SettingsDlg@rmgdlg@@ABEHH@Z 10039380 f   RMG_SettingsDlg.obj
 0001:000384b0       ?DialogProc@RMG_SettingsDlg@rmgdlg@@EAEHAAUH3Msg@h3@@@Z 100394b0 f   RMG_SettingsDlg.obj
 0001:00038700       ?OnHelp@RMG_SettingsDlg@rmgdlg@@ABEXXZ 10039700 f   RMG_SettingsDlg.obj
 0001:000388c0       ??0RMG_SettingsDlg@rmgdlg@@QAE@HHHH@Z 100398c0 f   RMG_SettingsDlg.obj
 0001:00039280       ?GetUserRandSeedInput@RMG_SettingsDlg@rmgdlg@@SAKXZ 1003a280 f   RMG_SettingsDlg.obj
 0001:00039290       _RMGObjectSupportsGeneration 1003a290 f   RMG_SettingsDlg.obj
 0001:00039440       ?SortRmgObjects@sorting@rmgdlg@@YAXAAV?$vector@VRMGObject@rmgdlg@@V?$allocator@VRMGObject@rmgdlg@@@std@@@std@@W4eSorting@12@_N@Z 1003a440 f   RMG_SettingsDlg.obj
 0001:000394c0       ?GetObjectAttributes@RMG_SettingsDlg@rmgdlg@@SAABV?$vector@PAV?$vector@U?$pair@UH3ObjectAttributes@h3@@PAUH3LoadedPcx16@2@@std@@V?$allocator@U?$pair@UH3ObjectAttributes@h3@@PAUH3LoadedPcx16@2@@std@@@2@@std@@V?$allocator@PAV?$vector@U?$pair@UH3ObjectAttributes@h3@@PAUH3LoadedPcx16@2@@std@@V?$allocator@U?$pair@UH3ObjectAttributes@h3@@PAUH3LoadedPcx16@2@@std@@@2@@std@@@2@@std@@XZ 1003a4c0 f   RMG_SettingsDlg.obj
 0001:000394d0       ?SetPatches@RMG_SettingsDlg@rmgdlg@@SAXPAVPatcherInstance@@@Z 1003a4d0 f   RMG_SettingsDlg.obj
 0001:00039630       __ftol3                    1003a630 f   LIBCMT:ftol3.obj
 0001:00039699       ??0__non_rtti_object@std@@QAE@ABV01@@Z 1003a699 f i libvcruntime:rtti.obj
 0001:000396b4       ??0bad_typeid@std@@QAE@ABV01@@Z 1003a6b4 f i libvcruntime:rtti.obj
 0001:00039a6a       ?__construct_from_string_literal@__non_rtti_object@std@@SA?AV12@QBD@Z 1003aa6a f i libvcruntime:rtti.obj
 0001:00039a86       ?__construct_from_string_literal@bad_cast@std@@SA?AV12@QBD@Z 1003aa86 f i libvcruntime:rtti.obj
 0001:00039aa2       ___RTDynamicCast           1003aaa2 f   libvcruntime:rtti.obj
 0002:00000000       __imp__GetModuleFileNameA@12 1003d000     kernel32:KERNEL32.dll
 0002:00000004       __imp__LoadLibraryA@4      1003d004     kernel32:KERNEL32.dll
 0002:00000008       __imp__GetProcAddress@8    1003d008     kernel32:KERNEL32.dll
 0002:0000000c       __imp__GetModuleHandleA@4  1003d00c     kernel32:KERNEL32.dll
 0002:00000010       __imp__DeleteFileA@4       1003d010     kernel32:KERNEL32.dll
 0002:00000014       __imp__CreateFileW@28      1003d014     kernel32:KERNEL32.dll
 0002:00000018       __imp__GetCurrentThreadId@0 1003d018     kernel32:KERNEL32.dll
 0002:0000001c       __imp__CloseHandle@4       1003d01c     kernel32:KERNEL32.dll
 0002:00000020       __imp__EnterCriticalSection@4 1003d020     kernel32:KERNEL32.dll
 0002:00000024       __imp__LeaveCriticalSection@4 1003d024     kernel32:KERNEL32.dll
 0002:00000028       __imp__InitializeCriticalSectionEx@12 1003d028     kernel32:KERNEL32.dll
 0002:0000002c       __imp__DeleteCriticalSection@4 1003d02c     kernel32:KERNEL32.dll
 0002:00000030       __imp__EncodePointer@4     1003d030     kernel32:KERNEL32.dll
 0002:00000034       __imp__DecodePointer@4     1003d034     kernel32:KERNEL32.dll
 0002:00000038       __imp__MultiByteToWideChar@24 1003d038     kernel32:KERNEL32.dll
 0002:0000003c       __imp__WideCharToMultiByte@32 1003d03c     kernel32:KERNEL32.dll
 0002:00000040       __imp__LCMapStringEx@36    1003d040     kernel32:KERNEL32.dll
 0002:00000044       __imp__ReleaseSRWLockExclusive@4 1003d044     kernel32:KERNEL32.dll
 0002:00000048       __imp__AcquireSRWLockExclusive@4 1003d048     kernel32:KERNEL32.dll
 0002:0000004c       __imp__TryAcquireSRWLockExclusive@4 1003d04c     kernel32:KERNEL32.dll
 0002:00000050       __imp__WakeAllConditionVariable@4 1003d050     kernel32:KERNEL32.dll
 0002:00000054       __imp__SleepConditionVariableSRW@16 1003d054     kernel32:KERNEL32.dll
 0002:00000058       __imp__QueryPerformanceCounter@4 1003d058     kernel32:KERNEL32.dll
 0002:0000005c       __imp__GetSystemTimeAsFileTime@4 1003d05c     kernel32:KERNEL32.dll
 0002:00000060       __imp__GetModuleHandleW@4  1003d060     kernel32:KERNEL32.dll
 0002:00000064       __imp__GetStringTypeW@16   1003d064     kernel32:KERNEL32.dll
 0002:00000068       __imp__GetCPInfo@8         1003d068     kernel32:KERNEL32.dll
 0002:0000006c       __imp__IsProcessorFeaturePresent@4 1003d06c     kernel32:KERNEL32.dll
 0002:00000070       __imp__IsDebuggerPresent@0 1003d070     kernel32:KERNEL32.dll
 0002:00000074       __imp__UnhandledExceptionFilter@4 1003d074     kernel32:KERNEL32.dll
 0002:00000078       __imp__SetUnhandledExceptionFilter@4 1003d078     kernel32:KERNEL32.dll
 0002:0000007c       __imp__GetStartupInfoW@4   1003d07c     kernel32:KERNEL32.dll
 0002:00000080       __imp__GetCurrentProcessId@0 1003d080     kernel32:KERNEL32.dll
 0002:00000084       __imp__InitializeSListHead@4 1003d084     kernel32:KERNEL32.dll
 0002:00000088       __imp__GetCurrentProcess@0 1003d088     kernel32:KERNEL32.dll
 0002:0000008c       __imp__TerminateProcess@8  1003d08c     kernel32:KERNEL32.dll
 0002:00000090       __imp__RtlUnwind@16        1003d090     kernel32:KERNEL32.dll
 0002:00000094       __imp__RaiseException@16   1003d094     kernel32:KERNEL32.dll
 0002:00000098       __imp__InterlockedFlushSList@4 1003d098     kernel32:KERNEL32.dll
 0002:0000009c       __imp__GetLastError@0      1003d09c     kernel32:KERNEL32.dll
 0002:000000a0       __imp__SetLastError@4      1003d0a0     kernel32:KERNEL32.dll
 0002:000000a4       __imp__InitializeCriticalSectionAndSpinCount@8 1003d0a4     kernel32:KERNEL32.dll
 0002:000000a8       __imp__TlsAlloc@0          1003d0a8     kernel32:KERNEL32.dll
 0002:000000ac       __imp__TlsGetValue@4       1003d0ac     kernel32:KERNEL32.dll
 0002:000000b0       __imp__TlsSetValue@8       1003d0b0     kernel32:KERNEL32.dll
 0002:000000b4       __imp__TlsFree@4           1003d0b4     kernel32:KERNEL32.dll
 0002:000000b8       __imp__FreeLibrary@4       1003d0b8     kernel32:KERNEL32.dll
 0002:000000bc       __imp__LoadLibraryExW@12   1003d0bc     kernel32:KERNEL32.dll
 0002:000000c0       __imp__CreateThread@24     1003d0c0     kernel32:KERNEL32.dll
 0002:000000c4       __imp__ExitThread@4        1003d0c4     kernel32:KERNEL32.dll
 0002:000000c8       __imp__FreeLibraryAndExitThread@8 1003d0c8     kernel32:KERNEL32.dll
 0002:000000cc       __imp__GetModuleHandleExW@12 1003d0cc     kernel32:KERNEL32.dll
 0002:000000d0       __imp__ExitProcess@4       1003d0d0     kernel32:KERNEL32.dll
 0002:000000d4       __imp__GetModuleFileNameW@12 1003d0d4     kernel32:KERNEL32.dll
 0002:000000d8       __imp__HeapFree@12         1003d0d8     kernel32:KERNEL32.dll
 0002:000000dc       __imp__HeapAlloc@12        1003d0dc     kernel32:KERNEL32.dll
 0002:000000e0       __imp__GetStdHandle@4      1003d0e0     kernel32:KERNEL32.dll
 0002:000000e4       __imp__GetFileType@4       1003d0e4     kernel32:KERNEL32.dll
 0002:000000e8       __imp__LCMapStringW@24     1003d0e8     kernel32:KERNEL32.dll
 0002:000000ec       __imp__GetLocaleInfoW@16   1003d0ec     kernel32:KERNEL32.dll
 0002:000000f0       __imp__IsValidLocale@8     1003d0f0     kernel32:KERNEL32.dll
 0002:000000f4       __imp__GetUserDefaultLCID@0 1003d0f4     kernel32:KERNEL32.dll
 0002:000000f8       __imp__EnumSystemLocalesW@8 1003d0f8     kernel32:KERNEL32.dll
 0002:000000fc       __imp__HeapReAlloc@16      1003d0fc     kernel32:KERNEL32.dll
 0002:00000100       __imp__SetFilePointerEx@20 1003d100     kernel32:KERNEL32.dll
 0002:00000104       __imp__FindClose@4         1003d104     kernel32:KERNEL32.dll
 0002:00000108       __imp__FindFirstFileExW@24 1003d108     kernel32:KERNEL32.dll
 0002:0000010c       __imp__FindNextFileW@8     1003d10c     kernel32:KERNEL32.dll
 0002:00000110       __imp__IsValidCodePage@4   1003d110     kernel32:KERNEL32.dll
 0002:00000114       __imp__GetACP@0            1003d114     kernel32:KERNEL32.dll
 0002:00000118       __imp__GetOEMCP@0          1003d118     kernel32:KERNEL32.dll
 0002:0000011c       __imp__GetCommandLineA@0   1003d11c     kernel32:KERNEL32.dll
 0002:00000120       __imp__GetCommandLineW@0   1003d120     kernel32:KERNEL32.dll
 0002:00000124       __imp__GetEnvironmentStringsW@0 1003d124     kernel32:KERNEL32.dll
 0002:00000128       __imp__FreeEnvironmentStringsW@4 1003d128     kernel32:KERNEL32.dll
 0002:0000012c       __imp__GetProcessHeap@0    1003d12c     kernel32:KERNEL32.dll
 0002:00000130       __imp__SetStdHandle@8      1003d130     kernel32:KERNEL32.dll
 0002:00000134       __imp__FlushFileBuffers@4  1003d134     kernel32:KERNEL32.dll
 0002:00000138       __imp__WriteFile@20        1003d138     kernel32:KERNEL32.dll
 0002:0000013c       __imp__GetConsoleOutputCP@0 1003d13c     kernel32:KERNEL32.dll
 0002:00000140       __imp__GetConsoleMode@8    1003d140     kernel32:KERNEL32.dll
 0002:00000144       __imp__HeapSize@12         1003d144     kernel32:KERNEL32.dll
 0002:00000148       __imp__WriteConsoleW@20    1003d148     kernel32:KERNEL32.dll
 0002:0000014c       \177KERNEL32_NULL_THUNK_DATA 1003d14c     kernel32:KERNEL32.dll
 0002:00000150       ___guard_check_icall_fptr  1003d150     LIBCMT:guard_support.obj
 0002:00000154       ___castguard_check_failure_os_handled_fptr 1003d154     LIBCMT:guard_support.obj
 0002:00000158       ___xc_a                    1003d158     LIBCMT:initializers.obj
 0002:000002e4       ___xc_z                    1003d2e4     LIBCMT:initializers.obj
 0002:000002e8       ___xi_a                    1003d2e8     LIBCMT:initializers.obj
 0002:000002f0       ___acrt_stdio_initializer  1003d2f0     libucrt:stdio_initializer.obj
 0002:000002f4       ___acrt_timeset_initializer 1003d2f4     libucrt:timeset_initializer.obj
 0002:000002f8       ___acrt_multibyte_initializer 1003d2f8     libucrt:multibyte_initializer.obj
 0002:000002fc       ___acrt_tran_sse2_initializer 1003d2fc     libucrt:sse2_initializer.obj
 0002:00000300       ___xi_z                    1003d300     LIBCMT:initializers.obj
 0002:00000304       ___xl_a                    1003d304     LIBCMT:tlssup.obj
 0002:00000308       ___xl_z                    1003d308     LIBCMT:tlssup.obj
 0002:0000030c       ___xp_a                    1003d30c     LIBCMT:initializers.obj
 0002:00000310       ___acrt_locale_terminator  1003d310     libucrt:locale_initializer.obj
 0002:00000314       ___dcrt_console_output_terminator 1003d314     libucrt:console_output_initializer.obj
 0002:00000318       ___acrt_stdio_terminator   1003d318     libucrt:stdio_initializer.obj
 0002:0000031c       ___xp_z                    1003d31c     LIBCMT:initializers.obj
 0002:00000320       ___xt_a                    1003d320     LIBCMT:initializers.obj
 0002:00000324       ___xt_z                    1003d324     LIBCMT:initializers.obj
 0002:00000344       ??_7exception@std@@6B@     1003d344     libcpmt:xthrow.obj
 0002:00000350       ??_7bad_alloc@std@@6B@     1003d350     libcpmt:xthrow.obj
 0002:00000358       ??_C@_0P@GHFPNOJB@bad?5allocation@ 1003d358     libcpmt:xthrow.obj
 0002:0000036c       ??_7logic_error@std@@6B@   1003d36c     libcpmt:xthrow.obj
 0002:00000378       ??_7length_error@std@@6B@  1003d378     libcpmt:xthrow.obj
 0002:00000384       ??_7out_of_range@std@@6B@  1003d384     libcpmt:xthrow.obj
 0002:00000390       ??_7runtime_error@std@@6B@ 1003d390     libcpmt:xthrow.obj
 0002:0000039c       ??_7_Facet_base@std@@6B@   1003d39c     libcpmt:locale0.obj
 0002:000003ac       ??_7_Locimp@locale@std@@6B@ 1003d3ac     libcpmt:locale0.obj
 0002:000003b8       ??_C@_01NBENCBCI@?$CK@     1003d3b8     libcpmt:locale0.obj
 0002:000003bc       ??_C@_01GFHCPBMG@C@        1003d3bc     libcpmt:locale0.obj
 0002:000003c0       ?_BADOFF@std@@3_JB         1003d3c0     libcpmt:ios.obj
 0002:000008e0       ??_C@_07IPNMCAN@success@   1003d8e0     libcpmt:syserror.obj
 0002:000008e8       ??_C@_0BN@LKKBCCDB@address?5family?5not?5supported@ 1003d8e8     libcpmt:syserror.obj
 0002:00000908       ??_C@_0P@LDMLAFHI@address?5in?5use@ 1003d908     libcpmt:syserror.obj
 0002:00000918       ??_C@_0BG@DHPCNBJB@address?5not?5available@ 1003d918     libcpmt:syserror.obj
 0002:00000930       ??_C@_0BC@DFIBIBIL@already?5connected@ 1003d930     libcpmt:syserror.obj
 0002:00000944       ??_C@_0BH@CAKOHOMI@argument?5list?5too?5long@ 1003d944     libcpmt:syserror.obj
 0002:0000095c       ??_C@_0BH@CGIMPKIM@argument?5out?5of?5domain@ 1003d95c     libcpmt:syserror.obj
 0002:00000974       ??_C@_0M@KGHGGJGL@bad?5address@ 1003d974     libcpmt:syserror.obj
 0002:00000980       ??_C@_0BE@MPJPGCEO@bad?5file?5descriptor@ 1003d980     libcpmt:syserror.obj
 0002:00000994       ??_C@_0M@PMMIEFCP@bad?5message@ 1003d994     libcpmt:syserror.obj
 0002:000009a0       ??_C@_0M@KPHOFDBE@broken?5pipe@ 1003d9a0     libcpmt:syserror.obj
 0002:000009ac       ??_C@_0BD@MGNDDEGM@connection?5aborted@ 1003d9ac     libcpmt:syserror.obj
 0002:000009c0       ??_C@_0BP@KAIHPOGN@connection?5already?5in?5progress@ 1003d9c0     libcpmt:syserror.obj
 0002:000009e0       ??_C@_0BD@PJLIIJEL@connection?5refused@ 1003d9e0     libcpmt:syserror.obj
 0002:000009f4       ??_C@_0BB@IECNJNOI@connection?5reset@ 1003d9f4     libcpmt:syserror.obj
 0002:00000a08       ??_C@_0BC@PPHBOELF@cross?5device?5link@ 1003da08     libcpmt:syserror.obj
 0002:00000a1c       ??_C@_0BN@KDMIFEIP@destination?5address?5required@ 1003da1c     libcpmt:syserror.obj
 0002:00000a3c       ??_C@_0BI@NGCEHDD@device?5or?5resource?5busy@ 1003da3c     libcpmt:syserror.obj
 0002:00000a54       ??_C@_0BE@JIDOCPHM@directory?5not?5empty@ 1003da54     libcpmt:syserror.obj
 0002:00000a68       ??_C@_0BI@BNCLIGPB@executable?5format?5error@ 1003da68     libcpmt:syserror.obj
 0002:00000a80       ??_C@_0M@MIDIAGJP@file?5exists@ 1003da80     libcpmt:syserror.obj
 0002:00000a8c       ??_C@_0P@DNAJLBJK@file?5too?5large@ 1003da8c     libcpmt:syserror.obj
 0002:00000a9c       ??_C@_0BC@EJHOMAAK@filename?5too?5long@ 1003da9c     libcpmt:syserror.obj
 0002:00000ab0       ??_C@_0BH@KEFGLDAF@function?5not?5supported@ 1003dab0     libcpmt:syserror.obj
 0002:00000ac8       ??_C@_0BB@DHFDFGDM@host?5unreachable@ 1003dac8     libcpmt:syserror.obj
 0002:00000adc       ??_C@_0BD@JPHBMONG@identifier?5removed@ 1003dadc     libcpmt:syserror.obj
 0002:00000af0       ??_C@_0BG@CDNPAGJK@illegal?5byte?5sequence@ 1003daf0     libcpmt:syserror.obj
 0002:00000b08       ??_C@_0CD@BNPLBMNA@inappropriate?5io?5control?5operat@ 1003db08     libcpmt:syserror.obj
 0002:00000b2c       ??_C@_0M@EGEKIIMP@interrupted@ 1003db2c     libcpmt:syserror.obj
 0002:00000b38       ??_C@_0BB@FCMFBGOM@invalid?5argument@ 1003db38     libcpmt:syserror.obj
 0002:00000b4c       ??_C@_0N@OHAFKDEK@invalid?5seek@ 1003db4c     libcpmt:syserror.obj
 0002:00000b5c       ??_C@_08GLNPIFBN@io?5error@ 1003db5c     libcpmt:syserror.obj
 0002:00000b68       ??_C@_0P@FLLDBIDK@is?5a?5directory@ 1003db68     libcpmt:syserror.obj
 0002:00000b78       ??_C@_0N@IFLPBIOP@message?5size@ 1003db78     libcpmt:syserror.obj
 0002:00000b88       ??_C@_0N@KIIEAAIO@network?5down@ 1003db88     libcpmt:syserror.obj
 0002:00000b98       ??_C@_0O@FNPDBHEE@network?5reset@ 1003db98     libcpmt:syserror.obj
 0002:00000ba8       ??_C@_0BE@IFNCKGE@network?5unreachable@ 1003dba8     libcpmt:syserror.obj
 0002:00000bbc       ??_C@_0BA@PFFCAOFK@no?5buffer?5space@ 1003dbbc     libcpmt:syserror.obj
 0002:00000bcc       ??_C@_0BB@IEPBLJHK@no?5child?5process@ 1003dbcc     libcpmt:syserror.obj
 0002:00000be0       ??_C@_07PLECNNKG@no?5link@ 1003dbe0     libcpmt:syserror.obj
 0002:00000be8       ??_C@_0BC@NJECKMKE@no?5lock?5available@ 1003dbe8     libcpmt:syserror.obj
 0002:00000bfc       ??_C@_0BF@PBGGPKKE@no?5message?5available@ 1003dbfc     libcpmt:syserror.obj
 0002:00000c14       ??_C@_0L@EDOLMPAK@no?5message@ 1003dc14     libcpmt:syserror.obj
 0002:00000c20       ??_C@_0BD@EAMBFIDF@no?5protocol?5option@ 1003dc20     libcpmt:syserror.obj
 0002:00000c34       ??_C@_0BD@IJDJKDEA@no?5space?5on?5device@ 1003dc34     libcpmt:syserror.obj
 0002:00000c48       ??_C@_0BE@MKFDAFMP@no?5stream?5resources@ 1003dc48     libcpmt:syserror.obj
 0002:00000c5c       ??_C@_0BK@IMCPHCBI@no?5such?5device?5or?5address@ 1003dc5c     libcpmt:syserror.obj
 0002:00000c78       ??_C@_0P@FDINDDOK@no?5such?5device@ 1003dc78     libcpmt:syserror.obj
 0002:00000c88       ??_C@_0BK@NDOCBPGE@no?5such?5file?5or?5directory@ 1003dc88     libcpmt:syserror.obj
 0002:00000ca4       ??_C@_0BA@ENLPPKBN@no?5such?5process@ 1003dca4     libcpmt:syserror.obj
 0002:00000cb4       ??_C@_0BA@DOCPFFJG@not?5a?5directory@ 1003dcb4     libcpmt:syserror.obj
 0002:00000cc4       ??_C@_0N@POEIPGGF@not?5a?5socket@ 1003dcc4     libcpmt:syserror.obj
 0002:00000cd4       ??_C@_0N@LGAPMMPI@not?5a?5stream@ 1003dcd4     libcpmt:syserror.obj
 0002:00000ce4       ??_C@_0O@GLMIBBEG@not?5connected@ 1003dce4     libcpmt:syserror.obj
 0002:00000cf4       ??_C@_0BC@ENOOLCNF@not?5enough?5memory@ 1003dcf4     libcpmt:syserror.obj
 0002:00000d08       ??_C@_0O@NHEDABJP@not?5supported@ 1003dd08     libcpmt:syserror.obj
 0002:00000d18       ??_C@_0BD@MOLBPMEA@operation?5canceled@ 1003dd18     libcpmt:syserror.obj
 0002:00000d2c       ??_C@_0BG@KDKHOPCO@operation?5in?5progress@ 1003dd2c     libcpmt:syserror.obj
 0002:00000d44       ??_C@_0BI@OHIEJAAB@operation?5not?5permitted@ 1003dd44     libcpmt:syserror.obj
 0002:00000d5c       ??_C@_0BI@LNEGIFLN@operation?5not?5supported@ 1003dd5c     libcpmt:syserror.obj
 0002:00000d74       ??_C@_0BG@OEMDKMEE@operation?5would?5block@ 1003dd74     libcpmt:syserror.obj
 0002:00000d8c       ??_C@_0L@BLPOFLNJ@owner?5dead@ 1003dd8c     libcpmt:syserror.obj
 0002:00000d98       ??_C@_0BC@CIJDGCDI@permission?5denied@ 1003dd98     libcpmt:syserror.obj
 0002:00000dac       ??_C@_0P@FNPOCJBE@protocol?5error@ 1003ddac     libcpmt:syserror.obj
 0002:00000dbc       ??_C@_0BH@JPPPLHJB@protocol?5not?5supported@ 1003ddbc     libcpmt:syserror.obj
 0002:00000dd4       ??_C@_0BG@EICBIHDP@read?5only?5file?5system@ 1003ddd4     libcpmt:syserror.obj
 0002:00000dec       ??_C@_0BO@BJBOMOEJ@resource?5deadlock?5would?5occur@ 1003ddec     libcpmt:syserror.obj
 0002:00000e0c       ??_C@_0BP@LKNGHENJ@resource?5unavailable?5try?5again@ 1003de0c     libcpmt:syserror.obj
 0002:00000e2c       ??_C@_0BE@GOIPJJHG@result?5out?5of?5range@ 1003de2c     libcpmt:syserror.obj
 0002:00000e40       ??_C@_0BG@MPLKFPAE@state?5not?5recoverable@ 1003de40     libcpmt:syserror.obj
 0002:00000e58       ??_C@_0P@DIIFGFCG@stream?5timeout@ 1003de58     libcpmt:syserror.obj
 0002:00000e68       ??_C@_0P@IPFDMIFL@text?5file?5busy@ 1003de68     libcpmt:syserror.obj
 0002:00000e78       ??_C@_09KJPPMAOI@timed?5out@ 1003de78     libcpmt:syserror.obj
 0002:00000e84       ??_C@_0BO@HACHBEKI@too?5many?5files?5open?5in?5system@ 1003de84     libcpmt:syserror.obj
 0002:00000ea4       ??_C@_0BE@GHAFMPAH@too?5many?5files?5open@ 1003dea4     libcpmt:syserror.obj
 0002:00000eb8       ??_C@_0P@HCOMKFCC@too?5many?5links@ 1003deb8     libcpmt:syserror.obj
 0002:00000ec8       ??_C@_0BO@EFGOJEF@too?5many?5symbolic?5link?5levels@ 1003dec8     libcpmt:syserror.obj
 0002:00000ee8       ??_C@_0BA@KGKGOOJA@value?5too?5large@ 1003dee8     libcpmt:syserror.obj
 0002:00000ef8       ??_C@_0BE@MIEJDDNH@wrong?5protocol?5type@ 1003def8     libcpmt:syserror.obj
 0002:00000f0c       ??_C@_0O@BFJCFAAK@unknown?5error@ 1003df0c     libcpmt:syserror.obj
 0002:00000f58       ??_7bad_array_new_length@std@@6B@ 1003df58     libcpmt:thread0.obj
 0002:00000f64       ??_7_System_error@std@@6B@ 1003df64     libcpmt:thread0.obj
 0002:00000f70       ??_7system_error@std@@6B@  1003df70     libcpmt:thread0.obj
 0002:00000f7c       ??_7_Generic_error_category@std@@6B@ 1003df7c     libcpmt:thread0.obj
 0002:00000f94       ??_C@_07DCLBNMLN@generic@  1003df94     libcpmt:thread0.obj
 0002:00000fe4       ??_7bad_cast@std@@6B@      1003dfe4     libcpmt:locale.obj
 0002:00000ff0       ??_7?$ctype@D@std@@6B@     1003dff0     libcpmt:locale.obj
 0002:00001124       ??_7_Iostream_error_category2@std@@6B@ 1003e124     libcpmt:wlocale.obj
 0002:00001140       ??_7failure@ios_base@std@@6B@ 1003e140     libcpmt:wlocale.obj
 0002:00001148       ??_C@_11LOCGONAA@@         1003e148     libcpmt:wlocale.obj
 0002:0000114c       ??_C@_13IMODFHAA@?$AA?9@   1003e14c     libcpmt:wlocale.obj
 0002:00001150       ??_C@_01JOAMLHOP@?9@       1003e150     libcpmt:wlocale.obj
 0002:000011f4       ??_C@_1BK@MGMFAEKH@?$AAk?$AAe?$AAr?$AAn?$AAe?$AAl?$AA3?$AA2?$AA?4?$AAd?$AAl?$AAl@ 1003e1f4     libcpmt:winapisupp.obj
 0002:00001210       ??_C@_0BP@FPNJPEJC@GetSystemTimePreciseAsFileTime@ 1003e210     libcpmt:winapisupp.obj
 0002:00001230       ??_C@_0O@NNMIPI@GetTempPath2W@ 1003e230     libcpmt:winapisupp.obj
 0002:00001244       ??_7type_info@@6B@         1003e244     LIBCMT:std_type_info_static.obj
 0002:00001248       __pDefaultRawDllMain       1003e248     LIBCMT:dll_dllmain.obj
 0002:00001248       __pRawDllMain              1003e248     LIBCMT:dll_dllmain.obj
 0002:00001254       __pDestructExceptionObject 1003e254     libvcruntime:ehhelpers.obj
 0002:0000125c       ??_7bad_exception@std@@6B@ 1003e25c     libvcruntime:frame.obj
 0002:00001264       ??_C@_0O@DPKOEFFH@bad?5exception@ 1003e264     libvcruntime:frame.obj
 0002:00001600       ??_C@_08EHJDFFNH@__based?$CI@ 1003e600     libvcruntime:undname.obj
 0002:0000160c       ??_C@_07KOLFKCDI@__cdecl@  1003e60c     libvcruntime:undname.obj
 0002:00001614       ??_C@_08GHMPAG@__pascal@   1003e614     libvcruntime:undname.obj
 0002:00001620       ??_C@_09IFJBGAPI@__stdcall@ 1003e620     libvcruntime:undname.obj
 0002:0000162c       ??_C@_0L@NPHFGOKO@__thiscall@ 1003e62c     libvcruntime:undname.obj
 0002:00001638       ??_C@_0L@JMKHOMEK@__fastcall@ 1003e638     libvcruntime:undname.obj
 0002:00001644       ??_C@_0N@BCKKPABJ@__vectorcall@ 1003e644     libvcruntime:undname.obj
 0002:00001654       ??_C@_09HIJEGCPM@__clrcall@ 1003e654     libvcruntime:undname.obj
 0002:00001660       ??_C@_06GHPCKEAG@__eabi@   1003e660     libvcruntime:undname.obj
 0002:00001668       ??_C@_09IOPIDJLG@__swift_1@ 1003e668     libvcruntime:undname.obj
 0002:00001674       ??_C@_09KFNFGKHF@__swift_2@ 1003e674     libvcruntime:undname.obj
 0002:00001680       ??_C@_09LMMOFLDE@__swift_3@ 1003e680     libvcruntime:undname.obj
 0002:0000168c       ??_C@_07JOMMBBKO@__ptr64@  1003e68c     libvcruntime:undname.obj
 0002:00001694       ??_C@_0L@PILCLIHE@__restrict@ 1003e694     libvcruntime:undname.obj
 0002:000016a0       ??_C@_0M@GFIIJFMG@__unaligned@ 1003e6a0     libvcruntime:undname.obj
 0002:000016ac       ??_C@_09DHDLOLLB@restrict?$CI@ 1003e6ac     libvcruntime:undname.obj
 0002:000016b8       ??_C@_04NIHEBCM@?5new@     1003e6b8     libvcruntime:undname.obj
 0002:000016c0       ??_C@_07FPCDHGMM@?5delete@ 1003e6c0     libvcruntime:undname.obj
 0002:000016c8       ??_C@_01NEMOKFLO@?$DN@     1003e6c8     libvcruntime:undname.obj
 0002:000016cc       ??_C@_02GPIOPFAK@?$DO?$DO@ 1003e6cc     libvcruntime:undname.obj
 0002:000016d0       ??_C@_02FODMEDOG@?$DM?$DM@ 1003e6d0     libvcruntime:undname.obj
 0002:000016d4       ??_C@_01DCLJPIOD@?$CB@     1003e6d4     libvcruntime:undname.obj
 0002:000016d8       ??_C@_02EGOFBIJA@?$DN?$DN@ 1003e6d8     libvcruntime:undname.obj
 0002:000016dc       ??_C@_02FDNJECIE@?$CB?$DN@ 1003e6dc     libvcruntime:undname.obj
 0002:000016e0       ??_C@_02GPECMEKF@?$FL?$FN@ 1003e6e0     libvcruntime:undname.obj
 0002:000016e4       ??_C@_08LHJFAFGD@operator@ 1003e6e4     libvcruntime:undname.obj
 0002:000016f0       ??_C@_02HBOOOICD@?9?$DO@   1003e6f0     libvcruntime:undname.obj
 0002:000016f4       ??_C@_02ECNGHCIF@?$CL?$CL@ 1003e6f4     libvcruntime:undname.obj
 0002:000016f8       ??_C@_02BAABKJLB@?9?9@     1003e6f8     libvcruntime:undname.obj
 0002:000016fc       ??_C@_01MIFGBAGJ@?$CL@     1003e6fc     libvcruntime:undname.obj
 0002:00001700       ??_C@_01HNPIGOCE@?$CG@     1003e700     libvcruntime:undname.obj
 0002:00001704       ??_C@_03MNHNFDLC@?9?$DO?$CK@ 1003e704     libvcruntime:undname.obj
 0002:00001708       ??_C@_01KMDKNFGN@?1@       1003e708     libvcruntime:undname.obj
 0002:0000170c       ??_C@_01FGNFDNOH@?$CF@     1003e70c     libvcruntime:undname.obj
 0002:00001710       ??_C@_01MNNFJEPP@?$DM@     1003e710     libvcruntime:undname.obj
 0002:00001714       ??_C@_02EHCHHCKH@?$DM?$DN@ 1003e714     libvcruntime:undname.obj
 0002:00001718       ??_C@_01PPODPGHN@?$DO@     1003e718     libvcruntime:undname.obj
 0002:0000171c       ??_C@_02EEKDKGMJ@?$DO?$DN@ 1003e71c     libvcruntime:undname.obj
 0002:00001720       ??_C@_01IHBHIGKO@?0@       1003e720     libvcruntime:undname.obj
 0002:00001724       ??_C@_02HCKGKOFO@?$CI?$CJ@ 1003e724     libvcruntime:undname.obj
 0002:00001728       ??_C@_01PJKLJHI@?$HO@      1003e728     libvcruntime:undname.obj
 0002:0000172c       ??_C@_01JKBOJNNK@?$FO@     1003e72c     libvcruntime:undname.obj
 0002:00001730       ??_C@_01DNKMNLPK@?$HM@     1003e730     libvcruntime:undname.obj
 0002:00001734       ??_C@_02PPKAJPJL@?$CG?$CG@ 1003e734     libvcruntime:undname.obj
 0002:00001738       ??_C@_02NONPIBCD@?$HM?$HM@ 1003e738     libvcruntime:undname.obj
 0002:0000173c       ??_C@_02FPIMKNGF@?$CK?$DN@ 1003e73c     libvcruntime:undname.obj
 0002:00001740       ??_C@_02FOEOMHFC@?$CL?$DN@ 1003e740     libvcruntime:undname.obj
 0002:00001744       ??_C@_02FKMDLLOA@?9?$DN@   1003e744     libvcruntime:undname.obj
 0002:00001748       ??_C@_02FJEHGPIO@?1?$DN@   1003e748     libvcruntime:undname.obj
 0002:0000174c       ??_C@_02FENAOKFI@?$CF?$DN@ 1003e74c     libvcruntime:undname.obj
 0002:00001750       ??_C@_03IKFCCPFF@?$DO?$DO?$DN@ 1003e750     libvcruntime:undname.obj
 0002:00001754       ??_C@_03CDNPDDLA@?$DM?$DM?$DN@ 1003e754     libvcruntime:undname.obj
 0002:00001758       ??_C@_02FGJGFEAB@?$CG?$DN@ 1003e758     libvcruntime:undname.obj
 0002:0000175c       ??_C@_02DHLNPPGH@?$HM?$DN@ 1003e75c     libvcruntime:undname.obj
 0002:00001760       ??_C@_02MHEGNOJ@?$FO?$DN@  1003e760     libvcruntime:undname.obj
 0002:00001764       ??_C@_09IFPLHPGF@?$GAvftable?8@ 1003e764     libvcruntime:undname.obj
 0002:00001770       ??_C@_09BLBHBJP@?$GAvbtable?8@ 1003e770     libvcruntime:undname.obj
 0002:0000177c       ??_C@_07FEEIOKP@?$GAvcall?8@ 1003e77c     libvcruntime:undname.obj
 0002:00001784       ??_C@_08LLFFHHDJ@?$GAtypeof?8@ 1003e784     libvcruntime:undname.obj
 0002:00001790       ??_C@_0BF@KDPPACIK@?$GAlocal?5static?5guard?8@ 1003e790     libvcruntime:undname.obj
 0002:000017a8       ??_C@_08OBABFOLI@?$GAstring?8@ 1003e7a8     libvcruntime:undname.obj
 0002:000017b4       ??_C@_0BD@JDLKDPAB@?$GAvbase?5destructor?8@ 1003e7b4     libvcruntime:undname.obj
 0002:000017c8       ??_C@_0BN@DEGPLNFK@?$GAvector?5deleting?5destructor?8@ 1003e7c8     libvcruntime:undname.obj
 0002:000017e8       ??_C@_0BO@OBMKPJIG@?$GAdefault?5constructor?5closure?8@ 1003e7e8     libvcruntime:undname.obj
 0002:00001808       ??_C@_0BN@IMDCHIKM@?$GAscalar?5deleting?5destructor?8@ 1003e808     libvcruntime:undname.obj
 0002:00001828       ??_C@_0BO@PFGOCPJJ@?$GAvector?5constructor?5iterator?8@ 1003e828     libvcruntime:undname.obj
 0002:00001848       ??_C@_0BN@LFPFMEDL@?$GAvector?5destructor?5iterator?8@ 1003e848     libvcruntime:undname.obj
 0002:00001868       ??_C@_0CE@IKBNEHA@?$GAvector?5vbase?5constructor?5itera@ 1003e868     libvcruntime:undname.obj
 0002:0000188c       ??_C@_0BL@NILFHHPC@?$GAvirtual?5displacement?5map?8@ 1003e88c     libvcruntime:undname.obj
 0002:000018a8       ??_C@_0CB@JONCMFFK@?$GAeh?5vector?5constructor?5iterator@ 1003e8a8     libvcruntime:undname.obj
 0002:000018cc       ??_C@_0CA@GCEOPDGL@?$GAeh?5vector?5destructor?5iterator?8@ 1003e8cc     libvcruntime:undname.obj
 0002:000018ec       ??_C@_0CH@OOJPLCPH@?$GAeh?5vector?5vbase?5constructor?5it@ 1003e8ec     libvcruntime:undname.obj
 0002:00001914       ??_C@_0BL@LLKPOHJI@?$GAcopy?5constructor?5closure?8@ 1003e914     libvcruntime:undname.obj
 0002:00001930       ??_C@_0BA@KBCDOMBN@?$GAudt?5returning?8@ 1003e930     libvcruntime:undname.obj
 0002:00001940       ??_C@_03KLGMFNMG@?$GAEH@   1003e940     libvcruntime:undname.obj
 0002:00001944       ??_C@_05KHLCHHI@?$GARTTI@  1003e944     libvcruntime:undname.obj
 0002:0000194c       ??_C@_0BA@KKLDJDLB@?$GAlocal?5vftable?8@ 1003e94c     libvcruntime:undname.obj
 0002:0000195c       ??_C@_0CE@IIHCMGGL@?$GAlocal?5vftable?5constructor?5clos@ 1003e95c     libvcruntime:undname.obj
 0002:00001980       ??_C@_06FHBGPFGH@?5new?$FL?$FN@ 1003e980     libvcruntime:undname.obj
 0002:00001988       ??_C@_09LBNFPBCA@?5delete?$FL?$FN@ 1003e988     libvcruntime:undname.obj
 0002:00001994       ??_C@_0P@HJKNJFNN@?$GAomni?5callsig?8@ 1003e994     libvcruntime:undname.obj
 0002:000019a4       ??_C@_0BL@CNOONJFP@?$GAplacement?5delete?5closure?8@ 1003e9a4     libvcruntime:undname.obj
 0002:000019c0       ??_C@_0BN@CKNJLHMB@?$GAplacement?5delete?$FL?$FN?5closure?8@ 1003e9c0     libvcruntime:undname.obj
 0002:000019e0       ??_C@_0CG@CFDHKGGD@?$GAmanaged?5vector?5constructor?5ite@ 1003e9e0     libvcruntime:undname.obj
 0002:00001a08       ??_C@_0CF@IMGKMJNO@?$GAmanaged?5vector?5destructor?5iter@ 1003ea08     libvcruntime:undname.obj
 0002:00001a30       ??_C@_0CG@HLDDJMAG@?$GAeh?5vector?5copy?5constructor?5ite@ 1003ea30     libvcruntime:undname.obj
 0002:00001a58       ??_C@_0CM@FCBBDIGB@?$GAeh?5vector?5vbase?5copy?5construct@ 1003ea58     libvcruntime:undname.obj
 0002:00001a84       ??_C@_0BL@CLIPGLGB@?$GAdynamic?5initializer?5for?5?8@ 1003ea84     libvcruntime:undname.obj
 0002:00001aa0       ??_C@_0CB@PDBIFEP@?$GAdynamic?5atexit?5destructor?5for?5@ 1003eaa0     libvcruntime:undname.obj
 0002:00001ac4       ??_C@_0CD@CGAJBKEJ@?$GAvector?5copy?5constructor?5iterat@ 1003eac4     libvcruntime:undname.obj
 0002:00001ae8       ??_C@_0CJ@GJELGAMM@?$GAvector?5vbase?5copy?5constructor?5@ 1003eae8     libvcruntime:undname.obj
 0002:00001b14       ??_C@_0CL@FGIJHLCE@?$GAmanaged?5vector?5copy?5constructo@ 1003eb14     libvcruntime:undname.obj
 0002:00001b40       ??_C@_0BM@PMGGMLDN@?$GAlocal?5static?5thread?5guard?8@ 1003eb40     libvcruntime:undname.obj
 0002:00001b5c       ??_C@_0N@BDNMDMOL@operator?5?$CC?$CC?5@ 1003eb5c     libvcruntime:undname.obj
 0002:00001b6c       ??_C@_0BC@GGEBGALA@operator?5co_await@ 1003eb6c     libvcruntime:undname.obj
 0002:00001b80       ??_C@_0M@GAAIMMOH@operator?$DM?$DN?$DO@ 1003eb80     libvcruntime:undname.obj
 0002:00001b8c       ??_C@_0BC@DAFEJGAK@?5Type?5Descriptor?8@ 1003eb8c     libvcruntime:undname.obj
 0002:00001ba0       ??_C@_0BM@LDKODKLH@?5Base?5Class?5Descriptor?5at?5?$CI@ 1003eba0     libvcruntime:undname.obj
 0002:00001bbc       ??_C@_0BD@LGICGFMM@?5Base?5Class?5Array?8@ 1003ebbc     libvcruntime:undname.obj
 0002:00001bd0       ??_C@_0BN@MECKDCOJ@?5Class?5Hierarchy?5Descriptor?8@ 1003ebd0     libvcruntime:undname.obj
 0002:00001bf0       ??_C@_0BK@CFCOFLF@?5Complete?5Object?5Locator?8@ 1003ebf0     libvcruntime:undname.obj
 0002:00001c0c       ??_C@_0BG@JNJLAMPM@?$GAanonymous?5namespace?8@ 1003ec0c     libvcruntime:undname.obj
 0002:00001c30       ??_C@_1DM@KHCHBNEB@?$AAa?$AAp?$AAi?$AA?9?$AAm?$AAs?$AA?9?$AAw?$AAi?$AAn?$AA?9?$AAc?$AAo?$AAr?$AAe@ 1003ec30     libvcruntime:winapi_downlevel.obj
 0002:00001c6c       ??_C@_1DK@LPPGFMPP@?$AAa?$AAp?$AAi?$AA?9?$AAm?$AAs?$AA?9?$AAw?$AAi?$AAn?$AA?9?$AAc?$AAo?$AAr?$AAe@ 1003ec6c     libvcruntime:winapi_downlevel.obj
 0002:00001ca8       ??_C@_1BC@GDMECMAK@?$AAk?$AAe?$AAr?$AAn?$AAe?$AAl?$AA3?$AA2@ 1003eca8     libvcruntime:winapi_downlevel.obj
 0002:00001cbc       ??_C@_1BA@PFFKHIOG@?$AAa?$AAp?$AAi?$AA?9?$AAm?$AAs?$AA?9@ 1003ecbc     libvcruntime:winapi_downlevel.obj
 0002:00001cd4       ??_C@_08KNHFBNJ@FlsAlloc@  1003ecd4     libvcruntime:winapi_downlevel.obj
 0002:00001ce8       ??_C@_07PEJMOBNF@FlsFree@  1003ece8     libvcruntime:winapi_downlevel.obj
 0002:00001cf8       ??_C@_0M@GDNOONDI@FlsGetValue@ 1003ecf8     libvcruntime:winapi_downlevel.obj
 0002:00001d0c       ??_C@_0M@JCPCPOEF@FlsSetValue@ 1003ed0c     libvcruntime:winapi_downlevel.obj
 0002:00001d20       ??_C@_0BM@HCFOFFN@InitializeCriticalSectionEx@ 1003ed20     libvcruntime:winapi_downlevel.obj
 0002:00001d40       ?standard_lookup_table_spectre@__crt_stdio_output@@3V?$spectre_mitigated_lookup_table@Ustate_transition_pair@__crt_stdio_output@@$0IA@@1@B 1003ed40     libucrt:output.obj
 0002:00001e40       ?format_validation_lookup_table_spectre@__crt_stdio_output@@3V?$spectre_mitigated_lookup_table@Ustate_transition_pair@__crt_stdio_output@@$0IA@@1@B 1003ee40     libucrt:output.obj
 0002:00001f40       ??_C@_1O@CEDCILHN@?$AA?$CI?$AAn?$AAu?$AAl?$AAl?$AA?$CJ@ 1003ef40     libucrt:output.obj
 0002:00001f50       ??_C@_06OJHGLDPL@?$CInull?$CJ@ 1003ef50     libucrt:output.obj
 0002:00001f58       ?large_power_data@?1??multiply_by_power_of_ten@__crt_strtox@@YA_NAAUbig_integer@2@I@Z@4QBIB 1003ef58     libucrt:atof.obj
 0002:00002860       ?large_power_indices@?1??multiply_by_power_of_ten@__crt_strtox@@YA_NAAUbig_integer@2@I@Z@4QBUunpack_index@?1??12@YA_N0I@Z@B 1003f860     libucrt:atof.obj
 0002:000028f8       ?small_powers_of_ten@?1??multiply_by_power_of_ten@__crt_strtox@@YA_NAAUbig_integer@2@I@Z@4QBIB 1003f8f8     libucrt:atof.obj
 0002:00002920       ??_C@_1GE@DPGDJKLM@?$AAm?$AAi?$AAn?$AAk?$AAe?$AAr?$AAn?$AAe?$AAl?$AA?2?$AAc?$AAr?$AAt?$AAs?$AA?2@ 1003f920     libucrt:atof.obj
 0002:00002988       ??_C@_1FM@FELNCOBF@?$AA_?$AA_?$AAc?$AAr?$AAt?$AA_?$AAs?$AAt?$AAr?$AAt?$AAo?$AAx?$AA?3?$AA?3?$AAf@ 1003f988     libucrt:atof.obj
 0002:000029e4       ??_C@_1BG@GEMHBGAF@?$AA_?$AAi?$AAs?$AA_?$AAd?$AAo?$AAu?$AAb?$AAl?$AAe@ 1003f9e4     libucrt:atof.obj
 0002:00002a00       ??_C@_1FK@JOJELFFO@?$AA_?$AA_?$AAc?$AAr?$AAt?$AA_?$AAs?$AAt?$AAr?$AAt?$AAo?$AAx?$AA?3?$AA?3?$AAf@ 1003fa00     libucrt:atof.obj
 0002:00002a5c       ??_C@_1BI@BANMPGJI@?$AA?$CB?$AA_?$AAi?$AAs?$AA_?$AAd?$AAo?$AAu?$AAb?$AAl?$AAe@ 1003fa5c     libucrt:atof.obj
 0002:00002a74       ?inf_uppercase@?1???$parse_floating_point_possible_infinity@DV?$c_string_character_source@D@__crt_strtox@@PBD@__crt_strtox@@YA?AW4floating_point_parse_result@1@AADAAV?$c_string_character_source@D@1@PBD@Z@4QBDB 1003fa74     libucrt:atof.obj
 0002:00002a78       ?inf_lowercase@?1???$parse_floating_point_possible_infinity@DV?$c_string_character_source@D@__crt_strtox@@PBD@__crt_strtox@@YA?AW4floating_point_parse_result@1@AADAAV?$c_string_character_source@D@1@PBD@Z@4QBDB 1003fa78     libucrt:atof.obj
 0002:00002a7c       ?inity_uppercase@?1???$parse_floating_point_possible_infinity@DV?$c_string_character_source@D@__crt_strtox@@PBD@__crt_strtox@@YA?AW4floating_point_parse_result@1@AADAAV?$c_string_character_source@D@1@PBD@Z@4QBDB 1003fa7c     libucrt:atof.obj
 0002:00002a84       ?inity_lowercase@?1???$parse_floating_point_possible_infinity@DV?$c_string_character_source@D@__crt_strtox@@PBD@__crt_strtox@@YA?AW4floating_point_parse_result@1@AADAAV?$c_string_character_source@D@1@PBD@Z@4QBDB 1003fa84     libucrt:atof.obj
 0002:00002a8c       ?uppercase@?1???$parse_floating_point_possible_nan@DV?$c_string_character_source@D@__crt_strtox@@PBD@__crt_strtox@@YA?AW4floating_point_parse_result@1@AADAAV?$c_string_character_source@D@1@PBD@Z@4QBDB 1003fa8c     libucrt:atof.obj
 0002:00002a90       ?lowercase@?1???$parse_floating_point_possible_nan@DV?$c_string_character_source@D@__crt_strtox@@PBD@__crt_strtox@@YA?AW4floating_point_parse_result@1@AADAAV?$c_string_character_source@D@1@PBD@Z@4QBDB 1003fa90     libucrt:atof.obj
 0002:00002a94       ?uppercase@?1???$parse_floating_point_possible_nan_is_snan@DV?$c_string_character_source@D@__crt_strtox@@@__crt_strtox@@YA_NAADAAV?$c_string_character_source@D@1@@Z@4QBDB 1003fa94     libucrt:atof.obj
 0002:00002a9c       ?lowercase@?1???$parse_floating_point_possible_nan_is_snan@DV?$c_string_character_source@D@__crt_strtox@@@__crt_strtox@@YA_NAADAAV?$c_string_character_source@D@1@@Z@4QBDB 1003fa9c     libucrt:atof.obj
 0002:00002aa4       ?uppercase@?1???$parse_floating_point_possible_nan_is_ind@DV?$c_string_character_source@D@__crt_strtox@@@__crt_strtox@@YA_NAADAAV?$c_string_character_source@D@1@@Z@4QBDB 1003faa4     libucrt:atof.obj
 0002:00002aa8       ?lowercase@?1???$parse_floating_point_possible_nan_is_ind@DV?$c_string_character_source@D@__crt_strtox@@@__crt_strtox@@YA_NAADAAV?$c_string_character_source@D@1@@Z@4QBDB 1003faa8     libucrt:atof.obj
 0002:00002ab0       ___newctype                1003fab0     libucrt:ctype.obj
 0002:00002db0       ___newclmap                1003fdb0     libucrt:ctype.obj
 0002:00002f30       ___newcumap                1003ff30     libucrt:ctype.obj
 0002:000030b0       __wctype                   100400b0     libucrt:ctype.obj
 0002:00003420       ___acrt_exception_action_table 10040420     libucrt:exception_filter.obj
 0002:000034b0       ___acrt_signal_action_table_count 100404b0     libucrt:exception_filter.obj
 0002:000034b4       ___acrt_signal_action_first_fpe_index 100404b4     libucrt:exception_filter.obj
 0002:000034b8       ___acrt_signal_action_fpe_count 100404b8     libucrt:exception_filter.obj
 0002:000034bc       ??_C@_1BI@BGOHAHKC@?$AAm?$AAs?$AAc?$AAo?$AAr?$AAe?$AAe?$AA?4?$AAd?$AAl?$AAl@ 100404bc     libucrt:exit.obj
 0002:000034d4       ??_C@_0P@MIGLKIOC@CorExitProcess@ 100404d4     libucrt:exit.obj
 0002:000035a8       ??_C@_03OEIAHPBN@INF@      100405a8     libucrt:cvt.obj
 0002:000035ac       ??_C@_03OJHLLCGB@inf@      100405ac     libucrt:cvt.obj
 0002:000035b0       ??_C@_03LKNCIKJB@NAN@      100405b0     libucrt:cvt.obj
 0002:000035b4       ??_C@_03LHCJEHON@nan@      100405b4     libucrt:cvt.obj
 0002:000035b8       ??_C@_09OFJJIMPC@NAN?$CISNAN?$CJ@ 100405b8     libucrt:cvt.obj
 0002:000035c4       ??_C@_09IPFBKMDL@nan?$CIsnan?$CJ@ 100405c4     libucrt:cvt.obj
 0002:000035d0       ??_C@_08IKHNHAJ@NAN?$CIIND?$CJ@ 100405d0     libucrt:cvt.obj
 0002:000035dc       ??_C@_08OFCDMILK@nan?$CIind?$CJ@ 100405dc     libucrt:cvt.obj
 0002:000035e8       ??_C@_05KLBDPFGC@e?$CL000@ 100405e8     libucrt:cvt.obj
 0002:00003670       ___lc_category             10040670     libucrt:wsetlocale.obj
 0002:000036b8       ??_C@_1O@GIFLHMA@?$AAL?$AAC?$AA_?$AAA?$AAL?$AAL@ 100406b8     libucrt:wsetlocale.obj
 0002:000036c8       ??_C@_1BG@PPOMIBNJ@?$AAL?$AAC?$AA_?$AAC?$AAO?$AAL?$AAL?$AAA?$AAT?$AAE@ 100406c8     libucrt:wsetlocale.obj
 0002:000036e0       ??_C@_1BC@FFJGAPJM@?$AAL?$AAC?$AA_?$AAC?$AAT?$AAY?$AAP?$AAE@ 100406e0     libucrt:wsetlocale.obj
 0002:000036f4       ??_C@_1BI@PCKFNJFB@?$AAL?$AAC?$AA_?$AAM?$AAO?$AAN?$AAE?$AAT?$AAA?$AAR?$AAY@ 100406f4     libucrt:wsetlocale.obj
 0002:0000370c       ??_C@_1BG@ENIEDKID@?$AAL?$AAC?$AA_?$AAN?$AAU?$AAM?$AAE?$AAR?$AAI?$AAC@ 1004070c     libucrt:wsetlocale.obj
 0002:00003724       ??_C@_1BA@HAAOMIIG@?$AAL?$AAC?$AA_?$AAT?$AAI?$AAM?$AAE@ 10040724     libucrt:wsetlocale.obj
 0002:00003734       ??_C@_15NBPDDFIP@?$AA?$DN?$AA?$DL@ 10040734     libucrt:wsetlocale.obj
 0002:0000373c       ??_C@_13PJJBFPED@?$AA?$DL@ 1004073c     libucrt:wsetlocale.obj
 0002:00003740       ??_C@_13NMPKAAJP@?$AA?$DN@ 10040740     libucrt:wsetlocale.obj
 0002:00003744       ??_C@_17EFJLDFDO@?$AA?9?$AA_?$AA?4@ 10040744     libucrt:wsetlocale.obj
 0002:0000374c       ??_C@_13FHBKNHDA@?$AAC@    1004074c     libucrt:wsetlocale.obj
 0002:00003750       ??_C@_17MBJJLFDM@?$AA_?$AA?4?$AA?0@ 10040750     libucrt:wsetlocale.obj
 0002:00003758       ??_C@_13ENNFDPBH@?$AA_@    10040758     libucrt:wsetlocale.obj
 0002:0000375c       ??_C@_13JOFGPIOO@?$AA?4@   1004075c     libucrt:wsetlocale.obj
 0002:00003760       ___lc_time_c               10040760     libucrt:nlsdata.obj
 0002:000038c4       ??_C@_03KOEHGMDN@Sun@      100408c4     libucrt:nlsdata.obj
 0002:000038c8       ??_C@_03PDAGKDH@Mon@       100408c8     libucrt:nlsdata.obj
 0002:000038cc       ??_C@_03NAGEINEP@Tue@      100408cc     libucrt:nlsdata.obj
 0002:000038d0       ??_C@_03MHOMLAJA@Wed@      100408d0     libucrt:nlsdata.obj
 0002:000038d4       ??_C@_03IOFIKPDN@Thu@      100408d4     libucrt:nlsdata.obj
 0002:000038d8       ??_C@_03IDIOELNC@Fri@      100408d8     libucrt:nlsdata.obj
 0002:000038dc       ??_C@_03FEFJNEK@Sat@       100408dc     libucrt:nlsdata.obj
 0002:000038e0       ??_C@_06OOPIFAJ@Sunday@    100408e0     libucrt:nlsdata.obj
 0002:000038e8       ??_C@_06JLEDEDGH@Monday@   100408e8     libucrt:nlsdata.obj
 0002:000038f0       ??_C@_07BAAGCFCM@Tuesday@  100408f0     libucrt:nlsdata.obj
 0002:000038f8       ??_C@_09DLIGFAKA@Wednesday@ 100408f8     libucrt:nlsdata.obj
 0002:00003904       ??_C@_08HACCIKIA@Thursday@ 10040904     libucrt:nlsdata.obj
 0002:00003910       ??_C@_06JECMNKMI@Friday@   10040910     libucrt:nlsdata.obj
 0002:00003918       ??_C@_08INBOOONO@Saturday@ 10040918     libucrt:nlsdata.obj
 0002:00003924       ??_C@_03JIHJHPIE@Jan@      10040924     libucrt:nlsdata.obj
 0002:00003928       ??_C@_03HJBDCHOM@Feb@      10040928     libucrt:nlsdata.obj
 0002:0000392c       ??_C@_03ODNJBKGA@Mar@      1004092c     libucrt:nlsdata.obj
 0002:00003930       ??_C@_03LEOLGMJP@Apr@      10040930     libucrt:nlsdata.obj
 0002:00003934       ??_C@_03CNMDKL@May@        10040934     libucrt:nlsdata.obj
 0002:00003938       ??_C@_03IDFGHECI@Jun@      10040938     libucrt:nlsdata.obj
 0002:0000393c       ??_C@_03LBGABGKK@Jul@      1004093c     libucrt:nlsdata.obj
 0002:00003940       ??_C@_03IFJFEIGA@Aug@      10040940     libucrt:nlsdata.obj
 0002:00003944       ??_C@_03GGCAPAJC@Sep@      10040944     libucrt:nlsdata.obj
 0002:00003948       ??_C@_03BMAOKBAD@Oct@      10040948     libucrt:nlsdata.obj
 0002:0000394c       ??_C@_03JPJOFNIA@Nov@      1004094c     libucrt:nlsdata.obj
 0002:00003950       ??_C@_03MKABNOCG@Dec@      10040950     libucrt:nlsdata.obj
 0002:00003954       ??_C@_07CGJPFGJA@January@  10040954     libucrt:nlsdata.obj
 0002:0000395c       ??_C@_08GNJGEPFN@February@ 1004095c     libucrt:nlsdata.obj
 0002:00003968       ??_C@_05HPCKOFNC@March@    10040968     libucrt:nlsdata.obj
 0002:00003970       ??_C@_05DMJDNLEJ@April@    10040970     libucrt:nlsdata.obj
 0002:00003978       ??_C@_04CNLMGBGM@June@     10040978     libucrt:nlsdata.obj
 0002:00003980       ??_C@_04MIEPOIFP@July@     10040980     libucrt:nlsdata.obj
 0002:00003988       ??_C@_06LBBHFDDG@August@   10040988     libucrt:nlsdata.obj
 0002:00003990       ??_C@_09BHHEALKD@September@ 10040990     libucrt:nlsdata.obj
 0002:0000399c       ??_C@_07JJNFCEND@October@  1004099c     libucrt:nlsdata.obj
 0002:000039a4       ??_C@_08HCHEGEOA@November@ 100409a4     libucrt:nlsdata.obj
 0002:000039b0       ??_C@_08EDHMEBNP@December@ 100409b0     libucrt:nlsdata.obj
 0002:000039bc       ??_C@_02DEDBPAFC@AM@       100409bc     libucrt:nlsdata.obj
 0002:000039c0       ??_C@_02CJNFDJBF@PM@       100409c0     libucrt:nlsdata.obj
 0002:000039c4       ??_C@_08BPBNCDIB@MM?1dd?1yy@ 100409c4     libucrt:nlsdata.obj
 0002:000039d0       ??_C@_0BE@CKGJFCPC@dddd?0?5MMMM?5dd?0?5yyyy@ 100409d0     libucrt:nlsdata.obj
 0002:000039e4       ??_C@_08JCCMCCIL@HH?3mm?3ss@ 100409e4     libucrt:nlsdata.obj
 0002:000039f0       ??_C@_17MBGCMIPB@?$AAS?$AAu?$AAn@ 100409f0     libucrt:nlsdata.obj
 0002:000039f8       ??_C@_17KBOMKBF@?$AAM?$AAo?$AAn@ 100409f8     libucrt:nlsdata.obj
 0002:00003a00       ??_C@_17BMKGEGOJ@?$AAT?$AAu?$AAe@ 10040a00     libucrt:nlsdata.obj
 0002:00003a08       ??_C@_17CJEDCEPE@?$AAW?$AAe?$AAd@ 10040a08     libucrt:nlsdata.obj
 0002:00003a10       ??_C@_17PDPHAADD@?$AAT?$AAh?$AAu@ 10040a10     libucrt:nlsdata.obj
 0002:00003a18       ??_C@_17HFOLPPLP@?$AAF?$AAr?$AAi@ 10040a18     libucrt:nlsdata.obj
 0002:00003a20       ??_C@_17GGIBDPIH@?$AAS?$AAa?$AAt@ 10040a20     libucrt:nlsdata.obj
 0002:00003a28       ??_C@_1O@IHNHDHPB@?$AAS?$AAu?$AAn?$AAd?$AAa?$AAy@ 10040a28     libucrt:nlsdata.obj
 0002:00003a38       ??_C@_1O@MMNBFLIA@?$AAM?$AAo?$AAn?$AAd?$AAa?$AAy@ 10040a38     libucrt:nlsdata.obj
 0002:00003a48       ??_C@_1BA@ENFBFFEK@?$AAT?$AAu?$AAe?$AAs?$AAd?$AAa?$AAy@ 10040a48     libucrt:nlsdata.obj
 0002:00003a58       ??_C@_1BE@EBOGMDOH@?$AAW?$AAe?$AAd?$AAn?$AAe?$AAs?$AAd?$AAa?$AAy@ 10040a58     libucrt:nlsdata.obj
 0002:00003a6c       ??_C@_1BC@HHMNLIHE@?$AAT?$AAh?$AAu?$AAr?$AAs?$AAd?$AAa?$AAy@ 10040a6c     libucrt:nlsdata.obj
 0002:00003a80       ??_C@_1O@PDICJHAG@?$AAF?$AAr?$AAi?$AAd?$AAa?$AAy@ 10040a80     libucrt:nlsdata.obj
 0002:00003a90       ??_C@_1BC@ENMNNPAJ@?$AAS?$AAa?$AAt?$AAu?$AAr?$AAd?$AAa?$AAy@ 10040a90     libucrt:nlsdata.obj
 0002:00003aa4       ??_C@_17DKNBKCHM@?$AAJ?$AAa?$AAn@ 10040aa4     libucrt:nlsdata.obj
 0002:00003aac       ??_C@_17LMDJEKJN@?$AAF?$AAe?$AAb@ 10040aac     libucrt:nlsdata.obj
 0002:00003ab4       ??_C@_17CKNLEDEC@?$AAM?$AAa?$AAr@ 10040ab4     libucrt:nlsdata.obj
 0002:00003abc       ??_C@_17LFPOIHDD@?$AAA?$AAp?$AAr@ 10040abc     libucrt:nlsdata.obj
 0002:00003ac4       ??_C@_17PNNKMEED@?$AAM?$AAa?$AAy@ 10040ac4     libucrt:nlsdata.obj
 0002:00003acc       ??_C@_17KCJGOCPB@?$AAJ?$AAu?$AAn@ 10040acc     libucrt:nlsdata.obj
 0002:00003ad4       ??_C@_17IJPCKHK@?$AAJ?$AAu?$AAl@ 10040ad4     libucrt:nlsdata.obj
 0002:00003adc       ??_C@_17ICPELBCN@?$AAA?$AAu?$AAg@ 10040adc     libucrt:nlsdata.obj
 0002:00003ae4       ??_C@_17HCHCOKMG@?$AAS?$AAe?$AAp@ 10040ae4     libucrt:nlsdata.obj
 0002:00003aec       ??_C@_17FNLKOI@?$AAO?$AAc?$AAt@ 10040aec     libucrt:nlsdata.obj
 0002:00003af4       ??_C@_17BBDMLCIG@?$AAN?$AAo?$AAv@ 10040af4     libucrt:nlsdata.obj
 0002:00003afc       ??_C@_17EGKACKIF@?$AAD?$AAe?$AAc@ 10040afc     libucrt:nlsdata.obj
 0002:00003b04       ??_C@_1BA@EFMEIEBA@?$AAJ?$AAa?$AAn?$AAu?$AAa?$AAr?$AAy@ 10040b04     libucrt:nlsdata.obj
 0002:00003b14       ??_C@_1BC@JGDDFFAM@?$AAF?$AAe?$AAb?$AAr?$AAu?$AAa?$AAr?$AAy@ 10040b14     libucrt:nlsdata.obj
 0002:00003b28       ??_C@_1M@IKEENEDF@?$AAM?$AAa?$AAr?$AAc?$AAh@ 10040b28     libucrt:nlsdata.obj
 0002:00003b34       ??_C@_1M@GJNLMHFD@?$AAA?$AAp?$AAr?$AAi?$AAl@ 10040b34     libucrt:nlsdata.obj
 0002:00003b40       ??_C@_19EPFLPGAP@?$AAJ?$AAu?$AAn?$AAe@ 10040b40     libucrt:nlsdata.obj
 0002:00003b4c       ??_C@_19BIFMLPCD@?$AAJ?$AAu?$AAl?$AAy@ 10040b4c     libucrt:nlsdata.obj
 0002:00003b58       ??_C@_1O@PAHLKOAC@?$AAA?$AAu?$AAg?$AAu?$AAs?$AAt@ 10040b58     libucrt:nlsdata.obj
 0002:00003b68       ??_C@_1BE@DKAAMBJL@?$AAS?$AAe?$AAp?$AAt?$AAe?$AAm?$AAb?$AAe?$AAr@ 10040b68     libucrt:nlsdata.obj
 0002:00003b7c       ??_C@_1BA@EPANDLNG@?$AAO?$AAc?$AAt?$AAo?$AAb?$AAe?$AAr@ 10040b7c     libucrt:nlsdata.obj
 0002:00003b8c       ??_C@_1BC@BGLIFPF@?$AAN?$AAo?$AAv?$AAe?$AAm?$AAb?$AAe?$AAr@ 10040b8c     libucrt:nlsdata.obj
 0002:00003ba0       ??_C@_1BC@FEMKIFH@?$AAD?$AAe?$AAc?$AAe?$AAm?$AAb?$AAe?$AAr@ 10040ba0     libucrt:nlsdata.obj
 0002:00003bb4       ??_C@_15ODEHAHHF@?$AAA?$AAM@ 10040bb4     libucrt:nlsdata.obj
 0002:00003bbc       ??_C@_15CLMNNGEL@?$AAP?$AAM@ 10040bbc     libucrt:nlsdata.obj
 0002:00003bc4       ??_C@_1BC@IEBCMHCM@?$AAM?$AAM?$AA?1?$AAd?$AAd?$AA?1?$AAy?$AAy@ 10040bc4     libucrt:nlsdata.obj
 0002:00003bd8       ??_C@_1CI@KNAKOEBC@?$AAd?$AAd?$AAd?$AAd?$AA?0?$AA?5?$AAM?$AAM?$AAM?$AAM?$AA?5?$AAd?$AAd?$AA?0?$AA?5@ 10040bd8     libucrt:nlsdata.obj
 0002:00003c00       ??_C@_1BC@GDGBMEMK@?$AAH?$AAH?$AA?3?$AAm?$AAm?$AA?3?$AAs?$AAs@ 10040c00     libucrt:nlsdata.obj
 0002:00003c14       ??_C@_1M@BMHNFIME@?$AAe?$AAn?$AA?9?$AAU?$AAS@ 10040c14     libucrt:nlsdata.obj
 0002:00003c78       ??_C@_1EA@JGEFHKEI@?$AAa?$AAp?$AAi?$AA?9?$AAm?$AAs?$AA?9?$AAw?$AAi?$AAn?$AA?9?$AAc?$AAo?$AAr?$AAe@ 10040c78     libucrt:winapi_thunks.obj
 0002:00003cb8       ??_C@_1DI@KMEPCBPN@?$AAa?$AAp?$AAi?$AA?9?$AAm?$AAs?$AA?9?$AAw?$AAi?$AAn?$AA?9?$AAc?$AAo?$AAr?$AAe@ 10040cb8     libucrt:winapi_thunks.obj
 0002:00003cf0       ??_C@_1DI@IJCEHOCB@?$AAa?$AAp?$AAi?$AA?9?$AAm?$AAs?$AA?9?$AAw?$AAi?$AAn?$AA?9?$AAc?$AAo?$AAr?$AAe@ 10040cf0     libucrt:winapi_thunks.obj
 0002:00003d28       ??_C@_1EI@MPIAOHOC@?$AAa?$AAp?$AAi?$AA?9?$AAm?$AAs?$AA?9?$AAw?$AAi?$AAn?$AA?9?$AAc?$AAo?$AAr?$AAe@ 10040d28     libucrt:winapi_thunks.obj
 0002:00003d70       ??_C@_1FK@FPHCKFIE@?$AAa?$AAp?$AAi?$AA?9?$AAm?$AAs?$AA?9?$AAw?$AAi?$AAn?$AA?9?$AAc?$AAo?$AAr?$AAe@ 10040d70     libucrt:winapi_thunks.obj
 0002:00003dd0       ??_C@_1EM@DILCGIIO@?$AAa?$AAp?$AAi?$AA?9?$AAm?$AAs?$AA?9?$AAw?$AAi?$AAn?$AA?9?$AAc?$AAo?$AAr?$AAe@ 10040dd0     libucrt:winapi_thunks.obj
 0002:00003e1c       ??_C@_1DM@LNCGDDPN@?$AAa?$AAp?$AAi?$AA?9?$AAm?$AAs?$AA?9?$AAw?$AAi?$AAn?$AA?9?$AAc?$AAo?$AAr?$AAe@ 10040e1c     libucrt:winapi_thunks.obj
 0002:00003e58       ??_C@_1DO@FPAPJEMD@?$AAa?$AAp?$AAi?$AA?9?$AAm?$AAs?$AA?9?$AAw?$AAi?$AAn?$AA?9?$AAc?$AAo?$AAr?$AAe@ 10040e58     libucrt:winapi_thunks.obj
 0002:00003e98       ??_C@_1DK@NDHNAHIO@?$AAa?$AAp?$AAi?$AA?9?$AAm?$AAs?$AA?9?$AAw?$AAi?$AAn?$AA?9?$AAc?$AAo?$AAr?$AAe@ 10040e98     libucrt:winapi_thunks.obj
 0002:00003ed4       ??_C@_1DM@KGHDGBCM@?$AAa?$AAp?$AAi?$AA?9?$AAm?$AAs?$AA?9?$AAw?$AAi?$AAn?$AA?9?$AAc?$AAo?$AAr?$AAe@ 10040ed4     libucrt:winapi_thunks.obj
 0002:00003f10       ??_C@_1EO@IJIOEFOH@?$AAa?$AAp?$AAi?$AA?9?$AAm?$AAs?$AA?9?$AAw?$AAi?$AAn?$AA?9?$AAr?$AAt?$AAc?$AAo@ 10040f10     libucrt:winapi_thunks.obj
 0002:00003f60       ??_C@_1FG@HHGEKANL@?$AAa?$AAp?$AAi?$AA?9?$AAm?$AAs?$AA?9?$AAw?$AAi?$AAn?$AA?9?$AAs?$AAe?$AAc?$AAu@ 10040f60     libucrt:winapi_thunks.obj
 0002:00003fb8       ??_C@_1EG@DBIOJECG@?$AAe?$AAx?$AAt?$AA?9?$AAm?$AAs?$AA?9?$AAw?$AAi?$AAn?$AA?9?$AAn?$AAt?$AAu?$AAs@ 10040fb8     libucrt:winapi_thunks.obj
 0002:00004000       ??_C@_1EO@FIHMJCLF@?$AAe?$AAx?$AAt?$AA?9?$AAm?$AAs?$AA?9?$AAw?$AAi?$AAn?$AA?9?$AAn?$AAt?$AAu?$AAs@ 10041000     libucrt:winapi_thunks.obj
 0002:00004050       ??_C@_1BC@DNHGCMLG@?$AAa?$AAd?$AAv?$AAa?$AAp?$AAi?$AA3?$AA2@ 10041050     libucrt:winapi_thunks.obj
 0002:00004064       ??_C@_1BG@CJPGBMEF@?$AAk?$AAe?$AAr?$AAn?$AAe?$AAl?$AAb?$AAa?$AAs?$AAe@ 10041064     libucrt:winapi_thunks.obj
 0002:0000407c       ??_C@_1M@OAIMIKLP@?$AAn?$AAt?$AAd?$AAl?$AAl@ 1004107c     libucrt:winapi_thunks.obj
 0002:00004088       ??_C@_1EG@DPGNFKGC@?$AAa?$AAp?$AAi?$AA?9?$AAm?$AAs?$AA?9?$AAw?$AAi?$AAn?$AA?9?$AAa?$AAp?$AAp?$AAm@ 10041088     libucrt:winapi_thunks.obj
 0002:000040d0       ??_C@_1O@BCCLBEOE@?$AAu?$AAs?$AAe?$AAr?$AA3?$AA2@ 100410d0     libucrt:winapi_thunks.obj
 0002:000040e0       ??_C@_1DM@BPJLHKCE@?$AAa?$AAp?$AAi?$AA?9?$AAm?$AAs?$AA?9?$AAw?$AAi?$AAn?$AA?9?$AAc?$AAo?$AAr?$AAe@ 100410e0     libucrt:winapi_thunks.obj
 0002:0000411c       ??_C@_1BA@IAIFMGEF@?$AAe?$AAx?$AAt?$AA?9?$AAm?$AAs?$AA?9@ 1004111c     libucrt:winapi_thunks.obj
 0002:00004130       ??_C@_0BA@FHFNEAED@AreFileApisANSI@ 10041130     libucrt:winapi_thunks.obj
 0002:00004148       ??_C@_0BA@IHGNDAEB@CompareStringEx@ 10041148     libucrt:winapi_thunks.obj
 0002:00004160       ??_C@_0BE@LJANKFHF@EnumSystemLocalesEx@ 10041160     libucrt:winapi_thunks.obj
 0002:0000417c       ??_C@_0BA@EPCJIIPD@GetDateFormatEx@ 1004117c     libucrt:winapi_thunks.obj
 0002:00004194       ??_C@_0BA@ONOKGCMP@GetLocaleInfoEx@ 10041194     libucrt:winapi_thunks.obj
 0002:000041ac       ??_C@_0BA@CIJJKCJJ@GetTimeFormatEx@ 100411ac     libucrt:winapi_thunks.obj
 0002:000041c4       ??_C@_0BJ@PBCCBIPI@GetUserDefaultLocaleName@ 100411c4     libucrt:winapi_thunks.obj
 0002:000041f0       ??_C@_0BC@CELBKLLA@IsValidLocaleName@ 100411f0     libucrt:winapi_thunks.obj
 0002:0000420c       ??_C@_0O@KKBNKAPF@LCMapStringEx@ 1004120c     libucrt:winapi_thunks.obj
 0002:00004224       ??_C@_0BB@CDHDDLLP@LCIDToLocaleName@ 10041224     libucrt:winapi_thunks.obj
 0002:00004240       ??_C@_0BB@HBDEELFH@LocaleNameToLCID@ 10041240     libucrt:winapi_thunks.obj
 0002:00004258       ??_C@_0N@PPOMPGGK@RoInitialize@ 10041258     libucrt:winapi_thunks.obj
 0002:0000426c       ??_C@_0P@LLFHBIJD@RoUninitialize@ 1004126c     libucrt:winapi_thunks.obj
 0002:00004280       ??_C@_0CF@OJOFEIGO@AppPolicyGetProcessTerminationM@ 10041280     libucrt:winapi_thunks.obj
 0002:000042ac       ??_C@_0CF@NNDFDCOC@AppPolicyGetThreadInitializatio@ 100412ac     libucrt:winapi_thunks.obj
 0002:000043e0       ??_C@_03KHJOGHMM@exp@      100413e0     libucrt:fpexcept.obj
 0002:000043e4       ??_C@_03JGHBODFD@pow@      100413e4     libucrt:fpexcept.obj
 0002:000043e8       ??_C@_03MGHMBJCF@log@      100413e8     libucrt:fpexcept.obj
 0002:000043ec       ??_C@_05HGHHAHAP@log10@    100413ec     libucrt:fpexcept.obj
 0002:000043f4       ??_C@_04COOMCNPB@sinh@     100413f4     libucrt:fpexcept.obj
 0002:000043fc       ??_C@_04HPJJNFIM@cosh@     100413fc     libucrt:fpexcept.obj
 0002:00004404       ??_C@_04FJHINJAO@tanh@     10041404     libucrt:fpexcept.obj
 0002:0000440c       ??_C@_04FIHNOPOL@asin@     1004140c     libucrt:fpexcept.obj
 0002:00004414       ??_C@_04PDIFKINK@acos@     10041414     libucrt:fpexcept.obj
 0002:0000441c       ??_C@_04MLLJIGOK@atan@     1004141c     libucrt:fpexcept.obj
 0002:00004424       ??_C@_05KNGEOGJB@atan2@    10041424     libucrt:fpexcept.obj
 0002:0000442c       ??_C@_04EIAKFFMI@sqrt@     1004142c     libucrt:fpexcept.obj
 0002:00004434       ??_C@_03BLEJJJBH@sin@      10041434     libucrt:fpexcept.obj
 0002:00004438       ??_C@_03LALBNOCG@cos@      10041438     libucrt:fpexcept.obj
 0002:0000443c       ??_C@_03IIINPABG@tan@      1004143c     libucrt:fpexcept.obj
 0002:00004440       ??_C@_04GFPJNGEK@ceil@     10041440     libucrt:fpexcept.obj
 0002:00004448       ??_C@_05PBJFFIGL@floor@    10041448     libucrt:fpexcept.obj
 0002:00004450       ??_C@_04ODHECPBC@fabs@     10041450     libucrt:fpexcept.obj
 0002:00004458       ??_C@_04EHEDPDJG@modf@     10041458     libucrt:fpexcept.obj
 0002:00004460       ??_C@_05CEJMAHNP@ldexp@    10041460     libucrt:fpexcept.obj
 0002:00004468       ??_C@_05KBKMEMPO@_cabs@    10041468     libucrt:fpexcept.obj
 0002:00004470       ??_C@_06MEIMCGCF@_hypot@   10041470     libucrt:fpexcept.obj
 0002:00004478       ??_C@_04KEPJIHGP@fmod@     10041478     libucrt:fpexcept.obj
 0002:00004480       ??_C@_05GKKHEGJL@frexp@    10041480     libucrt:fpexcept.obj
 0002:00004488       ??_C@_03MJLDFKDL@_y0@      10041488     libucrt:fpexcept.obj
 0002:0000448c       ??_C@_03NAKIGLHK@_y1@      1004148c     libucrt:fpexcept.obj
 0002:00004490       ??_C@_03ONILCKOB@_yn@      10041490     libucrt:fpexcept.obj
 0002:00004494       ??_C@_05JGDBENOH@_logb@    10041494     libucrt:fpexcept.obj
 0002:0000449c       ??_C@_0L@KDOEJCKC@_nextafter@ 1004149c     libucrt:fpexcept.obj
 0002:000044a8       __d_inf                    100414a8     libucrt:util.obj
 0002:000044b0       __d_max                    100414b0     libucrt:util.obj
 0002:000044b8       __d_mzero                  100414b8     libucrt:util.obj
 0002:000044e8       ??_C@_1M@HPNHIDJI@?$AAj?$AAa?$AA?9?$AAJ?$AAP@ 100414e8     libucrt:mbctype.obj
 0002:000044f4       ??_C@_1M@BIBDDEMK@?$AAz?$AAh?$AA?9?$AAC?$AAN@ 100414f4     libucrt:mbctype.obj
 0002:00004500       ??_C@_1M@JLOOOEGK@?$AAk?$AAo?$AA?9?$AAK?$AAR@ 10041500     libucrt:mbctype.obj
 0002:0000450c       ??_C@_1M@CLNBBOPM@?$AAz?$AAh?$AA?9?$AAT?$AAW@ 1004150c     libucrt:mbctype.obj
 0002:00004518       ??_C@_01GBGANLPD@0@        10041518     libucrt:cfout.obj
 0002:0000451c       ??_C@_05DNEBIAHO@1?$CDINF@ 1004151c     libucrt:cfout.obj
 0002:00004524       ??_C@_06IMKFLFPG@1?$CDQNAN@ 10041524     libucrt:cfout.obj
 0002:0000452c       ??_C@_06PGGFOGJG@1?$CDSNAN@ 1004152c     libucrt:cfout.obj
 0002:00004534       ??_C@_05PHHOCPM@1?$CDIND@  10041534     libucrt:cfout.obj
 0002:00004540       ___acrt_rg_language        10041540     libucrt:get_qualified_locale.obj
 0002:0000484c       ___acrt_rg_language_count  1004184c     libucrt:get_qualified_locale.obj
 0002:00004850       ___acrt_rg_country         10041850     libucrt:get_qualified_locale.obj
 0002:00004964       ___acrt_rg_country_count   10041964     libucrt:get_qualified_locale.obj
 0002:00004968       ??_C@_1BC@LLOKLNP@?$AAa?$AAm?$AAe?$AAr?$AAi?$AAc?$AAa?$AAn@ 10041968     libucrt:get_qualified_locale.obj
 0002:0000497c       ??_C@_1CC@HEIGCDGG@?$AAa?$AAm?$AAe?$AAr?$AAi?$AAc?$AAa?$AAn?$AA?5?$AAe?$AAn?$AAg?$AAl?$AAi?$AAs@ 1004197c     libucrt:get_qualified_locale.obj
 0002:000049a0       ??_C@_1CC@IHCNOMIN@?$AAa?$AAm?$AAe?$AAr?$AAi?$AAc?$AAa?$AAn?$AA?9?$AAe?$AAn?$AAg?$AAl?$AAi?$AAs@ 100419a0     libucrt:get_qualified_locale.obj
 0002:000049c4       ??_C@_1BG@GKAGPCGG@?$AAa?$AAu?$AAs?$AAt?$AAr?$AAa?$AAl?$AAi?$AAa?$AAn@ 100419c4     libucrt:get_qualified_locale.obj
 0002:000049dc       ??_C@_1BA@GMENCENF@?$AAb?$AAe?$AAl?$AAg?$AAi?$AAa?$AAn@ 100419dc     libucrt:get_qualified_locale.obj
 0002:000049ec       ??_C@_1BC@PJMIIAAN@?$AAc?$AAa?$AAn?$AAa?$AAd?$AAi?$AAa?$AAn@ 100419ec     libucrt:get_qualified_locale.obj
 0002:00004a00       ??_C@_17NOIMNFBF@?$AAc?$AAh?$AAh@ 10041a00     libucrt:get_qualified_locale.obj
 0002:00004a08       ??_C@_17GGDALCHA@?$AAc?$AAh?$AAi@ 10041a08     libucrt:get_qualified_locale.obj
 0002:00004a10       ??_C@_1BA@NPNJKIBL@?$AAc?$AAh?$AAi?$AAn?$AAe?$AAs?$AAe@ 10041a10     libucrt:get_qualified_locale.obj
 0002:00004a20       ??_C@_1CC@DINBAMMJ@?$AAc?$AAh?$AAi?$AAn?$AAe?$AAs?$AAe?$AA?9?$AAh?$AAo?$AAn?$AAg?$AAk?$AAo?$AAn@ 10041a20     libucrt:get_qualified_locale.obj
 0002:00004a44       ??_C@_1CG@IOBJPACO@?$AAc?$AAh?$AAi?$AAn?$AAe?$AAs?$AAe?$AA?9?$AAs?$AAi?$AAm?$AAp?$AAl?$AAi?$AAf@ 10041a44     libucrt:get_qualified_locale.obj
 0002:00004a6c       ??_C@_1CE@GAJNDCKG@?$AAc?$AAh?$AAi?$AAn?$AAe?$AAs?$AAe?$AA?9?$AAs?$AAi?$AAn?$AAg?$AAa?$AAp?$AAo@ 10041a6c     libucrt:get_qualified_locale.obj
 0002:00004a90       ??_C@_1CI@PAJPIOOD@?$AAc?$AAh?$AAi?$AAn?$AAe?$AAs?$AAe?$AA?9?$AAt?$AAr?$AAa?$AAd?$AAi?$AAt?$AAi@ 10041a90     libucrt:get_qualified_locale.obj
 0002:00004ab8       ??_C@_1BM@NILJBMMD@?$AAd?$AAu?$AAt?$AAc?$AAh?$AA?9?$AAb?$AAe?$AAl?$AAg?$AAi?$AAa?$AAn@ 10041ab8     libucrt:get_qualified_locale.obj
 0002:00004ad4       ??_C@_1CC@OOJPJNEJ@?$AAe?$AAn?$AAg?$AAl?$AAi?$AAs?$AAh?$AA?9?$AAa?$AAm?$AAe?$AAr?$AAi?$AAc?$AAa@ 10041ad4     libucrt:get_qualified_locale.obj
 0002:00004af8       ??_C@_1BI@IOLFEEM@?$AAe?$AAn?$AAg?$AAl?$AAi?$AAs?$AAh?$AA?9?$AAa?$AAu?$AAs@ 10041af8     libucrt:get_qualified_locale.obj
 0002:00004b10       ??_C@_1BO@HFFNLENJ@?$AAe?$AAn?$AAg?$AAl?$AAi?$AAs?$AAh?$AA?9?$AAb?$AAe?$AAl?$AAi?$AAz?$AAe@ 10041b10     libucrt:get_qualified_locale.obj
 0002:00004b30       ??_C@_1BI@HAPKJMPO@?$AAe?$AAn?$AAg?$AAl?$AAi?$AAs?$AAh?$AA?9?$AAc?$AAa?$AAn@ 10041b30     libucrt:get_qualified_locale.obj
 0002:00004b48       ??_C@_1CE@HLNDMIOJ@?$AAe?$AAn?$AAg?$AAl?$AAi?$AAs?$AAh?$AA?9?$AAc?$AAa?$AAr?$AAi?$AAb?$AAb?$AAe@ 10041b48     libucrt:get_qualified_locale.obj
 0002:00004b6c       ??_C@_1BI@LDHJHHAC@?$AAe?$AAn?$AAg?$AAl?$AAi?$AAs?$AAh?$AA?9?$AAi?$AAr?$AAe@ 10041b6c     libucrt:get_qualified_locale.obj
 0002:00004b84       ??_C@_1CA@NJMMCFOC@?$AAe?$AAn?$AAg?$AAl?$AAi?$AAs?$AAh?$AA?9?$AAj?$AAa?$AAm?$AAa?$AAi?$AAc?$AAa@ 10041b84     libucrt:get_qualified_locale.obj
 0002:00004ba4       ??_C@_1BG@BHJEBBGG@?$AAe?$AAn?$AAg?$AAl?$AAi?$AAs?$AAh?$AA?9?$AAn?$AAz@ 10041ba4     libucrt:get_qualified_locale.obj
 0002:00004bbc       ??_C@_1CK@FGOEJJCO@?$AAe?$AAn?$AAg?$AAl?$AAi?$AAs?$AAh?$AA?9?$AAs?$AAo?$AAu?$AAt?$AAh?$AA?5?$AAa@ 10041bbc     libucrt:get_qualified_locale.obj
 0002:00004be8       ??_C@_1DE@PDBJPCJ@?$AAe?$AAn?$AAg?$AAl?$AAi?$AAs?$AAh?$AA?9?$AAt?$AAr?$AAi?$AAn?$AAi?$AAd?$AAa@ 10041be8     libucrt:get_qualified_locale.obj
 0002:00004c1c       ??_C@_1BG@JGCANDME@?$AAe?$AAn?$AAg?$AAl?$AAi?$AAs?$AAh?$AA?9?$AAu?$AAk@ 10041c1c     libucrt:get_qualified_locale.obj
 0002:00004c34       ??_C@_1BG@DINKMLE@?$AAe?$AAn?$AAg?$AAl?$AAi?$AAs?$AAh?$AA?9?$AAu?$AAs@ 10041c34     libucrt:get_qualified_locale.obj
 0002:00004c4c       ??_C@_1BI@NMFDBHJE@?$AAe?$AAn?$AAg?$AAl?$AAi?$AAs?$AAh?$AA?9?$AAu?$AAs?$AAa@ 10041c4c     libucrt:get_qualified_locale.obj
 0002:00004c64       ??_C@_1BO@OIHKJKII@?$AAf?$AAr?$AAe?$AAn?$AAc?$AAh?$AA?9?$AAb?$AAe?$AAl?$AAg?$AAi?$AAa?$AAn@ 10041c64     libucrt:get_qualified_locale.obj
 0002:00004c84       ??_C@_1CA@NKAELJKI@?$AAf?$AAr?$AAe?$AAn?$AAc?$AAh?$AA?9?$AAc?$AAa?$AAn?$AAa?$AAd?$AAi?$AAa?$AAn@ 10041c84     libucrt:get_qualified_locale.obj
 0002:00004ca4       ??_C@_1CE@MGKCNLGN@?$AAf?$AAr?$AAe?$AAn?$AAc?$AAh?$AA?9?$AAl?$AAu?$AAx?$AAe?$AAm?$AAb?$AAo?$AAu@ 10041ca4     libucrt:get_qualified_locale.obj
 0002:00004cc8       ??_C@_1BK@CEGEAILM@?$AAf?$AAr?$AAe?$AAn?$AAc?$AAh?$AA?9?$AAs?$AAw?$AAi?$AAs?$AAs@ 10041cc8     libucrt:get_qualified_locale.obj
 0002:00004ce4       ??_C@_1CA@PAFKEOCC@?$AAg?$AAe?$AAr?$AAm?$AAa?$AAn?$AA?9?$AAa?$AAu?$AAs?$AAt?$AAr?$AAi?$AAa?$AAn@ 10041ce4     libucrt:get_qualified_locale.obj
 0002:00004d04       ??_C@_1CI@HCFHGOFD@?$AAg?$AAe?$AAr?$AAm?$AAa?$AAn?$AA?9?$AAl?$AAi?$AAc?$AAh?$AAt?$AAe?$AAn?$AAs@ 10041d04     libucrt:get_qualified_locale.obj
 0002:00004d2c       ??_C@_1CE@FEDDNPDG@?$AAg?$AAe?$AAr?$AAm?$AAa?$AAn?$AA?9?$AAl?$AAu?$AAx?$AAe?$AAm?$AAb?$AAo?$AAu@ 10041d2c     libucrt:get_qualified_locale.obj
 0002:00004d50       ??_C@_1BK@LIMINNMN@?$AAg?$AAe?$AAr?$AAm?$AAa?$AAn?$AA?9?$AAs?$AAw?$AAi?$AAs?$AAs@ 10041d50     libucrt:get_qualified_locale.obj
 0002:00004d6c       ??_C@_1BM@LGMDBEPD@?$AAi?$AAr?$AAi?$AAs?$AAh?$AA?9?$AAe?$AAn?$AAg?$AAl?$AAi?$AAs?$AAh@ 10041d6c     libucrt:get_qualified_locale.obj
 0002:00004d88       ??_C@_1BM@NNCFBAEE@?$AAi?$AAt?$AAa?$AAl?$AAi?$AAa?$AAn?$AA?9?$AAs?$AAw?$AAi?$AAs?$AAs@ 10041d88     libucrt:get_qualified_locale.obj
 0002:00004da4       ??_C@_1BE@FEDJNPIB@?$AAn?$AAo?$AAr?$AAw?$AAe?$AAg?$AAi?$AAa?$AAn@ 10041da4     libucrt:get_qualified_locale.obj
 0002:00004db8       ??_C@_1CC@CILKDEIE@?$AAn?$AAo?$AAr?$AAw?$AAe?$AAg?$AAi?$AAa?$AAn?$AA?9?$AAb?$AAo?$AAk?$AAm?$AAa@ 10041db8     libucrt:get_qualified_locale.obj
 0002:00004ddc       ??_C@_1CE@DHMMHEPL@?$AAn?$AAo?$AAr?$AAw?$AAe?$AAg?$AAi?$AAa?$AAn?$AA?9?$AAn?$AAy?$AAn?$AAo?$AAr@ 10041ddc     libucrt:get_qualified_locale.obj
 0002:00004e00       ??_C@_1CK@OPNMHECD@?$AAp?$AAo?$AAr?$AAt?$AAu?$AAg?$AAu?$AAe?$AAs?$AAe?$AA?9?$AAb?$AAr?$AAa?$AAz@ 10041e00     libucrt:get_qualified_locale.obj
 0002:00004e2c       ??_C@_1CE@KEEHCDB@?$AAs?$AAp?$AAa?$AAn?$AAi?$AAs?$AAh?$AA?9?$AAa?$AAr?$AAg?$AAe?$AAn?$AAt?$AAi@ 10041e2c     libucrt:get_qualified_locale.obj
 0002:00004e50       ??_C@_1CA@GIAOLHJD@?$AAs?$AAp?$AAa?$AAn?$AAi?$AAs?$AAh?$AA?9?$AAb?$AAo?$AAl?$AAi?$AAv?$AAi?$AAa@ 10041e50     libucrt:get_qualified_locale.obj
 0002:00004e70       ??_C@_1BM@OJNDFNPD@?$AAs?$AAp?$AAa?$AAn?$AAi?$AAs?$AAh?$AA?9?$AAc?$AAh?$AAi?$AAl?$AAe@ 10041e70     libucrt:get_qualified_locale.obj
 0002:00004e8c       ??_C@_1CC@OCOLPALL@?$AAs?$AAp?$AAa?$AAn?$AAi?$AAs?$AAh?$AA?9?$AAc?$AAo?$AAl?$AAo?$AAm?$AAb?$AAi@ 10041e8c     libucrt:get_qualified_locale.obj
 0002:00004eb0       ??_C@_1CG@BPOFMKBB@?$AAs?$AAp?$AAa?$AAn?$AAi?$AAs?$AAh?$AA?9?$AAc?$AAo?$AAs?$AAt?$AAa?$AA?5?$AAr@ 10041eb0     libucrt:get_qualified_locale.obj
 0002:00004ed8       ??_C@_1DG@IGOBAPBB@?$AAs?$AAp?$AAa?$AAn?$AAi?$AAs?$AAh?$AA?9?$AAd?$AAo?$AAm?$AAi?$AAn?$AAi?$AAc@ 10041ed8     libucrt:get_qualified_locale.obj
 0002:00004f10       ??_C@_1CA@JHAPGEGI@?$AAs?$AAp?$AAa?$AAn?$AAi?$AAs?$AAh?$AA?9?$AAe?$AAc?$AAu?$AAa?$AAd?$AAo?$AAr@ 10041f10     libucrt:get_qualified_locale.obj
 0002:00004f30       ??_C@_1CI@LAPALJPP@?$AAs?$AAp?$AAa?$AAn?$AAi?$AAs?$AAh?$AA?9?$AAe?$AAl?$AA?5?$AAs?$AAa?$AAl?$AAv@ 10041f30     libucrt:get_qualified_locale.obj
 0002:00004f58       ??_C@_1CE@PDGBOFOM@?$AAs?$AAp?$AAa?$AAn?$AAi?$AAs?$AAh?$AA?9?$AAg?$AAu?$AAa?$AAt?$AAe?$AAm?$AAa@ 10041f58     libucrt:get_qualified_locale.obj
 0002:00004f7c       ??_C@_1CC@NBEBAODI@?$AAs?$AAp?$AAa?$AAn?$AAi?$AAs?$AAh?$AA?9?$AAh?$AAo?$AAn?$AAd?$AAu?$AAr?$AAa@ 10041f7c     libucrt:get_qualified_locale.obj
 0002:00004fa0       ??_C@_1CA@LLKGHBMF@?$AAs?$AAp?$AAa?$AAn?$AAi?$AAs?$AAh?$AA?9?$AAm?$AAe?$AAx?$AAi?$AAc?$AAa?$AAn@ 10041fa0     libucrt:get_qualified_locale.obj
 0002:00004fc0       ??_C@_1BO@LKNDOIGD@?$AAs?$AAp?$AAa?$AAn?$AAi?$AAs?$AAh?$AA?9?$AAm?$AAo?$AAd?$AAe?$AAr?$AAn@ 10041fc0     libucrt:get_qualified_locale.obj
 0002:00004fe0       ??_C@_1CE@NMDMOEEB@?$AAs?$AAp?$AAa?$AAn?$AAi?$AAs?$AAh?$AA?9?$AAn?$AAi?$AAc?$AAa?$AAr?$AAa?$AAg@ 10041fe0     libucrt:get_qualified_locale.obj
 0002:00005004       ??_C@_1BO@LLCBEJGB@?$AAs?$AAp?$AAa?$AAn?$AAi?$AAs?$AAh?$AA?9?$AAp?$AAa?$AAn?$AAa?$AAm?$AAa@ 10042004     libucrt:get_qualified_locale.obj
 0002:00005024       ??_C@_1CC@FKPGGIHO@?$AAs?$AAp?$AAa?$AAn?$AAi?$AAs?$AAh?$AA?9?$AAp?$AAa?$AAr?$AAa?$AAg?$AAu?$AAa@ 10042024     libucrt:get_qualified_locale.obj
 0002:00005048       ??_C@_1BK@CDEIHOOP@?$AAs?$AAp?$AAa?$AAn?$AAi?$AAs?$AAh?$AA?9?$AAp?$AAe?$AAr?$AAu@ 10042048     libucrt:get_qualified_locale.obj
 0002:00005064       ??_C@_1CI@GAHAKKGP@?$AAs?$AAp?$AAa?$AAn?$AAi?$AAs?$AAh?$AA?9?$AAp?$AAu?$AAe?$AAr?$AAt?$AAo?$AA?5@ 10042064     libucrt:get_qualified_locale.obj
 0002:0000508c       ??_C@_1CA@NKJBCAGP@?$AAs?$AAp?$AAa?$AAn?$AAi?$AAs?$AAh?$AA?9?$AAu?$AAr?$AAu?$AAg?$AAu?$AAa?$AAy@ 1004208c     libucrt:get_qualified_locale.obj
 0002:000050ac       ??_C@_1CE@ODILCONM@?$AAs?$AAp?$AAa?$AAn?$AAi?$AAs?$AAh?$AA?9?$AAv?$AAe?$AAn?$AAe?$AAz?$AAu?$AAe@ 100420ac     libucrt:get_qualified_locale.obj
 0002:000050d0       ??_C@_1CA@OBNMCGFO@?$AAs?$AAw?$AAe?$AAd?$AAi?$AAs?$AAh?$AA?9?$AAf?$AAi?$AAn?$AAl?$AAa?$AAn?$AAd@ 100420d0     libucrt:get_qualified_locale.obj
 0002:000050f0       ??_C@_1M@PIPDDPPI@?$AAs?$AAw?$AAi?$AAs?$AAs@ 100420f0     libucrt:get_qualified_locale.obj
 0002:000050fc       ??_C@_15PJPFLCCM@?$AAu?$AAk@ 100420fc     libucrt:get_qualified_locale.obj
 0002:00005104       ??_C@_15GMFIMNFM@?$AAu?$AAs@ 10042104     libucrt:get_qualified_locale.obj
 0002:0000510c       ??_C@_17HAEBFAGL@?$AAu?$AAs?$AAa@ 1004210c     libucrt:get_qualified_locale.obj
 0002:00005114       ??_C@_1BA@DPFJEPHB@?$AAa?$AAm?$AAe?$AAr?$AAi?$AAc?$AAa@ 10042114     libucrt:get_qualified_locale.obj
 0002:00005124       ??_C@_1BA@ELOGGFK@?$AAb?$AAr?$AAi?$AAt?$AAa?$AAi?$AAn@ 10042124     libucrt:get_qualified_locale.obj
 0002:00005134       ??_C@_1M@GHBGIGDA@?$AAc?$AAh?$AAi?$AAn?$AAa@ 10042134     libucrt:get_qualified_locale.obj
 0002:00005140       ??_C@_1M@NCHEJOPO@?$AAc?$AAz?$AAe?$AAc?$AAh@ 10042140     libucrt:get_qualified_locale.obj
 0002:0000514c       ??_C@_1BA@BKPAPBLA@?$AAe?$AAn?$AAg?$AAl?$AAa?$AAn?$AAd@ 1004214c     libucrt:get_qualified_locale.obj
 0002:0000515c       ??_C@_1BM@HKBCKIPC@?$AAg?$AAr?$AAe?$AAa?$AAt?$AA?5?$AAb?$AAr?$AAi?$AAt?$AAa?$AAi?$AAn@ 1004215c     libucrt:get_qualified_locale.obj
 0002:00005178       ??_C@_1BA@PPCHPGJB@?$AAh?$AAo?$AAl?$AAl?$AAa?$AAn?$AAd@ 10042178     libucrt:get_qualified_locale.obj
 0002:00005188       ??_C@_1BE@JBMPEGDG@?$AAh?$AAo?$AAn?$AAg?$AA?9?$AAk?$AAo?$AAn?$AAg@ 10042188     libucrt:get_qualified_locale.obj
 0002:0000519c       ??_C@_1BI@KOELBBPJ@?$AAn?$AAe?$AAw?$AA?9?$AAz?$AAe?$AAa?$AAl?$AAa?$AAn?$AAd@ 1004219c     libucrt:get_qualified_locale.obj
 0002:000051b4       ??_C@_15HIEBHAIO@?$AAn?$AAz@ 100421b4     libucrt:get_qualified_locale.obj
 0002:000051bc       ??_C@_1BC@CHBCPFPI@?$AAp?$AAr?$AA?5?$AAc?$AAh?$AAi?$AAn?$AAa@ 100421bc     libucrt:get_qualified_locale.obj
 0002:000051d0       ??_C@_1BC@JAOIIFKD@?$AAp?$AAr?$AA?9?$AAc?$AAh?$AAi?$AAn?$AAa@ 100421d0     libucrt:get_qualified_locale.obj
 0002:000051e4       ??_C@_1BI@BEHPPHKC@?$AAp?$AAu?$AAe?$AAr?$AAt?$AAo?$AA?9?$AAr?$AAi?$AAc?$AAo@ 100421e4     libucrt:get_qualified_locale.obj
 0002:000051fc       ??_C@_1O@PAEOFKDI@?$AAs?$AAl?$AAo?$AAv?$AAa?$AAk@ 100421fc     libucrt:get_qualified_locale.obj
 0002:0000520c       ??_C@_1BK@FIHMCKAM@?$AAs?$AAo?$AAu?$AAt?$AAh?$AA?5?$AAa?$AAf?$AAr?$AAi?$AAc?$AAa@ 1004220c     libucrt:get_qualified_locale.obj
 0002:00005228       ??_C@_1BI@NAEOODKB@?$AAs?$AAo?$AAu?$AAt?$AAh?$AA?5?$AAk?$AAo?$AAr?$AAe?$AAa@ 10042228     libucrt:get_qualified_locale.obj
 0002:00005240       ??_C@_1BK@FBDGGIFF@?$AAs?$AAo?$AAu?$AAt?$AAh?$AA?9?$AAa?$AAf?$AAr?$AAi?$AAc?$AAa@ 10042240     libucrt:get_qualified_locale.obj
 0002:0000525c       ??_C@_1BI@GHLEJDPK@?$AAs?$AAo?$AAu?$AAt?$AAh?$AA?9?$AAk?$AAo?$AAr?$AAe?$AAa@ 1004225c     libucrt:get_qualified_locale.obj
 0002:00005274       ??_C@_1CE@PLHLOMJF@?$AAt?$AAr?$AAi?$AAn?$AAi?$AAd?$AAa?$AAd?$AA?5?$AA?$CG?$AA?5?$AAt?$AAo?$AAb?$AAa@ 10042274     libucrt:get_qualified_locale.obj
 0002:00005298       ??_C@_1BO@MODIMHHI@?$AAu?$AAn?$AAi?$AAt?$AAe?$AAd?$AA?9?$AAk?$AAi?$AAn?$AAg?$AAd?$AAo?$AAm@ 10042298     libucrt:get_qualified_locale.obj
 0002:000052b8       ??_C@_1BM@FFHJONBJ@?$AAu?$AAn?$AAi?$AAt?$AAe?$AAd?$AA?9?$AAs?$AAt?$AAa?$AAt?$AAe?$AAs@ 100422b8     libucrt:get_qualified_locale.obj
 0002:000052d4       ??_C@_19MPDNHKDG@?$AAu?$AAt?$AAf?$AA8@ 100422d4     libucrt:get_qualified_locale.obj
 0002:000052e0       ??_C@_17DNCLJFIF@?$AAA?$AAC?$AAP@ 100422e0     libucrt:get_qualified_locale.obj
 0002:000052e8       ??_C@_1M@FPEIIFAM@?$AAu?$AAt?$AAf?$AA?9?$AA8@ 100422e8     libucrt:get_qualified_locale.obj
 0002:000052f4       ??_C@_17CIKBIHLH@?$AAO?$AAC?$AAP@ 100422f4     libucrt:get_qualified_locale.obj
 0002:000052fc       ___rglangidNotDefault      100422fc     libucrt:getqloc_downlevel.obj
 0002:00005a30       ??_C@_15EMKDOKLE@?$AAa?$AAr@ 10042a30     libucrt:lcidtoname_downlevel.obj
 0002:00005a38       ??_C@_15KNPADPLH@?$AAb?$AAg@ 10042a38     libucrt:lcidtoname_downlevel.obj
 0002:00005a40       ??_C@_15EDMHLDMO@?$AAc?$AAa@ 10042a40     libucrt:lcidtoname_downlevel.obj
 0002:00005a48       ??_C@_1O@BPEAJADD@?$AAz?$AAh?$AA?9?$AAC?$AAH?$AAS@ 10042a48     libucrt:lcidtoname_downlevel.obj
 0002:00005a58       ??_C@_15LJNHCMNK@?$AAc?$AAs@ 10042a58     libucrt:lcidtoname_downlevel.obj
 0002:00005a60       ??_C@_15FOMCIDHG@?$AAd?$AAa@ 10042a60     libucrt:lcidtoname_downlevel.obj
 0002:00005a68       ??_C@_15NBKABECB@?$AAd?$AAe@ 10042a68     libucrt:lcidtoname_downlevel.obj
 0002:00005a70       ??_C@_15GHPEIIAO@?$AAe?$AAl@ 10042a70     libucrt:lcidtoname_downlevel.obj
 0002:00005a78       ??_C@_15MNPNEAIF@?$AAe?$AAn@ 10042a78     libucrt:lcidtoname_downlevel.obj
 0002:00005a80       ??_C@_15GPIOMPMH@?$AAe?$AAs@ 10042a80     libucrt:lcidtoname_downlevel.obj
 0002:00005a88       ??_C@_15NGLOAKJC@?$AAf?$AAi@ 10042a88     libucrt:lcidtoname_downlevel.obj
 0002:00005a90       ??_C@_15FBKGNKAM@?$AAf?$AAr@ 10042a90     libucrt:lcidtoname_downlevel.obj
 0002:00005a98       ??_C@_15KGGCNEFK@?$AAh?$AAe@ 10042a98     libucrt:lcidtoname_downlevel.obj
 0002:00005aa0       ??_C@_15PGHLIDMF@?$AAh?$AAu@ 10042aa0     libucrt:lcidtoname_downlevel.obj
 0002:00005aa8       ??_C@_15BIEMAPLM@?$AAi?$AAs@ 10042aa8     libucrt:lcidtoname_downlevel.obj
 0002:00005ab0       ??_C@_15IFJLDHAF@?$AAi?$AAt@ 10042ab0     libucrt:lcidtoname_downlevel.obj
 0002:00005ab8       ??_C@_15GEMIOCAG@?$AAj?$AAa@ 10042ab8     libucrt:lcidtoname_downlevel.obj
 0002:00005ac0       ??_C@_15EPELEGJA@?$AAk?$AAo@ 10042ac0     libucrt:lcidtoname_downlevel.obj
 0002:00005ac8       ??_C@_15NDDHIMN@?$AAn?$AAl@ 10042ac8     libucrt:lcidtoname_downlevel.obj
 0002:00005ad0       ??_C@_15BPIGNHCD@?$AAn?$AAo@ 10042ad0     libucrt:lcidtoname_downlevel.obj
 0002:00005ad8       ??_C@_15DEOPBLCG@?$AAp?$AAl@ 10042ad8     libucrt:lcidtoname_downlevel.obj
 0002:00005ae0       ??_C@_15KBECGEFG@?$AAp?$AAt@ 10042ae0     libucrt:lcidtoname_downlevel.obj
 0002:00005ae8       ??_C@_15GLJCBFMD@?$AAr?$AAo@ 10042ae8     libucrt:lcidtoname_downlevel.obj
 0002:00005af0       ??_C@_15FEDGKCDI@?$AAr?$AAu@ 10042af0     libucrt:lcidtoname_downlevel.obj
 0002:00005af8       ??_C@_15GLKMLLHM@?$AAh?$AAr@ 10042af8     libucrt:lcidtoname_downlevel.obj
 0002:00005b00       ??_C@_15CPKMFBDB@?$AAs?$AAk@ 10042b00     libucrt:lcidtoname_downlevel.obj
 0002:00005b08       ??_C@_15BAAIOGMK@?$AAs?$AAq@ 10042b08     libucrt:lcidtoname_downlevel.obj
 0002:00005b10       ??_C@_15INNPNOHD@?$AAs?$AAv@ 10042b10     libucrt:lcidtoname_downlevel.obj
 0002:00005b18       ??_C@_15CABMMOGH@?$AAt?$AAh@ 10042b18     libucrt:lcidtoname_downlevel.obj
 0002:00005b20       ??_C@_15BPLIHJJM@?$AAt?$AAr@ 10042b20     libucrt:lcidtoname_downlevel.obj
 0002:00005b28       ??_C@_15NEOEKKDJ@?$AAu?$AAr@ 10042b28     libucrt:lcidtoname_downlevel.obj
 0002:00005b30       ??_C@_15NFICGAJK@?$AAi?$AAd@ 10042b30     libucrt:lcidtoname_downlevel.obj
 0002:00005b38       ??_C@_15HPJPHDM@?$AAb?$AAe@ 10042b38     libucrt:lcidtoname_downlevel.obj
 0002:00005b40       ??_C@_15LCHLGJII@?$AAs?$AAl@ 10042b40     libucrt:lcidtoname_downlevel.obj
 0002:00005b48       ??_C@_15PCFJPHHO@?$AAe?$AAt@ 10042b48     libucrt:lcidtoname_downlevel.obj
 0002:00005b50       ??_C@_15HPFPGODN@?$AAl?$AAv@ 10042b50     libucrt:lcidtoname_downlevel.obj
 0002:00005b58       ??_C@_15NFFGKGLG@?$AAl?$AAt@ 10042b58     libucrt:lcidtoname_downlevel.obj
 0002:00005b60       ??_C@_15BDAKCCHN@?$AAf?$AAa@ 10042b60     libucrt:lcidtoname_downlevel.obj
 0002:00005b68       ??_C@_15NFGIAIAJ@?$AAv?$AAi@ 10042b68     libucrt:lcidtoname_downlevel.obj
 0002:00005b70       ??_C@_15LMKNDMHN@?$AAh?$AAy@ 10042b70     libucrt:lcidtoname_downlevel.obj
 0002:00005b78       ??_C@_15IJBHMCFL@?$AAa?$AAz@ 10042b78     libucrt:lcidtoname_downlevel.obj
 0002:00005b80       ??_C@_15EKOFJABL@?$AAe?$AAu@ 10042b80     libucrt:lcidtoname_downlevel.obj
 0002:00005b88       ??_C@_15BGHADCNK@?$AAm?$AAk@ 10042b88     libucrt:lcidtoname_downlevel.obj
 0002:00005b90       ??_C@_15JDNICKHM@?$AAa?$AAf@ 10042b90     libucrt:lcidtoname_downlevel.obj
 0002:00005b98       ??_C@_15KPJEDBKD@?$AAk?$AAa@ 10042b98     libucrt:lcidtoname_downlevel.obj
 0002:00005ba0       ??_C@_15PDNFFFEO@?$AAf?$AAo@ 10042ba0     libucrt:lcidtoname_downlevel.obj
 0002:00005ba8       ??_C@_15OMLEGLOC@?$AAh?$AAi@ 10042ba8     libucrt:lcidtoname_downlevel.obj
 0002:00005bb0       ??_C@_15IDNNENKK@?$AAm?$AAs@ 10042bb0     libucrt:lcidtoname_downlevel.obj
 0002:00005bb8       ??_C@_15MACJNBMH@?$AAk?$AAk@ 10042bb8     libucrt:lcidtoname_downlevel.obj
 0002:00005bc0       ??_C@_15DKDJEOND@?$AAk?$AAy@ 10042bc0     libucrt:lcidtoname_downlevel.obj
 0002:00005bc8       ??_C@_15DFGDLJBG@?$AAs?$AAw@ 10042bc8     libucrt:lcidtoname_downlevel.obj
 0002:00005bd0       ??_C@_15BBFAICNG@?$AAu?$AAz@ 10042bd0     libucrt:lcidtoname_downlevel.obj
 0002:00005bd8       ??_C@_15DKNDCGEA@?$AAt?$AAt@ 10042bd8     libucrt:lcidtoname_downlevel.obj
 0002:00005be0       ??_C@_15MGIFMDPL@?$AAp?$AAa@ 10042be0     libucrt:lcidtoname_downlevel.obj
 0002:00005be8       ??_C@_15HCNDBBA@?$AAg?$AAu@ 10042be8     libucrt:lcidtoname_downlevel.obj
 0002:00005bf0       ??_C@_15FNBEIBON@?$AAt?$AAa@ 10042bf0     libucrt:lcidtoname_downlevel.obj
 0002:00005bf8       ??_C@_15NCHGBGLK@?$AAt?$AAe@ 10042bf8     libucrt:lcidtoname_downlevel.obj
 0002:00005c00       ??_C@_15PHPHCBPF@?$AAk?$AAn@ 10042c00     libucrt:lcidtoname_downlevel.obj
 0002:00005c08       ??_C@_15DLGBCKMP@?$AAm?$AAr@ 10042c08     libucrt:lcidtoname_downlevel.obj
 0002:00005c10       ??_C@_15EABBLBFF@?$AAs?$AAa@ 10042c10     libucrt:lcidtoname_downlevel.obj
 0002:00005c18       ??_C@_15CBKOMCOI@?$AAm?$AAn@ 10042c18     libucrt:lcidtoname_downlevel.obj
 0002:00005c20       ??_C@_15CKDMCJAF@?$AAg?$AAl@ 10042c20     libucrt:lcidtoname_downlevel.obj
 0002:00005c28       ??_C@_17CNJFBPG@?$AAk?$AAo?$AAk@ 10042c28     libucrt:lcidtoname_downlevel.obj
 0002:00005c30       ??_C@_17FFBJICPL@?$AAs?$AAy?$AAr@ 10042c30     libucrt:lcidtoname_downlevel.obj
 0002:00005c38       ??_C@_17KPNDCPAF@?$AAd?$AAi?$AAv@ 10042c38     libucrt:lcidtoname_downlevel.obj
 0002:00005c40       ??_C@_1M@OKAHONE@?$AAa?$AAr?$AA?9?$AAS?$AAA@ 10042c40     libucrt:lcidtoname_downlevel.obj
 0002:00005c4c       ??_C@_1M@FFFIGIGK@?$AAb?$AAg?$AA?9?$AAB?$AAG@ 10042c4c     libucrt:lcidtoname_downlevel.obj
 0002:00005c58       ??_C@_1M@BJNKEDC@?$AAc?$AAa?$AA?9?$AAE?$AAS@ 10042c58     libucrt:lcidtoname_downlevel.obj
 0002:00005c64       ??_C@_1M@IJJHFJHA@?$AAc?$AAs?$AA?9?$AAC?$AAZ@ 10042c64     libucrt:lcidtoname_downlevel.obj
 0002:00005c70       ??_C@_1M@CLPEOBGI@?$AAd?$AAa?$AA?9?$AAD?$AAK@ 10042c70     libucrt:lcidtoname_downlevel.obj
 0002:00005c7c       ??_C@_1M@MCMADGCB@?$AAd?$AAe?$AA?9?$AAD?$AAE@ 10042c7c     libucrt:lcidtoname_downlevel.obj
 0002:00005c88       ??_C@_1M@OOCKEMAM@?$AAe?$AAl?$AA?9?$AAG?$AAR@ 10042c88     libucrt:lcidtoname_downlevel.obj
 0002:00005c94       ??_C@_1M@DDNJFGID@?$AAf?$AAi?$AA?9?$AAF?$AAI@ 10042c94     libucrt:lcidtoname_downlevel.obj
 0002:00005ca0       ??_C@_1M@GLIPPMAC@?$AAf?$AAr?$AA?9?$AAF?$AAR@ 10042ca0     libucrt:lcidtoname_downlevel.obj
 0002:00005cac       ??_C@_1M@GFMCHPE@?$AAh?$AAe?$AA?9?$AAI?$AAL@ 10042cac     libucrt:lcidtoname_downlevel.obj
 0002:00005cb8       ??_C@_1M@MHLPGNKM@?$AAh?$AAu?$AA?9?$AAH?$AAU@ 10042cb8     libucrt:lcidtoname_downlevel.obj
 0002:00005cc4       ??_C@_1M@LPDDNNPN@?$AAi?$AAs?$AA?9?$AAI?$AAS@ 10042cc4     libucrt:lcidtoname_downlevel.obj
 0002:00005cd0       ??_C@_1M@MADIPODN@?$AAi?$AAt?$AA?9?$AAI?$AAT@ 10042cd0     libucrt:lcidtoname_downlevel.obj
 0002:00005cdc       ??_C@_1M@IHBJJGG@?$AAn?$AAl?$AA?9?$AAN?$AAL@ 10042cdc     libucrt:lcidtoname_downlevel.obj
 0002:00005ce8       ??_C@_1M@EANAGDL@?$AAn?$AAb?$AA?9?$AAN?$AAO@ 10042ce8     libucrt:lcidtoname_downlevel.obj
 0002:00005cf4       ??_C@_1M@NEIEMEGP@?$AAp?$AAl?$AA?9?$AAP?$AAL@ 10042cf4     libucrt:lcidtoname_downlevel.obj
 0002:00005d00       ??_C@_1M@BOCFIGEP@?$AAp?$AAt?$AA?9?$AAB?$AAR@ 10042d00     libucrt:lcidtoname_downlevel.obj
 0002:00005d0c       ??_C@_1M@IMPFOPBG@?$AAr?$AAo?$AA?9?$AAR?$AAO@ 10042d0c     libucrt:lcidtoname_downlevel.obj
 0002:00005d18       ??_C@_1M@IDNNEJMM@?$AAr?$AAu?$AA?9?$AAR?$AAU@ 10042d18     libucrt:lcidtoname_downlevel.obj
 0002:00005d24       ??_C@_1M@LILEEOGM@?$AAh?$AAr?$AA?9?$AAH?$AAR@ 10042d24     libucrt:lcidtoname_downlevel.obj
 0002:00005d30       ??_C@_1M@FKIFEHPB@?$AAs?$AAk?$AA?9?$AAS?$AAK@ 10042d30     libucrt:lcidtoname_downlevel.obj
 0002:00005d3c       ??_C@_1M@LJMAMNPJ@?$AAs?$AAq?$AA?9?$AAA?$AAL@ 10042d3c     libucrt:lcidtoname_downlevel.obj
 0002:00005d48       ??_C@_1M@GIAKDKJK@?$AAs?$AAv?$AA?9?$AAS?$AAE@ 10042d48     libucrt:lcidtoname_downlevel.obj
 0002:00005d54       ??_C@_1M@MKJKIKCL@?$AAt?$AAh?$AA?9?$AAT?$AAH@ 10042d54     libucrt:lcidtoname_downlevel.obj
 0002:00005d60       ??_C@_1M@MFLCCMPB@?$AAt?$AAr?$AA?9?$AAT?$AAR@ 10042d60     libucrt:lcidtoname_downlevel.obj
 0002:00005d6c       ??_C@_1M@OIJHDKJN@?$AAu?$AAr?$AA?9?$AAP?$AAK@ 10042d6c     libucrt:lcidtoname_downlevel.obj
 0002:00005d78       ??_C@_1M@LHIPCIEK@?$AAi?$AAd?$AA?9?$AAI?$AAD@ 10042d78     libucrt:lcidtoname_downlevel.obj
 0002:00005d84       ??_C@_1M@MFMOBGI@?$AAu?$AAk?$AA?9?$AAU?$AAA@ 10042d84     libucrt:lcidtoname_downlevel.obj
 0002:00005d90       ??_C@_1M@OBGLJIPL@?$AAb?$AAe?$AA?9?$AAB?$AAY@ 10042d90     libucrt:lcidtoname_downlevel.obj
 0002:00005d9c       ??_C@_1M@BCFAJEAD@?$AAs?$AAl?$AA?9?$AAS?$AAI@ 10042d9c     libucrt:lcidtoname_downlevel.obj
 0002:00005da8       ??_C@_1M@FKFFEDDN@?$AAe?$AAt?$AA?9?$AAE?$AAE@ 10042da8     libucrt:lcidtoname_downlevel.obj
 0002:00005db4       ??_C@_1M@KGKKAACI@?$AAl?$AAv?$AA?9?$AAL?$AAV@ 10042db4     libucrt:lcidtoname_downlevel.obj
 0002:00005dc0       ??_C@_1M@IFGBIJO@?$AAl?$AAt?$AA?9?$AAL?$AAT@ 10042dc0     libucrt:lcidtoname_downlevel.obj
 0002:00005dcc       ??_C@_1M@FGEAHEDM@?$AAf?$AAa?$AA?9?$AAI?$AAR@ 10042dcc     libucrt:lcidtoname_downlevel.obj
 0002:00005dd8       ??_C@_1M@KBMAIBFN@?$AAv?$AAi?$AA?9?$AAV?$AAN@ 10042dd8     libucrt:lcidtoname_downlevel.obj
 0002:00005de4       ??_C@_1M@GPCBKDJK@?$AAh?$AAy?$AA?9?$AAA?$AAM@ 10042de4     libucrt:lcidtoname_downlevel.obj
 0002:00005df0       ??_C@_1BG@BECMDDJB@?$AAa?$AAz?$AA?9?$AAA?$AAZ?$AA?9?$AAL?$AAa?$AAt?$AAn@ 10042df0     libucrt:lcidtoname_downlevel.obj
 0002:00005e08       ??_C@_1M@MAOFCAEA@?$AAe?$AAu?$AA?9?$AAE?$AAS@ 10042e08     libucrt:lcidtoname_downlevel.obj
 0002:00005e14       ??_C@_1M@IGHABKPI@?$AAm?$AAk?$AA?9?$AAM?$AAK@ 10042e14     libucrt:lcidtoname_downlevel.obj
 0002:00005e20       ??_C@_1M@IAIGNEJG@?$AAt?$AAn?$AA?9?$AAZ?$AAA@ 10042e20     libucrt:lcidtoname_downlevel.obj
 0002:00005e2c       ??_C@_1M@IIJCOJFA@?$AAx?$AAh?$AA?9?$AAZ?$AAA@ 10042e2c     libucrt:lcidtoname_downlevel.obj
 0002:00005e38       ??_C@_1M@LGPJHNJH@?$AAz?$AAu?$AA?9?$AAZ?$AAA@ 10042e38     libucrt:lcidtoname_downlevel.obj
 0002:00005e44       ??_C@_1M@HOKAOIO@?$AAa?$AAf?$AA?9?$AAZ?$AAA@ 10042e44     libucrt:lcidtoname_downlevel.obj
 0002:00005e50       ??_C@_1M@DPCLHLIE@?$AAk?$AAa?$AA?9?$AAG?$AAE@ 10042e50     libucrt:lcidtoname_downlevel.obj
 0002:00005e5c       ??_C@_1M@BLKMHJBI@?$AAf?$AAo?$AA?9?$AAF?$AAO@ 10042e5c     libucrt:lcidtoname_downlevel.obj
 0002:00005e68       ??_C@_1M@LGGJAPPB@?$AAh?$AAi?$AA?9?$AAI?$AAN@ 10042e68     libucrt:lcidtoname_downlevel.obj
 0002:00005e74       ??_C@_1M@FIKPIHFE@?$AAm?$AAt?$AA?9?$AAM?$AAT@ 10042e74     libucrt:lcidtoname_downlevel.obj
 0002:00005e80       ??_C@_1M@HEGGPBFA@?$AAs?$AAe?$AA?9?$AAN?$AAO@ 10042e80     libucrt:lcidtoname_downlevel.obj
 0002:00005e8c       ??_C@_1M@EIBJEEPA@?$AAm?$AAs?$AA?9?$AAM?$AAY@ 10042e8c     libucrt:lcidtoname_downlevel.obj
 0002:00005e98       ??_C@_1M@FHLBGMPP@?$AAk?$AAk?$AA?9?$AAK?$AAZ@ 10042e98     libucrt:lcidtoname_downlevel.obj
 0002:00005ea4       ??_C@_1M@NGJJLCGI@?$AAk?$AAy?$AA?9?$AAK?$AAG@ 10042ea4     libucrt:lcidtoname_downlevel.obj
 0002:00005eb0       ??_C@_1M@GIENNBFC@?$AAs?$AAw?$AA?9?$AAK?$AAE@ 10042eb0     libucrt:lcidtoname_downlevel.obj
 0002:00005ebc       ??_C@_1BG@NDGMJIMJ@?$AAu?$AAz?$AA?9?$AAU?$AAZ?$AA?9?$AAL?$AAa?$AAt?$AAn@ 10042ebc     libucrt:lcidtoname_downlevel.obj
 0002:00005ed4       ??_C@_1M@IDCCIHBC@?$AAt?$AAt?$AA?9?$AAR?$AAU@ 10042ed4     libucrt:lcidtoname_downlevel.obj
 0002:00005ee0       ??_C@_1M@LOICPMOJ@?$AAb?$AAn?$AA?9?$AAI?$AAN@ 10042ee0     libucrt:lcidtoname_downlevel.obj
 0002:00005eec       ??_C@_1M@KPKKNEAH@?$AAp?$AAa?$AA?9?$AAI?$AAN@ 10042eec     libucrt:lcidtoname_downlevel.obj
 0002:00005ef8       ??_C@_1M@PJGPPBOG@?$AAg?$AAu?$AA?9?$AAI?$AAN@ 10042ef8     libucrt:lcidtoname_downlevel.obj
 0002:00005f04       ??_C@_1M@KMKMOPHI@?$AAt?$AAa?$AA?9?$AAI?$AAN@ 10042f04     libucrt:lcidtoname_downlevel.obj
 0002:00005f10       ??_C@_1M@KFEHEPAC@?$AAt?$AAe?$AA?9?$AAI?$AAN@ 10042f10     libucrt:lcidtoname_downlevel.obj
 0002:00005f1c       ??_C@_1M@CDCLMGHI@?$AAk?$AAn?$AA?9?$AAI?$AAN@ 10042f1c     libucrt:lcidtoname_downlevel.obj
 0002:00005f28       ??_C@_1M@MIODLDKF@?$AAm?$AAl?$AA?9?$AAI?$AAN@ 10042f28     libucrt:lcidtoname_downlevel.obj
 0002:00005f34       ??_C@_1M@PBIEACPO@?$AAm?$AAr?$AA?9?$AAI?$AAN@ 10042f34     libucrt:lcidtoname_downlevel.obj
 0002:00005f40       ??_C@_1M@NIDEAGPH@?$AAs?$AAa?$AA?9?$AAI?$AAN@ 10042f40     libucrt:lcidtoname_downlevel.obj
 0002:00005f4c       ??_C@_1M@FHIHCBIO@?$AAm?$AAn?$AA?9?$AAM?$AAN@ 10042f4c     libucrt:lcidtoname_downlevel.obj
 0002:00005f58       ??_C@_1M@JAIJPENP@?$AAc?$AAy?$AA?9?$AAG?$AAB@ 10042f58     libucrt:lcidtoname_downlevel.obj
 0002:00005f64       ??_C@_1M@PHGFBEPN@?$AAg?$AAl?$AA?9?$AAE?$AAS@ 10042f64     libucrt:lcidtoname_downlevel.obj
 0002:00005f70       ??_C@_1O@KPIPDNCP@?$AAk?$AAo?$AAk?$AA?9?$AAI?$AAN@ 10042f70     libucrt:lcidtoname_downlevel.obj
 0002:00005f80       ??_C@_1O@KNHJLDJA@?$AAs?$AAy?$AAr?$AA?9?$AAS?$AAY@ 10042f80     libucrt:lcidtoname_downlevel.obj
 0002:00005f90       ??_C@_1O@MKEKBLAH@?$AAd?$AAi?$AAv?$AA?9?$AAM?$AAV@ 10042f90     libucrt:lcidtoname_downlevel.obj
 0002:00005fa0       ??_C@_1O@OHDCKDDF@?$AAq?$AAu?$AAz?$AA?9?$AAB?$AAO@ 10042fa0     libucrt:lcidtoname_downlevel.obj
 0002:00005fb0       ??_C@_1M@LEPJNLFD@?$AAn?$AAs?$AA?9?$AAZ?$AAA@ 10042fb0     libucrt:lcidtoname_downlevel.obj
 0002:00005fbc       ??_C@_1M@OMLEIIJB@?$AAm?$AAi?$AA?9?$AAN?$AAZ@ 10042fbc     libucrt:lcidtoname_downlevel.obj
 0002:00005fc8       ??_C@_1M@PMPEAILG@?$AAa?$AAr?$AA?9?$AAI?$AAQ@ 10042fc8     libucrt:lcidtoname_downlevel.obj
 0002:00005fd4       ??_C@_1M@CNKPNOEE@?$AAd?$AAe?$AA?9?$AAC?$AAH@ 10042fd4     libucrt:lcidtoname_downlevel.obj
 0002:00005fe0       ??_C@_1M@LKMGMLKO@?$AAe?$AAn?$AA?9?$AAG?$AAB@ 10042fe0     libucrt:lcidtoname_downlevel.obj
 0002:00005fec       ??_C@_1M@PGKJFFGL@?$AAe?$AAs?$AA?9?$AAM?$AAX@ 10042fec     libucrt:lcidtoname_downlevel.obj
 0002:00005ff8       ??_C@_1M@DNNANBDC@?$AAf?$AAr?$AA?9?$AAB?$AAE@ 10042ff8     libucrt:lcidtoname_downlevel.obj
 0002:00006004       ??_C@_1M@HLGMDFHM@?$AAi?$AAt?$AA?9?$AAC?$AAH@ 10043004     libucrt:lcidtoname_downlevel.obj
 0002:00006010       ??_C@_1M@CLLBGJH@?$AAn?$AAl?$AA?9?$AAB?$AAE@ 10043010     libucrt:lcidtoname_downlevel.obj
 0002:0000601c       ??_C@_1M@BODBOGLF@?$AAn?$AAn?$AA?9?$AAN?$AAO@ 1004301c     libucrt:lcidtoname_downlevel.obj
 0002:00006028       ??_C@_1M@HFFAHKAD@?$AAp?$AAt?$AA?9?$AAP?$AAT@ 10043028     libucrt:lcidtoname_downlevel.obj
 0002:00006034       ??_C@_1BG@LNOAKHIE@?$AAs?$AAr?$AA?9?$AAS?$AAP?$AA?9?$AAL?$AAa?$AAt?$AAn@ 10043034     libucrt:lcidtoname_downlevel.obj
 0002:0000604c       ??_C@_1M@HBMHBGAK@?$AAs?$AAv?$AA?9?$AAF?$AAI@ 1004304c     libucrt:lcidtoname_downlevel.obj
 0002:00006058       ??_C@_1BG@DGCJGJBE@?$AAa?$AAz?$AA?9?$AAA?$AAZ?$AA?9?$AAC?$AAy?$AAr?$AAl@ 10043058     libucrt:lcidtoname_downlevel.obj
 0002:00006070       ??_C@_1M@KEJDAAHB@?$AAs?$AAe?$AA?9?$AAS?$AAE@ 10043070     libucrt:lcidtoname_downlevel.obj
 0002:0000607c       ??_C@_1M@HEIBJJAD@?$AAm?$AAs?$AA?9?$AAB?$AAN@ 1004307c     libucrt:lcidtoname_downlevel.obj
 0002:00006088       ??_C@_1BG@PBGJMCEM@?$AAu?$AAz?$AA?9?$AAU?$AAZ?$AA?9?$AAC?$AAy?$AAr?$AAl@ 10043088     libucrt:lcidtoname_downlevel.obj
 0002:000060a0       ??_C@_1O@LAOBCMDF@?$AAq?$AAu?$AAz?$AA?9?$AAE?$AAC@ 100430a0     libucrt:lcidtoname_downlevel.obj
 0002:000060b0       ??_C@_1M@POEEMAIO@?$AAa?$AAr?$AA?9?$AAE?$AAG@ 100430b0     libucrt:lcidtoname_downlevel.obj
 0002:000060bc       ??_C@_1M@EFAKDEDL@?$AAz?$AAh?$AA?9?$AAH?$AAK@ 100430bc     libucrt:lcidtoname_downlevel.obj
 0002:000060c8       ??_C@_1M@HKKIJHGI@?$AAd?$AAe?$AA?9?$AAA?$AAT@ 100430c8     libucrt:lcidtoname_downlevel.obj
 0002:000060d4       ??_C@_1M@KBFBEHJF@?$AAe?$AAn?$AA?9?$AAA?$AAU@ 100430d4     libucrt:lcidtoname_downlevel.obj
 0002:000060e0       ??_C@_1M@MNPLFAAH@?$AAe?$AAs?$AA?9?$AAE?$AAS@ 100430e0     libucrt:lcidtoname_downlevel.obj
 0002:000060ec       ??_C@_1M@HJOOJFMA@?$AAf?$AAr?$AA?9?$AAC?$AAA@ 100430ec     libucrt:lcidtoname_downlevel.obj
 0002:000060f8       ??_C@_1BG@JPOFPNAB@?$AAs?$AAr?$AA?9?$AAS?$AAP?$AA?9?$AAC?$AAy?$AAr?$AAl@ 100430f8     libucrt:lcidtoname_downlevel.obj
 0002:00006110       ??_C@_1M@LNFOCMOB@?$AAs?$AAe?$AA?9?$AAF?$AAI@ 10043110     libucrt:lcidtoname_downlevel.obj
 0002:0000611c       ??_C@_1O@MGJBOAMB@?$AAq?$AAu?$AAz?$AA?9?$AAP?$AAE@ 1004311c     libucrt:lcidtoname_downlevel.obj
 0002:0000612c       ??_C@_1M@GJINLBOK@?$AAa?$AAr?$AA?9?$AAL?$AAY@ 1004312c     libucrt:lcidtoname_downlevel.obj
 0002:00006138       ??_C@_1M@GGMNHJNL@?$AAz?$AAh?$AA?9?$AAS?$AAG@ 10043138     libucrt:lcidtoname_downlevel.obj
 0002:00006144       ??_C@_1M@HOIKODND@?$AAd?$AAe?$AA?9?$AAL?$AAU@ 10043144     libucrt:lcidtoname_downlevel.obj
 0002:00006150       ??_C@_1M@DDOCCGFG@?$AAe?$AAn?$AA?9?$AAC?$AAA@ 10043150     libucrt:lcidtoname_downlevel.obj
 0002:0000615c       ??_C@_1M@BNOEMJLF@?$AAe?$AAs?$AA?9?$AAG?$AAT@ 1004315c     libucrt:lcidtoname_downlevel.obj
 0002:00006168       ??_C@_1M@EOGNKEK@?$AAf?$AAr?$AA?9?$AAC?$AAH@ 10043168     libucrt:lcidtoname_downlevel.obj
 0002:00006174       ??_C@_1M@FLIDJFHL@?$AAh?$AAr?$AA?9?$AAB?$AAA@ 10043174     libucrt:lcidtoname_downlevel.obj
 0002:00006180       ??_C@_1O@FMCELNAJ@?$AAs?$AAm?$AAj?$AA?9?$AAN?$AAO@ 10043180     libucrt:lcidtoname_downlevel.obj
 0002:00006190       ??_C@_1M@JHGLJMGJ@?$AAa?$AAr?$AA?9?$AAD?$AAZ@ 10043190     libucrt:lcidtoname_downlevel.obj
 0002:0000619c       ??_C@_1M@JKKFDCNP@?$AAz?$AAh?$AA?9?$AAM?$AAO@ 1004319c     libucrt:lcidtoname_downlevel.obj
 0002:000061a8       ??_C@_1M@GEEFALPE@?$AAd?$AAe?$AA?9?$AAL?$AAI@ 100431a8     libucrt:lcidtoname_downlevel.obj
 0002:000061b4       ??_C@_1M@IGEOFBG@?$AAe?$AAn?$AA?9?$AAN?$AAZ@ 100431b4     libucrt:lcidtoname_downlevel.obj
 0002:000061c0       ??_C@_1M@KDBONEHP@?$AAe?$AAs?$AA?9?$AAC?$AAR@ 100431c0     libucrt:lcidtoname_downlevel.obj
 0002:000061cc       ??_C@_1M@FHMDOHNN@?$AAf?$AAr?$AA?9?$AAL?$AAU@ 100431cc     libucrt:lcidtoname_downlevel.obj
 0002:000061d8       ??_C@_1BG@NFKKMAFG@?$AAb?$AAs?$AA?9?$AAB?$AAA?$AA?9?$AAL?$AAa?$AAt?$AAn@ 100431d8     libucrt:lcidtoname_downlevel.obj
 0002:000061f0       ??_C@_1O@IMNBEMCI@?$AAs?$AAm?$AAj?$AA?9?$AAS?$AAE@ 100431f0     libucrt:lcidtoname_downlevel.obj
 0002:00006200       ??_C@_1M@DHHMBNDP@?$AAa?$AAr?$AA?9?$AAM?$AAA@ 10043200     libucrt:lcidtoname_downlevel.obj
 0002:0000620c       ??_C@_1M@BNBLJCGH@?$AAe?$AAn?$AA?9?$AAI?$AAE@ 1004320c     libucrt:lcidtoname_downlevel.obj
 0002:00006218       ??_C@_1M@GEPAFMDL@?$AAe?$AAs?$AA?9?$AAP?$AAA@ 10043218     libucrt:lcidtoname_downlevel.obj
 0002:00006224       ??_C@_1M@OJONDMDL@?$AAf?$AAr?$AA?9?$AAM?$AAC@ 10043224     libucrt:lcidtoname_downlevel.obj
 0002:00006230       ??_C@_1BG@OBCNFJB@?$AAs?$AAr?$AA?9?$AAB?$AAA?$AA?9?$AAL?$AAa?$AAt?$AAn@ 10043230     libucrt:lcidtoname_downlevel.obj
 0002:00006248       ??_C@_1O@KEMEEGPO@?$AAs?$AAm?$AAa?$AA?9?$AAN?$AAO@ 10043248     libucrt:lcidtoname_downlevel.obj
 0002:00006258       ??_C@_1M@ELMGFODK@?$AAa?$AAr?$AA?9?$AAT?$AAN@ 10043258     libucrt:lcidtoname_downlevel.obj
 0002:00006264       ??_C@_1M@BHDLHFAF@?$AAe?$AAn?$AA?9?$AAZ?$AAA@ 10043264     libucrt:lcidtoname_downlevel.obj
 0002:00006270       ??_C@_1M@BMGIGLIF@?$AAe?$AAs?$AA?9?$AAD?$AAO@ 10043270     libucrt:lcidtoname_downlevel.obj
 0002:0000627c       ??_C@_1BG@CMBHIPBE@?$AAs?$AAr?$AA?9?$AAB?$AAA?$AA?9?$AAC?$AAy?$AAr?$AAl@ 1004327c     libucrt:lcidtoname_downlevel.obj
 0002:00006294       ??_C@_1O@HEDBLHNP@?$AAs?$AAm?$AAa?$AA?9?$AAS?$AAE@ 10043294     libucrt:lcidtoname_downlevel.obj
 0002:000062a4       ??_C@_1M@DAGCADIM@?$AAa?$AAr?$AA?9?$AAO?$AAM@ 100432a4     libucrt:lcidtoname_downlevel.obj
 0002:000062b0       ??_C@_1M@FODLMICG@?$AAe?$AAn?$AA?9?$AAJ?$AAM@ 100432b0     libucrt:lcidtoname_downlevel.obj
 0002:000062bc       ??_C@_1M@DNMLCIHB@?$AAe?$AAs?$AA?9?$AAV?$AAE@ 100432bc     libucrt:lcidtoname_downlevel.obj
 0002:000062c8       ??_C@_1O@EOKHMKJK@?$AAs?$AAm?$AAs?$AA?9?$AAF?$AAI@ 100432c8     libucrt:lcidtoname_downlevel.obj
 0002:000062d8       ??_C@_1M@CAFJMKOF@?$AAa?$AAr?$AA?9?$AAY?$AAE@ 100432d8     libucrt:lcidtoname_downlevel.obj
 0002:000062e4       ??_C@_1M@CBFHIJLI@?$AAe?$AAn?$AA?9?$AAC?$AAB@ 100432e4     libucrt:lcidtoname_downlevel.obj
 0002:000062f0       ??_C@_1M@BGNFLDN@?$AAe?$AAs?$AA?9?$AAC?$AAO@ 100432f0     libucrt:lcidtoname_downlevel.obj
 0002:000062fc       ??_C@_1O@JMPHMAMC@?$AAs?$AAm?$AAn?$AA?9?$AAF?$AAI@ 100432fc     libucrt:lcidtoname_downlevel.obj
 0002:0000630c       ??_C@_1M@JLANABKE@?$AAa?$AAr?$AA?9?$AAS?$AAY@ 1004330c     libucrt:lcidtoname_downlevel.obj
 0002:00006318       ??_C@_1M@HPKGCFGN@?$AAe?$AAn?$AA?9?$AAB?$AAZ@ 10043318     libucrt:lcidtoname_downlevel.obj
 0002:00006324       ??_C@_1M@OLJCMLGM@?$AAe?$AAs?$AA?9?$AAP?$AAE@ 10043324     libucrt:lcidtoname_downlevel.obj
 0002:00006330       ??_C@_1M@MKKGFKLE@?$AAa?$AAr?$AA?9?$AAJ?$AAO@ 10043330     libucrt:lcidtoname_downlevel.obj
 0002:0000633c       ??_C@_1M@EKPGLDNI@?$AAe?$AAn?$AA?9?$AAT?$AAT@ 1004333c     libucrt:lcidtoname_downlevel.obj
 0002:00006348       ??_C@_1M@OONGHFHE@?$AAe?$AAs?$AA?9?$AAA?$AAR@ 10043348     libucrt:lcidtoname_downlevel.obj
 0002:00006354       ??_C@_1M@OOJFGBHE@?$AAa?$AAr?$AA?9?$AAL?$AAB@ 10043354     libucrt:lcidtoname_downlevel.obj
 0002:00006360       ??_C@_1M@GCEJHNEG@?$AAe?$AAn?$AA?9?$AAZ?$AAW@ 10043360     libucrt:lcidtoname_downlevel.obj
 0002:0000636c       ??_C@_1M@JNOCAHJI@?$AAe?$AAs?$AA?9?$AAE?$AAC@ 1004336c     libucrt:lcidtoname_downlevel.obj
 0002:00006378       ??_C@_1M@JEFHPGGB@?$AAa?$AAr?$AA?9?$AAK?$AAW@ 10043378     libucrt:lcidtoname_downlevel.obj
 0002:00006384       ??_C@_1M@MLKIBJOJ@?$AAe?$AAn?$AA?9?$AAP?$AAH@ 10043384     libucrt:lcidtoname_downlevel.obj
 0002:00006390       ??_C@_1M@BDNIPEND@?$AAe?$AAs?$AA?9?$AAC?$AAL@ 10043390     libucrt:lcidtoname_downlevel.obj
 0002:0000639c       ??_C@_1M@MPNMEKBD@?$AAa?$AAr?$AA?9?$AAA?$AAE@ 1004339c     libucrt:lcidtoname_downlevel.obj
 0002:000063a8       ??_C@_1M@KBJALCPI@?$AAe?$AAs?$AA?9?$AAU?$AAY@ 100433a8     libucrt:lcidtoname_downlevel.obj
 0002:000063b4       ??_C@_1M@LLCCOAGA@?$AAa?$AAr?$AA?9?$AAB?$AAH@ 100433b4     libucrt:lcidtoname_downlevel.obj
 0002:000063c0       ??_C@_1M@PBFNCDEL@?$AAe?$AAs?$AA?9?$AAP?$AAY@ 100433c0     libucrt:lcidtoname_downlevel.obj
 0002:000063cc       ??_C@_1M@EDGINPNP@?$AAa?$AAr?$AA?9?$AAQ?$AAA@ 100433cc     libucrt:lcidtoname_downlevel.obj
 0002:000063d8       ??_C@_1M@MKDBIIJI@?$AAe?$AAs?$AA?9?$AAB?$AAO@ 100433d8     libucrt:lcidtoname_downlevel.obj
 0002:000063e4       ??_C@_1M@CPKKEBLD@?$AAe?$AAs?$AA?9?$AAS?$AAV@ 100433e4     libucrt:lcidtoname_downlevel.obj
 0002:000063f0       ??_C@_1M@NDBGMMJL@?$AAe?$AAs?$AA?9?$AAH?$AAN@ 100433f0     libucrt:lcidtoname_downlevel.obj
 0002:000063fc       ??_C@_1M@JIJIBHDP@?$AAe?$AAs?$AA?9?$AAN?$AAI@ 100433fc     libucrt:lcidtoname_downlevel.obj
 0002:00006408       ??_C@_1M@CGFMKEEK@?$AAe?$AAs?$AA?9?$AAP?$AAR@ 10043408     libucrt:lcidtoname_downlevel.obj
 0002:00006414       ??_C@_1O@ICJHKIIK@?$AAz?$AAh?$AA?9?$AAC?$AAH?$AAT@ 10043414     libucrt:lcidtoname_downlevel.obj
 0002:00006424       ??_C@_15CLNEJCE@?$AAs?$AAr@ 10043424     libucrt:lcidtoname_downlevel.obj
 0002:00006b50       ??_C@_1M@KAHEKEIG@?$AAa?$AAf?$AA?9?$AAz?$AAa@ 10043b50     libucrt:lcidtoname_downlevel.obj
 0002:00006b5c       ??_C@_1M@GIECOABL@?$AAa?$AAr?$AA?9?$AAa?$AAe@ 10043b5c     libucrt:lcidtoname_downlevel.obj
 0002:00006b68       ??_C@_1M@BMLMEKGI@?$AAa?$AAr?$AA?9?$AAb?$AAh@ 10043b68     libucrt:lcidtoname_downlevel.obj
 0002:00006b74       ??_C@_1M@DAPFDGGB@?$AAa?$AAr?$AA?9?$AAd?$AAz@ 10043b74     libucrt:lcidtoname_downlevel.obj
 0002:00006b80       ??_C@_1M@FJNKGKIG@?$AAa?$AAr?$AA?9?$AAe?$AAg@ 10043b80     libucrt:lcidtoname_downlevel.obj
 0002:00006b8c       ??_C@_1M@FLGKKCLO@?$AAa?$AAr?$AA?9?$AAi?$AAq@ 10043b8c     libucrt:lcidtoname_downlevel.obj
 0002:00006b98       ??_C@_1M@GNDIPALM@?$AAa?$AAr?$AA?9?$AAj?$AAo@ 10043b98     libucrt:lcidtoname_downlevel.obj
 0002:00006ba4       ??_C@_1M@DDMJFMGJ@?$AAa?$AAr?$AA?9?$AAk?$AAw@ 10043ba4     libucrt:lcidtoname_downlevel.obj
 0002:00006bb0       ??_C@_1M@EJALMLHM@?$AAa?$AAr?$AA?9?$AAl?$AAb@ 10043bb0     libucrt:lcidtoname_downlevel.obj
 0002:00006bbc       ??_C@_1M@MOBDBLOC@?$AAa?$AAr?$AA?9?$AAl?$AAy@ 10043bbc     libucrt:lcidtoname_downlevel.obj
 0002:00006bc8       ??_C@_1M@JAOCLHDH@?$AAa?$AAr?$AA?9?$AAm?$AAa@ 10043bc8     libucrt:lcidtoname_downlevel.obj
 0002:00006bd4       ??_C@_1M@JHPMKJIE@?$AAa?$AAr?$AA?9?$AAo?$AAm@ 10043bd4     libucrt:lcidtoname_downlevel.obj
 0002:00006be0       ??_C@_1M@OEPGHFNH@?$AAa?$AAr?$AA?9?$AAq?$AAa@ 10043be0     libucrt:lcidtoname_downlevel.obj
 0002:00006bec       ??_C@_1M@KJDONENM@?$AAa?$AAr?$AA?9?$AAs?$AAa@ 10043bec     libucrt:lcidtoname_downlevel.obj
 0002:00006bf8       ??_C@_1M@DMJDKLKM@?$AAa?$AAr?$AA?9?$AAs?$AAy@ 10043bf8     libucrt:lcidtoname_downlevel.obj
 0002:00006c04       ??_C@_1M@OMFIPEDC@?$AAa?$AAr?$AA?9?$AAt?$AAn@ 10043c04     libucrt:lcidtoname_downlevel.obj
 0002:00006c10       ??_C@_1M@IHMHGAON@?$AAa?$AAr?$AA?9?$AAy?$AAe@ 10043c10     libucrt:lcidtoname_downlevel.obj
 0002:00006c1c       ??_C@_1BG@KDCPGJGB@?$AAa?$AAz?$AA?9?$AAa?$AAz?$AA?9?$AAc?$AAy?$AAr?$AAl@ 10043c1c     libucrt:lcidtoname_downlevel.obj
 0002:00006c34       ??_C@_1BG@IBCKDDOE@?$AAa?$AAz?$AA?9?$AAa?$AAz?$AA?9?$AAl?$AAa?$AAt?$AAn@ 10043c34     libucrt:lcidtoname_downlevel.obj
 0002:00006c4c       ??_C@_1M@EGPFDCPD@?$AAb?$AAe?$AA?9?$AAb?$AAy@ 10043c4c     libucrt:lcidtoname_downlevel.obj
 0002:00006c58       ??_C@_1M@PCMGMCGC@?$AAb?$AAg?$AA?9?$AAb?$AAg@ 10043c58     libucrt:lcidtoname_downlevel.obj
 0002:00006c64       ??_C@_1M@BJBMFGOB@?$AAb?$AAn?$AA?9?$AAi?$AAn@ 10043c64     libucrt:lcidtoname_downlevel.obj
 0002:00006c70       ??_C@_1BG@EAKMMACD@?$AAb?$AAs?$AA?9?$AAb?$AAa?$AA?9?$AAl?$AAa?$AAt?$AAn@ 10043c70     libucrt:lcidtoname_downlevel.obj
 0002:00006c88       ??_C@_1M@KGADAODK@?$AAc?$AAa?$AA?9?$AAe?$AAs@ 10043c88     libucrt:lcidtoname_downlevel.obj
 0002:00006c94       ??_C@_1M@COAJPDHI@?$AAc?$AAs?$AA?9?$AAc?$AAz@ 10043c94     libucrt:lcidtoname_downlevel.obj
 0002:00006ca0       ??_C@_1M@DHBHFONH@?$AAc?$AAy?$AA?9?$AAg?$AAb@ 10043ca0     libucrt:lcidtoname_downlevel.obj
 0002:00006cac       ??_C@_1M@IMGKELGA@?$AAd?$AAa?$AA?9?$AAd?$AAk@ 10043cac     libucrt:lcidtoname_downlevel.obj
 0002:00006cb8       ??_C@_1M@NNDGDNGA@?$AAd?$AAe?$AA?9?$AAa?$AAt@ 10043cb8     libucrt:lcidtoname_downlevel.obj
 0002:00006cc4       ??_C@_1M@IKDBHEEM@?$AAd?$AAe?$AA?9?$AAc?$AAh@ 10043cc4     libucrt:lcidtoname_downlevel.obj
 0002:00006cd0       ??_C@_1M@GFFOJMCJ@?$AAd?$AAe?$AA?9?$AAd?$AAe@ 10043cd0     libucrt:lcidtoname_downlevel.obj
 0002:00006cdc       ??_C@_1M@MDNLKBPM@?$AAd?$AAe?$AA?9?$AAl?$AAi@ 10043cdc     libucrt:lcidtoname_downlevel.obj
 0002:00006ce8       ??_C@_1M@NJBEEJNL@?$AAd?$AAe?$AA?9?$AAl?$AAu@ 10043ce8     libucrt:lcidtoname_downlevel.obj
 0002:00006cf4       ??_C@_1O@GNNELBAP@?$AAd?$AAi?$AAv?$AA?9?$AAm?$AAv@ 10043cf4     libucrt:lcidtoname_downlevel.obj
 0002:00006d04       ??_C@_1M@EJLEOGAE@?$AAe?$AAl?$AA?9?$AAg?$AAr@ 10043d04     libucrt:lcidtoname_downlevel.obj
 0002:00006d10       ??_C@_1M@GMPONJN@?$AAe?$AAn?$AA?9?$AAa?$AAu@ 10043d10     libucrt:lcidtoname_downlevel.obj
 0002:00006d1c       ??_C@_1M@NIDIIPGF@?$AAe?$AAn?$AA?9?$AAb?$AAz@ 10043d1c     libucrt:lcidtoname_downlevel.obj
 0002:00006d28       ??_C@_1M@JEHMIMFO@?$AAe?$AAn?$AA?9?$AAc?$AAa@ 10043d28     libucrt:lcidtoname_downlevel.obj
 0002:00006d34       ??_C@_1M@IGMJCDLA@?$AAe?$AAn?$AA?9?$AAc?$AAb@ 10043d34     libucrt:lcidtoname_downlevel.obj
 0002:00006d40       ??_C@_1M@BNFIGBKG@?$AAe?$AAn?$AA?9?$AAg?$AAb@ 10043d40     libucrt:lcidtoname_downlevel.obj
 0002:00006d4c       ??_C@_1M@LKIFDIGP@?$AAe?$AAn?$AA?9?$AAi?$AAe@ 10043d4c     libucrt:lcidtoname_downlevel.obj
 0002:00006d58       ??_C@_1M@PJKFGCCO@?$AAe?$AAn?$AA?9?$AAj?$AAm@ 10043d58     libucrt:lcidtoname_downlevel.obj
 0002:00006d64       ??_C@_1M@KPPKEPBO@?$AAe?$AAn?$AA?9?$AAn?$AAz@ 10043d64     libucrt:lcidtoname_downlevel.obj
 0002:00006d70       ??_C@_1M@GMDGLDOB@?$AAe?$AAn?$AA?9?$AAp?$AAh@ 10043d70     libucrt:lcidtoname_downlevel.obj
 0002:00006d7c       ??_C@_1M@ONGIBJNA@?$AAe?$AAn?$AA?9?$AAt?$AAt@ 10043d7c     libucrt:lcidtoname_downlevel.obj
 0002:00006d88       ??_C@_1M@LLODPCMM@?$AAe?$AAn?$AA?9?$AAu?$AAs@ 10043d88     libucrt:lcidtoname_downlevel.obj
 0002:00006d94       ??_C@_1M@LAKFNPAN@?$AAe?$AAn?$AA?9?$AAz?$AAa@ 10043d94     libucrt:lcidtoname_downlevel.obj
 0002:00006da0       ??_C@_1M@MFNHNHEO@?$AAe?$AAn?$AA?9?$AAz?$AAw@ 10043da0     libucrt:lcidtoname_downlevel.obj
 0002:00006dac       ??_C@_1M@EJEINPHM@?$AAe?$AAs?$AA?9?$AAa?$AAr@ 10043dac     libucrt:lcidtoname_downlevel.obj
 0002:00006db8       ??_C@_1M@GNKPCCJA@?$AAe?$AAs?$AA?9?$AAb?$AAo@ 10043db8     libucrt:lcidtoname_downlevel.obj
 0002:00006dc4       ??_C@_1M@LEEGFONL@?$AAe?$AAs?$AA?9?$AAc?$AAl@ 10043dc4     libucrt:lcidtoname_downlevel.obj
 0002:00006dd0       ??_C@_1M@KGPDPBDF@?$AAe?$AAs?$AA?9?$AAc?$AAo@ 10043dd0     libucrt:lcidtoname_downlevel.obj
 0002:00006ddc       ??_C@_1M@EIAHOHH@?$AAe?$AAs?$AA?9?$AAc?$AAr@ 10043ddc     libucrt:lcidtoname_downlevel.obj
 0002:00006de8       ??_C@_1M@LLPGMBIN@?$AAe?$AAs?$AA?9?$AAd?$AAo@ 10043de8     libucrt:lcidtoname_downlevel.obj
 0002:00006df4       ??_C@_1M@DKHMKNJA@?$AAe?$AAs?$AA?9?$AAe?$AAc@ 10043df4     libucrt:lcidtoname_downlevel.obj
 0002:00006e00       ??_C@_1M@GKGFPKAP@?$AAe?$AAs?$AA?9?$AAe?$AAs@ 10043e00     libucrt:lcidtoname_downlevel.obj
 0002:00006e0c       ??_C@_1M@LKHKGDLN@?$AAe?$AAs?$AA?9?$AAg?$AAt@ 10043e0c     libucrt:lcidtoname_downlevel.obj
 0002:00006e18       ??_C@_1M@HEIIGGJD@?$AAe?$AAs?$AA?9?$AAh?$AAn@ 10043e18     libucrt:lcidtoname_downlevel.obj
 0002:00006e24       ??_C@_1M@FBDHPPGD@?$AAe?$AAs?$AA?9?$AAm?$AAx@ 10043e24     libucrt:lcidtoname_downlevel.obj
 0002:00006e30       ??_C@_1M@DPAGLNDH@?$AAe?$AAs?$AA?9?$AAn?$AAi@ 10043e30     libucrt:lcidtoname_downlevel.obj
 0002:00006e3c       ??_C@_1M@MDGOPGDD@?$AAe?$AAs?$AA?9?$AAp?$AAa@ 10043e3c     libucrt:lcidtoname_downlevel.obj
 0002:00006e48       ??_C@_1M@EMAMGBGE@?$AAe?$AAs?$AA?9?$AAp?$AAe@ 10043e48     libucrt:lcidtoname_downlevel.obj
 0002:00006e54       ??_C@_1M@IBMCAOEC@?$AAe?$AAs?$AA?9?$AAp?$AAr@ 10043e54     libucrt:lcidtoname_downlevel.obj
 0002:00006e60       ??_C@_1M@FGMDIJED@?$AAe?$AAs?$AA?9?$AAp?$AAy@ 10043e60     libucrt:lcidtoname_downlevel.obj
 0002:00006e6c       ??_C@_1M@IIDEOLLL@?$AAe?$AAs?$AA?9?$AAs?$AAv@ 10043e6c     libucrt:lcidtoname_downlevel.obj
 0002:00006e78       ??_C@_1M@GAOBIPA@?$AAe?$AAs?$AA?9?$AAu?$AAy@ 10043e78     libucrt:lcidtoname_downlevel.obj
 0002:00006e84       ??_C@_1M@JKFFICHJ@?$AAe?$AAs?$AA?9?$AAv?$AAe@ 10043e84     libucrt:lcidtoname_downlevel.obj
 0002:00006e90       ??_C@_1M@PNMLOJDF@?$AAe?$AAt?$AA?9?$AAe?$AAe@ 10043e90     libucrt:lcidtoname_downlevel.obj
 0002:00006e9c       ??_C@_1M@GHHLIKEI@?$AAe?$AAu?$AA?9?$AAe?$AAs@ 10043e9c     libucrt:lcidtoname_downlevel.obj
 0002:00006ea8       ??_C@_1M@PBNONODE@?$AAf?$AAa?$AA?9?$AAi?$AAr@ 10043ea8     libucrt:lcidtoname_downlevel.obj
 0002:00006eb4       ??_C@_1M@JEEHPMIL@?$AAf?$AAi?$AA?9?$AAf?$AAi@ 10043eb4     libucrt:lcidtoname_downlevel.obj
 0002:00006ec0       ??_C@_1M@LMDCNDBA@?$AAf?$AAo?$AA?9?$AAf?$AAo@ 10043ec0     libucrt:lcidtoname_downlevel.obj
 0002:00006ecc       ??_C@_1M@JKEOHLDK@?$AAf?$AAr?$AA?9?$AAb?$AAe@ 10043ecc     libucrt:lcidtoname_downlevel.obj
 0002:00006ed8       ??_C@_1M@NOHADPMI@?$AAf?$AAr?$AA?9?$AAc?$AAa@ 10043ed8     libucrt:lcidtoname_downlevel.obj
 0002:00006ee4       ??_C@_1M@KDHIHAEC@?$AAf?$AAr?$AA?9?$AAc?$AAh@ 10043ee4     libucrt:lcidtoname_downlevel.obj
 0002:00006ef0       ??_C@_1M@MMBBFGAK@?$AAf?$AAr?$AA?9?$AAf?$AAr@ 10043ef0     libucrt:lcidtoname_downlevel.obj
 0002:00006efc       ??_C@_1M@PAFNENNF@?$AAf?$AAr?$AA?9?$AAl?$AAu@ 10043efc     libucrt:lcidtoname_downlevel.obj
 0002:00006f08       ??_C@_1M@EOHDJGDD@?$AAf?$AAr?$AA?9?$AAm?$AAc@ 10043f08     libucrt:lcidtoname_downlevel.obj
 0002:00006f14       ??_C@_1M@FAPLLOPF@?$AAg?$AAl?$AA?9?$AAe?$AAs@ 10043f14     libucrt:lcidtoname_downlevel.obj
 0002:00006f20       ??_C@_1M@FOPBFLOO@?$AAg?$AAu?$AA?9?$AAi?$AAn@ 10043f20     libucrt:lcidtoname_downlevel.obj
 0002:00006f2c       ??_C@_1M@KBMCINPM@?$AAh?$AAe?$AA?9?$AAi?$AAl@ 10043f2c     libucrt:lcidtoname_downlevel.obj
 0002:00006f38       ??_C@_1M@BBPHKFPJ@?$AAh?$AAi?$AA?9?$AAi?$AAn@ 10043f38     libucrt:lcidtoname_downlevel.obj
 0002:00006f44       ??_C@_1M@PMBNDPHD@?$AAh?$AAr?$AA?9?$AAb?$AAa@ 10043f44     libucrt:lcidtoname_downlevel.obj
 0002:00006f50       ??_C@_1M@BPCKOEGE@?$AAh?$AAr?$AA?9?$AAh?$AAr@ 10043f50     libucrt:lcidtoname_downlevel.obj
 0002:00006f5c       ??_C@_1M@GACBMHKE@?$AAh?$AAu?$AA?9?$AAh?$AAu@ 10043f5c     libucrt:lcidtoname_downlevel.obj
 0002:00006f68       ??_C@_1M@MILPAJJC@?$AAh?$AAy?$AA?9?$AAa?$AAm@ 10043f68     libucrt:lcidtoname_downlevel.obj
 0002:00006f74       ??_C@_1M@BABBICEC@?$AAi?$AAd?$AA?9?$AAi?$AAd@ 10043f74     libucrt:lcidtoname_downlevel.obj
 0002:00006f80       ??_C@_1M@BIKNHHPF@?$AAi?$AAs?$AA?9?$AAi?$AAs@ 10043f80     libucrt:lcidtoname_downlevel.obj
 0002:00006f8c       ??_C@_1M@NMPCJPHE@?$AAi?$AAt?$AA?9?$AAc?$AAh@ 10043f8c     libucrt:lcidtoname_downlevel.obj
 0002:00006f98       ??_C@_1M@GHKGFEDF@?$AAi?$AAt?$AA?9?$AAi?$AAt@ 10043f98     libucrt:lcidtoname_downlevel.obj
 0002:00006fa4       ??_C@_1M@NIEJCJJA@?$AAj?$AAa?$AA?9?$AAj?$AAp@ 10043fa4     libucrt:lcidtoname_downlevel.obj
 0002:00006fb0       ??_C@_1M@JILFNBIM@?$AAk?$AAa?$AA?9?$AAg?$AAe@ 10043fb0     libucrt:lcidtoname_downlevel.obj
 0002:00006fbc       ??_C@_1M@PACPMGPH@?$AAk?$AAk?$AA?9?$AAk?$AAz@ 10043fbc     libucrt:lcidtoname_downlevel.obj
 0002:00006fc8       ??_C@_1M@IELFGMHA@?$AAk?$AAn?$AA?9?$AAi?$AAn@ 10043fc8     libucrt:lcidtoname_downlevel.obj
 0002:00006fd4       ??_C@_1O@IBBJHCH@?$AAk?$AAo?$AAk?$AA?9?$AAi?$AAn@ 10043fd4     libucrt:lcidtoname_downlevel.obj
 0002:00006fe4       ??_C@_1M@DMHAEOGC@?$AAk?$AAo?$AA?9?$AAk?$AAr@ 10043fe4     libucrt:lcidtoname_downlevel.obj
 0002:00006ff0       ??_C@_1M@HBAHBIGA@?$AAk?$AAy?$AA?9?$AAk?$AAg@ 10043ff0     libucrt:lcidtoname_downlevel.obj
 0002:00006ffc       ??_C@_1M@KPMILCJG@?$AAl?$AAt?$AA?9?$AAl?$AAt@ 10043ffc     libucrt:lcidtoname_downlevel.obj
 0002:00007008       ??_C@_1M@BDEKKCA@?$AAl?$AAv?$AA?9?$AAl?$AAv@ 10044008     libucrt:lcidtoname_downlevel.obj
 0002:00007014       ??_C@_1M@ELCKCCJJ@?$AAm?$AAi?$AA?9?$AAn?$AAz@ 10044014     libucrt:lcidtoname_downlevel.obj
 0002:00007020       ??_C@_1M@CBOOLAPA@?$AAm?$AAk?$AA?9?$AAm?$AAk@ 10044020     libucrt:lcidtoname_downlevel.obj
 0002:0000702c       ??_C@_1M@GPHNBJKN@?$AAm?$AAl?$AA?9?$AAi?$AAn@ 1004402c     libucrt:lcidtoname_downlevel.obj
 0002:00007038       ??_C@_1M@PABJILIG@?$AAm?$AAn?$AA?9?$AAm?$AAn@ 10044038     libucrt:lcidtoname_downlevel.obj
 0002:00007044       ??_C@_1M@FGBKKIPG@?$AAm?$AAr?$AA?9?$AAi?$AAn@ 10044044     libucrt:lcidtoname_downlevel.obj
 0002:00007050       ??_C@_1M@NDBPDDAL@?$AAm?$AAs?$AA?9?$AAb?$AAn@ 10044050     libucrt:lcidtoname_downlevel.obj
 0002:0000705c       ??_C@_1M@OPIHOOPI@?$AAm?$AAs?$AA?9?$AAm?$AAy@ 1004405c     libucrt:lcidtoname_downlevel.obj
 0002:00007068       ??_C@_1M@PPDBCNFM@?$AAm?$AAt?$AA?9?$AAm?$AAt@ 10044068     libucrt:lcidtoname_downlevel.obj
 0002:00007074       ??_C@_1M@KDJDKMDD@?$AAn?$AAb?$AA?9?$AAn?$AAo@ 10044074     libucrt:lcidtoname_downlevel.obj
 0002:00007080       ??_C@_1M@KFCFLMJP@?$AAn?$AAl?$AA?9?$AAb?$AAe@ 10044080     libucrt:lcidtoname_downlevel.obj
 0002:0000708c       ??_C@_1M@KPOPDDGO@?$AAn?$AAl?$AA?9?$AAn?$AAl@ 1004408c     libucrt:lcidtoname_downlevel.obj
 0002:00007098       ??_C@_1M@LJKPEMLN@?$AAn?$AAn?$AA?9?$AAn?$AAo@ 10044098     libucrt:lcidtoname_downlevel.obj
 0002:000070a4       ??_C@_1M@BDGHHBFL@?$AAn?$AAs?$AA?9?$AAz?$AAa@ 100440a4     libucrt:lcidtoname_downlevel.obj
 0002:000070b0       ??_C@_1M@IDEHOAP@?$AAp?$AAa?$AA?9?$AAi?$AAn@ 100440b0     libucrt:lcidtoname_downlevel.obj
 0002:000070bc       ??_C@_1M@HDBKGOGH@?$AAp?$AAl?$AA?9?$AAp?$AAl@ 100440bc     libucrt:lcidtoname_downlevel.obj
 0002:000070c8       ??_C@_1M@LJLLCMEH@?$AAp?$AAt?$AA?9?$AAb?$AAr@ 100440c8     libucrt:lcidtoname_downlevel.obj
 0002:000070d4       ??_C@_1M@NCMONAAL@?$AAp?$AAt?$AA?9?$AAp?$AAt@ 100440d4     libucrt:lcidtoname_downlevel.obj
 0002:000070e0       ??_C@_1O@EAKMAJDN@?$AAq?$AAu?$AAz?$AA?9?$AAb?$AAo@ 100440e0     libucrt:lcidtoname_downlevel.obj
 0002:000070f0       ??_C@_1O@BHHPIGDN@?$AAq?$AAu?$AAz?$AA?9?$AAe?$AAc@ 100440f0     libucrt:lcidtoname_downlevel.obj
 0002:00007100       ??_C@_1O@GBAPEKMJ@?$AAq?$AAu?$AAz?$AA?9?$AAp?$AAe@ 10044100     libucrt:lcidtoname_downlevel.obj
 0002:00007110       ??_C@_1M@CLGLEFBO@?$AAr?$AAo?$AA?9?$AAr?$AAo@ 10044110     libucrt:lcidtoname_downlevel.obj
 0002:0000711c       ??_C@_1M@CEEDODME@?$AAr?$AAu?$AA?9?$AAr?$AAu@ 1004411c     libucrt:lcidtoname_downlevel.obj
 0002:00007128       ??_C@_1M@HPKKKMPP@?$AAs?$AAa?$AA?9?$AAi?$AAn@ 10044128     libucrt:lcidtoname_downlevel.obj
 0002:00007134       ??_C@_1M@BKMAIGOJ@?$AAs?$AAe?$AA?9?$AAf?$AAi@ 10044134     libucrt:lcidtoname_downlevel.obj
 0002:00007140       ??_C@_1M@NDPIFLFI@?$AAs?$AAe?$AA?9?$AAn?$AAo@ 10044140     libucrt:lcidtoname_downlevel.obj
 0002:0000714c       ??_C@_1M@DANKKHJ@?$AAs?$AAe?$AA?9?$AAs?$AAe@ 1004414c     libucrt:lcidtoname_downlevel.obj
 0002:00007158       ??_C@_1M@PNBLONPJ@?$AAs?$AAk?$AA?9?$AAs?$AAk@ 10044158     libucrt:lcidtoname_downlevel.obj
 0002:00007164       ??_C@_1M@LFMODOAL@?$AAs?$AAl?$AA?9?$AAs?$AAi@ 10044164     libucrt:lcidtoname_downlevel.obj
 0002:00007170       ??_C@_1O@DFKOMPG@?$AAs?$AAm?$AAa?$AA?9?$AAn?$AAo@ 10044170     libucrt:lcidtoname_downlevel.obj
 0002:00007180       ??_C@_1O@NDKPBNNH@?$AAs?$AAm?$AAa?$AA?9?$AAs?$AAe@ 10044180     libucrt:lcidtoname_downlevel.obj
 0002:00007190       ??_C@_1O@PLLKBHAB@?$AAs?$AAm?$AAj?$AA?9?$AAn?$AAo@ 10044190     libucrt:lcidtoname_downlevel.obj
 0002:000071a0       ??_C@_1O@CLEPOGCA@?$AAs?$AAm?$AAj?$AA?9?$AAs?$AAe@ 100441a0     libucrt:lcidtoname_downlevel.obj
 0002:000071b0       ??_C@_1O@DLGJGKMK@?$AAs?$AAm?$AAn?$AA?9?$AAf?$AAi@ 100441b0     libucrt:lcidtoname_downlevel.obj
 0002:000071c0       ??_C@_1O@OJDJGAJC@?$AAs?$AAm?$AAs?$AA?9?$AAf?$AAi@ 100441c0     libucrt:lcidtoname_downlevel.obj
 0002:000071d0       ??_C@_1M@BOFOGHPB@?$AAs?$AAq?$AA?9?$AAa?$AAl@ 100441d0     libucrt:lcidtoname_downlevel.obj
 0002:000071dc       ??_C@_1BG@LJBBIPGB@?$AAs?$AAr?$AA?9?$AAb?$AAa?$AA?9?$AAc?$AAy?$AAr?$AAl@ 100441dc     libucrt:lcidtoname_downlevel.obj
 0002:000071f4       ??_C@_1BG@JLBENFOE@?$AAs?$AAr?$AA?9?$AAb?$AAa?$AA?9?$AAl?$AAa?$AAt?$AAn@ 100441f4     libucrt:lcidtoname_downlevel.obj
 0002:0000720c       ??_C@_1BG@KODPNHE@?$AAs?$AAr?$AA?9?$AAs?$AAp?$AA?9?$AAc?$AAy?$AAr?$AAl@ 1004420c     libucrt:lcidtoname_downlevel.obj
 0002:00007224       ??_C@_1BG@CIOGKHPB@?$AAs?$AAr?$AA?9?$AAs?$AAp?$AA?9?$AAl?$AAa?$AAt?$AAn@ 10044224     libucrt:lcidtoname_downlevel.obj
 0002:0000723c       ??_C@_1M@NGFJLMAC@?$AAs?$AAv?$AA?9?$AAf?$AAi@ 1004423c     libucrt:lcidtoname_downlevel.obj
 0002:00007248       ??_C@_1M@MPJEJAJC@?$AAs?$AAv?$AA?9?$AAs?$AAe@ 10044248     libucrt:lcidtoname_downlevel.obj
 0002:00007254       ??_C@_1M@MPNDHLFK@?$AAs?$AAw?$AA?9?$AAk?$AAe@ 10044254     libucrt:lcidtoname_downlevel.obj
 0002:00007260       ??_C@_1O@KOHBJJI@?$AAs?$AAy?$AAr?$AA?9?$AAs?$AAy@ 10044260     libucrt:lcidtoname_downlevel.obj
 0002:00007270       ??_C@_1M@LDCEFHA@?$AAt?$AAa?$AA?9?$AAi?$AAn@ 10044270     libucrt:lcidtoname_downlevel.obj
 0002:0000727c       ??_C@_1M@CNJOFAK@?$AAt?$AAe?$AA?9?$AAi?$AAn@ 1004427c     libucrt:lcidtoname_downlevel.obj
 0002:00007288       ??_C@_1M@GNAECACD@?$AAt?$AAh?$AA?9?$AAt?$AAh@ 10044288     libucrt:lcidtoname_downlevel.obj
 0002:00007294       ??_C@_1M@CHBIHOJO@?$AAt?$AAn?$AA?9?$AAz?$AAa@ 10044294     libucrt:lcidtoname_downlevel.obj
 0002:000072a0       ??_C@_1M@GCCMIGPJ@?$AAt?$AAr?$AA?9?$AAt?$AAr@ 100442a0     libucrt:lcidtoname_downlevel.obj
 0002:000072ac       ??_C@_1M@CELMCNBK@?$AAt?$AAt?$AA?9?$AAr?$AAu@ 100442ac     libucrt:lcidtoname_downlevel.obj
 0002:000072b8       ??_C@_1M@KLMCELGA@?$AAu?$AAk?$AA?9?$AAu?$AAa@ 100442b8     libucrt:lcidtoname_downlevel.obj
 0002:000072c4       ??_C@_1M@EPAJJAJF@?$AAu?$AAr?$AA?9?$AAp?$AAk@ 100442c4     libucrt:lcidtoname_downlevel.obj
 0002:000072d0       ??_C@_1BG@GEGPMCDJ@?$AAu?$AAz?$AA?9?$AAu?$AAz?$AA?9?$AAc?$AAy?$AAr?$AAl@ 100442d0     libucrt:lcidtoname_downlevel.obj
 0002:000072e8       ??_C@_1BG@EGGKJILM@?$AAu?$AAz?$AA?9?$AAu?$AAz?$AA?9?$AAl?$AAa?$AAt?$AAn@ 100442e8     libucrt:lcidtoname_downlevel.obj
 0002:00007300       ??_C@_1M@GFOCLFF@?$AAv?$AAi?$AA?9?$AAv?$AAn@ 10044300     libucrt:lcidtoname_downlevel.obj
 0002:0000730c       ??_C@_1M@CPAMEDFI@?$AAx?$AAh?$AA?9?$AAz?$AAa@ 1004430c     libucrt:lcidtoname_downlevel.obj
 0002:00007318       ??_C@_1O@EBKIFIGN@?$AAz?$AAh?$AA?9?$AAc?$AAh?$AAs@ 10044318     libucrt:lcidtoname_downlevel.obj
 0002:00007328       ??_C@_1O@NMHPGANE@?$AAz?$AAh?$AA?9?$AAc?$AAh?$AAt@ 10044328     libucrt:lcidtoname_downlevel.obj
 0002:00007338       ??_C@_1M@LPINJOMC@?$AAz?$AAh?$AA?9?$AAc?$AAn@ 10044338     libucrt:lcidtoname_downlevel.obj
 0002:00007344       ??_C@_1M@OCJEJODD@?$AAz?$AAh?$AA?9?$AAh?$AAk@ 10044344     libucrt:lcidtoname_downlevel.obj
 0002:00007350       ??_C@_1M@DNDLJINH@?$AAz?$AAh?$AA?9?$AAm?$AAo@ 10044350     libucrt:lcidtoname_downlevel.obj
 0002:0000735c       ??_C@_1M@MBFDNDND@?$AAz?$AAh?$AA?9?$AAs?$AAg@ 1004435c     libucrt:lcidtoname_downlevel.obj
 0002:00007368       ??_C@_1M@IMEPLEPE@?$AAz?$AAh?$AA?9?$AAt?$AAw@ 10044368     libucrt:lcidtoname_downlevel.obj
 0002:00007374       ??_C@_1M@BBGHNHJP@?$AAz?$AAu?$AA?9?$AAz?$AAa@ 10044374     libucrt:lcidtoname_downlevel.obj
 0002:000074e0       __infinity                 100444e0     libucrt:87tran.obj
 0002:000074ea       __minfinity                100444ea     libucrt:87tran.obj
 0002:000074f4       __logemax                  100444f4     libucrt:87tran.obj
 0002:0000751a       __OP_EXPjmptab             1004451a     libucrt:87tran.obj
 0002:00007540       __indefinite               10044540     libucrt:87disp.obj
 0002:0000754a       __piby2                    1004454a     libucrt:87disp.obj
 0002:00007554       __piby4                    10044554     libucrt:87disp.obj
 0002:00007588       __DEFAULT_CW_in_mem        10044588     libucrt:common.obj
 0002:0000758a       __pi_by_2_to_61            1004458a     libucrt:common.obj
 0002:000075c4       ??_C@_1BA@BALFACEM@?$AAC?$AAO?$AAN?$AAO?$AAU?$AAT?$AA$@ 100445c4     libucrt:initcon.obj
 0002:000075e0       ___acrt_log10_table_t      100445e0     libucrt:log10_tables.obj
 0002:000079f0       ___acrt_log10_table_cb     100449f0     libucrt:log10_tables.obj
 0002:00007e0c       __Asan_string_should_annotate 10044e0c     libcpmt:asan_noop.obj
 0002:00007e0c       __Asan_string_should_annotate_default 10044e0c     libcpmt:asan_noop.obj
 0002:00007e0d       __Asan_vector_should_annotate_default 10044e0d     libcpmt:asan_noop.obj
 0002:00007e10       ??_C@_0N@IAJIDHKP@DlgBluBo?4def@ 10044e10     DrawPcx16ResizedBicubic.obj
 0002:00007e20       ??_C@_0N@BJEFDLGA@DlgBluBk?4PCX@ 10044e20     DrawPcx16ResizedBicubic.obj
 0002:00007e30       ??_C@_0N@BJNHCFMF@HD_TStat?4pcx@ 10044e30     DrawPcx16ResizedBicubic.obj
 0002:00007e50       ?PLUGIN_VERSION@dllText@@3PBDB 10044e50     dllmain.obj
 0002:00007e54       ?INSTANCE_NAME@dllText@@3PBDB 10044e54     dllmain.obj
 0002:00007ef4       ??_C@_0BC@EOODALEL@Unknown?5exception@ 10044ef4     era.obj
 0002:00007f08       ??_C@_0BF@KINCDENJ@bad?5array?5new?5length@ 10044f08     era.obj
 0002:00007f20       ??_C@_0BA@JFNIOLAK@string?5too?5long@ 10044f20     era.obj
 0002:00007f30       ??_C@_07PILJHEGK@era?4dll@ 10044f30     era.obj
 0002:00007f38       ??_C@_0N@ILCPAELP@AllocErmFunc@ 10044f38     era.obj
 0002:00007f48       ??_C@_0BB@NFICFMFA@ClearAllIniCache@ 10044f48     era.obj
 0002:00007f5c       ??_C@_0O@KHPPEFLJ@ClearIniCache@ 10044f5c     era.obj
 0002:00007f6c       ??_C@_0N@GFAHACFE@CreatePlugin@ 10044f6c     era.obj
 0002:00007f7c       ??_C@_0M@MCBFFFFK@DecorateInt@ 10044f7c     era.obj
 0002:00007f88       ??_C@_0L@GHCNBJIK@ExecErmCmd@ 10044f88     era.obj
 0002:00007f94       ??_C@_0BE@JPCODAJD@ExecPersistedErmCmd@ 10044f94     era.obj
 0002:00007fa8       ??_C@_0L@BBNMEHJH@ExtractErm@ 10044fa8     era.obj
 0002:00007fb4       ??_C@_0BD@HGLMDBJA@FastQuitToGameMenu@ 10044fb4     era.obj
 0002:00007fc8       ??_C@_0L@CKILDBJC@FatalError@ 10044fc8     era.obj
 0002:00007fd4       ??_C@_0P@MELBKLIK@FindNextObject@ 10044fd4     era.obj
 0002:00007fe4       ??_C@_0N@HFGMKLEN@FireErmEvent@ 10044fe4     era.obj
 0002:00007ff4       ??_C@_09GEAPPBGH@FireEvent@ 10044ff4     era.obj
 0002:00008000       ??_C@_0P@GBBGLPHE@FormatQuantity@ 10045000     era.obj
 0002:00008010       ??_C@_0BB@CAMNCLPO@FreeAppliedPatch@ 10045010     era.obj
 0002:00008024       ??_C@_0BC@GKDCPLNJ@GenerateDebugInfo@ 10045024     era.obj
 0002:00008038       ??_C@_0BE@DDKGOJFB@GetAppliedPatchSize@ 10045038     era.obj
 0002:0000804c       ??_C@_0M@PAAODNCJ@GetArgXVars@ 1004504c     era.obj
 0002:00008058       ??_C@_0BE@LLFNHKFA@GetAssocVarIntValue@ 10045058     era.obj
 0002:0000806c       ??_C@_0BE@MBIKKGG@GetAssocVarStrValue@ 1004506c     era.obj
 0002:00008080       ??_C@_0M@KJHFCLAP@GetButtonID@ 10045080     era.obj
 0002:0000808c       ??_C@_0BE@OEHKLKHD@GetCampaignFileName@ 1004508c     era.obj
 0002:000080a0       ??_C@_0BC@BDDDAFDE@GetCampaignMapInd@ 100450a0     era.obj
 0002:000080b4       ??_C@_0BH@JHIEBJBG@GetEraRegistryIntValue@ 100450b4     era.obj
 0002:000080cc       ??_C@_0BH@CAMBMJCA@GetEraRegistryStrValue@ 100450cc     era.obj
 0002:000080e4       ??_C@_0N@CFMBLIKP@GetGameState@ 100450e4     era.obj
 0002:000080f4       ??_C@_0P@IIOFMNON@GetMapFileName@ 100450f4     era.obj
 0002:00008104       ??_C@_0P@OMEKLNHG@GetProcessGuid@ 10045104     era.obj
 0002:00008114       ??_C@_0M@LKIFOAN@GetRealAddr@ 10045114     era.obj
 0002:00008120       ??_C@_0M@EFALPNPM@GetRetXVars@ 10045120     era.obj
 0002:0000812c       ??_C@_0BH@MJACGIOO@GetTriggerReadableName@ 1004512c     era.obj
 0002:00008144       ??_C@_0O@FNMDEAHG@GetVersionNum@ 10045144     era.obj
 0002:00008154       ??_C@_0BD@DPCJBLFO@GlobalRedirectFile@ 10045154     era.obj
 0002:00008168       ??_C@_06FNGCINCL@Hash32@   10045168     era.obj
 0002:00008170       ??_C@_0L@GKIEJFBJ@IsCampaign@ 10045170     era.obj
 0002:0000817c       ??_C@_0O@HBOCCCBJ@IsCommanderId@ 1004517c     era.obj
 0002:0000818c       ??_C@_0BD@HCAPFPLH@IsPatchOverwritten@ 1004518c     era.obj
 0002:000081a0       ??_C@_0BB@PHLEIINC@LoadImageAsPcx16@ 100451a0     era.obj
 0002:000081b4       ??_C@_07FLCNLLL@MemFree@   100451b4     era.obj
 0002:000081bc       ??_C@_09PIKCKENJ@NameColor@ 100451bc     era.obj
 0002:000081c8       ??_C@_0M@KFFJELFJ@NameTrigger@ 100451c8     era.obj
 0002:000081d4       ??_C@_0M@LNHBMGFH@NotifyError@ 100451d4     era.obj
 0002:000081e0       ??_C@_0M@PLEJCMGM@PatchExists@ 100451e0     era.obj
 0002:000081ec       ??_C@_0N@FOLHNDBL@PcxPngExists@ 100451ec     era.obj
 0002:000081fc       ??_C@_0O@IAKAAEFK@PersistErmCmd@ 100451fc     era.obj
 0002:0000820c       ??_C@_0N@BGLGOOMO@PluginExists@ 1004520c     era.obj
 0002:0000821c       ??_C@_0BJ@CBICDEKB@RandomRangeWithFreeParam@ 1004521c     era.obj
 0002:00008238       ??_C@_0BE@CIDOCKGN@ReadSavegameSection@ 10045238     era.obj
 0002:0000824c       ??_C@_0P@CCLIEMKP@ReadStrFromIni@ 1004524c     era.obj
 0002:0000825c       ??_C@_0N@EADKAOLK@RedirectFile@ 1004525c     era.obj
 0002:0000826c       ??_C@_0BE@OJOEEMJD@RedirectMemoryBlock@ 1004526c     era.obj
 0002:00008280       ??_C@_0BA@BCNGHKCC@RegisterHandler@ 10045280     era.obj
 0002:00008290       ??_C@_09MJCMIAEG@ReloadErm@ 10045290     era.obj
 0002:0000829c       ??_C@_0BD@CHCJJBJH@ReloadLanguageData@ 1004529c     era.obj
 0002:000082b0       ??_C@_0BE@JBKGKCON@ReportPluginVersion@ 100452b0     era.obj
 0002:000082c4       ??_C@_0BF@KLCOOELO@RollbackAppliedPatch@ 100452c4     era.obj
 0002:000082dc       ??_C@_07PAHGKEHA@SaveIni@  100452dc     era.obj
 0002:000082e4       ??_C@_0BE@BFHGDKCM@SetAssocVarIntValue@ 100452e4     era.obj
 0002:000082f8       ??_C@_0BE@KCDDOKBK@SetAssocVarStrValue@ 100452f8     era.obj
 0002:0000830c       ??_C@_0BH@JGKKDOMJ@SetEraRegistryIntValue@ 1004530c     era.obj
 0002:00008324       ??_C@_0BH@CBOPOOPP@SetEraRegistryStrValue@ 10045324     era.obj
 0002:0000833c       ??_C@_0BF@KNHFCCLI@SetIsCommanderIdFunc@ 1004533c     era.obj
 0002:00008354       ??_C@_0BL@CFMKIIJH@SetIsElixirOfLifeStackFunc@ 10045354     era.obj
 0002:00008370       ??_C@_0M@BMMLELAG@SetLanguage@ 10045370     era.obj
 0002:0000837c       ??_C@_0BK@NPNOCL@SetMultiPurposeDlgHandler@ 1004537c     era.obj
 0002:00008398       ??_C@_0BH@GOLMFEJO@SetRegenerationAbility@ 10045398     era.obj
 0002:000083b0       ??_C@_0BJ@PGHLMJLL@SetStdRegenerationEffect@ 100453b0     era.obj
 0002:000083cc       ??_C@_0N@GOAOCOKF@ShowErmError@ 100453cc     era.obj
 0002:000083dc       ??_C@_0M@BPKMLENP@ShowMessage@ 100453dc     era.obj
 0002:000083e8       ??_C@_0BE@CDFKHBC@ShowMultiPurposeDlg@ 100453e8     era.obj
 0002:000083fc       ??_C@_0L@KMILMGPD@SplitMix32@ 100453fc     era.obj
 0002:00008408       ??_C@_0M@OFFBOJCJ@ToStaticStr@ 10045408     era.obj
 0002:00008414       ??_C@_08JBJLPCGF@trStatic@ 10045414     era.obj
 0002:00008420       ??_C@_06JCAFDHMM@trTemp@   10045420     era.obj
 0002:00008428       ??_C@_0M@CLLMHKFF@WriteAtCode@ 10045428     era.obj
 0002:00008434       ??_C@_0BF@HMHBLPO@WriteSavegameSection@ 10045434     era.obj
 0002:0000844c       ??_C@_0O@POMBDOKD@WriteStrToIni@ 1004544c     era.obj
 0002:0000845c       ??_C@_0L@LNAOMCPJ@GetVersion@ 1004545c     era.obj
 0002:00008468       ??_C@_04PHJJMCEO@Hook@     10045468     era.obj
 0002:00008470       ??_C@_06DDHLBGDE@Splice@   10045470     era.obj
 0002:00008478       ??_C@_02EOEPPNBF@tr@       10045478     era.obj
 0002:0000847c       ??_C@_0BO@CDJEPEOM@Duplicate?5registered?5plugin?3?5@ 1004547c     era.obj
 0002:0000849c       ??_C@_02DPKJAMEF@?$CFd@    1004549c     era.obj
 0002:000084a0       ??_C@_0BA@FDLNIKIG@patcher_x86?4dll@ 100454a0     dllmain.obj
 0002:000084b0       ??_C@_0BB@CKHJKIEB@_GetPatcherX86?$EA0@ 100454b0     dllmain.obj
 0002:000084c4       ??_C@_04NGIFBILC@1?408@    100454c4     dllmain.obj
 0002:000084cc       ??_C@_0CD@DOKMFMCP@EraPlugin?4ObjectsExtender?4daemo@ 100454cc     dllmain.obj
 0002:000084f0       ??_C@_0M@LAIHKJOB@Jan?524?52025@ 100454f0     dllmain.obj
 0002:000084fc       ??_C@_0BO@GGFEMENP@RMG_CustomizeObjectProperties@ 100454fc     dllmain.obj
 0002:0000851c       ??_C@_0O@JANCNCJA@?$HL?$CFs?$HN?5v?$CFs?5?$CI?$CFs?$CJ@ 1004551c     dllmain.obj
 0002:0000852c       ??_C@_0BA@DNDFOHJM@OnReportVersion@ 1004552c     dllmain.obj
 0002:0000853c       ??_C@_0CH@CKHEKNML@RMG?4objectGeneration?4?$CFd?4?$CFd?4soun@ 1004553c     SoundManager.obj
 0002:00008564       ??_C@_0BL@GOIGLPKN@unordered_map?1set?5too?5long@ 10045564     SoundManager.obj
 0002:00008580       ??_C@_0BA@FOIKENOD@vector?5too?5long@ 10045580     SoundManager.obj
 0002:00008590       ??_C@_0BK@OGNNAFAB@invalid?5hash?5bucket?5count@ 10045590     SoundManager.obj
 0002:000085ac       ??_C@_02DKCKIIND@?$CFs@    100455ac     ColosseumOfTheMagiExtender.obj
 0002:000085b0       ??_C@_0BJ@CMKJOIJF@colosseumOfTheMagi_?$CFd_?$CFd@ 100455b0     ColosseumOfTheMagiExtender.obj
 0002:000085cc       ??_C@_0CO@GNMMFFHB@EraPlugin?4ColosseumOfTheMagiExt@ 100455cc     ColosseumOfTheMagiExtender.obj
 0002:000085fc       ??_C@_0BJ@KMGFKKNA@HD?4UI?4AdvMgr?4SkipMapMsgs@ 100455fc     ColosseumOfTheMagiExtender.obj
 0002:00008618       ??_C@_04OMBFFHIC@?$HL?$CFs?$HN@ 10045618     ColosseumOfTheMagiExtender.obj
 0002:00008620       ??_C@_0CI@LNHKLPMO@RMG?4objectGeneration?4?$CFd?4?$CFd?4text@ 10045620     ColosseumOfTheMagiExtender.obj
 0002:00008648       ??_C@_0CG@KHKCNBMI@RMG?4objectGeneration?4?$CFd?4?$CFd?4text@ 10045648     ColosseumOfTheMagiExtender.obj
 0002:00008670       ??_C@_02PHMGELLB@?6?6@     10045670     ColosseumOfTheMagiExtender.obj
 0002:00008674       ??_C@_01CLKCMJKC@?5@       10045674     ColosseumOfTheMagiExtender.obj
 0002:00008678       ??_C@_04HDOCAJNK@?$CFs?$CFs@ 10045678     ColosseumOfTheMagiExtender.obj
 0002:00008684       ??_7ColosseumOfTheMagiExtender@colosseumOfTheMagi@@6B@ 10045684     ColosseumOfTheMagiExtender.obj
 0002:000086a8       ??_C@_0CA@GHGKFBHA@RMG?4objectGeneration?4?$CFd?4?$CFd?4name@ 100456a8     CreatureBanksExtender.obj
 0002:000086c8       ??_C@_0P@IBJBNMNP@EB?50B?590909090@ 100456c8     CreatureBanksExtender.obj
 0002:000086d8       ??_C@_0M@INMIJHFG@E9?5C2040000@ 100456d8     CreatureBanksExtender.obj
 0002:000086e4       ??_C@_05DNIIFBMG@?$CFs?5?$CFs@ 100456e4     CreatureBanksExtender.obj
 0002:000086ec       ??_C@_0CJ@IMEFFEIP@EraPlugin?4CreatureBanksExtender@ 100456ec     CreatureBanksExtender.obj
 0002:00008718       ??_C@_0N@EHKOENHH@EB0C90909090@ 10045718     CreatureBanksExtender.obj
 0002:00008728       ??_C@_0BK@EGLDKPPK@OnAfterReloadLanguageData@ 10045728     CreatureBanksExtender.obj
 0002:00008744       ??_C@_0CH@HHPNFJCH@RMG?4settings?4creatureBanks?4disp@ 10045744     CreatureBanksExtender.obj
 0002:0000876c       ??_C@_0DC@NOGJGIHO@RMG?4settings?4creatureBanks?4exte@ 1004576c     CreatureBanksExtender.obj
 0002:000087a0       ??_C@_0CA@MEKELAEM@RMG?4objectGeneration?416?4?$CFd?4name@ 100457a0     CreatureBanksExtender.obj
 0002:000087c0       ??_C@_0DI@LMBNEBAO@RMG?4objectGeneration?416?4?$CFd?4stat@ 100457c0     CreatureBanksExtender.obj
 0002:000087f8       ??_C@_0DJ@GGKPMDGG@RMG?4objectGeneration?416?4?$CFd?4stat@ 100457f8     CreatureBanksExtender.obj
 0002:00008834       ??_C@_0CM@KLAPMINN@RMG?4objectGeneration?416?4?$CFd?4stat@ 10045834     CreatureBanksExtender.obj
 0002:00008860       ??_C@_0CN@NGCEOPGE@RMG?4objectGeneration?416?4?$CFd?4stat@ 10045860     CreatureBanksExtender.obj
 0002:00008890       ??_C@_0DL@FDGGLCJE@RMG?4objectGeneration?416?4?$CFd?4stat@ 10045890     CreatureBanksExtender.obj
 0002:000088cc       ??_C@_0DH@OFGCOACD@RMG?4objectGeneration?416?4?$CFd?4stat@ 100458cc     CreatureBanksExtender.obj
 0002:00008904       ??_C@_0DI@DNGDMCNN@RMG?4objectGeneration?416?4?$CFd?4stat@ 10045904     CreatureBanksExtender.obj
 0002:0000893c       ??_C@_0DC@JOKGMFFL@RMG?4objectGeneration?416?4?$CFd?4stat@ 1004593c     CreatureBanksExtender.obj
 0002:00008970       ??_C@_0CF@LHKPNHIP@RMG?4objectGeneration?416?4?$CFd?4isNo@ 10045970     CreatureBanksExtender.obj
 0002:0000899c       ??_7CreatureBanksExtender@cbanks@@6B@ 1004599c     CreatureBanksExtender.obj
 0002:000089c0       ??_C@_0N@CCNGHCGA@gazebo_?$CFd_?$CFd@ 100459c0     GazeboExtender.obj
 0002:000089d0       ??_C@_0CC@EFGNJAPE@EraPlugin?4GazeboExtender?4daemon@ 100459d0     GazeboExtender.obj
 0002:000089f4       ??_C@_0CM@OIOOCINP@RMG?4objectGeneration?4?$CFd?4?$CFd?4text@ 100459f4     GazeboExtender.obj
 0002:00008a24       ??_7GazeboExtender@gazebo@@6B@ 10045a24     GazeboExtender.obj
 0002:00008a48       ??_C@_0CD@HDGCDMOG@EraPlugin?4ShrinesExtender?4daemo@ 10045a48     ShrinesExternder.obj
 0002:00008a6c       ??_C@_0CA@KBCALOHK@RMG?4objectGeneration?488?4?$CFd?4name@ 10045a6c     ShrinesExternder.obj
 0002:00008a8c       ??_C@_0CA@LKELPOHM@RMG?4objectGeneration?488?4?$CFd?4hint@ 10045a8c     ShrinesExternder.obj
 0002:00008ab0       ??_7ShrinesExternder@shrines@@6B@ 10045ab0     ShrinesExternder.obj
 0002:00008ad8       ??_7WarehousesExtender@warehouses@@6B@ 10045ad8     WarehousesExtender.obj
 0002:00008afc       ??_C@_0CG@JLPFIJMD@EraPlugin?4WarehousesExtender?4da@ 10045afc     WarehousesExtender.obj
 0002:00008b24       ??_C@_0CF@FPLPOOGM@RMG?4objectGeneration?4?$CFd?4text?4vi@ 10045b24     WarehousesExtender.obj
 0002:00008b4c       ??_C@_0CD@ILIKKJEH@RMG?4objectGeneration?4?$CFd?4text?4vi@ 10045b4c     WarehousesExtender.obj
 0002:00008b70       ??_C@_0BB@JEJHMAMA@wateringPlace_?$CFd@ 10045b70     WateringPlaceExtender.obj
 0002:00008b84       ??_C@_0L@CIOEKIFC@OnEveryDay@ 10045b84     WateringPlaceExtender.obj
 0002:00008b90       ??_C@_0CE@NGCKNHBN@RMG?4objectGeneration?4?$CFd?4?$CFd?4opti@ 10045b90     WoGObjectsExtender.obj
 0002:00008bb4       ??_C@_0CH@JGKGPKDO@EraPlugin?4WoGObjectsExternder?4d@ 10045bb4     WoGObjectsExtender.obj
 0002:00008be0       ??_7WoGObjectsExtender@wog@@6B@ 10045be0     WoGObjectsExtender.obj
 0002:00008c04       ??_C@_02LMMGGCAJ@?3?5@     10045c04     ObjectsExtender.obj
 0002:00008c08       ??_C@_08LLGCOLLL@iostream@ 10045c08     ObjectsExtender.obj
 0002:00008c14       ??_C@_08EPJLHIJG@bad?5cast@ 10045c14     ObjectsExtender.obj
 0002:00008c20       ??_C@_0BA@ELKIONDK@bad?5locale?5name@ 10045c20     ObjectsExtender.obj
 0002:00008c30       ??_C@_00CNPNBAHC@@         10045c30     ObjectsExtender.obj
 0002:00008c34       ??_C@_0BF@PHHKMMFD@ios_base?3?3badbit?5set@ 10045c34     ObjectsExtender.obj
 0002:00008c4c       ??_C@_0BG@FMKFHCIL@ios_base?3?3failbit?5set@ 10045c4c     ObjectsExtender.obj
 0002:00008c64       ??_C@_0BF@OOHOMBOF@ios_base?3?3eofbit?5set@ 10045c64     ObjectsExtender.obj
 0002:00008c7c       ??_C@_07NHACFJOP@vfs?4dll@ 10045c7c     ObjectsExtender.obj
 0002:00008c84       ??_C@_0BD@FCALFDFE@GetMappingsReportA@ 10045c84     ObjectsExtender.obj
 0002:00008c98       ??_C@_06PBPIOKIF@$?5?$DM?$DN?5$@ 10045c98     ObjectsExtender.obj
 0002:00008ca0       ??_C@_01OHGJGJJP@?$FL@     10045ca0     ObjectsExtender.obj
 0002:00008ca4       ??_C@_0CJ@ICHIANEC@RMG?4objectGeneration?4?$CFd?4?$CFd?4prop@ 10045ca4     ObjectsExtender.obj
 0002:00008cd0       ??_C@_0BF@LOOGGPGL@RMG?4?$CFs?4properties?4?$CFd@ 10045cd0     ObjectsExtender.obj
 0002:00008ce8       ??_C@_0BO@JCBLFBPE@RMG?4objectGeneration?4?$CFd?4value@ 10045ce8     ObjectsExtender.obj
 0002:00008d08       ??_C@_0CA@IDDGCMKF@RMG?4objectGeneration?4?$CFd?4density@ 10045d08     ObjectsExtender.obj
 0002:00008d28       ??_C@_0CD@BLMPJIPF@RMG?4objectGeneration?4?$CFd?4sound?4l@ 10045d28     ObjectsExtender.obj
 0002:00008d4c       ??_C@_0CB@DPHMAGM@RMG?4objectGeneration?4?$CFd?4?$CFd?4valu@ 10045d4c     ObjectsExtender.obj
 0002:00008d70       ??_C@_0CD@LNKGBOIJ@RMG?4objectGeneration?4?$CFd?4?$CFd?4dens@ 10045d70     ObjectsExtender.obj
 0002:00008d94       ??_C@_0CG@DHOHOAHK@RMG?4objectGeneration?4?$CFd?4?$CFd?4soun@ 10045d94     ObjectsExtender.obj
 0002:00008dbc       ??_C@_0BI@CFPLBAOH@invalid?5string?5position@ 10045dbc     ObjectsExtender.obj
 0002:00008dd8       ??_7?$basic_streambuf@DU?$char_traits@D@std@@@std@@6B@ 10045dd8     ObjectsExtender.obj
 0002:00008e14       ?_Iostream_error@?4??message@_Iostream_error_category2@std@@UBE?AV?$basic_string@DU?$char_traits@D@std@@V?$allocator@D@2@@3@H@Z@4QBDB 10045e14     ObjectsExtender.obj
 0002:00008e30       ??_7ios_base@std@@6B@      10045e30     ObjectsExtender.obj
 0002:00008e38       ??_7?$basic_ios@DU?$char_traits@D@std@@@std@@6B@ 10045e38     ObjectsExtender.obj
 0002:00008e40       ??_7ObjectsExtender@extender@@6B@ 10045e40     ObjectsExtender.obj
 0002:00008e68       ??_7?$basic_stringbuf@DU?$char_traits@D@std@@V?$allocator@D@2@@std@@6B@ 10045e68     ObjectsExtender.obj
 0002:00008ea8       ??_7?$basic_istream@DU?$char_traits@D@std@@@std@@6B@ 10045ea8     ObjectsExtender.obj
 0002:00008eac       ??_8?$basic_istringstream@DU?$char_traits@D@std@@V?$allocator@D@2@@std@@7B@ 10045eac     ObjectsExtender.obj
 0002:00008eb8       ??_7?$basic_istringstream@DU?$char_traits@D@std@@V?$allocator@D@2@@std@@6B@ 10045eb8     ObjectsExtender.obj
 0002:00008ebc       ??_C@_07MHHIKOPA@enabled@  10045ebc     RMGObjectsEditor.obj
 0002:00008ec4       ??_C@_03HBNNNHNM@map@      10045ec4     RMGObjectsEditor.obj
 0002:00008ec8       ??_C@_04LDDJGOBB@zone@     10045ec8     RMGObjectsEditor.obj
 0002:00008ed0       ??_C@_05MFEJDJP@value@     10045ed0     RMGObjectsEditor.obj
 0002:00008ed8       ??_C@_07HAFFKDBK@density@  10045ed8     RMGObjectsEditor.obj
 0002:00008ee0       ??_C@_0CL@BKBOHCBN@Runtime?1RMG_CustomizeObjectsPro@ 10045ee0     RMGObjectsEditor.obj
 0002:00008f0c       ??_C@_08MHAGGLPG@?$CFd_?$CFd_?$CFd@ 10045f0c     RMGObjectsEditor.obj
 0002:00008f18       ??_C@_0BL@MLLECAFL@RMG?4objectGeneration?4?$CFd?4?$CFs@ 10045f18     RMGObjectsEditor.obj
 0002:00008f34       ??_C@_0BO@JBNIKPAM@RMG?4objectGeneration?4?$CFd?4?$CFd?4?$CFs@ 10045f34     RMGObjectsEditor.obj
 0002:00008f54       ??_C@_0M@IDKLKEPG@DlgSettings@ 10045f54     RMGObjectsEditor.obj
 0002:00008f60       ??_C@_0CE@JNCCGFFC@EraPlugin?4RMG?4ObjectEditor?4daem@ 10045f60     RMGObjectsEditor.obj
 0002:00008f84       ??_C@_0N@OPCJEEAC@alwaysRandom@ 10045f84     RMGObjectsEditor.obj
 0002:00008f98       ??_7RMGObjectsEditor@editor@@6B@ 10045f98     RMGObjectsEditor.obj
 0002:00008fa0       ?PROPERTY_NAMES@RMGObjectInfo@@2QBQBDB 10045fa0     RMGObjectsEditor.obj
 0002:00008fb4       ??_C@_0N@IOPNELGI@RMG_back?4pcx@ 10045fb4     RMG_SettingsDlg.obj
 0002:00008fc4       ??_C@_0N@FCBEPOJK@RMG_cncl?4def@ 10045fc4     RMG_SettingsDlg.obj
 0002:00008fd4       ??_C@_06JDKABGKH@cancel@   10045fd4     RMG_SettingsDlg.obj
 0002:00008fdc       ??_C@_0N@DIEEIBOL@RMG_okay?4def@ 10045fdc     RMG_SettingsDlg.obj
 0002:00008fec       ??_C@_02MFDMBIJM@ok@       10045fec     RMG_SettingsDlg.obj
 0002:00008ff0       ??_C@_0N@PMFNHIPJ@RMG_dflt?4def@ 10045ff0     RMG_SettingsDlg.obj
 0002:00009000       ??_C@_07DLHCIBDH@default@  10046000     RMG_SettingsDlg.obj
 0002:00009008       ??_C@_0M@LFBJAHMC@RanRand?4def@ 10046008     RMG_SettingsDlg.obj
 0002:00009014       ??_C@_06NLFCANPD@random@   10046014     RMG_SettingsDlg.obj
 0002:0000901c       ??_C@_0N@PHHMOBI@RMG_help?4def@ 1004601c     RMG_SettingsDlg.obj
 0002:0000902c       ??_C@_04PCJFHION@help@     1004602c     RMG_SettingsDlg.obj
 0002:00009034       ??_C@_0BM@PLGPGLFG@RMG?4text?4dlg?4buttons?4?$CFs?4rmc@ 10046034     RMG_SettingsDlg.obj
 0002:00009050       ??_C@_0BN@GEEKKMHP@RMG?4text?4dlg?4buttons?4?$CFs?4hint@ 10046050     RMG_SettingsDlg.obj
 0002:00009070       ??_C@_0BL@PGFBCEPO@RMG?4text?4dlg?4pages?4?$CFd?4name@ 10046070     RMG_SettingsDlg.obj
 0002:0000908c       ??_C@_0N@EPKFOFH@RMGmenbt?4def@ 1004608c     RMG_SettingsDlg.obj
 0002:0000909c       ??_C@_0BK@FIIMAMMP@RMG?4text?4dlg?4pages?4?$CFd?4rmc@ 1004609c     RMG_SettingsDlg.obj
 0002:000090b8       ??_C@_0BL@ONDKGEPI@RMG?4text?4dlg?4pages?4?$CFd?4hint@ 100460b8     RMG_SettingsDlg.obj
 0002:000090d4       ??_C@_0N@HJMAFJEP@rmghntbr?4pcx@ 100460d4     RMG_SettingsDlg.obj
 0002:000090e4       ??_C@_0BP@OHJKPKFO@RMG?4text?4dlg?4buttons?4help?4help@ 100460e4     RMG_SettingsDlg.obj
 0002:00009104       ??_C@_0BL@MAAEMKCK@RMG?4text?4dlg?4pages?4?$CFd?4help@ 10046104     RMG_SettingsDlg.obj
 0002:00009120       ??_C@_0BM@HILNFCFM@RMG?4text?4dlg?4notImplemented@ 10046120     RMG_SettingsDlg.obj
 0002:0000913c       ??_C@_0BG@OALOHHGG@RMG?4text?4dlg?4iniError@ 1004613c     RMG_SettingsDlg.obj
 0002:00009154       ??_C@_0L@KIOKMEBA@lastPageId@ 10046154     RMG_SettingsDlg.obj
 0002:00009160       ??_C@_0N@KKELLMCE@RMG_chbx?4def@ 10046160     RMG_SettingsDlg.obj
 0002:00009170       ??_C@_0CH@FDIOKPGC@RMG?4text?4dlg?4objectPanel?4checkb@ 10046170     RMG_SettingsDlg.obj
 0002:00009198       ??_C@_0N@PEIMMHMF@RMG_edit?4pcx@ 10046198     RMG_SettingsDlg.obj
 0002:000091a8       ??_C@_0N@PIGHFCLA@RMG_dfmn?4def@ 100461a8     RMG_SettingsDlg.obj
 0002:000091b8       ??_C@_0CF@KOLDFEEP@RMG?4text?4dlg?4objectPanel?4defaul@ 100461b8     RMG_SettingsDlg.obj
 0002:000091e0       ??_C@_0CG@HENIIA@RMG?4text?4dlg?4objectPanel?4defaul@ 100461e0     RMG_SettingsDlg.obj
 0002:00009208       ??_C@_0BC@EIKHJJKL@?$HL?$HO?$DO?$CFs?30?3?$CFd?5block?$HN@ 10046208     RMG_SettingsDlg.obj
 0002:0000921c       ??_C@_08GAJBFAKI@?5?$CI?$CFd?1?$CFd?$CJ@ 1004621c     RMG_SettingsDlg.obj
 0002:00009228       ??_C@_07CPCPJPKL@version@  10046228     RMG_SettingsDlg.obj
 0002:00009230       ??_C@_0BM@EAMBDDNG@RMG?4text?4dlg?4header?4?$CFd?4name@ 10046230     RMG_SettingsDlg.obj
 0002:0000924c       ??_C@_07JMKCEEPK@?$CFs?5?$CI?$CFd?$CJ@ 1004624c     RMG_SettingsDlg.obj
 0002:00009254       ??_C@_0BL@KOLGBJPA@RMG?4text?4dlg?4header?4?$CFd?4rmc@ 10046254     RMG_SettingsDlg.obj
 0002:00009270       ??_C@_0BM@FLKKHDNA@RMG?4text?4dlg?4header?4?$CFd?4hint@ 10046270     RMG_SettingsDlg.obj
 0002:0000928c       ??_C@_0BD@KDFEKPLC@RMG?4text?4seed?4edit@ 1004628c     RMG_SettingsDlg.obj
 0002:000092a0       ??_C@_0BN@GOJDLJNJ@RMG?4text?4buttons?4random?4help@ 100462a0     RMG_SettingsDlg.obj
 0002:000092c0       ??_C@_0P@PFNDCDKB@RMG?4text?4title@ 100462c0     RMG_SettingsDlg.obj
 0002:000092d0       ??_C@_0BM@LFAKAJM@RMG?4text?4buttons?4setup?4name@ 100462d0     RMG_SettingsDlg.obj
 0002:000092ec       ??_C@_0BL@DLPBBENF@RMG?4text?4buttons?4setup?4rmc@ 100462ec     RMG_SettingsDlg.obj
 0002:00009308       ??_C@_0N@JJEOEJCB@RMG_Dice?4def@ 10046308     RMG_SettingsDlg.obj
 0002:00009318       ??_C@_0BM@BOJFLFCH@RMG?4text?4buttons?4random?4rmc@ 10046318     RMG_SettingsDlg.obj
 0002:00009334       ??_C@_0BE@LNBKHBOI@RMG?4text?4seed?4title@ 10046334     RMG_SettingsDlg.obj
 0002:00009348       ??_C@_0N@KLPIICLK@rmg_sedt?4pcx@ 10046348     RMG_SettingsDlg.obj
 0002:00009358       ??_C@_0BC@IHDHMPGE@RMG?4text?4seed?4rmc@ 10046358     RMG_SettingsDlg.obj
 0002:0000936c       ??_C@_0L@HPIELNIB@HD_WOG?4dll@ 1004636c     RMG_SettingsDlg.obj
 0002:0000937c       ??_7Page@RMG_SettingsDlg@rmgdlg@@6B@ 1004637c     RMG_SettingsDlg.obj
 0002:0000939c       ??_7MiscPage@RMG_SettingsDlg@rmgdlg@@6B@ 1004639c     RMG_SettingsDlg.obj
 0002:000093c0       ??_7H3Dlg@h3@@6B@          100463c0     RMG_SettingsDlg.obj
 0002:00009444       ??_7ObjectsPage@RMG_SettingsDlg@rmgdlg@@6B@ 10046444     RMG_SettingsDlg.obj
 0002:00009468       ??_7RMG_SettingsDlg@rmgdlg@@6B@ 10046468     RMG_SettingsDlg.obj
 0002:000094f0       ??_7ObjectsPanel@RMG_SettingsDlg@rmgdlg@@6B@ 100464f0     RMG_SettingsDlg.obj
 0002:000094f8       ??_7BanksPage@RMG_SettingsDlg@rmgdlg@@6B@ 100464f8     RMG_SettingsDlg.obj
 0002:00009518       __real@3fc5555555555555    10046518     DrawPcx16ResizedBicubic.obj
 0002:00009520       __real@3fe0000000000000    10046520     DrawPcx16ResizedBicubic.obj
 0002:00009528       __real@3ff0000000000000    10046528     DrawPcx16ResizedBicubic.obj
 0002:00009530       __real@4000000000000000    10046530     DrawPcx16ResizedBicubic.obj
 0002:00009538       __real@4010000000000000    10046538     DrawPcx16ResizedBicubic.obj
 0002:00009540       __real@4018000000000000    10046540     DrawPcx16ResizedBicubic.obj
 0002:00009548       __real@4046000000000000    10046548     RMG_SettingsDlg.obj
 0002:00009550       __real@408f400000000000    10046550     GazeboExtender.obj
 0002:00009558       __real@44fa0000            10046558     GazeboExtender.obj
 0002:00009560       __xmm@00000000000000000000000000000023 10046560     RMG_SettingsDlg.obj
 0002:00009570       __xmm@00000000000000010000000000000013 10046570     RMG_SettingsDlg.obj
 0002:00009580       __xmm@00000000000000010000000000000020 10046580     RMG_SettingsDlg.obj
 0002:00009590       __xmm@00000000000000010000001f00000001 10046590     RMG_SettingsDlg.obj
 0002:000095a0       __xmm@0000000000000001000000390000001c 100465a0     RMG_SettingsDlg.obj
 0002:000095b0       __xmm@00000005000000050000001400000010 100465b0     RMG_SettingsDlg.obj
 0002:000095c0       __xmm@0000000e0000000d0000000700000004 100465c0     RMG_SettingsDlg.obj
 0002:000095d0       __xmm@0000001f0000001e0000003d00000033 100465d0     RMG_SettingsDlg.obj
 0002:000095e0       __xmm@000000200000001c0000001700000016 100465e0     RMG_SettingsDlg.obj
 0002:000095f0       __xmm@000000310000002f0000002900000026 100465f0     RMG_SettingsDlg.obj
 0002:00009600       __xmm@00000037000000300000002700000023 10046600     RMG_SettingsDlg.obj
 0002:00009610       __xmm@0000003c0000003a0000003900000038 10046610     RMG_SettingsDlg.obj
 0002:00009620       __xmm@0000004100000041000000ee00000041 10046620     RMG_SettingsDlg.obj
 0002:00009630       __xmm@00000053000000510000004e00000040 10046630     RMG_SettingsDlg.obj
 0002:00009640       __xmm@00000054000000190000001800000010 10046640     RMG_SettingsDlg.obj
 0002:00009650       __xmm@0000005c0000005a0000005900000058 10046650     RMG_SettingsDlg.obj
 0002:00009660       __xmm@00000061000000600000005f0000005e 10046660     RMG_SettingsDlg.obj
 0002:00009670       __xmm@00000068000000660000006400000063 10046670     RMG_SettingsDlg.obj
 0002:00009680       __xmm@0000006c0000006b0000006a00000069 10046680     RMG_SettingsDlg.obj
 0002:00009690       __xmm@00000071000000700000006e0000006d 10046690     RMG_SettingsDlg.obj
 0002:000096a0       __xmm@0000009200000091000000900000008e 100466a0     RMG_SettingsDlg.obj
 0002:000096b0       __xmm@000001c20000015e0000005800000014 100466b0     RMG_SettingsDlg.obj
 0002:000096c0       __xmm@41f00000000000000000000000000000 100466c0     RMGObjectsEditor.obj
 0002:00009704       ??_7bad_typeid@std@@6B@    10046704     libvcruntime:rtti.obj
 0002:00009710       ??_7__non_rtti_object@std@@6B@ 10046710     libvcruntime:rtti.obj
 0002:00009718       ??_C@_0CB@CGKGGDFI@Access?5violation?5?9?5no?5RTTI?5data@ 10046718     libvcruntime:rtti.obj
 0002:0000973c       ??_C@_0BC@JNJNLHBP@Bad?5dynamic_cast?$CB@ 1004673c     libvcruntime:rtti.obj
 0002:00009750       __load_config_used         10046750     LIBCMT:loadcfg.obj
 0002:00009880       __tls_used                 10046880     LIBCMT:tlssup.obj
 0002:00009898       ??_R4logic_error@std@@6B@  10046898     libcpmt:xthrow.obj
 0002:000098ac       ??_R3logic_error@std@@8    100468ac     libcpmt:xthrow.obj
 0002:000098bc       ??_R2logic_error@std@@8    100468bc     libcpmt:xthrow.obj
 0002:000098c8       ??_R1A@?0A@EA@logic_error@std@@8 100468c8     libcpmt:xthrow.obj
 0002:000098e4       ??_R4length_error@std@@6B@ 100468e4     libcpmt:xthrow.obj
 0002:000098f8       ??_R3length_error@std@@8   100468f8     libcpmt:xthrow.obj
 0002:00009908       ??_R2length_error@std@@8   10046908     libcpmt:xthrow.obj
 0002:00009918       ??_R1A@?0A@EA@length_error@std@@8 10046918     libcpmt:xthrow.obj
 0002:00009934       ??_R4out_of_range@std@@6B@ 10046934     libcpmt:xthrow.obj
 0002:00009948       ??_R3out_of_range@std@@8   10046948     libcpmt:xthrow.obj
 0002:00009958       ??_R2out_of_range@std@@8   10046958     libcpmt:xthrow.obj
 0002:00009968       ??_R1A@?0A@EA@out_of_range@std@@8 10046968     libcpmt:xthrow.obj
 0002:00009984       ??_R4_Locimp@locale@std@@6B@ 10046984     libcpmt:locale0.obj
 0002:00009998       ??_R3_Locimp@locale@std@@8 10046998     libcpmt:locale0.obj
 0002:000099a8       ??_R2_Locimp@locale@std@@8 100469a8     libcpmt:locale0.obj
 0002:000099bc       ??_R1A@?0A@EA@_Locimp@locale@std@@8 100469bc     libcpmt:locale0.obj
 0002:000099d8       ??_R4_Generic_error_category@std@@6B@ 100469d8     libcpmt:thread0.obj
 0002:000099ec       ??_R3_Generic_error_category@std@@8 100469ec     libcpmt:thread0.obj
 0002:000099fc       ??_R2_Generic_error_category@std@@8 100469fc     libcpmt:thread0.obj
 0002:00009a08       ??_R1A@?0A@EA@_Generic_error_category@std@@8 10046a08     libcpmt:thread0.obj
 0002:00009a24       ??_R4type_info@@6B@        10046a24     LIBCMT:std_type_info_static.obj
 0002:00009a38       ??_R3type_info@@8          10046a38     LIBCMT:std_type_info_static.obj
 0002:00009a48       ??_R2type_info@@8          10046a48     LIBCMT:std_type_info_static.obj
 0002:00009a50       ??_R1A@?0A@EA@type_info@@8 10046a50     LIBCMT:std_type_info_static.obj
 0002:00009a6c       ??_R4bad_exception@std@@6B@ 10046a6c     libvcruntime:frame.obj
 0002:00009a80       ??_R3bad_exception@std@@8  10046a80     libvcruntime:frame.obj
 0002:00009a90       ??_R2bad_exception@std@@8  10046a90     libvcruntime:frame.obj
 0002:00009a9c       ??_R1A@?0A@EA@bad_exception@std@@8 10046a9c     libvcruntime:frame.obj
 0002:00009ab8       ??_R4exception@std@@6B@    10046ab8     era.obj
 0002:00009acc       ??_R2bad_array_new_length@std@@8 10046acc     era.obj
 0002:00009adc       ??_R2bad_alloc@std@@8      10046adc     era.obj
 0002:00009ae8       ??_R1A@?0A@EA@exception@std@@8 10046ae8     era.obj
 0002:00009b04       ??_R1A@?0A@EA@bad_alloc@std@@8 10046b04     era.obj
 0002:00009b20       ??_R2exception@std@@8      10046b20     era.obj
 0002:00009b28       ??_R3exception@std@@8      10046b28     era.obj
 0002:00009b38       ??_R4bad_alloc@std@@6B@    10046b38     era.obj
 0002:00009b4c       ??_R3bad_array_new_length@std@@8 10046b4c     era.obj
 0002:00009b5c       ??_R3bad_alloc@std@@8      10046b5c     era.obj
 0002:00009b6c       ??_R4bad_array_new_length@std@@6B@ 10046b6c     era.obj
 0002:00009b80       ??_R1A@?0A@EA@bad_array_new_length@std@@8 10046b80     era.obj
 0002:00009b9c       ??_R3ColosseumOfTheMagiExtender@colosseumOfTheMagi@@8 10046b9c     ColosseumOfTheMagiExtender.obj
 0002:00009bac       ??_R1A@?0A@EA@IGamePatch@@8 10046bac     ColosseumOfTheMagiExtender.obj
 0002:00009bc8       ??_R2ColosseumOfTheMagiExtender@colosseumOfTheMagi@@8 10046bc8     ColosseumOfTheMagiExtender.obj
 0002:00009bd8       ??_R2IGamePatch@@8         10046bd8     ColosseumOfTheMagiExtender.obj
 0002:00009be0       ??_R1A@?0A@EA@ColosseumOfTheMagiExtender@colosseumOfTheMagi@@8 10046be0     ColosseumOfTheMagiExtender.obj
 0002:00009bfc       ??_R3IGamePatch@@8         10046bfc     ColosseumOfTheMagiExtender.obj
 0002:00009c0c       ??_R4ColosseumOfTheMagiExtender@colosseumOfTheMagi@@6B@ 10046c0c     ColosseumOfTheMagiExtender.obj
 0002:00009c20       ??_R1A@?0A@EA@ObjectsExtender@extender@@8 10046c20     ColosseumOfTheMagiExtender.obj
 0002:00009c3c       ??_R3ObjectsExtender@extender@@8 10046c3c     ColosseumOfTheMagiExtender.obj
 0002:00009c4c       ??_R2ObjectsExtender@extender@@8 10046c4c     ColosseumOfTheMagiExtender.obj
 0002:00009c58       ??_R4CreatureBanksExtender@cbanks@@6B@ 10046c58     CreatureBanksExtender.obj
 0002:00009c6c       ??_R3CreatureBanksExtender@cbanks@@8 10046c6c     CreatureBanksExtender.obj
 0002:00009c7c       ??_R1A@?0A@EA@CreatureBanksExtender@cbanks@@8 10046c7c     CreatureBanksExtender.obj
 0002:00009c98       ??_R2CreatureBanksExtender@cbanks@@8 10046c98     CreatureBanksExtender.obj
 0002:00009ca8       ??_R2GazeboExtender@gazebo@@8 10046ca8     GazeboExtender.obj
 0002:00009cb8       ??_R4GazeboExtender@gazebo@@6B@ 10046cb8     GazeboExtender.obj
 0002:00009ccc       ??_R1A@?0A@EA@GazeboExtender@gazebo@@8 10046ccc     GazeboExtender.obj
 0002:00009ce8       ??_R3GazeboExtender@gazebo@@8 10046ce8     GazeboExtender.obj
 0002:00009cf8       ??_R3ShrinesExternder@shrines@@8 10046cf8     ShrinesExternder.obj
 0002:00009d08       ??_R1A@?0A@EA@ShrinesExternder@shrines@@8 10046d08     ShrinesExternder.obj
 0002:00009d24       ??_R2ShrinesExternder@shrines@@8 10046d24     ShrinesExternder.obj
 0002:00009d34       ??_R4ShrinesExternder@shrines@@6B@ 10046d34     ShrinesExternder.obj
 0002:00009d48       ??_R1A@?0A@EA@WarehousesExtender@warehouses@@8 10046d48     WarehousesExtender.obj
 0002:00009d64       ??_R3WarehousesExtender@warehouses@@8 10046d64     WarehousesExtender.obj
 0002:00009d74       ??_R2WarehousesExtender@warehouses@@8 10046d74     WarehousesExtender.obj
 0002:00009d84       ??_R4WarehousesExtender@warehouses@@6B@ 10046d84     WarehousesExtender.obj
 0002:00009d98       ??_R2WoGObjectsExtender@wog@@8 10046d98     WoGObjectsExtender.obj
 0002:00009da8       ??_R3WoGObjectsExtender@wog@@8 10046da8     WoGObjectsExtender.obj
 0002:00009db8       ??_R4WoGObjectsExtender@wog@@6B@ 10046db8     WoGObjectsExtender.obj
 0002:00009dcc       ??_R1A@?0A@EA@WoGObjectsExtender@wog@@8 10046dcc     WoGObjectsExtender.obj
 0002:00009de8       ??_R3?$basic_istream@DU?$char_traits@D@std@@@std@@8 10046de8     ObjectsExtender.obj
 0002:00009df8       ??_R1A@?0A@EA@?$basic_istringstream@DU?$char_traits@D@std@@V?$allocator@D@2@@std@@8 10046df8     ObjectsExtender.obj
 0002:00009e14       ??_R2?$basic_istringstream@DU?$char_traits@D@std@@V?$allocator@D@2@@std@@8 10046e14     ObjectsExtender.obj
 0002:00009e2c       ??_R2system_error@std@@8   10046e2c     ObjectsExtender.obj
 0002:00009e40       ??_R1A@?0A@EA@system_error@std@@8 10046e40     ObjectsExtender.obj
 0002:00009e5c       ??_R3?$ctype@D@std@@8      10046e5c     ObjectsExtender.obj
 0002:00009e6c       ??_R1A@?0A@EA@?$basic_istream@DU?$char_traits@D@std@@@std@@8 10046e6c     ObjectsExtender.obj
 0002:00009e88       ??_R4runtime_error@std@@6B@ 10046e88     ObjectsExtender.obj
 0002:00009e9c       ??_R4_System_error@std@@6B@ 10046e9c     ObjectsExtender.obj
 0002:00009eb0       ??_R3_Facet_base@std@@8    10046eb0     ObjectsExtender.obj
 0002:00009ec0       ??_R1A@?0A@EA@bad_cast@std@@8 10046ec0     ObjectsExtender.obj
 0002:00009edc       ??_R4ObjectsExtender@extender@@6B@ 10046edc     ObjectsExtender.obj
 0002:00009ef0       ??_R2?$basic_stringbuf@DU?$char_traits@D@std@@V?$allocator@D@2@@std@@8 10046ef0     ObjectsExtender.obj
 0002:00009efc       ??_R3_Crt_new_delete@std@@8 10046efc     ObjectsExtender.obj
 0002:00009f0c       ??_R1A@?0A@EA@runtime_error@std@@8 10046f0c     ObjectsExtender.obj
 0002:00009f28       ??_R2_System_error@std@@8  10046f28     ObjectsExtender.obj
 0002:00009f38       ??_R13?0A@EA@_Crt_new_delete@std@@8 10046f38     ObjectsExtender.obj
 0002:00009f54       ??_R17A@3EA@?$_Iosb@H@std@@8 10046f54     ObjectsExtender.obj
 0002:00009f70       ??_R4ios_base@std@@6B@     10046f70     ObjectsExtender.obj
 0002:00009f84       ??_R4system_error@std@@6B@ 10046f84     ObjectsExtender.obj
 0002:00009f98       ??_R1A@?0A@EA@?$basic_streambuf@DU?$char_traits@D@std@@@std@@8 10046f98     ObjectsExtender.obj
 0002:00009fb4       ??_R1A@?0A@EA@_Facet_base@std@@8 10046fb4     ObjectsExtender.obj
 0002:00009fd0       ??_R2?$basic_istream@DU?$char_traits@D@std@@@std@@8 10046fd0     ObjectsExtender.obj
 0002:00009fe4       ??_R3_System_error@std@@8  10046fe4     ObjectsExtender.obj
 0002:00009ff4       ??_R4?$basic_ios@DU?$char_traits@D@std@@@std@@6B@ 10046ff4     ObjectsExtender.obj
 0002:0000a008       ??_R3?$basic_stringbuf@DU?$char_traits@D@std@@V?$allocator@D@2@@std@@8 10047008     ObjectsExtender.obj
 0002:0000a018       ??_R2bad_cast@std@@8       10047018     ObjectsExtender.obj
 0002:0000a024       ??_R4failure@ios_base@std@@6B@ 10047024     ObjectsExtender.obj
 0002:0000a038       ??_R3?$basic_ios@DU?$char_traits@D@std@@@std@@8 10047038     ObjectsExtender.obj
 0002:0000a048       ??_R4_Iostream_error_category2@std@@6B@ 10047048     ObjectsExtender.obj
 0002:0000a05c       ??_R3?$basic_istringstream@DU?$char_traits@D@std@@V?$allocator@D@2@@std@@8 1004705c     ObjectsExtender.obj
 0002:0000a06c       ??_R2error_category@std@@8 1004706c     ObjectsExtender.obj
 0002:0000a074       ??_R1A@?0A@EA@_Iostream_error_category2@std@@8 10047074     ObjectsExtender.obj
 0002:0000a090       ??_R1A@?0A@EA@facet@locale@std@@8 10047090     ObjectsExtender.obj
 0002:0000a0ac       ??_R2failure@ios_base@std@@8 100470ac     ObjectsExtender.obj
 0002:0000a0c4       ??_R3failure@ios_base@std@@8 100470c4     ObjectsExtender.obj
 0002:0000a0d4       ??_R2?$ctype@D@std@@8      100470d4     ObjectsExtender.obj
 0002:0000a0ec       ??_R1A@?0A@EA@ios_base@std@@8 100470ec     ObjectsExtender.obj
 0002:0000a108       ??_R1A@?0A@EA@failure@ios_base@std@@8 10047108     ObjectsExtender.obj
 0002:0000a124       ??_R2?$basic_streambuf@DU?$char_traits@D@std@@@std@@8 10047124     ObjectsExtender.obj
 0002:0000a12c       ??_R1A@?0A@EA@?$_Iosb@H@std@@8 1004712c     ObjectsExtender.obj
 0002:0000a148       ??_R3facet@locale@std@@8   10047148     ObjectsExtender.obj
 0002:0000a158       ??_R1A@?0A@EA@?$basic_stringbuf@DU?$char_traits@D@std@@V?$allocator@D@2@@std@@8 10047158     ObjectsExtender.obj
 0002:0000a174       ??_R3ctype_base@std@@8     10047174     ObjectsExtender.obj
 0002:0000a184       ??_R1A@?0A@EA@_System_error@std@@8 10047184     ObjectsExtender.obj
 0002:0000a1a0       ??_R3bad_cast@std@@8       100471a0     ObjectsExtender.obj
 0002:0000a1b0       ??_R3error_category@std@@8 100471b0     ObjectsExtender.obj
 0002:0000a1c0       ??_R4bad_cast@std@@6B@     100471c0     ObjectsExtender.obj
 0002:0000a1d4       ??_R1A@?0A@EA@_Crt_new_delete@std@@8 100471d4     ObjectsExtender.obj
 0002:0000a1f0       ??_R4?$basic_stringbuf@DU?$char_traits@D@std@@V?$allocator@D@2@@std@@6B@ 100471f0     ObjectsExtender.obj
 0002:0000a204       ??_R4_Facet_base@std@@6B@  10047204     ObjectsExtender.obj
 0002:0000a218       ??_R3_Iostream_error_category2@std@@8 10047218     ObjectsExtender.obj
 0002:0000a228       ??_R2runtime_error@std@@8  10047228     ObjectsExtender.obj
 0002:0000a234       ??_R1A@A@3FA@?$basic_ios@DU?$char_traits@D@std@@@std@@8 10047234     ObjectsExtender.obj
 0002:0000a250       ??_R4?$basic_streambuf@DU?$char_traits@D@std@@@std@@6B@ 10047250     ObjectsExtender.obj
 0002:0000a264       ??_R2ios_base@std@@8       10047264     ObjectsExtender.obj
 0002:0000a270       ??_R1A@?0A@EA@ctype_base@std@@8 10047270     ObjectsExtender.obj
 0002:0000a28c       ??_R2_Iostream_error_category2@std@@8 1004728c     ObjectsExtender.obj
 0002:0000a298       ??_R2_Crt_new_delete@std@@8 10047298     ObjectsExtender.obj
 0002:0000a2a0       ??_R4?$basic_istringstream@DU?$char_traits@D@std@@V?$allocator@D@2@@std@@6B@ 100472a0     ObjectsExtender.obj
 0002:0000a2b4       ??_R1A@?0A@EA@?$ctype@D@std@@8 100472b4     ObjectsExtender.obj
 0002:0000a2d0       ??_R3ios_base@std@@8       100472d0     ObjectsExtender.obj
 0002:0000a2e0       ??_R3?$basic_streambuf@DU?$char_traits@D@std@@@std@@8 100472e0     ObjectsExtender.obj
 0002:0000a2f0       ??_R2?$_Iosb@H@std@@8      100472f0     ObjectsExtender.obj
 0002:0000a2f8       ??_R3system_error@std@@8   100472f8     ObjectsExtender.obj
 0002:0000a308       ??_R1A@A@3EA@ios_base@std@@8 10047308     ObjectsExtender.obj
 0002:0000a324       ??_R1A@?0A@EA@?$basic_ios@DU?$char_traits@D@std@@@std@@8 10047324     ObjectsExtender.obj
 0002:0000a340       ??_R3?$_Iosb@H@std@@8      10047340     ObjectsExtender.obj
 0002:0000a350       ??_R2_Facet_base@std@@8    10047350     ObjectsExtender.obj
 0002:0000a358       ??_R2facet@locale@std@@8   10047358     ObjectsExtender.obj
 0002:0000a368       ??_R17?0A@EA@?$_Iosb@H@std@@8 10047368     ObjectsExtender.obj
 0002:0000a384       ??_R4?$ctype@D@std@@6B@    10047384     ObjectsExtender.obj
 0002:0000a398       ??_R4?$basic_istream@DU?$char_traits@D@std@@@std@@6B@ 10047398     ObjectsExtender.obj
 0002:0000a3ac       ??_R3runtime_error@std@@8  100473ac     ObjectsExtender.obj
 0002:0000a3bc       ??_R2?$basic_ios@DU?$char_traits@D@std@@@std@@8 100473bc     ObjectsExtender.obj
 0002:0000a3cc       ??_R2ctype_base@std@@8     100473cc     ObjectsExtender.obj
 0002:0000a3e0       ??_R1A@?0A@EA@error_category@std@@8 100473e0     ObjectsExtender.obj
 0002:0000a3fc       ??_R2RMGObjectsEditor@editor@@8 100473fc     RMGObjectsEditor.obj
 0002:0000a408       ??_R4RMGObjectsEditor@editor@@6B@ 10047408     RMGObjectsEditor.obj
 0002:0000a41c       ??_R1A@?0A@EA@RMGObjectsEditor@editor@@8 1004741c     RMGObjectsEditor.obj
 0002:0000a438       ??_R3RMGObjectsEditor@editor@@8 10047438     RMGObjectsEditor.obj
 0002:0000a448       ??_R3BanksPage@RMG_SettingsDlg@rmgdlg@@8 10047448     RMG_SettingsDlg.obj
 0002:0000a458       ??_R1A@?0A@EA@H3ExtendedDlg@h3@@8 10047458     RMG_SettingsDlg.obj
 0002:0000a474       ??_R13?0A@EA@H3Allocator@h3@@8 10047474     RMG_SettingsDlg.obj
 0002:0000a490       ??_R3H3BaseDlg@h3@@8       10047490     RMG_SettingsDlg.obj
 0002:0000a4a0       ??_R2H3NetworkDlg@h3@@8    100474a0     RMG_SettingsDlg.obj
 0002:0000a4b4       ??_R1A@?0A@EA@H3BaseDlg@h3@@8 100474b4     RMG_SettingsDlg.obj
 0002:0000a4d0       ??_R4MiscPage@RMG_SettingsDlg@rmgdlg@@6B@ 100474d0     RMG_SettingsDlg.obj
 0002:0000a4e4       ??_R1A@?0A@EA@BanksPage@RMG_SettingsDlg@rmgdlg@@8 100474e4     RMG_SettingsDlg.obj
 0002:0000a500       ??_R1A@?0A@EA@Page@RMG_SettingsDlg@rmgdlg@@8 10047500     RMG_SettingsDlg.obj
 0002:0000a51c       ??_R2H3BaseDlg@h3@@8       1004751c     RMG_SettingsDlg.obj
 0002:0000a528       ??_R2H3ExtendedDlg@h3@@8   10047528     RMG_SettingsDlg.obj
 0002:0000a538       ??_R4BanksPage@RMG_SettingsDlg@rmgdlg@@6B@ 10047538     RMG_SettingsDlg.obj
 0002:0000a54c       ??_R1A@?0A@EA@MiscPage@RMG_SettingsDlg@rmgdlg@@8 1004754c     RMG_SettingsDlg.obj
 0002:0000a568       ??_R3H3Dlg@h3@@8           10047568     RMG_SettingsDlg.obj
 0002:0000a578       ??_R4RMG_SettingsDlg@rmgdlg@@6B@ 10047578     RMG_SettingsDlg.obj
 0002:0000a58c       ??_R1A@?0A@EA@H3Dlg@h3@@8  1004758c     RMG_SettingsDlg.obj
 0002:0000a5a8       ??_R3RMG_SettingsDlg@rmgdlg@@8 100475a8     RMG_SettingsDlg.obj
 0002:0000a5b8       ??_R2Page@RMG_SettingsDlg@rmgdlg@@8 100475b8     RMG_SettingsDlg.obj
 0002:0000a5c0       ??_R2H3Allocator@h3@@8     100475c0     RMG_SettingsDlg.obj
 0002:0000a5c8       ??_R1A@?0A@EA@H3NetworkDlg@h3@@8 100475c8     RMG_SettingsDlg.obj
 0002:0000a5e4       ??_R3H3NetworkDlg@h3@@8    100475e4     RMG_SettingsDlg.obj
 0002:0000a5f4       ??_R4H3Dlg@h3@@6B@         100475f4     RMG_SettingsDlg.obj
 0002:0000a608       ??_R1A@?0A@EA@H3Allocator@h3@@8 10047608     RMG_SettingsDlg.obj
 0002:0000a624       ??_R2ObjectsPanel@RMG_SettingsDlg@rmgdlg@@8 10047624     RMG_SettingsDlg.obj
 0002:0000a62c       ??_R2MiscPage@RMG_SettingsDlg@rmgdlg@@8 1004762c     RMG_SettingsDlg.obj
 0002:0000a63c       ??_R1A@?0A@EA@RMG_SettingsDlg@rmgdlg@@8 1004763c     RMG_SettingsDlg.obj
 0002:0000a658       ??_R3ObjectsPanel@RMG_SettingsDlg@rmgdlg@@8 10047658     RMG_SettingsDlg.obj
 0002:0000a668       ??_R3H3ExtendedDlg@h3@@8   10047668     RMG_SettingsDlg.obj
 0002:0000a678       ??_R3H3Allocator@h3@@8     10047678     RMG_SettingsDlg.obj
 0002:0000a688       ??_R3Page@RMG_SettingsDlg@rmgdlg@@8 10047688     RMG_SettingsDlg.obj
 0002:0000a698       ??_R2RMG_SettingsDlg@rmgdlg@@8 10047698     RMG_SettingsDlg.obj
 0002:0000a6b4       ??_R2H3Dlg@h3@@8           100476b4     RMG_SettingsDlg.obj
 0002:0000a6cc       ??_R1A@?0A@EA@ObjectsPage@RMG_SettingsDlg@rmgdlg@@8 100476cc     RMG_SettingsDlg.obj
 0002:0000a6e8       ??_R2ObjectsPage@RMG_SettingsDlg@rmgdlg@@8 100476e8     RMG_SettingsDlg.obj
 0002:0000a6f4       ??_R4ObjectsPage@RMG_SettingsDlg@rmgdlg@@6B@ 100476f4     RMG_SettingsDlg.obj
 0002:0000a708       ??_R4ObjectsPanel@RMG_SettingsDlg@rmgdlg@@6B@ 10047708     RMG_SettingsDlg.obj
 0002:0000a71c       ??_R3ObjectsPage@RMG_SettingsDlg@rmgdlg@@8 1004771c     RMG_SettingsDlg.obj
 0002:0000a72c       ??_R3MiscPage@RMG_SettingsDlg@rmgdlg@@8 1004772c     RMG_SettingsDlg.obj
 0002:0000a73c       ??_R1A@?0A@EA@ObjectsPanel@RMG_SettingsDlg@rmgdlg@@8 1004773c     RMG_SettingsDlg.obj
 0002:0000a758       ??_R2BanksPage@RMG_SettingsDlg@rmgdlg@@8 10047758     RMG_SettingsDlg.obj
 0002:0000a768       ??_R4Page@RMG_SettingsDlg@rmgdlg@@6B@ 10047768     RMG_SettingsDlg.obj
 0002:0000a77c       ??_R4bad_typeid@std@@6B@   1004777c     libvcruntime:rtti.obj
 0002:0000a790       ??_R3bad_typeid@std@@8     10047790     libvcruntime:rtti.obj
 0002:0000a7a0       ??_R2bad_typeid@std@@8     100477a0     libvcruntime:rtti.obj
 0002:0000a7ac       ??_R1A@?0A@EA@bad_typeid@std@@8 100477ac     libvcruntime:rtti.obj
 0002:0000a7c8       ??_R4__non_rtti_object@std@@6B@ 100477c8     libvcruntime:rtti.obj
 0002:0000a7dc       ??_R3__non_rtti_object@std@@8 100477dc     libvcruntime:rtti.obj
 0002:0000a7ec       ??_R2__non_rtti_object@std@@8 100477ec     libvcruntime:rtti.obj
 0002:0000a7fc       ??_R1A@?0A@EA@__non_rtti_object@std@@8 100477fc     libvcruntime:rtti.obj
 0002:0000a818       ___safe_se_handler_table   10047818     <linker-defined>
 0002:0000aab0       ___volatile_metadata       10047ab0     <linker-defined>
 0002:0000afc8       ___rtc_iaa                 10047fc8     LIBCMT:initsect.obj
 0002:0000afcc       ___rtc_izz                 10047fcc     LIBCMT:initsect.obj
 0002:0000afd0       ___rtc_taa                 10047fd0     LIBCMT:initsect.obj
 0002:0000afd4       ___rtc_tzz                 10047fd4     LIBCMT:initsect.obj
 0002:0000afd8       __tls_start                10047fd8     LIBCMT:tlssup.obj
 0002:0000afdc       __Init_thread_epoch        10047fdc     LIBCMT:thread_safe_statics.obj
 0002:0000afe0       __tls_end                  10047fe0     LIBCMT:tlssup.obj
 0002:0000c458       __TI2?AVbad_alloc@std@@    10049458     libcpmt:xthrow.obj
 0002:0000c468       __CTA2?AVbad_alloc@std@@   10049468     libcpmt:xthrow.obj
 0002:0000c474       __CT??_R0?AVlogic_error@std@@@8??0logic_error@std@@QAE@ABV01@@Z12 10049474     libcpmt:xthrow.obj
 0002:0000c490       __TI3?AVlength_error@std@@ 10049490     libcpmt:xthrow.obj
 0002:0000c4a0       __CTA3?AVlength_error@std@@ 100494a0     libcpmt:xthrow.obj
 0002:0000c4b0       __CT??_R0?AVlength_error@std@@@8??0length_error@std@@QAE@ABV01@@Z12 100494b0     libcpmt:xthrow.obj
 0002:0000c4cc       __TI3?AVout_of_range@std@@ 100494cc     libcpmt:xthrow.obj
 0002:0000c4dc       __CTA3?AVout_of_range@std@@ 100494dc     libcpmt:xthrow.obj
 0002:0000c4ec       __CT??_R0?AVout_of_range@std@@@8??0out_of_range@std@@QAE@ABV01@@Z12 100494ec     libcpmt:xthrow.obj
 0002:0000c508       __TI2?AVruntime_error@std@@ 10049508     libcpmt:xthrow.obj
 0002:0000c518       __CTA2?AVruntime_error@std@@ 10049518     libcpmt:xthrow.obj
 0002:0000c57c       __TI4?AVsystem_error@std@@ 1004957c     libcpmt:thread0.obj
 0002:0000c58c       __CTA4?AVsystem_error@std@@ 1004958c     libcpmt:thread0.obj
 0002:0000c78c       __TI2?AVbad_exception@std@@ 1004978c     libvcruntime:frame.obj
 0002:0000c79c       __CTA2?AVbad_exception@std@@ 1004979c     libvcruntime:frame.obj
 0002:0000c7a8       __CT??_R0?AVbad_exception@std@@@8??0bad_exception@std@@QAE@ABV01@@Z12 100497a8     libvcruntime:frame.obj
 0002:0000cc4c       __CTA3?AVbad_array_new_length@std@@ 10049c4c     era.obj
 0002:0000cc5c       __CT??_R0?AVbad_alloc@std@@@8??0bad_alloc@std@@QAE@ABV01@@Z12 10049c5c     era.obj
 0002:0000cc78       __CT??_R0?AVexception@std@@@8??0exception@std@@QAE@ABV01@@Z12 10049c78     era.obj
 0002:0000cc94       __TI3?AVbad_array_new_length@std@@ 10049c94     era.obj
 0002:0000cca4       __CT??_R0?AVbad_array_new_length@std@@@8??0bad_array_new_length@std@@QAE@ABV01@@Z12 10049ca4     era.obj
 0002:0000ccc0       __CTA2?AVbad_cast@std@@    10049cc0     ObjectsExtender.obj
 0002:0000cccc       __CT??_R0?AVbad_cast@std@@@8??0bad_cast@std@@QAE@ABV01@@Z12 10049ccc     ObjectsExtender.obj
 0002:0000cce8       __CT??_R0?AVsystem_error@std@@@8??0system_error@std@@QAE@ABV01@@Z20 10049ce8     ObjectsExtender.obj
 0002:0000cd04       __TI2?AVbad_cast@std@@     10049d04     ObjectsExtender.obj
 0002:0000cd14       __CT??_R0?AVruntime_error@std@@@8??0runtime_error@std@@QAE@ABV01@@Z12 10049d14     ObjectsExtender.obj
 0002:0000cd30       __TI5?AVfailure@ios_base@std@@ 10049d30     ObjectsExtender.obj
 0002:0000cd40       __CTA5?AVfailure@ios_base@std@@ 10049d40     ObjectsExtender.obj
 0002:0000cd58       __CT??_R0?AV_System_error@std@@@8??0_System_error@std@@QAE@ABV01@@Z20 10049d58     ObjectsExtender.obj
 0002:0000cd74       __CT??_R0?AVfailure@ios_base@std@@@8??0failure@ios_base@std@@QAE@ABV012@@Z20 10049d74     ObjectsExtender.obj
 0002:0000e8ac       __TI3?AV__non_rtti_object@std@@ 1004b8ac     libvcruntime:rtti.obj
 0002:0000e8bc       __CTA3?AV__non_rtti_object@std@@ 1004b8bc     libvcruntime:rtti.obj
 0002:0000e8cc       __CT??_R0?AV__non_rtti_object@std@@@8??0__non_rtti_object@std@@QAE@ABV01@@Z12 1004b8cc     libvcruntime:rtti.obj
 0002:0000e8e8       __CT??_R0?AVbad_typeid@std@@@8??0bad_typeid@std@@QAE@ABV01@@Z12 1004b8e8     libvcruntime:rtti.obj
 0002:0000e980       __IMPORT_DESCRIPTOR_KERNEL32 1004b980     kernel32:KERNEL32.dll
 0002:0000e994       __NULL_IMPORT_DESCRIPTOR   1004b994     kernel32:KERNEL32.dll
 0003:00000004       ?_Sync@ios_base@std@@0_NA  1004d004     libcpmt:ios.obj
 0003:00000008       ?_Static@?1???$_Immortalize_memcpy_image@V_Generic_error_category@std@@@std@@YAABV_Generic_error_category@1@XZ@4V21@B 1004d008     libcpmt:thread0.obj
 0003:00000044       ___scrt_native_dllmain_reason 1004d044     LIBCMT:utility.obj
 0003:00000048       __Init_global_epoch        1004d048     LIBCMT:thread_safe_statics.obj
 0003:00000080       ___security_cookie         1004d080     LIBCMT:gs_cookie.obj
 0003:000000c0       ___security_cookie_complement 1004d0c0     LIBCMT:gs_cookie.obj
 0003:000000c8       ___isa_inverted            1004d0c8     LIBCMT:cpu_disp.obj
 0003:000000d0       ___isa_enabled             1004d0d0     LIBCMT:cpu_disp.obj
 0003:000000d4       __fltused                  1004d0d4     LIBCMT:fltused.obj
 0003:000000f0       __NLG_Destination          1004d0f0     libvcruntime:exsup.obj
 0003:00000100       __pctype                   1004d100     libucrt:ctype.obj
 0003:00000104       __pwctype                  1004d104     libucrt:ctype.obj
 0003:00000108       ___abort_behavior          1004d108     libucrt:abort.obj
 0003:00000120       ___acrt_lconv_c            1004d120     libucrt:localeconv.obj
 0003:00000170       ___acrt_lconv              1004d170     libucrt:localeconv.obj
 0003:00000174       ___acrt_lconv_static_decimal 1004d174     libucrt:localeconv.obj
 0003:00000178       ___acrt_lconv_static_W_decimal 1004d178     libucrt:localeconv.obj
 0003:00000180       __iob                      1004d180     libucrt:_file.obj
 0003:00000238       ___acrt_initial_locale_data 1004d238     libucrt:nlsdata.obj
 0003:000002f0       ___acrt_initial_locale_pointers 1004d2f0     libucrt:nlsdata.obj
 0003:000002f8       ___acrt_wide_c_locale_string 1004d2f8     libucrt:nlsdata.obj
 0003:000002fc       ___mb_cur_max              1004d2fc     libucrt:nlsdata.obj
 0003:00000300       ___globallocalestatus      1004d300     libucrt:glstatus.obj
 0003:00000498       ___acrt_initial_multibyte_data 1004d498     libucrt:mbctype.obj
 0003:000009c0       __lookuptrailbytes         1004d9c0     libucrt:read.obj
 0003:00000ad0       ?_Static@?1???$_Immortalize_memcpy_image@V_Iostream_error_category2@std@@@std@@YAABV_Iostream_error_category2@1@XZ@4U?$_Constexpr_immortalize_impl@V_Iostream_error_category2@std@@@1@A 1004dad0     ObjectsExtender.obj
 0003:00000ae0       ??_R0?AVlogic_error@std@@@8 1004dae0     libcpmt:xthrow.obj
 0003:00000b00       ??_R0?AVlength_error@std@@@8 1004db00     libcpmt:xthrow.obj
 0003:00000b20       ??_R0?AVout_of_range@std@@@8 1004db20     libcpmt:xthrow.obj
 0003:00000b40       ??_R0?AVbad_exception@std@@@8 1004db40     libvcruntime:frame.obj
 0003:00000b60       ??_R0?AVbad_alloc@std@@@8  1004db60     era.obj
 0003:00000b7c       ??_R0?AVexception@std@@@8  1004db7c     era.obj
 0003:00000b98       ??_R0?AVbad_array_new_length@std@@@8 1004db98     era.obj
 0003:00000bc0       ??_R0?AVfailure@ios_base@std@@@8 1004dbc0     ObjectsExtender.obj
 0003:00000be4       ??_R0?AVruntime_error@std@@@8 1004dbe4     ObjectsExtender.obj
 0003:00000c04       ??_R0?AVsystem_error@std@@@8 1004dc04     ObjectsExtender.obj
 0003:00000c24       ??_R0?AVbad_cast@std@@@8   1004dc24     ObjectsExtender.obj
 0003:00000c40       ??_R0?AV_System_error@std@@@8 1004dc40     ObjectsExtender.obj
 0003:00000c60       ??_R0?AUPage@RMG_SettingsDlg@rmgdlg@@@8 1004dc60     RMG_SettingsDlg.obj
 0003:00000c8c       ??_R0?AVRMG_SettingsDlg@rmgdlg@@@8 1004dc8c     RMG_SettingsDlg.obj
 0003:00000cb4       ??_R0?AUObjectsPage@RMG_SettingsDlg@rmgdlg@@@8 1004dcb4     RMG_SettingsDlg.obj
 0003:00000ce8       ??_R0?AUH3BaseDlg@h3@@@8   1004dce8     RMG_SettingsDlg.obj
 0003:00000d04       ??_R0?AV__non_rtti_object@std@@@8 1004dd04     libvcruntime:rtti.obj
 0003:00000d28       ??_R0?AVbad_typeid@std@@@8 1004dd28     libvcruntime:rtti.obj
 0003:00000d48       ??_R0?AV_Locimp@locale@std@@@8 1004dd48     libcpmt:locale0.obj
 0003:00000d6c       ??_R0?AV_Generic_error_category@std@@@8 1004dd6c     libcpmt:thread0.obj
 0003:00000d98       ??_R0?AVtype_info@@@8      1004dd98     LIBCMT:std_type_info_static.obj
 0003:00000db0       ??_R0?AVIGamePatch@@@8     1004ddb0     ColosseumOfTheMagiExtender.obj
 0003:00000dcc       ??_R0?AVObjectsExtender@extender@@@8 1004ddcc     ColosseumOfTheMagiExtender.obj
 0003:00000df4       ??_R0?AVColosseumOfTheMagiExtender@colosseumOfTheMagi@@@8 1004ddf4     ColosseumOfTheMagiExtender.obj
 0003:00000e30       ??_R0?AVCreatureBanksExtender@cbanks@@@8 1004de30     CreatureBanksExtender.obj
 0003:00000e5c       ??_R0?AVGazeboExtender@gazebo@@@8 1004de5c     GazeboExtender.obj
 0003:00000e80       ??_R0?AVShrinesExternder@shrines@@@8 1004de80     ShrinesExternder.obj
 0003:00000ea8       ??_R0?AVWarehousesExtender@warehouses@@@8 1004dea8     WarehousesExtender.obj
 0003:00000ed4       ??_R0?AVWoGObjectsExtender@wog@@@8 1004ded4     WoGObjectsExtender.obj
 0003:00000f00       ??_R0?AV?$basic_stringbuf@DU?$char_traits@D@std@@V?$allocator@D@2@@std@@@8 1004df00     ObjectsExtender.obj
 0003:00000f50       ??_R0?AVios_base@std@@@8   1004df50     ObjectsExtender.obj
 0003:00000f6c       ??_R0?AVerror_category@std@@@8 1004df6c     ObjectsExtender.obj
 0003:00000f90       ??_R0?AV?$ctype@D@std@@@8  1004df90     ObjectsExtender.obj
 0003:00000fac       ??_R0?AV_Facet_base@std@@@8 1004dfac     ObjectsExtender.obj
 0003:00000fcc       ??_R0?AU_Crt_new_delete@std@@@8 1004dfcc     ObjectsExtender.obj
 0003:00000ff0       ??_R0?AV?$_Iosb@H@std@@@8  1004dff0     ObjectsExtender.obj
 0003:0000100c       ??_R0?AV_Iostream_error_category2@std@@@8 1004e00c     ObjectsExtender.obj
 0003:00001038       ??_R0?AV?$basic_streambuf@DU?$char_traits@D@std@@@std@@@8 1004e038     ObjectsExtender.obj
 0003:00001074       ??_R0?AUctype_base@std@@@8 1004e074     ObjectsExtender.obj
 0003:00001098       ??_R0?AV?$basic_istringstream@DU?$char_traits@D@std@@V?$allocator@D@2@@std@@@8 1004e098     ObjectsExtender.obj
 0003:000010ec       ??_R0?AV?$basic_istream@DU?$char_traits@D@std@@@std@@@8 1004e0ec     ObjectsExtender.obj
 0003:00001128       ??_R0?AV?$basic_ios@DU?$char_traits@D@std@@@std@@@8 1004e128     ObjectsExtender.obj
 0003:00001160       ??_R0?AVfacet@locale@std@@@8 1004e160     ObjectsExtender.obj
 0003:00001180       ??_R0?AVRMGObjectsEditor@editor@@@8 1004e180     RMGObjectsEditor.obj
 0003:000011a8       ??_R0?AUH3Allocator@h3@@@8 1004e1a8     RMG_SettingsDlg.obj
 0003:000011c8       ??_R0?AUObjectsPanel@RMG_SettingsDlg@rmgdlg@@@8 1004e1c8     RMG_SettingsDlg.obj
 0003:000011fc       ??_R0?AUH3ExtendedDlg@h3@@@8 1004e1fc     RMG_SettingsDlg.obj
 0003:0000121c       ??_R0?AUBanksPage@RMG_SettingsDlg@rmgdlg@@@8 1004e21c     RMG_SettingsDlg.obj
 0003:0000124c       ??_R0?AUH3NetworkDlg@h3@@@8 1004e24c     RMG_SettingsDlg.obj
 0003:0000126c       ??_R0?AUMiscPage@RMG_SettingsDlg@rmgdlg@@@8 1004e26c     RMG_SettingsDlg.obj
 0003:0000129c       ??_R0?AUH3Dlg@h3@@@8       1004e29c     RMG_SettingsDlg.obj
 0003:00001388       ?_Id_cnt@id@locale@std@@0HA 1004e388     libcpmt:locale0.obj
 0003:0000138c       ?_Clocptr@_Locimp@locale@std@@0PAV123@A 1004e38c     libcpmt:locale0.obj
 0003:00001390       ?id@?$ctype@G@std@@2V0locale@2@A 1004e390     libcpmt:locale0.obj
 0003:00001394       ?id@?$codecvt@_WDU_Mbstatet@@@std@@2V0locale@2@A 1004e394     libcpmt:locale0.obj
 0003:00001398       ?id@?$codecvt@GDU_Mbstatet@@@std@@2V0locale@2@A 1004e398     libcpmt:locale0.obj
 0003:0000139c       ?id@?$ctype@_W@std@@2V0locale@2@A 1004e39c     libcpmt:locale0.obj
 0003:000013a0       ?id@?$ctype@D@std@@2V0locale@2@A 1004e3a0     libcpmt:locale0.obj
 0003:000013bc       ?_Index@ios_base@std@@0HA  1004e3bc     libcpmt:ios.obj
 0003:00001590       ?id@?$num_get@DV?$istreambuf_iterator@DU?$char_traits@D@std@@@std@@@std@@2V0locale@2@A 1004e590     libcpmt:locale.obj
 0003:00001594       ?id@?$num_put@DV?$ostreambuf_iterator@DU?$char_traits@D@std@@@std@@@std@@2V0locale@2@A 1004e594     libcpmt:locale.obj
 0003:00001598       ?id@?$numpunct@D@std@@2V0locale@2@A 1004e598     libcpmt:locale.obj
 0003:0000159c       ?id@?$codecvt@DDU_Mbstatet@@@std@@2V0locale@2@A 1004e59c     libcpmt:locale.obj
 0003:000015a0       ?_Ptr_cin@std@@3PAV?$basic_istream@DU?$char_traits@D@std@@@1@A 1004e5a0     libcpmt:iosptrs.obj
 0003:000015a4       ?_Ptr_cout@std@@3PAV?$basic_ostream@DU?$char_traits@D@std@@@1@A 1004e5a4     libcpmt:iosptrs.obj
 0003:000015a8       ?_Ptr_cerr@std@@3PAV?$basic_ostream@DU?$char_traits@D@std@@@1@A 1004e5a8     libcpmt:iosptrs.obj
 0003:000015ac       ?_Ptr_clog@std@@3PAV?$basic_ostream@DU?$char_traits@D@std@@@1@A 1004e5ac     libcpmt:iosptrs.obj
 0003:000015b0       ?_Ptr_wcin@std@@3PAV?$basic_istream@_WU?$char_traits@_W@std@@@1@A 1004e5b0     libcpmt:iosptrs.obj
 0003:000015b4       ?_Ptr_wcout@std@@3PAV?$basic_ostream@_WU?$char_traits@_W@std@@@1@A 1004e5b4     libcpmt:iosptrs.obj
 0003:000015b8       ?_Ptr_wcerr@std@@3PAV?$basic_ostream@_WU?$char_traits@_W@std@@@1@A 1004e5b8     libcpmt:iosptrs.obj
 0003:000015bc       ?_Ptr_wclog@std@@3PAV?$basic_ostream@_WU?$char_traits@_W@std@@@1@A 1004e5bc     libcpmt:iosptrs.obj
 0003:000015ec       ?id@?$time_put@_WV?$ostreambuf_iterator@_WU?$char_traits@_W@std@@@std@@@std@@2V0locale@2@A 1004e5ec     libcpmt:wlocale.obj
 0003:000015f0       ?id@?$num_get@_WV?$istreambuf_iterator@_WU?$char_traits@_W@std@@@std@@@std@@2V0locale@2@A 1004e5f0     libcpmt:wlocale.obj
 0003:000015f4       ?id@?$num_put@_WV?$ostreambuf_iterator@_WU?$char_traits@_W@std@@@std@@@std@@2V0locale@2@A 1004e5f4     libcpmt:wlocale.obj
 0003:000015f8       ?id@?$numpunct@_W@std@@2V0locale@2@A 1004e5f8     libcpmt:wlocale.obj
 0003:000015fc       ?id@?$collate@_W@std@@2V0locale@2@A 1004e5fc     libcpmt:wlocale.obj
 0003:00001600       ?id@?$messages@_W@std@@2V0locale@2@A 1004e600     libcpmt:wlocale.obj
 0003:00001604       ?id@?$money_get@_WV?$istreambuf_iterator@_WU?$char_traits@_W@std@@@std@@@std@@2V0locale@2@A 1004e604     libcpmt:wlocale.obj
 0003:00001608       ?id@?$money_put@_WV?$ostreambuf_iterator@_WU?$char_traits@_W@std@@@std@@@std@@2V0locale@2@A 1004e608     libcpmt:wlocale.obj
 0003:0000160c       ?id@?$moneypunct@_W$0A@@std@@2V0locale@2@A 1004e60c     libcpmt:wlocale.obj
 0003:00001610       ?id@?$moneypunct@_W$00@std@@2V0locale@2@A 1004e610     libcpmt:wlocale.obj
 0003:00001614       ?id@?$time_get@_WV?$istreambuf_iterator@_WU?$char_traits@_W@std@@@std@@@std@@2V0locale@2@A 1004e614     libcpmt:wlocale.obj
 0003:00001618       ?id@?$num_get@GV?$istreambuf_iterator@GU?$char_traits@G@std@@@std@@@std@@2V0locale@2@A 1004e618     libcpmt:wlocale.obj
 0003:0000161c       ?id@?$num_put@GV?$ostreambuf_iterator@GU?$char_traits@G@std@@@std@@@std@@2V0locale@2@A 1004e61c     libcpmt:wlocale.obj
 0003:00001620       ?id@?$numpunct@G@std@@2V0locale@2@A 1004e620     libcpmt:wlocale.obj
 0003:00001624       ?id@?$collate@G@std@@2V0locale@2@A 1004e624     libcpmt:wlocale.obj
 0003:00001628       ?id@?$messages@G@std@@2V0locale@2@A 1004e628     libcpmt:wlocale.obj
 0003:0000162c       ?id@?$money_get@GV?$istreambuf_iterator@GU?$char_traits@G@std@@@std@@@std@@2V0locale@2@A 1004e62c     libcpmt:wlocale.obj
 0003:00001630       ?id@?$money_put@GV?$ostreambuf_iterator@GU?$char_traits@G@std@@@std@@@std@@2V0locale@2@A 1004e630     libcpmt:wlocale.obj
 0003:00001634       ?id@?$moneypunct@G$0A@@std@@2V0locale@2@A 1004e634     libcpmt:wlocale.obj
 0003:00001638       ?id@?$moneypunct@G$00@std@@2V0locale@2@A 1004e638     libcpmt:wlocale.obj
 0003:0000163c       ?id@?$time_get@GV?$istreambuf_iterator@GU?$char_traits@G@std@@@std@@@std@@2V0locale@2@A 1004e63c     libcpmt:wlocale.obj
 0003:00001640       ?id@?$time_put@GV?$ostreambuf_iterator@GU?$char_traits@G@std@@@std@@@std@@2V0locale@2@A 1004e640     libcpmt:wlocale.obj
 0003:00001644       ?id@?$collate@D@std@@2V0locale@2@A 1004e644     libcpmt:xlocale.obj
 0003:00001648       ?id@?$messages@D@std@@2V0locale@2@A 1004e648     libcpmt:xlocale.obj
 0003:0000164c       ?id@?$money_get@DV?$istreambuf_iterator@DU?$char_traits@D@std@@@std@@@std@@2V0locale@2@A 1004e64c     libcpmt:xlocale.obj
 0003:00001650       ?id@?$money_put@DV?$ostreambuf_iterator@DU?$char_traits@D@std@@@std@@@std@@2V0locale@2@A 1004e650     libcpmt:xlocale.obj
 0003:00001654       ?id@?$moneypunct@D$0A@@std@@2V0locale@2@A 1004e654     libcpmt:xlocale.obj
 0003:00001658       ?id@?$moneypunct@D$00@std@@2V0locale@2@A 1004e658     libcpmt:xlocale.obj
 0003:0000165c       ?id@?$time_get@DV?$istreambuf_iterator@DU?$char_traits@D@std@@@std@@@std@@2V0locale@2@A 1004e65c     libcpmt:xlocale.obj
 0003:00001660       ?id@?$time_put@DV?$ostreambuf_iterator@DU?$char_traits@D@std@@@std@@@std@@2V0locale@2@A 1004e660     libcpmt:xlocale.obj
 0003:0000166c       ___scrt_current_native_startup_state 1004e66c     LIBCMT:utility.obj
 0003:00001670       ___scrt_native_startup_lock 1004e670     LIBCMT:utility.obj
 0003:0000169c       ___avx10_version           1004e69c     LIBCMT:cpu_disp.obj
 0003:000016a0       ___isa_available           1004e6a0     LIBCMT:cpu_disp.obj
 0003:000016a4       ___favor                   1004e6a4     LIBCMT:cpu_disp.obj
 0003:000016a8       ___scrt_debugger_hook_flag 1004e6a8     LIBCMT:utility_desktop.obj
 0003:000016ac       __tls_index                1004e6ac     LIBCMT:tlssup.obj
 0003:000016b0       ?__type_info_root_node@@3U__type_info_node@@A 1004e6b0     LIBCMT:tncleanup.obj
 0003:000016b8       ?_OptionsStorage@?1??__local_stdio_scanf_options@@9@4_KA 1004e6b8     LIBCMT:default_local_stdio_options.obj
 0003:000019dc       ?__WinRTOutOfMemoryExceptionCallback@@3P6GPAXXZA 1004e9dc     libvcruntime:ehhelpers.obj
 0003:00001a08       ___pPurecall               1004ea08     libvcruntime:purevirt_data.obj
 0003:00001a28       ?pArgList@UnDecorator@@0PAVReplicator@@A 1004ea28     libvcruntime:undname.obj
 0003:00001a2c       ?pZNameList@UnDecorator@@0PAVReplicator@@A 1004ea2c     libvcruntime:undname.obj
 0003:00001a30       ?pTemplateArgList@UnDecorator@@0PAVReplicator@@A 1004ea30     libvcruntime:undname.obj
 0003:00001a34       ?gName@UnDecorator@@0PBDB  1004ea34     libvcruntime:undname.obj
 0003:00001a38       ?name@UnDecorator@@0PBDB   1004ea38     libvcruntime:undname.obj
 0003:00001a3c       ?disableFlags@UnDecorator@@0KA 1004ea3c     libvcruntime:undname.obj
 0003:00001a40       ?fExplicitTemplateParams@UnDecorator@@0_NA 1004ea40     libvcruntime:undname.obj
 0003:00001a41       ?fGetTemplateArgumentList@UnDecorator@@0_NA 1004ea41     libvcruntime:undname.obj
 0003:00001a44       ?m_pGetParameter@UnDecorator@@0P6APADJ@ZA 1004ea44     libvcruntime:undname.obj
 0003:00001a48       ?m_CHPENameOffset@UnDecorator@@0KA 1004ea48     libvcruntime:undname.obj
 0003:00001a4c       ?m_recursionLevel@UnDecorator@@0KA 1004ea4c     libvcruntime:undname.obj
 0003:00001bdc       ___acrt_lconv_static_null  1004ebdc     libucrt:localeconv.obj
 0003:00001be0       ___acrt_lconv_static_W_null 1004ebe0     libucrt:localeconv.obj
 0003:00001be4       __nstream                  1004ebe4     libucrt:_file.obj
 0003:00001be8       ___piob                    1004ebe8     libucrt:_file.obj
 0003:00001d08       __environ_table            1004ed08     libucrt:environment_initialization.obj
 0003:00001d0c       __wenviron_table           1004ed0c     libucrt:environment_initialization.obj
 0003:00001d10       ___dcrt_initial_wide_environment 1004ed10     libucrt:environment_initialization.obj
 0003:00001d14       ___dcrt_initial_narrow_environment 1004ed14     libucrt:environment_initialization.obj
 0003:00001d18       ___acrt_atexit_table       1004ed18     libucrt:onexit.obj
 0003:00001d24       ___acrt_at_quick_exit_table 1004ed24     libucrt:onexit.obj
 0003:00001d3c       ___acrt_stdout_buffer      1004ed3c     libucrt:_sftbuf.obj
 0003:00001d40       ___acrt_stderr_buffer      1004ed40     libucrt:_sftbuf.obj
 0003:00001d44       ___acrt_locale_changed_data 1004ed44     libucrt:wsetlocale.obj
 0003:00001d48       ___acrt_current_locale_data 1004ed48     libucrt:nlsdata.obj
 0003:00001d50       ___pioinfo                 1004ed50     libucrt:ioinit.obj
 0003:00001f50       __nhandle                  1004ef50     libucrt:ioinit.obj
 0003:00002054       ?_timezone@@3V?$dual_state_global@J@__crt_state_management@@A 1004f054     libucrt:timeset.obj
 0003:00002058       ?_daylight@@3V?$dual_state_global@H@__crt_state_management@@A 1004f058     libucrt:timeset.obj
 0003:0000205c       ?_dstbias@@3V?$dual_state_global@J@__crt_state_management@@A 1004f05c     libucrt:timeset.obj
 0003:0000211c       __mbctype                  1004f11c     libucrt:mbctype.obj
 0003:00002120       __mbcasemap                1004f120     libucrt:mbctype.obj
 0003:00002124       ___acrt_current_multibyte_data 1004f124     libucrt:mbctype.obj
 0003:00002130       __pgmptr                   1004f130     libucrt:argv_data.obj
 0003:00002134       ___argc                    1004f134     libucrt:argv_data.obj
 0003:00002138       ___argv                    1004f138     libucrt:argv_data.obj
 0003:0000213c       ___wargv                   1004f13c     libucrt:argv_data.obj
 0003:00002140       __acmdln                   1004f140     libucrt:argv_data.obj
 0003:00002144       __wcmdln                   1004f144     libucrt:argv_data.obj
 0003:00002148       ___acrt_heap               1004f148     libucrt:heap_handle.obj
 0003:00002168       ___fastflag                1004f168     libucrt:fp_flags.obj
 0003:00002170       ?_OptionsStorage@?1??__local_stdio_printf_options@@9@4_KA 1004f170     era.obj
 0003:00002180       ?Plugin@Era@@3PAXA         1004f180     era.obj
 0003:00002184       ?globalPatcher@@3PAVPatcher@@A 1004f184     dllmain.obj
 0003:00002188       ?_PI@@3PAVPatcherInstance@@A 1004f188     dllmain.obj
 0003:0000218c       ?colosseumOfTheMagiCounter@H3MapItemColosseumOfTheMagi@colosseumOfTheMagi@@2HA 1004f18c     ColosseumOfTheMagiExtender.obj
 0003:00002190       ?currentMapItem@cbanks@@3PAUH3MapItem@h3@@A 1004f190     CreatureBanksExtender.obj
 0003:00002194       ?currentCreatureBank@cbanks@@3PAUH3CreatureBank@h3@@A 1004f194     CreatureBanksExtender.obj
 0003:00002198       ?gazeboCounter@H3MapItemGazebo@gazebo@@2HA 1004f198     GazeboExtender.obj
 0003:0000219c       ?currentShrineHint@ShrinesExternder@shrines@@0PBUH3MapItem@h3@@B 1004f19c     ShrinesExternder.obj
 0003:000021a0       ?WoGObjectOptionsIds@WoGObjectsExtender@wog@@0V?$array@H$0PP@@std@@A 1004f1a0     WoGObjectsExtender.obj
 0003:0000259c       ?id@ObjectsPanel@RMG_SettingsDlg@rmgdlg@@2IA 1004f59c     RMG_SettingsDlg.obj
 0003:000025a0       ?userRandSeed@RMG_SettingsDlg@rmgdlg@@0KA 1004f5a0     RMG_SettingsDlg.obj
 0003:000025a4       ?instance@RMG_SettingsDlg@rmgdlg@@0PAV12@A 1004f5a4     RMG_SettingsDlg.obj
 0003:000025a8       ?dlg@Page@RMG_SettingsDlg@rmgdlg@@2PAV23@A 1004f5a8     RMG_SettingsDlg.obj
 0003:000025ac       ?hEra@Era@@3PAUHINSTANCE__@@A 1004f5ac     era.obj
 0003:000025b0       ?WriteStrToIni@Era@@3P6GHPBD000@ZA 1004f5b0     era.obj
 0003:000025b4       ?SetAssocVarIntValue@Era@@3P6GXPBDH@ZA 1004f5b4     era.obj
 0003:000025b8       ?ReadStrFromIni@Era@@3P6GHPBD00PAD@ZA 1004f5b8     era.obj
 0003:000025bc       ?GetAssocVarIntValue@Era@@3P6GHPBD@ZA 1004f5bc     era.obj
 0003:000025c0       ?FatalError@Era@@3P6GXPBD@ZA 1004f5c0     era.obj
 0003:000025c4       ?SaveIni@Era@@3P6GHPBD@ZA  1004f5c4     era.obj
 0003:000025c8       ?trStatic@Era@@3P6GPADPBD@ZA 1004f5c8     era.obj
 0003:000025cc       ?ReportPluginVersion@Era@@3P6GXPBD@ZA 1004f5cc     era.obj
 0003:000025d0       ?ClearIniCache@Era@@3P6GXPBD@ZA 1004f5d0     era.obj
 0003:000025d4       ?CreatePlugin@Era@@3P6GPAXPBD@ZA 1004f5d4     era.obj
 0003:000025d8       ?RegisterHandler@Era@@3P6GXP6GXPAUTEvent@1@@ZPBD@ZA 1004f5d8     era.obj
 0003:000025dc       ?additionalRmgObjects@ObjectsExtender@extender@@1V?$vector@URMGObjectInfo@@V?$allocator@URMGObjectInfo@@@std@@@std@@A 1004f5dc     ObjectsExtender.obj
 0003:000025e8       ?additionalProperties@ObjectsExtender@extender@@1V?$vector@V?$basic_string@DU?$char_traits@D@std@@V?$allocator@D@2@@std@@V?$allocator@V?$basic_string@DU?$char_traits@D@std@@V?$allocator@D@2@@std@@@2@@std@@A 1004f5e8     ObjectsExtender.obj
 0003:000025f4       ?extenders@ObjectsExtender@extender@@0V?$vector@PAVObjectsExtender@extender@@V?$allocator@PAVObjectsExtender@extender@@@std@@@std@@A 1004f5f4     ObjectsExtender.obj
 0003:00002600       ?defaultRMGObjectsInfoByType@RMGObjectInfo@@2PAV?$vector@URMGObjectInfo@@V?$allocator@URMGObjectInfo@@@std@@@std@@A 1004f600     RMGObjectsEditor.obj
 0003:000030e0       ?generatedInfo@RMGObjectsEditor@editor@@0UGeneratedInfo@@A 100500e0     RMGObjectsEditor.obj
 0003:00003100       ?currentRMGObjectsInfoByType@RMGObjectInfo@@2PAV?$vector@URMGObjectInfo@@V?$allocator@URMGObjectInfo@@@std@@@std@@A 10050100     RMGObjectsEditor.obj
 0003:00003be0       ?m_commonObjects@RMG_SettingsDlg@rmgdlg@@0V?$vector@U?$pair@UH3ObjectAttributes@h3@@PAUH3LoadedPcx16@2@@std@@V?$allocator@U?$pair@UH3ObjectAttributes@h3@@PAUH3LoadedPcx16@2@@std@@@2@@std@@A 10050be0     RMG_SettingsDlg.obj
 0003:00003bec       ?m_banks@RMG_SettingsDlg@rmgdlg@@0V?$vector@U?$pair@UH3ObjectAttributes@h3@@PAUH3LoadedPcx16@2@@std@@V?$allocator@U?$pair@UH3ObjectAttributes@h3@@PAUH3LoadedPcx16@2@@std@@@2@@std@@A 10050bec     RMG_SettingsDlg.obj
 0003:00003bf8       ?m_wogObjects@RMG_SettingsDlg@rmgdlg@@0V?$vector@U?$pair@UH3ObjectAttributes@h3@@PAUH3LoadedPcx16@2@@std@@V?$allocator@U?$pair@UH3ObjectAttributes@h3@@PAUH3LoadedPcx16@2@@std@@@2@@std@@A 10050bf8     RMG_SettingsDlg.obj
 0003:00003c04       ?m_dwellings@RMG_SettingsDlg@rmgdlg@@0V?$vector@U?$pair@UH3ObjectAttributes@h3@@PAUH3LoadedPcx16@2@@std@@V?$allocator@U?$pair@UH3ObjectAttributes@h3@@PAUH3LoadedPcx16@2@@std@@@2@@std@@A 10050c04     RMG_SettingsDlg.obj
 0003:00003c10       ?m_objectAttributes@RMG_SettingsDlg@rmgdlg@@0V?$vector@PAV?$vector@U?$pair@UH3ObjectAttributes@h3@@PAUH3LoadedPcx16@2@@std@@V?$allocator@U?$pair@UH3ObjectAttributes@h3@@PAUH3LoadedPcx16@2@@std@@@2@@std@@V?$allocator@PAV?$vector@U?$pair@UH3ObjectAttributes@h3@@PAUH3LoadedPcx16@2@@std@@V?$allocator@U?$pair@UH3ObjectAttributes@h3@@PAUH3LoadedPcx16@2@@std@@@2@@std@@@2@@std@@B 10050c10     RMG_SettingsDlg.obj
 0003:00003c20       ?soundManager@SoundManager@sound@@2U12@A 10050c20     SoundManager.obj
 0003:00003c78       ?_Psave@?$_Facetptr@V?$ctype@D@std@@@std@@2PBVfacet@locale@2@B 10050c78     ObjectsExtender.obj
 0003:000060a4       ___dyn_tls_init_callback   100530a4     <common>
 0003:000060a8       ___scrt_ucrt_dll_is_in_use 100530a8     <common>
 0003:000060ac       __pmatherr                 100530ac     <common>
 0003:000060b0       ___use_sse2_mathfcns       100530b0     <common>

 entry point at        0001:0000e9bd

 Static symbols

 0000:fffa7000       .debug$S                   10000000     RMG_CustomizeObjectProperties.exp
 0000:fffa7000       .debug$S                   10000000     kernel32:KERNEL32.dll
 0000:fffa7000       .debug$S                   10000000     kernel32:KERNEL32.dll
 0000:fffa7000       .debug$S                   10000000     kernel32:KERNEL32.dll
 0000:fffa7000       .debug$S                   10000000     kernel32:KERNEL32.dll
 0000:fffa7000       .debug$S                   10000000     kernel32:KERNEL32.dll
 0000:fffa7000       .debug$S                   10000000     kernel32:KERNEL32.dll
 0000:fffa7000       .debug$S                   10000000     kernel32:KERNEL32.dll
 0000:fffa7000       .debug$S                   10000000     kernel32:KERNEL32.dll
 0000:fffa7000       .debug$S                   10000000     kernel32:KERNEL32.dll
 0000:fffa7000       .debug$S                   10000000     kernel32:KERNEL32.dll
 0000:fffa7000       .debug$S                   10000000     kernel32:KERNEL32.dll
 0000:fffa7000       .debug$S                   10000000     kernel32:KERNEL32.dll
 0000:fffa7000       .debug$S                   10000000     kernel32:KERNEL32.dll
 0000:fffa7000       .debug$S                   10000000     kernel32:KERNEL32.dll
 0000:fffa7000       .debug$S                   10000000     kernel32:KERNEL32.dll
 0000:fffa7000       .debug$S                   10000000     kernel32:KERNEL32.dll
 0000:fffa7000       .debug$S                   10000000     kernel32:KERNEL32.dll
 0000:fffa7000       .debug$S                   10000000     kernel32:KERNEL32.dll
 0000:fffa7000       .debug$S                   10000000     kernel32:KERNEL32.dll
 0000:fffa7000       .debug$S                   10000000     kernel32:KERNEL32.dll
 0000:fffa7000       .debug$S                   10000000     kernel32:KERNEL32.dll
 0000:fffa7000       .debug$S                   10000000     kernel32:KERNEL32.dll
 0000:fffa7000       .debug$S                   10000000     kernel32:KERNEL32.dll
 0000:fffa7000       .debug$S                   10000000     kernel32:KERNEL32.dll
 0000:fffa7000       .debug$S                   10000000     kernel32:KERNEL32.dll
 0000:fffa7000       .debug$S                   10000000     kernel32:KERNEL32.dll
 0000:fffa7000       .debug$S                   10000000     kernel32:KERNEL32.dll
 0000:fffa7000       .debug$S                   10000000     kernel32:KERNEL32.dll
 0000:fffa7000       .debug$S                   10000000     kernel32:KERNEL32.dll
 0000:fffa7000       .debug$S                   10000000     kernel32:KERNEL32.dll
 0000:fffa7000       .debug$S                   10000000     kernel32:KERNEL32.dll
 0000:fffa7000       .debug$S                   10000000     kernel32:KERNEL32.dll
 0000:fffa7000       .debug$S                   10000000     kernel32:KERNEL32.dll
 0000:fffa7000       .debug$S                   10000000     kernel32:KERNEL32.dll
 0000:fffa7000       .debug$S                   10000000     kernel32:KERNEL32.dll
 0000:fffa7000       .debug$S                   10000000     kernel32:KERNEL32.dll
 0000:fffa7000       .debug$S                   10000000     kernel32:KERNEL32.dll
 0000:fffa7000       .debug$S                   10000000     kernel32:KERNEL32.dll
 0000:fffa7000       .debug$S                   10000000     kernel32:KERNEL32.dll
 0000:fffa7000       .debug$S                   10000000     kernel32:KERNEL32.dll
 0000:fffa7000       .debug$S                   10000000     kernel32:KERNEL32.dll
 0000:fffa7000       .debug$S                   10000000     kernel32:KERNEL32.dll
 0000:fffa7000       .debug$S                   10000000     kernel32:KERNEL32.dll
 0000:fffa7000       .debug$S                   10000000     kernel32:KERNEL32.dll
 0000:fffa7000       .debug$S                   10000000     kernel32:KERNEL32.dll
 0000:fffa7000       .debug$S                   10000000     kernel32:KERNEL32.dll
 0000:fffa7000       .debug$S                   10000000     kernel32:KERNEL32.dll
 0000:fffa7000       .debug$S                   10000000     kernel32:KERNEL32.dll
 0000:fffa7000       .debug$S                   10000000     kernel32:KERNEL32.dll
 0000:fffa7000       .debug$S                   10000000     kernel32:KERNEL32.dll
 0000:fffa7000       .debug$S                   10000000     kernel32:KERNEL32.dll
 0000:fffa7000       .debug$S                   10000000     kernel32:KERNEL32.dll
 0000:fffa7000       .debug$S                   10000000     kernel32:KERNEL32.dll
 0000:fffa7000       .debug$S                   10000000     kernel32:KERNEL32.dll
 0000:fffa7000       .debug$S                   10000000     kernel32:KERNEL32.dll
 0000:fffa7000       .debug$S                   10000000     kernel32:KERNEL32.dll
 0000:fffa7000       .debug$S                   10000000     kernel32:KERNEL32.dll
 0000:fffa7000       .debug$S                   10000000     kernel32:KERNEL32.dll
 0000:fffa7000       .debug$S                   10000000     kernel32:KERNEL32.dll
 0000:fffa7000       .debug$S                   10000000     kernel32:KERNEL32.dll
 0000:fffa7000       .debug$S                   10000000     kernel32:KERNEL32.dll
 0000:fffa7000       .debug$S                   10000000     kernel32:KERNEL32.dll
 0000:fffa7000       .debug$S                   10000000     kernel32:KERNEL32.dll
 0000:fffa7000       .debug$S                   10000000     kernel32:KERNEL32.dll
 0000:fffa7000       .debug$S                   10000000     kernel32:KERNEL32.dll
 0000:fffa7000       .debug$S                   10000000     kernel32:KERNEL32.dll
 0000:fffa7000       .debug$S                   10000000     kernel32:KERNEL32.dll
 0000:fffa7000       .debug$S                   10000000     kernel32:KERNEL32.dll
 0000:fffa7000       .debug$S                   10000000     kernel32:KERNEL32.dll
 0000:fffa7000       .debug$S                   10000000     kernel32:KERNEL32.dll
 0000:fffa7000       .debug$S                   10000000     kernel32:KERNEL32.dll
 0000:fffa7000       .debug$S                   10000000     kernel32:KERNEL32.dll
 0000:fffa7000       .debug$S                   10000000     kernel32:KERNEL32.dll
 0000:fffa7000       .debug$S                   10000000     kernel32:KERNEL32.dll
 0000:fffa7000       .debug$S                   10000000     kernel32:KERNEL32.dll
 0000:fffa7000       .debug$S                   10000000     kernel32:KERNEL32.dll
 0000:fffa7000       .debug$S                   10000000     kernel32:KERNEL32.dll
 0000:fffa7000       .debug$S                   10000000     kernel32:KERNEL32.dll
 0000:fffa7000       .debug$S                   10000000     kernel32:KERNEL32.dll
 0000:fffa7000       .debug$S                   10000000     kernel32:KERNEL32.dll
 0000:fffa7000       .debug$S                   10000000     kernel32:KERNEL32.dll
 0000:fffa7000       .debug$S                   10000000     kernel32:KERNEL32.dll
 0000:fffa7000       .debug$S                   10000000     kernel32:KERNEL32.dll
 0000:fffa7000       .debug$S                   10000000     kernel32:KERNEL32.dll
 0000:fffa7000       .debug$S                   10000000     kernel32:KERNEL32.dll
 0000:fffa7000       .debug$S                   10000000     kernel32:KERNEL32.dll
 0000:fffa7000       .debug$S                   10000000     kernel32:KERNEL32.dll
 0000:fffa7000       .debug$S                   10000000     kernel32:KERNEL32.dll
 0000:fffa7000       .debug$S                   10000000     kernel32:KERNEL32.dll
 0000:fffa7000       .debug$S                   10000000     kernel32:KERNEL32.dll
 0000:fffa7000       .debug$S                   10000000     kernel32:KERNEL32.dll
 0000:fffa7000       .debug$S                   10000000     kernel32:KERNEL32.dll
 0000:fffa7000       .debug$S                   10000000     kernel32:KERNEL32.dll
 0000:fffa7000       .debug$S                   10000000     kernel32:KERNEL32.dll
 0000:fffa7000       .debug$S                   10000000     kernel32:KERNEL32.dll
 0000:fffa7000       .debug$S                   10000000     kernel32:KERNEL32.dll
 0000:fffa7000       .debug$S                   10000000     kernel32:KERNEL32.dll
 0000:fffa7000       .debug$S                   10000000     kernel32:KERNEL32.dll
 0000:fffa7000       .debug$S                   10000000     kernel32:KERNEL32.dll
 0000:fffa7000       .debug$S                   10000000     kernel32:KERNEL32.dll
 0000:fffa7000       .debug$S                   10000000     kernel32:KERNEL32.dll
 0000:fffa7000       .debug$S                   10000000     kernel32:KERNEL32.dll
 0000:fffa7000       .debug$S                   10000000     kernel32:KERNEL32.dll
 0000:fffa7000       .debug$S                   10000000     kernel32:KERNEL32.dll
 0000:fffa7000       .debug$S                   10000000     kernel32:KERNEL32.dll
 0000:fffa7000       .debug$S                   10000000     kernel32:KERNEL32.dll
 0000:fffa7000       .debug$S                   10000000     kernel32:KERNEL32.dll
 0000:fffa7000       .debug$S                   10000000     kernel32:KERNEL32.dll
 0000:fffa7000       .debug$S                   10000000     kernel32:KERNEL32.dll
 0000:fffa7000       .debug$S                   10000000     kernel32:KERNEL32.dll
 0000:fffa7000       .debug$S                   10000000     kernel32:KERNEL32.dll
 0000:fffa7000       .debug$S                   10000000     kernel32:KERNEL32.dll
 0000:fffa7000       .debug$S                   10000000     kernel32:KERNEL32.dll
 0000:fffa7000       .debug$S                   10000000     kernel32:KERNEL32.dll
 0000:fffa7000       .debug$S                   10000000     kernel32:KERNEL32.dll
 0000:fffa7000       .debug$S                   10000000     kernel32:KERNEL32.dll
 0000:fffa7000       .debug$S                   10000000     kernel32:KERNEL32.dll
 0000:fffa7000       .debug$S                   10000000     kernel32:KERNEL32.dll
 0000:fffa7000       .debug$S                   10000000     kernel32:KERNEL32.dll
 0000:fffa7000       .debug$S                   10000000     kernel32:KERNEL32.dll
 0000:fffa7000       .debug$S                   10000000     kernel32:KERNEL32.dll
 0000:fffa7000       .debug$S                   10000000     kernel32:KERNEL32.dll
 0000:fffa7000       .debug$S                   10000000     kernel32:KERNEL32.dll
 0000:fffa7000       .debug$S                   10000000     kernel32:KERNEL32.dll
 0000:fffa7000       .debug$S                   10000000     kernel32:KERNEL32.dll
 0000:fffa7000       .debug$S                   10000000     kernel32:KERNEL32.dll
 0000:fffa7000       .debug$S                   10000000     kernel32:KERNEL32.dll
 0001:00000000       ??__EhEra@Era@@YAXXZ       10001000 f   era.obj
 0001:00000020       ??__EAllocErmFunc@Era@@YAXXZ 10001020 f   era.obj
 0001:00000040       ??__EClearAllIniCache@Era@@YAXXZ 10001040 f   era.obj
 0001:00000060       ??__EClearIniCache@Era@@YAXXZ 10001060 f   era.obj
 0001:00000080       ??__ECreatePlugin@Era@@YAXXZ 10001080 f   era.obj
 0001:000000a0       ??__EDecorateInt@Era@@YAXXZ 100010a0 f   era.obj
 0001:000000c0       ??__EExecErmCmd@Era@@YAXXZ 100010c0 f   era.obj
 0001:000000e0       ??__EExecPersistedErmCmd@Era@@YAXXZ 100010e0 f   era.obj
 0001:00000100       ??__EExtractErm@Era@@YAXXZ 10001100 f   era.obj
 0001:00000120       ??__EFastQuitToGameMenu@Era@@YAXXZ 10001120 f   era.obj
 0001:00000140       ??__EFatalError@Era@@YAXXZ 10001140 f   era.obj
 0001:00000160       ??__EFindNextObject@Era@@YAXXZ 10001160 f   era.obj
 0001:00000180       ??__EFireErmEvent@Era@@YAXXZ 10001180 f   era.obj
 0001:000001a0       ??__EFireEvent@Era@@YAXXZ  100011a0 f   era.obj
 0001:000001c0       ??__EFormatQuantity@Era@@YAXXZ 100011c0 f   era.obj
 0001:000001e0       ??__EFreeAppliedPatch@Era@@YAXXZ 100011e0 f   era.obj
 0001:00000200       ??__EGenerateDebugInfo@Era@@YAXXZ 10001200 f   era.obj
 0001:00000220       ??__EGetAppliedPatchSize@Era@@YAXXZ 10001220 f   era.obj
 0001:00000240       ??__EGetArgXVars@Era@@YAXXZ 10001240 f   era.obj
 0001:00000260       ??__EGetAssocVarIntValue@Era@@YAXXZ 10001260 f   era.obj
 0001:00000280       ??__EGetAssocVarStrValue@Era@@YAXXZ 10001280 f   era.obj
 0001:000002a0       ??__EGetButtonID@Era@@YAXXZ 100012a0 f   era.obj
 0001:000002c0       ??__EGetCampaignFileName@Era@@YAXXZ 100012c0 f   era.obj
 0001:000002e0       ??__EGetCampaignMapInd@Era@@YAXXZ 100012e0 f   era.obj
 0001:00000300       ??__EGetEraRegistryIntValue@Era@@YAXXZ 10001300 f   era.obj
 0001:00000320       ??__EGetEraRegistryStrValue@Era@@YAXXZ 10001320 f   era.obj
 0001:00000340       ??__EGetGameState@Era@@YAXXZ 10001340 f   era.obj
 0001:00000360       ??__EGetMapFileName@Era@@YAXXZ 10001360 f   era.obj
 0001:00000380       ??__EGetProcessGuid@Era@@YAXXZ 10001380 f   era.obj
 0001:000003a0       ??__EGetRealAddr@Era@@YAXXZ 100013a0 f   era.obj
 0001:000003c0       ??__EGetRetXVars@Era@@YAXXZ 100013c0 f   era.obj
 0001:000003e0       ??__EGetTriggerReadableName@Era@@YAXXZ 100013e0 f   era.obj
 0001:00000400       ??__EGetVersionNum@Era@@YAXXZ 10001400 f   era.obj
 0001:00000420       ??__EGlobalRedirectFile@Era@@YAXXZ 10001420 f   era.obj
 0001:00000440       ??__EHash32@Era@@YAXXZ     10001440 f   era.obj
 0001:00000460       ??__EIsCampaign@Era@@YAXXZ 10001460 f   era.obj
 0001:00000480       ??__EIsCommanderId@Era@@YAXXZ 10001480 f   era.obj
 0001:000004a0       ??__EIsPatchOverwritten@Era@@YAXXZ 100014a0 f   era.obj
 0001:000004c0       ??__ELoadImageAsPcx16@Era@@YAXXZ 100014c0 f   era.obj
 0001:000004e0       ??__EMemFree@Era@@YAXXZ    100014e0 f   era.obj
 0001:00000500       ??__ENameColor@Era@@YAXXZ  10001500 f   era.obj
 0001:00000520       ??__ENameTrigger@Era@@YAXXZ 10001520 f   era.obj
 0001:00000540       ??__ENotifyError@Era@@YAXXZ 10001540 f   era.obj
 0001:00000560       ??__EPatchExists@Era@@YAXXZ 10001560 f   era.obj
 0001:00000580       ??__EPcxPngExists@Era@@YAXXZ 10001580 f   era.obj
 0001:000005a0       ??__EPersistErmCmd@Era@@YAXXZ 100015a0 f   era.obj
 0001:000005c0       ??__EPluginExists@Era@@YAXXZ 100015c0 f   era.obj
 0001:000005e0       ??__ERandomRangeWithFreeParam@Era@@YAXXZ 100015e0 f   era.obj
 0001:00000600       ??__EReadSavegameSection@Era@@YAXXZ 10001600 f   era.obj
 0001:00000620       ??__EReadStrFromIni@Era@@YAXXZ 10001620 f   era.obj
 0001:00000640       ??__ERedirectFile@Era@@YAXXZ 10001640 f   era.obj
 0001:00000660       ??__ERedirectMemoryBlock@Era@@YAXXZ 10001660 f   era.obj
 0001:00000680       ??__ERegisterHandler@Era@@YAXXZ 10001680 f   era.obj
 0001:000006a0       ??__EReloadErm@Era@@YAXXZ  100016a0 f   era.obj
 0001:000006c0       ??__EReloadLanguageData@Era@@YAXXZ 100016c0 f   era.obj
 0001:000006e0       ??__EReportPluginVersion@Era@@YAXXZ 100016e0 f   era.obj
 0001:00000700       ??__ERollbackAppliedPatch@Era@@YAXXZ 10001700 f   era.obj
 0001:00000720       ??__ESaveIni@Era@@YAXXZ    10001720 f   era.obj
 0001:00000740       ??__ESetAssocVarIntValue@Era@@YAXXZ 10001740 f   era.obj
 0001:00000760       ??__ESetAssocVarStrValue@Era@@YAXXZ 10001760 f   era.obj
 0001:00000780       ??__ESetEraRegistryIntValue@Era@@YAXXZ 10001780 f   era.obj
 0001:000007a0       ??__ESetEraRegistryStrValue@Era@@YAXXZ 100017a0 f   era.obj
 0001:000007c0       ??__ESetIsCommanderIdFunc@Era@@YAXXZ 100017c0 f   era.obj
 0001:000007e0       ??__ESetIsElixirOfLifeStackFunc@Era@@YAXXZ 100017e0 f   era.obj
 0001:00000800       ??__ESetLanguage@Era@@YAXXZ 10001800 f   era.obj
 0001:00000820       ??__ESetMultiPurposeDlgHandler@Era@@YAXXZ 10001820 f   era.obj
 0001:00000840       ??__ESetRegenerationAbility@Era@@YAXXZ 10001840 f   era.obj
 0001:00000860       ??__ESetStdRegenerationEffect@Era@@YAXXZ 10001860 f   era.obj
 0001:00000880       ??__EShowErmError@Era@@YAXXZ 10001880 f   era.obj
 0001:000008a0       ??__EShowMessage@Era@@YAXXZ 100018a0 f   era.obj
 0001:000008c0       ??__EShowMultiPurposeDlg@Era@@YAXXZ 100018c0 f   era.obj
 0001:000008e0       ??__ESplitMix32@Era@@YAXXZ 100018e0 f   era.obj
 0001:00000900       ??__EToStaticStr@Era@@YAXXZ 10001900 f   era.obj
 0001:00000920       ??__EtrStatic@Era@@YAXXZ   10001920 f   era.obj
 0001:00000940       ??__EtrTemp@Era@@YAXXZ     10001940 f   era.obj
 0001:00000960       ??__EWriteAtCode@Era@@YAXXZ 10001960 f   era.obj
 0001:00000980       ??__EWriteSavegameSection@Era@@YAXXZ 10001980 f   era.obj
 0001:000009a0       ??__EWriteStrToIni@Era@@YAXXZ 100019a0 f   era.obj
 0001:000009c0       ??__EGetEraVersion@Era@@YAXXZ 100019c0 f   era.obj
 0001:000009e0       ??__E_Hook@Era@@YAXXZ      100019e0 f   era.obj
 0001:00000a00       ??__E_Splice@Era@@YAXXZ    10001a00 f   era.obj
 0001:00000a20       ??__E_tr@Era@@YAXXZ        10001a20 f   era.obj
 0001:00000a40       ??__E?soundManager@SoundManager@sound@@2U12@A@@YAXXZ 10001a40 f   SoundManager.obj
 0001:00000af0       ??__E?extenders@ObjectsExtender@extender@@0V?$vector@PAVObjectsExtender@extender@@V?$allocator@PAVObjectsExtender@extender@@@std@@@std@@A@@YAXXZ 10001af0 f   ObjectsExtender.obj
 0001:00000b00       ??__E?additionalProperties@ObjectsExtender@extender@@1V?$vector@V?$basic_string@DU?$char_traits@D@std@@V?$allocator@D@2@@std@@V?$allocator@V?$basic_string@DU?$char_traits@D@std@@V?$allocator@D@2@@std@@@2@@std@@A@@YAXXZ 10001b00 f   ObjectsExtender.obj
 0001:00000b10       ??__E?additionalRmgObjects@ObjectsExtender@extender@@1V?$vector@URMGObjectInfo@@V?$allocator@URMGObjectInfo@@@std@@@std@@A@@YAXXZ 10001b10 f   ObjectsExtender.obj
 0001:00000b20       ??__E?currentRMGObjectsInfoByType@RMGObjectInfo@@2PAV?$vector@URMGObjectInfo@@V?$allocator@URMGObjectInfo@@@std@@@std@@A@@YAXXZ 10001b20 f   RMGObjectsEditor.obj
 0001:00000b50       ??__E?defaultRMGObjectsInfoByType@RMGObjectInfo@@2PAV?$vector@URMGObjectInfo@@V?$allocator@URMGObjectInfo@@@std@@@std@@A@@YAXXZ 10001b50 f   RMGObjectsEditor.obj
 0001:00000b80       ??__E?m_banks@RMG_SettingsDlg@rmgdlg@@0V?$vector@U?$pair@UH3ObjectAttributes@h3@@PAUH3LoadedPcx16@2@@std@@V?$allocator@U?$pair@UH3ObjectAttributes@h3@@PAUH3LoadedPcx16@2@@std@@@2@@std@@A@@YAXXZ 10001b80 f   RMG_SettingsDlg.obj
 0001:00000b90       ??__E?m_commonObjects@RMG_SettingsDlg@rmgdlg@@0V?$vector@U?$pair@UH3ObjectAttributes@h3@@PAUH3LoadedPcx16@2@@std@@V?$allocator@U?$pair@UH3ObjectAttributes@h3@@PAUH3LoadedPcx16@2@@std@@@2@@std@@A@@YAXXZ 10001b90 f   RMG_SettingsDlg.obj
 0001:00000ba0       ??__E?m_dwellings@RMG_SettingsDlg@rmgdlg@@0V?$vector@U?$pair@UH3ObjectAttributes@h3@@PAUH3LoadedPcx16@2@@std@@V?$allocator@U?$pair@UH3ObjectAttributes@h3@@PAUH3LoadedPcx16@2@@std@@@2@@std@@A@@YAXXZ 10001ba0 f   RMG_SettingsDlg.obj
 0001:00000bb0       ??__E?m_wogObjects@RMG_SettingsDlg@rmgdlg@@0V?$vector@U?$pair@UH3ObjectAttributes@h3@@PAUH3LoadedPcx16@2@@std@@V?$allocator@U?$pair@UH3ObjectAttributes@h3@@PAUH3LoadedPcx16@2@@std@@@2@@std@@A@@YAXXZ 10001bb0 f   RMG_SettingsDlg.obj
 0001:00000bc0       ??__E?m_objectAttributes@RMG_SettingsDlg@rmgdlg@@0V?$vector@PAV?$vector@U?$pair@UH3ObjectAttributes@h3@@PAUH3LoadedPcx16@2@@std@@V?$allocator@U?$pair@UH3ObjectAttributes@h3@@PAUH3LoadedPcx16@2@@std@@@2@@std@@V?$allocator@PAV?$vector@U?$pair@UH3ObjectAttributes@h3@@PAUH3LoadedPcx16@2@@std@@V?$allocator@U?$pair@UH3ObjectAttributes@h3@@PAUH3LoadedPcx16@2@@std@@@2@@std@@@2@@std@@B@@YAXXZ 10001bc0 f   RMG_SettingsDlg.obj
 0001:00000ca3       ??__Einitlocks@std@@YAXXZ  10001ca3 f   libcpmt:xlock.obj
 0001:00000cb9       ??__E_Fac_tidy_reg@std@@YAXXZ 10001cb9 f   libcpmt:locale0.obj
 0001:00000cc5       ??__Eclassic_locale@std@@YAXXZ 10001cc5 f   libcpmt:locale0.obj
 0001:00000cd1       ??__Einit_atexit@@YAXXZ    10001cd1 f   libcpmt:iosptrs.obj
 0001:00000cdd       ??__Einitlocks@std@@YAXXZ  10001cdd f   libcpmt:iosptrs.obj
 0001:00002f7a       __catch$??$_Reallocate@$00@?$vector@UH3CreatureBankSetup@h3@@V?$allocator@UH3CreatureBankSetup@h3@@@std@@@std@@AAEXAAI@Z$0 10003f7a f i CreatureBanksExtender.obj
 0001:00002f7a       __catch$??$_Reallocate@$0A@@?$vector@UH3CreatureBankSetup@h3@@V?$allocator@UH3CreatureBankSetup@h3@@@std@@@std@@AAEXAAI@Z$0 10003f7a f i CreatureBanksExtender.obj
 0001:00003352       __catch$??$_Emplace_reallocate@AAUH3CreatureBankSetup@h3@@@?$vector@UH3CreatureBankSetup@h3@@V?$allocator@UH3CreatureBankSetup@h3@@@std@@@std@@AAEPAUH3CreatureBankSetup@h3@@QAU23@AAU23@@Z$0 10004352 f i CreatureBanksExtender.obj
 0001:00003617       __catch$??$_Resize_reallocate@U_Value_init_tag@std@@@?$vector@UH3CreatureBankSetup@h3@@V?$allocator@UH3CreatureBankSetup@h3@@@std@@@std@@AAEXIABU_Value_init_tag@1@@Z$0 10004617 f i CreatureBanksExtender.obj
 0001:00005670       _no_op_initialize          10006670 f i libucrt:wsetlocale.obj
 0001:00006cc3       __catch$??$getline@DU?$char_traits@D@std@@V?$allocator@D@2@@std@@YAAAV?$basic_istream@DU?$char_traits@D@std@@@0@$$QAV10@AAV?$basic_string@DU?$char_traits@D@std@@V?$allocator@D@2@@0@D@Z$0 10007cc3 f i ObjectsExtender.obj
 0001:00006ec9       __catch$??$_Emplace_reallocate@AAV?$basic_string@DU?$char_traits@D@std@@V?$allocator@D@2@@std@@@?$vector@V?$basic_string@DU?$char_traits@D@std@@V?$allocator@D@2@@std@@V?$allocator@V?$basic_string@DU?$char_traits@D@std@@V?$allocator@D@2@@std@@@2@@std@@AAEPAV?$basic_string@DU?$char_traits@D@std@@V?$allocator@D@2@@1@QAV21@AAV21@@Z$0 10007ec9 f i ObjectsExtender.obj
 0001:0000722c       __catch$??$_Emplace_reallocate@AAPBD@?$vector@V?$basic_string@DU?$char_traits@D@std@@V?$allocator@D@2@@std@@V?$allocator@V?$basic_string@DU?$char_traits@D@std@@V?$allocator@D@2@@std@@@2@@std@@AAEPAV?$basic_string@DU?$char_traits@D@std@@V?$allocator@D@2@@1@QAV21@AAPBD@Z$0 1000822c f i ObjectsExtender.obj
 0001:0000790d       __catch$?flush@?$basic_ostream@DU?$char_traits@D@std@@@std@@QAEAAV12@XZ$0 1000890d f i ObjectsExtender.obj
 0001:00007a70       __catch$?_Osfx@?$basic_ostream@DU?$char_traits@D@std@@@std@@QAEXXZ$0 10008a70 f i ObjectsExtender.obj
 0001:0000947c       $LN178                     1000a47c     RMG_SettingsDlg.obj
 0001:00009490       $LN177                     1000a490     RMG_SettingsDlg.obj
 0001:0000a040       ??$_Sort_unchecked@PAVRMGObject@rmgdlg@@V<lambda_1>@?1??SortRmgObjects@sorting@2@YAXAAV?$vector@VRMGObject@rmgdlg@@V?$allocator@VRMGObject@rmgdlg@@@std@@@std@@W4eSorting@52@_N@Z@@std@@YAXPAVRMGObject@rmgdlg@@0HV<lambda_1>@?1??SortRmgObjects@sorting@2@YAXAAV?$vector@VRMGObject@rmgdlg@@V?$allocator@VRMGObject@rmgdlg@@@std@@@0@W4eSorting@52@_N@Z@@Z 1000b040 f   RMG_SettingsDlg.obj
 0001:0000a7d2       __catch$??$_Emplace_reallocate@AAU?$pair@UH3ObjectAttributes@h3@@PAUH3LoadedPcx16@2@@std@@@?$vector@U?$pair@UH3ObjectAttributes@h3@@PAUH3LoadedPcx16@2@@std@@V?$allocator@U?$pair@UH3ObjectAttributes@h3@@PAUH3LoadedPcx16@2@@std@@@2@@std@@AAEPAU?$pair@UH3ObjectAttributes@h3@@PAUH3LoadedPcx16@2@@1@QAU21@AAU21@@Z$0 1000b7d2 f i RMG_SettingsDlg.obj
 0001:0000aa30       ??$_Insertion_sort_unchecked@PAVRMGObject@rmgdlg@@V<lambda_1>@?1??SortRmgObjects@sorting@2@YAXAAV?$vector@VRMGObject@rmgdlg@@V?$allocator@VRMGObject@rmgdlg@@@std@@@std@@W4eSorting@52@_N@Z@@std@@YAPAVRMGObject@rmgdlg@@QAV12@0V<lambda_1>@?1??SortRmgObjects@sorting@2@YAXAAV?$vector@VRMGObject@rmgdlg@@V?$allocator@VRMGObject@rmgdlg@@@std@@@0@W4eSorting@52@_N@Z@@Z 1000ba30 f   RMG_SettingsDlg.obj
 0001:0000afa8       $LN415                     1000bfa8     RMG_SettingsDlg.obj
 0001:0000afc4       $LN416                     1000bfc4     RMG_SettingsDlg.obj
 0001:0000afe0       ??$_Make_heap_unchecked@PAVRMGObject@rmgdlg@@V<lambda_1>@?1??SortRmgObjects@sorting@2@YAXAAV?$vector@VRMGObject@rmgdlg@@V?$allocator@VRMGObject@rmgdlg@@@std@@@std@@W4eSorting@52@_N@Z@@std@@YAXPAVRMGObject@rmgdlg@@0V<lambda_1>@?1??SortRmgObjects@sorting@2@YAXAAV?$vector@VRMGObject@rmgdlg@@V?$allocator@VRMGObject@rmgdlg@@@std@@@0@W4eSorting@52@_N@Z@@Z 1000bfe0 f   RMG_SettingsDlg.obj
 0001:0000b358       $LN215                     1000c358     RMG_SettingsDlg.obj
 0001:0000b380       ??$_Partition_by_median_guess_unchecked@PAVRMGObject@rmgdlg@@V<lambda_1>@?1??SortRmgObjects@sorting@2@YAXAAV?$vector@VRMGObject@rmgdlg@@V?$allocator@VRMGObject@rmgdlg@@@std@@@std@@W4eSorting@52@_N@Z@@std@@YA?AU?$pair@PAVRMGObject@rmgdlg@@PAV12@@0@PAVRMGObject@rmgdlg@@0V<lambda_1>@?1??SortRmgObjects@sorting@3@YAXAAV?$vector@VRMGObject@rmgdlg@@V?$allocator@VRMGObject@rmgdlg@@@std@@@0@W4eSorting@63@_N@Z@@Z 1000c380 f   RMG_SettingsDlg.obj
 0001:0000c78c       $LN1648                    1000d78c     RMG_SettingsDlg.obj
 0001:0000c7a8       $LN1649                    1000d7a8     RMG_SettingsDlg.obj
 0001:0000c7c4       $LN1650                    1000d7c4     RMG_SettingsDlg.obj
 0001:0000c7e0       $LN1651                    1000d7e0     RMG_SettingsDlg.obj
 0001:0000c7fc       $LN1652                    1000d7fc     RMG_SettingsDlg.obj
 0001:0000c818       $LN1653                    1000d818     RMG_SettingsDlg.obj
 0001:0000c834       $LN1654                    1000d834     RMG_SettingsDlg.obj
 0001:0000c850       $LN1655                    1000d850     RMG_SettingsDlg.obj
 0001:0000c8c0       ??$_Pop_heap_hole_by_index@PAVRMGObject@rmgdlg@@V12@V<lambda_1>@?1??SortRmgObjects@sorting@2@YAXAAV?$vector@VRMGObject@rmgdlg@@V?$allocator@VRMGObject@rmgdlg@@@std@@@std@@W4eSorting@52@_N@Z@@std@@YAXPAVRMGObject@rmgdlg@@HH$$QAV12@V<lambda_1>@?1??SortRmgObjects@sorting@2@YAXAAV?$vector@VRMGObject@rmgdlg@@V?$allocator@VRMGObject@rmgdlg@@@std@@@0@W4eSorting@52@_N@Z@@Z 1000d8c0 f   RMG_SettingsDlg.obj
 0001:0000cbb4       $LN206                     1000dbb4     RMG_SettingsDlg.obj
 0001:0000cbd0       ??$_Push_heap_by_index@PAVRMGObject@rmgdlg@@V12@V<lambda_1>@?1??SortRmgObjects@sorting@2@YAXAAV?$vector@VRMGObject@rmgdlg@@V?$allocator@VRMGObject@rmgdlg@@@std@@@std@@W4eSorting@52@_N@Z@@std@@YAXPAVRMGObject@rmgdlg@@HH$$QAV12@V<lambda_1>@?1??SortRmgObjects@sorting@2@YAXAAV?$vector@VRMGObject@rmgdlg@@V?$allocator@VRMGObject@rmgdlg@@@std@@@0@W4eSorting@52@_N@Z@@Z 1000dbd0 f   RMG_SettingsDlg.obj
 0001:0000ceb4       $LN205                     1000deb4     RMG_SettingsDlg.obj
 0001:0000ced0       ??$_Med3_unchecked@PAVRMGObject@rmgdlg@@V<lambda_1>@?1??SortRmgObjects@sorting@2@YAXAAV?$vector@VRMGObject@rmgdlg@@V?$allocator@VRMGObject@rmgdlg@@@std@@@std@@W4eSorting@52@_N@Z@@std@@YAXPAVRMGObject@rmgdlg@@00V<lambda_1>@?1??SortRmgObjects@sorting@2@YAXAAV?$vector@VRMGObject@rmgdlg@@V?$allocator@VRMGObject@rmgdlg@@@std@@@0@W4eSorting@52@_N@Z@@Z 1000ded0 f   RMG_SettingsDlg.obj
 0001:0000d4ee       _tidy_global               1000e4ee f   libcpmt:locale0.obj
 0001:0000da60       ??$__std_find_trivial_impl@U_Find_traits_4@?A0x8417fefe@@I@?A0x8417fefe@@YGPBXPBX0I@Z 1000ea60 f   libcpmt:vector_algorithms.obj
 0001:0000de60       _mtx_do_lock               1000ee60 f   libcpmt:mutex.obj
 0001:0000e005       ?initialize_pointers@@YAHXZ 1000f005 f   libcpmt:winapisupp.obj
 0001:0000e0fd       ?find_pe_section@@YAPAU_IMAGE_SECTION_HEADER@@QAEI@Z 1000f0fd f   LIBCMT:utility.obj
 0001:0000e67f       ?dllmain_crt_dispatch@@YGHQAUHINSTANCE__@@KQAX@Z 1000f67f f   LIBCMT:dll_dllmain.obj
 0001:0000e6d2       ?dllmain_crt_process_attach@@YAHQAUHINSTANCE__@@QAX@Z 1000f6d2 f   LIBCMT:dll_dllmain.obj
 0001:0000e7d9       ?dllmain_crt_process_detach@@YAH_N@Z 1000f7d9 f   LIBCMT:dll_dllmain.obj
 0001:0000e887       ?dllmain_dispatch@@YAHQAUHINSTANCE__@@KQAX@Z 1000f887 f   LIBCMT:dll_dllmain.obj
 0001:0000e992       ?dllmain_raw@@YGHQAUHINSTANCE__@@KQAX@Z 1000f992 f   LIBCMT:dll_dllmain.obj
 0001:0000ede0       $$000000                   1000fde0     LIBCMT:alloca16.obj
 0001:0000edf6       alloca_8                   1000fdf6     LIBCMT:alloca16.obj
 0001:0000ee10       $$000000                   1000fe10     LIBCMT:ulldiv.obj
 0001:0000ee32       L1                         1000fe32     LIBCMT:ulldiv.obj
 0001:0000ee40       L3                         1000fe40     LIBCMT:ulldiv.obj
 0001:0000ee6e       L4                         1000fe6e     LIBCMT:ulldiv.obj
 0001:0000ee6f       L5                         1000fe6f     LIBCMT:ulldiv.obj
 0001:0000ee73       L2                         1000fe73     LIBCMT:ulldiv.obj
 0001:0000ee80       $$000000                   1000fe80     LIBCMT:ullrem.obj
 0001:0000eea1       L1                         1000fea1     LIBCMT:ullrem.obj
 0001:0000eeaf       L3                         1000feaf     LIBCMT:ullrem.obj
 0001:0000eeda       L4                         1000feda     LIBCMT:ullrem.obj
 0001:0000eee2       L5                         1000fee2     LIBCMT:ullrem.obj
 0001:0000eef1       L2                         1000fef1     LIBCMT:ullrem.obj
 0001:0000ef00       $$000000                   1000ff00     LIBCMT:llmul.obj
 0001:0000ef19       hard                       1000ff19     LIBCMT:llmul.obj
 0001:0000f070       $$000000                   10010070     LIBCMT:sehprolg4.obj
 0001:0000f0b5       ___get_entropy             100100b5 f   LIBCMT:gs_support.obj
 0001:0000f3f0       $$000000                   100103f0     LIBCMT:chkstk.obj
 0001:0000f404       cs10                       10010404     LIBCMT:chkstk.obj
 0001:0000f412       cs20                       10010412     LIBCMT:chkstk.obj
 0001:0000f87b       ?_FilterSetCurrentException@@YAKPAU_EXCEPTION_POINTERS@@E@Z 1001087b f   libvcruntime:ehhelpers.obj
 0001:0000faa0       $$000000                   10010aa0     libvcruntime:memcpy.obj
 0001:0000faa0       $$000000                   10010aa0     libvcruntime:memmove.obj
 0001:0000fac0       CopyUp                     10010ac0     libvcruntime:memcpy.obj
 0001:0000fac0       CopyUp                     10010ac0     libvcruntime:memmove.obj
 0001:0000fae4       CopyUpLargeMov             10010ae4     libvcruntime:memcpy.obj
 0001:0000fae4       CopyUpLargeMov             10010ae4     libvcruntime:memmove.obj
 0001:0000faf7       CopyUpSSE2Check            10010af7     libvcruntime:memcpy.obj
 0001:0000faf7       CopyUpSSE2Check            10010af7     libvcruntime:memmove.obj
 0001:0000fb10       AtomChk                    10010b10     libvcruntime:memcpy.obj
 0001:0000fb10       AtomChk                    10010b10     libvcruntime:memmove.obj
 0001:0000fb36       PalignHead4                10010b36     libvcruntime:memcpy.obj
 0001:0000fb36       PalignHead4                10010b36     libvcruntime:memmove.obj
 0001:0000fb49       PalignHead8                10010b49     libvcruntime:memcpy.obj
 0001:0000fb49       PalignHead8                10010b49     libvcruntime:memmove.obj
 0001:0000fb60       PalignLoop                 10010b60     libvcruntime:memcpy.obj
 0001:0000fb60       PalignLoop                 10010b60     libvcruntime:memmove.obj
 0001:0000fb72       MovPalign12                10010b72     libvcruntime:memcpy.obj
 0001:0000fb72       MovPalign12                10010b72     libvcruntime:memmove.obj
 0001:0000fb7c       PalignLoop12               10010b7c     libvcruntime:memcpy.obj
 0001:0000fb7c       PalignLoop12               10010b7c     libvcruntime:memmove.obj
 0001:0000fbcd       MovPalign8                 10010bcd     libvcruntime:memcpy.obj
 0001:0000fbcd       MovPalign8                 10010bcd     libvcruntime:memmove.obj
 0001:0000fbd8       PalignLoop8                10010bd8     libvcruntime:memcpy.obj
 0001:0000fbd8       PalignLoop8                10010bd8     libvcruntime:memmove.obj
 0001:0000fc26       MovPalign4                 10010c26     libvcruntime:memcpy.obj
 0001:0000fc26       MovPalign4                 10010c26     libvcruntime:memmove.obj
 0001:0000fc30       PalignLoop4                10010c30     libvcruntime:memcpy.obj
 0001:0000fc30       PalignLoop4                10010c30     libvcruntime:memmove.obj
 0001:0000fc7c       PalignTail                 10010c7c     libvcruntime:memcpy.obj
 0001:0000fc7c       PalignTail                 10010c7c     libvcruntime:memmove.obj
 0001:0000fc94       PalignTail4                10010c94     libvcruntime:memcpy.obj
 0001:0000fc94       PalignTail4                10010c94     libvcruntime:memmove.obj
 0001:0000fca7       PalignTail8                10010ca7     libvcruntime:memcpy.obj
 0001:0000fca7       PalignTail8                10010ca7     libvcruntime:memmove.obj
 0001:0000fcbe       PalignTailLE3              10010cbe     libvcruntime:memcpy.obj
 0001:0000fcbe       PalignTailLE3              10010cbe     libvcruntime:memmove.obj
 0001:0000fcc7       Dword_align                10010cc7     libvcruntime:memcpy.obj
 0001:0000fcc7       Dword_align                10010cc7     libvcruntime:memmove.obj
 0001:0000fccf       Dword_up_align_loop        10010ccf     libvcruntime:memcpy.obj
 0001:0000fccf       Dword_up_align_loop        10010ccf     libvcruntime:memmove.obj
 0001:0000fce2       Dword_align_Ok             10010ce2     libvcruntime:memcpy.obj
 0001:0000fce2       Dword_align_Ok             10010ce2     libvcruntime:memmove.obj
 0001:0000fcfc       ByteCopyUp                 10010cfc     libvcruntime:memcpy.obj
 0001:0000fcfc       ByteCopyUp                 10010cfc     libvcruntime:memmove.obj
 0001:0000fd04       TrailingUpVec              10010d04     libvcruntime:memcpy.obj
 0001:0000fd04       TrailingUpVec              10010d04     libvcruntime:memmove.obj
 0001:0000fd14       TrailingUp0                10010d14     libvcruntime:memcpy.obj
 0001:0000fd14       TrailingUp0                10010d14     libvcruntime:memmove.obj
 0001:0000fd1c       TrailingUp1                10010d1c     libvcruntime:memcpy.obj
 0001:0000fd1c       TrailingUp1                10010d1c     libvcruntime:memmove.obj
 0001:0000fd28       TrailingUp2                10010d28     libvcruntime:memcpy.obj
 0001:0000fd28       TrailingUp2                10010d28     libvcruntime:memmove.obj
 0001:0000fd3c       TrailingUp3                10010d3c     libvcruntime:memcpy.obj
 0001:0000fd3c       TrailingUp3                10010d3c     libvcruntime:memmove.obj
 0001:0000fd54       CopyDown                   10010d54     libvcruntime:memcpy.obj
 0001:0000fd54       CopyDown                   10010d54     libvcruntime:memmove.obj
 0001:0000fd79       CopyDownNotAligned         10010d79     libvcruntime:memcpy.obj
 0001:0000fd79       CopyDownNotAligned         10010d79     libvcruntime:memmove.obj
 0001:0000fd80       CopyDownAlignLoop          10010d80     libvcruntime:memcpy.obj
 0001:0000fd80       CopyDownAlignLoop          10010d80     libvcruntime:memmove.obj
 0001:0000fd8d       CopyDownAligned            10010d8d     libvcruntime:memcpy.obj
 0001:0000fd8d       CopyDownAligned            10010d8d     libvcruntime:memmove.obj
 0001:0000fdb0       TrailingDownVec            10010db0     libvcruntime:memcpy.obj
 0001:0000fdb0       TrailingDownVec            10010db0     libvcruntime:memmove.obj
 0001:0000fdc0       TrailingDown0              10010dc0     libvcruntime:memcpy.obj
 0001:0000fdc0       TrailingDown0              10010dc0     libvcruntime:memmove.obj
 0001:0000fdc8       TrailingDown1              10010dc8     libvcruntime:memcpy.obj
 0001:0000fdc8       TrailingDown1              10010dc8     libvcruntime:memmove.obj
 0001:0000fdd8       TrailingDown2              10010dd8     libvcruntime:memcpy.obj
 0001:0000fdd8       TrailingDown2              10010dd8     libvcruntime:memmove.obj
 0001:0000fdec       TrailingDown3              10010dec     libvcruntime:memcpy.obj
 0001:0000fdec       TrailingDown3              10010dec     libvcruntime:memmove.obj
 0001:0000fe05       XmmMovLargeAlignTest       10010e05     libvcruntime:memcpy.obj
 0001:0000fe05       XmmMovLargeAlignTest       10010e05     libvcruntime:memmove.obj
 0001:0000fe0d       XmmMovAlignLoop            10010e0d     libvcruntime:memcpy.obj
 0001:0000fe0d       XmmMovAlignLoop            10010e0d     libvcruntime:memmove.obj
 0001:0000fe1c       XmmMovLargeLoop            10010e1c     libvcruntime:memcpy.obj
 0001:0000fe1c       XmmMovLargeLoop            10010e1c     libvcruntime:memmove.obj
 0001:0000fe8c       XmmMovSmallTest            10010e8c     libvcruntime:memcpy.obj
 0001:0000fe8c       XmmMovSmallTest            10010e8c     libvcruntime:memmove.obj
 0001:0000fe91       XmmMovSmallLoop            10010e91     libvcruntime:memcpy.obj
 0001:0000fe91       XmmMovSmallLoop            10010e91     libvcruntime:memmove.obj
 0001:0000feb4       CopyDownSmall              10010eb4     libvcruntime:memcpy.obj
 0001:0000feb4       CopyDownSmall              10010eb4     libvcruntime:memmove.obj
 0001:0000febc       CopyDownDwordLoop          10010ebc     libvcruntime:memcpy.obj
 0001:0000febc       CopyDownDwordLoop          10010ebc     libvcruntime:memmove.obj
 0001:0000fed1       CopyDownByteTest           10010ed1     libvcruntime:memcpy.obj
 0001:0000fed1       CopyDownByteTest           10010ed1     libvcruntime:memmove.obj
 0001:0000fed5       CopyDownByteLoop           10010ed5     libvcruntime:memcpy.obj
 0001:0000fed5       CopyDownByteLoop           10010ed5     libvcruntime:memmove.obj
 0001:0000fee4       CopyDownReturn             10010ee4     libvcruntime:memcpy.obj
 0001:0000fee4       CopyDownReturn             10010ee4     libvcruntime:memmove.obj
 0001:0000fef0       XmmCopy                    10010ef0     libvcruntime:memcpy.obj
 0001:0000fef0       XmmCopy                    10010ef0     libvcruntime:memmove.obj
 0001:0000fefd       XmmCopyAligned             10010efd     libvcruntime:memcpy.obj
 0001:0000fefd       XmmCopyAligned             10010efd     libvcruntime:memmove.obj
 0001:0000ff10       XmmCopyLargeLoop           10010f10     libvcruntime:memcpy.obj
 0001:0000ff10       XmmCopyLargeLoop           10010f10     libvcruntime:memmove.obj
 0001:0000ff6d       XmmCopySmallTest           10010f6d     libvcruntime:memcpy.obj
 0001:0000ff6d       XmmCopySmallTest           10010f6d     libvcruntime:memmove.obj
 0001:0000ff80       XmmCopySmallLoop           10010f80     libvcruntime:memcpy.obj
 0001:0000ff80       XmmCopySmallLoop           10010f80     libvcruntime:memmove.obj
 0001:0000ff9b       CopyUpDwordMov             10010f9b     libvcruntime:memcpy.obj
 0001:0000ff9b       CopyUpDwordMov             10010f9b     libvcruntime:memmove.obj
 0001:0000ffa0       CopyUpDwordTest            10010fa0     libvcruntime:memcpy.obj
 0001:0000ffa0       CopyUpDwordTest            10010fa0     libvcruntime:memmove.obj
 0001:0000ffa7       CopyUpDwordLoop            10010fa7     libvcruntime:memcpy.obj
 0001:0000ffa7       CopyUpDwordLoop            10010fa7     libvcruntime:memmove.obj
 0001:0000ffb6       CopyUpByteTest             10010fb6     libvcruntime:memcpy.obj
 0001:0000ffb6       CopyUpByteTest             10010fb6     libvcruntime:memmove.obj
 0001:0000ffbd       CopyUpByteLoop             10010fbd     libvcruntime:memcpy.obj
 0001:0000ffbd       CopyUpByteLoop             10010fbd     libvcruntime:memmove.obj
 0001:0000ffd0       CopyUpReturn               10010fd0     libvcruntime:memcpy.obj
 0001:0000ffd0       CopyUpReturn               10010fd0     libvcruntime:memmove.obj
 0001:0000ffe0       XmmCopyUnaligned           10010fe0     libvcruntime:memcpy.obj
 0001:0000ffe0       XmmCopyUnaligned           10010fe0     libvcruntime:memmove.obj
 0001:0000fff3       XmmAlignByte               10010ff3     libvcruntime:memcpy.obj
 0001:0000fff3       XmmAlignByte               10010ff3     libvcruntime:memmove.obj
 0001:0000fffc       XmmAlignDwordTest          10010ffc     libvcruntime:memcpy.obj
 0001:0000fffc       XmmAlignDwordTest          10010ffc     libvcruntime:memmove.obj
 0001:00010001       XmmAlignDwordLoop          10011001     libvcruntime:memcpy.obj
 0001:00010001       XmmAlignDwordLoop          10011001     libvcruntime:memmove.obj
 0001:0001000e       XmmAlignAdjustCnt          1001100e     libvcruntime:memcpy.obj
 0001:0001000e       XmmAlignAdjustCnt          1001100e     libvcruntime:memmove.obj
 0001:00010030       $$000000                   10011030     libvcruntime:memchr.obj
 0001:0001004b       str_misaligned             1001104b     libvcruntime:memchr.obj
 0001:00010061       main_loop_start            10011061     libvcruntime:memchr.obj
 0001:00010077       return_from_main           10011077     libvcruntime:memchr.obj
 0001:00010078       tail_less_then_4           10011078     libvcruntime:memchr.obj
 0001:0001007d       tail_loop                  1001107d     libvcruntime:memchr.obj
 0001:0001008b       retnull                    1001108b     libvcruntime:memchr.obj
 0001:0001008d       main_loop                  1001108d     libvcruntime:memchr.obj
 0001:00010092       main_loop_entry            10011092     libvcruntime:memchr.obj
 0001:000100ad       char_is_found              100110ad     libvcruntime:memchr.obj
 0001:000100c5       byte_3                     100110c5     libvcruntime:memchr.obj
 0001:000100c6       found                      100110c6     libvcruntime:memchr.obj
 0001:000100cb       byte_2                     100110cb     libvcruntime:memchr.obj
 0001:000100d1       byte_1                     100110d1     libvcruntime:memchr.obj
 0001:000100d7       byte_0                     100110d7     libvcruntime:memchr.obj
 0001:000100e0       $$000000                   100110e0     libvcruntime:memset.obj
 0001:00010125       XMMMov                     10011125     libvcruntime:memset.obj
 0001:00010160       LargeRangeBytes            10011160     libvcruntime:memset.obj
 0001:0001019d       XmmMovSmall                1001119d     libvcruntime:memset.obj
 0001:000101b0       XmmSmallLoop               100111b0     libvcruntime:memset.obj
 0001:000101b5       MidRangeBytes              100111b5     libvcruntime:memset.obj
 0001:000101d1       XMMTrailingBytes           100111d1     libvcruntime:memset.obj
 0001:000101e5       SmallMov                   100111e5     libvcruntime:memset.obj
 0001:000101ed       ByteLoop                   100111ed     libvcruntime:memset.obj
 0001:000101fb       DwordTest                  100111fb     libvcruntime:memset.obj
 0001:0001020b       QwordTest                  1001120b     libvcruntime:memset.obj
 0001:00010220       QwordLoop                  10011220     libvcruntime:memset.obj
 0001:00010233       toend                      10011233     libvcruntime:memset.obj
 0001:0001157e       $LN1250                    1001257e     libvcruntime:memcmp.obj
 0001:00011650       _ValidateLocalCookies      10012650 f   libvcruntime:chandler4.obj
 0001:000119ba       ??$BuildCatchObjectHelperInternal@V__FrameHandler3@@@@YAHPAUEHExceptionRecord@@PAXPBU_s_HandlerType@@PBU_s_CatchableType@@@Z 100129ba f   libvcruntime:frame.obj
 0001:00011af8       ??$BuildCatchObjectInternal@V__FrameHandler3@@@@YAXPAUEHExceptionRecord@@PAXPBU_s_HandlerType@@PBU_s_CatchableType@@@Z 10012af8 f   libvcruntime:frame.obj
 0001:00011b91       ??$CatchIt@V__FrameHandler3@@@@YAXPAUEHExceptionRecord@@PAUEHRegistrationNode@@PAU_CONTEXT@@PAXPBU_s_FuncInfo@@PBU_s_HandlerType@@PBU_s_CatchableType@@PBU_s_TryBlockMapEntry@@H1EE@Z 10012b91 f   libvcruntime:frame.obj
 0001:00011c12       ??$FindHandler@V__FrameHandler3@@@@YAXPAUEHExceptionRecord@@PAUEHRegistrationNode@@PAU_CONTEXT@@PAXPBU_s_FuncInfo@@EH1@Z 10012c12 f   libvcruntime:frame.obj
 0001:00011fb5       ??$FindHandlerForForeignException@V__FrameHandler3@@@@YAXPAUEHExceptionRecord@@PAUEHRegistrationNode@@PAU_CONTEXT@@PAXPBU_s_FuncInfo@@HH1@Z 10012fb5 f   libvcruntime:frame.obj
 0001:000122d6       ?CallCatchBlock@@YAPAXPAUEHExceptionRecord@@PAUEHRegistrationNode@@PAU_CONTEXT@@PBU_s_FuncInfo@@PAXHK@Z 100132d6 f   libvcruntime:frame.obj
 0001:000124a5       ?CallUnexpected@@YAXPBU_s_ESTypeList@@@Z 100134a5 f   libvcruntime:frame.obj
 0001:000124c5       __catch$?CallUnexpected@@YAXPBU_s_ESTypeList@@@Z$0 100134c5 f   libvcruntime:frame.obj
 0001:000124e4       ?ExFilterRethrow@@YAHPAU_EXCEPTION_POINTERS@@@Z 100134e4 f   libvcruntime:frame.obj
 0001:0001262e       ?IsInExceptionSpec@@YAEPAUEHExceptionRecord@@PBU_s_ESTypeList@@@Z 1001362e f   libvcruntime:frame.obj
 0001:00012700       $$000000                   10013700     libvcruntime:lowhelpr.obj
 0001:0001273f       _NLG_Continue              1001373f     libvcruntime:lowhelpr.obj
 0001:000127f0       $$000000                   100137f0     libvcruntime:exsup4.obj
 0001:00012822       _lu_top                    10013822     libvcruntime:exsup4.obj
 0001:00012881       _lu_done                   10013881     libvcruntime:exsup4.obj
 0001:00012890       $$000000                   10013890     libvcruntime:exsup4.obj
 0001:00012890       __unwind_handler4          10013890 f   libvcruntime:exsup4.obj
 0001:000128e0       $$000000                   100138e0     libvcruntime:exsup4.obj
 0001:00012900       $$000000                   10013900     libvcruntime:exsup4.obj
 0001:00012920       $$000000                   10013920     libvcruntime:exsup4.obj
 0001:00012935       ReturnPoint                10013935     libvcruntime:exsup4.obj
 0001:00012940       $$000000                   10013940     libvcruntime:exsup4.obj
 0001:00012957       ?try_get_function@@YAPAXW4function_id@?A0x14174aea@@QBDQBW4module_id@2@2@Z 10013957 f   libvcruntime:winapi_downlevel.obj
 0001:000129f7       ?try_load_library_from_system_directory@@YAPAUHINSTANCE__@@QB_W@Z 100139f7 f   libvcruntime:winapi_downlevel.obj
 0001:00012bc0       $$000000                   10013bc0     libvcruntime:exsup.obj
 0001:00012bd0       $$000000                   10013bd0     libvcruntime:exsup.obj
 0001:00012bdb       __NLG_Go                   10013bdb     libvcruntime:exsup.obj
 0001:00012bf0       $$000000                   10013bf0     libvcruntime:exsup.obj
 0001:00012bf3       ??$common_vsprintf@Vformat_validation_base@__crt_stdio_output@@D@@YAH_KQADIQBDAAV__crt_cached_ptd_host@@1@Z 10013bf3 f   libucrt:output.obj
 0001:00012d67       ??$common_vsprintf@Vstandard_base@__crt_stdio_output@@D@@YAH_KQADIQBDAAV__crt_cached_ptd_host@@1@Z 10013d67 f   libucrt:output.obj
 0001:00012edb       ??$common_vsprintf_s@D@@YAH_KQADIQBDAAV__crt_cached_ptd_host@@1@Z 10013edb f   libucrt:output.obj
 0001:000140c8       $LN140                     100150c8     libucrt:output.obj
 0001:0001439c       $LN130                     1001539c     libucrt:output.obj
 0001:000148a8       $LN18                      100158a8     libucrt:output.obj
 0001:000148bc       $LN17                      100158bc     libucrt:output.obj
 0001:00015c10       ??$thread_start@P6GIPAX@Z$00@@YGKQAX@Z 10016c10 f   libucrt:thread.obj
 0001:00015c8e       ??1?$__crt_unique_heap_ptr@U__acrt_thread_parameter@@Uthread_parameter_free_policy@?A0x4e93fcdd@@@@QAE@XZ 10016c8e f   libucrt:thread.obj
 0001:00015cc5       ?common_end_thread@@YAXI@Z 10016cc5 f   libucrt:thread.obj
 0001:00015d1c       ?create_thread_parameter@@YAPAU__acrt_thread_parameter@@QAX0@Z 10016d1c f   libucrt:thread.obj
 0001:00015eed       ??$common_atof_l@D@@YANQBDQAU__crt_locale_pointers@@@Z 10016eed f   libucrt:atof.obj
 0001:00016756       $LN30                      10017756     libucrt:atof.obj
 0001:00019095       _memcpy_s                  1001a095 f   libucrt:atof.obj
 0001:00019095       _memcpy_s                  1001a095 f   libucrt:cfout.obj
 0001:00019095       _memcpy_s                  1001a095 f   libucrt:mbctype.obj
 0001:000191d8       ??$?RV<lambda_f5952838e36297a1e2e9d6c748429792>@@AAV<lambda_2116bde18c9e5f34230805ea4a4660ed>@@V<lambda_3c7107de1cc98bf330a3031f42c322a3>@@@?$__crt_seh_guarded_call@PAD@@QAEPAD$$QAV<lambda_f5952838e36297a1e2e9d6c748429792>@@AAV<lambda_2116bde18c9e5f34230805ea4a4660ed>@@$$QAV<lambda_3c7107de1cc98bf330a3031f42c322a3>@@@Z 1001a1d8 f   libucrt:setlocale.obj
 0001:00019233       ??R<lambda_2116bde18c9e5f34230805ea4a4660ed>@@QBEPADXZ 1001a233 f   libucrt:setlocale.obj
 0001:00019392       _call_wsetlocale           1001a392 f   libucrt:setlocale.obj
 0001:00019bb0       $$000000                   1001abb0     libucrt:strcspn.obj
 0001:0001a49b       ??$?RV<lambda_03b1d95aef87969028cfba75ccab2455>@@AAV<lambda_6e4b09c48022b2350581041d5f6b0c4c>@@V<lambda_22bdf7517842c4b3e53723af5aa32b9e>@@@?$__crt_seh_guarded_call@X@@QAEX$$QAV<lambda_03b1d95aef87969028cfba75ccab2455>@@AAV<lambda_6e4b09c48022b2350581041d5f6b0c4c>@@$$QAV<lambda_22bdf7517842c4b3e53723af5aa32b9e>@@@Z 1001b49b f   libucrt:exit.obj
 0001:0001a4e8       ??R<lambda_6e4b09c48022b2350581041d5f6b0c4c>@@QBE@XZ 1001b4e8 f   libucrt:exit.obj
 0001:0001a5d0       ?common_exit@@YAXHW4_crt_exit_cleanup_mode@@W4_crt_exit_return_mode@@@Z 1001b5d0 f   libucrt:exit.obj
 0001:0001a667       ?exit_or_terminate_process@@YAXI@Z 1001b667 f   libucrt:exit.obj
 0001:0001a698       ?is_managed_app@@YA_NXZ    1001b698 f   libucrt:exit.obj
 0001:0001a6da       ?should_call_terminate_process@@YA_NXZ 1001b6da f   libucrt:exit.obj
 0001:0001a6f3       ?try_cor_exit_process@@YAXI@Z 1001b6f3 f   libucrt:exit.obj
 0001:0001a7b0       ??$common_configure_argv@D@@YAHW4_crt_argv_mode@@@Z 1001b7b0 f   libucrt:argv_parsing.obj
 0001:0001a8ed       ??$parse_command_line@D@@YAXPADPAPAD0PAI2@Z 1001b8ed f   libucrt:argv_parsing.obj
 0001:0001aabb       ??$common_initialize_environment_nolock@D@@YAHXZ 1001babb f   libucrt:environment_initialization.obj
 0001:0001ab15       ??$create_environment@D@@YAQAPADQAD@Z 1001bb15 f   libucrt:environment_initialization.obj
 0001:0001abf7       ??$free_environment@D@@YAXQAPAD@Z 1001bbf7 f   libucrt:environment_initialization.obj
 0001:0001abf7       ??$free_environment@_W@@YAXQAPA_W@Z 1001bbf7 f   libucrt:environment_initialization.obj
 0001:0001ac26       ??$uninitialize_environment_internal@D@@YAXAAPAPAD@Z 1001bc26 f   libucrt:environment_initialization.obj
 0001:0001ac41       ??$uninitialize_environment_internal@_W@@YAXAAPAPA_W@Z 1001bc41 f   libucrt:environment_initialization.obj
 0001:0001acb2       ??$?RV<lambda_69a2805e680e0e292e8ba93315fe43a8>@@AAV<lambda_f03950bc5685219e0bcd2087efbe011e>@@V<lambda_03fcd07e894ec930e3f35da366ca99d6>@@@?$__crt_seh_guarded_call@H@@QAEH$$QAV<lambda_69a2805e680e0e292e8ba93315fe43a8>@@AAV<lambda_f03950bc5685219e0bcd2087efbe011e>@@$$QAV<lambda_03fcd07e894ec930e3f35da366ca99d6>@@@Z 1001bcb2 f   libucrt:onexit.obj
 0001:0001ad0d       ??$?RV<lambda_8e746cf0007f6ed984d6f78af1fec997>@@AAV<lambda_22ebabd17bc4fa466a2aca6d8deb888d>@@V<lambda_18ed0c0b38a6dc0daf1e7ac6d6adf05e>@@@?$__crt_seh_guarded_call@H@@QAEH$$QAV<lambda_8e746cf0007f6ed984d6f78af1fec997>@@AAV<lambda_22ebabd17bc4fa466a2aca6d8deb888d>@@$$QAV<lambda_18ed0c0b38a6dc0daf1e7ac6d6adf05e>@@@Z 1001bd0d f   libucrt:onexit.obj
 0001:0001ad87       ??R<lambda_22ebabd17bc4fa466a2aca6d8deb888d>@@QBE@XZ 1001bd87 f   libucrt:onexit.obj
 0001:0001ae89       ??R<lambda_f03950bc5685219e0bcd2087efbe011e>@@QBE@XZ 1001be89 f   libucrt:onexit.obj
 0001:0001b013       _initialize_global_variables 1001c013 f   libucrt:initialization.obj
 0001:0001b020       _initialize_c              1001c020 f   libucrt:initialization.obj
 0001:0001b03a       _initialize_environment    1001c03a f   libucrt:initialization.obj
 0001:0001b03a       _initialize_global_state_isolation 1001c03a f   libucrt:initialization.obj
 0001:0001b03a       _report_memory_leaks       1001c03a f   libucrt:initialization.obj
 0001:0001b03a       _uninitialize_c            1001c03a f   libucrt:initialization.obj
 0001:0001b03a       _uninitialize_global_state_isolation 1001c03a f   libucrt:initialization.obj
 0001:0001b03d       _uninitialize_environment  1001c03d f   libucrt:initialization.obj
 0001:0001b045       _initialize_pointers       1001c045 f   libucrt:initialization.obj
 0001:0001b073       _uninitialize_vcruntime    1001c073 f   libucrt:initialization.obj
 0001:0001b07c       _uninitialize_allocated_memory 1001c07c f   libucrt:initialization.obj
 0001:0001b093       _uninitialize_allocated_io_buffers 1001c093 f   libucrt:initialization.obj
 0001:0001b0e3       ??R<lambda_af42a3ee9806e9a7305d451646e05244>@@QBE@AAPAU__crt_multibyte_data@@@Z 1001c0e3 f   libucrt:initialization.obj
 0001:0001b230       $$000000                   1001c230     libucrt:strncmp.obj
 0001:0001b488       ?fe_to_nearest@@YA_NQBN_KF@Z 1001c488 f   libucrt:cvt.obj
 0001:0001b52b       ?fp_format_a@@YAHQBNPADIQADIH_NIW4__acrt_rounding_mode@@AAV__crt_cached_ptd_host@@@Z 1001c52b f   libucrt:cvt.obj
 0001:0001b858       ?fp_format_e@@YAHQBNQADI1IH_NIW4__acrt_rounding_mode@@AAV__crt_cached_ptd_host@@@Z 1001c858 f   libucrt:cvt.obj
 0001:0001b8fc       ?fp_format_e_internal@@YAHQADIH_NIQAU_strflt@@1AAV__crt_cached_ptd_host@@@Z 1001c8fc f   libucrt:cvt.obj
 0001:0001ba4f       ?fp_format_f@@YAHQBNQADI1IHW4__acrt_rounding_mode@@AAV__crt_cached_ptd_host@@@Z 1001ca4f f   libucrt:cvt.obj
 0001:0001bae5       ?fp_format_f_internal@@YAHQADIHQAU_strflt@@_NAAV__crt_cached_ptd_host@@@Z 1001cae5 f   libucrt:cvt.obj
 0001:0001bbd3       ?fp_format_g@@YAHQBNQADI1IH_NIW4__acrt_rounding_mode@@AAV__crt_cached_ptd_host@@@Z 1001cbd3 f   libucrt:cvt.obj
 0001:0001bca2       ?fp_format_nan_or_infinity@@YAHW4__acrt_fp_class@@_NPADI1@Z 1001cca2 f   libucrt:cvt.obj
 0001:0001bd37       ?shift_bytes@@YAXQADI0H@Z  1001cd37 f   libucrt:cvt.obj
 0001:0001bd6b       ?should_round_up@@YA_NQBN_KFW4__acrt_rounding_mode@@@Z 1001cd6b f   libucrt:cvt.obj
 0001:0001c258       ??$?RV<lambda_15ade71b0218206bbe3333a0c9b79046>@@AAV<lambda_da44e0f8b0f19ba52fefafb335991732>@@V<lambda_207f2d024fc103971653565357d6cd41>@@@?$__crt_seh_guarded_call@X@@QAEX$$QAV<lambda_15ade71b0218206bbe3333a0c9b79046>@@AAV<lambda_da44e0f8b0f19ba52fefafb335991732>@@$$QAV<lambda_207f2d024fc103971653565357d6cd41>@@@Z 1001d258 f   libucrt:per_thread_data.obj
 0001:0001c2aa       ??$?RV<lambda_38edbb1296d33220d7e4dd0ed76b244a>@@AAV<lambda_5ce1d447e08cb34b2473517608e21441>@@V<lambda_fb385d3da700c9147fc39e65dd577a8c>@@@?$__crt_seh_guarded_call@X@@QAEX$$QAV<lambda_38edbb1296d33220d7e4dd0ed76b244a>@@AAV<lambda_5ce1d447e08cb34b2473517608e21441>@@$$QAV<lambda_fb385d3da700c9147fc39e65dd577a8c>@@@Z 1001d2aa f   libucrt:per_thread_data.obj
 0001:0001c315       ??$?RV<lambda_6affb1475c98b40b75cdec977db92e3c>@@AAV<lambda_b8d4b9c228a6ecc3f80208dbb4b4a104>@@V<lambda_608742c3c92a14382c1684fc64f96c88>@@@?$__crt_seh_guarded_call@X@@QAEX$$QAV<lambda_6affb1475c98b40b75cdec977db92e3c>@@AAV<lambda_b8d4b9c228a6ecc3f80208dbb4b4a104>@@$$QAV<lambda_608742c3c92a14382c1684fc64f96c88>@@@Z 1001d315 f   libucrt:per_thread_data.obj
 0001:0001c36a       ??$?RV<lambda_a7e850c220f1c8d1e6efeecdedd162c6>@@AAV<lambda_46720907175c18b6c9d2717bc0d2d362>@@V<lambda_9048902d66e8d99359bc9897bbb930a8>@@@?$__crt_seh_guarded_call@X@@QAEX$$QAV<lambda_a7e850c220f1c8d1e6efeecdedd162c6>@@AAV<lambda_46720907175c18b6c9d2717bc0d2d362>@@$$QAV<lambda_9048902d66e8d99359bc9897bbb930a8>@@@Z 1001d36a f   libucrt:per_thread_data.obj
 0001:0001c3c4       ?construct_ptd@@YAXQAU__acrt_ptd@@QAPAU__crt_locale_data@@@Z 1001d3c4 f   libucrt:per_thread_data.obj
 0001:0001c45d       ?destroy_fls@@YGXPAX@Z     1001d45d f   libucrt:per_thread_data.obj
 0001:0001c47e       ?destroy_ptd@@YAXQAU__acrt_ptd@@@Z 1001d47e f   libucrt:per_thread_data.obj
 0001:0001c54b       ?replace_current_thread_locale_nolock@@YAXQAU__acrt_ptd@@QAU__crt_locale_data@@@Z 1001d54b f   libucrt:per_thread_data.obj
 0001:0001c8ad       ??$?RV<lambda_4fdada1b837b2abbf20876fac97688ad>@@AAV<lambda_b57350f2640456a0859d250846f69caf>@@V<lambda_eed5e4f92b5b7d55fa22c48c484aaa54>@@@?$__crt_seh_guarded_call@X@@QAEX$$QAV<lambda_4fdada1b837b2abbf20876fac97688ad>@@AAV<lambda_b57350f2640456a0859d250846f69caf>@@$$QAV<lambda_eed5e4f92b5b7d55fa22c48c484aaa54>@@@Z 1001d8ad f   libucrt:wsetlocale.obj
 0001:0001c8fa       ??$?RV<lambda_ac03c5d59bd18b09cb88b28331f6bfed>@@AAV<lambda_2a444430fde8c29194d880d93eed5e8f>@@AAV<lambda_02db5278e8aef8b5e4976579d73f5304>@@@?$__crt_seh_guarded_call@X@@QAEX$$QAV<lambda_ac03c5d59bd18b09cb88b28331f6bfed>@@AAV<lambda_2a444430fde8c29194d880d93eed5e8f>@@AAV<lambda_02db5278e8aef8b5e4976579d73f5304>@@@Z 1001d8fa f   libucrt:wsetlocale.obj
 0001:0001c93f       ??$?RV<lambda_e5124f882df8998aaf41531e079ba474>@@AAV<lambda_3e16ef9562a7dcce91392c22ab16ea36>@@V<lambda_e25ca0880e6ef98be67edffd8c599615>@@@?$__crt_seh_guarded_call@X@@QAEX$$QAV<lambda_e5124f882df8998aaf41531e079ba474>@@AAV<lambda_3e16ef9562a7dcce91392c22ab16ea36>@@$$QAV<lambda_e25ca0880e6ef98be67edffd8c599615>@@@Z 1001d93f f   libucrt:wsetlocale.obj
 0001:0001ca27       ??R<lambda_2a444430fde8c29194d880d93eed5e8f>@@QBE@XZ 1001da27 f   libucrt:wsetlocale.obj
 0001:0001ca91       ??R<lambda_b57350f2640456a0859d250846f69caf>@@QBE@XZ 1001da91 f   libucrt:wsetlocale.obj
 0001:0001ce47       __copytlocinfo_nolock      1001de47 f   libucrt:wsetlocale.obj
 0001:0001ce76       __expandlocale             1001de76 f   libucrt:wsetlocale.obj
 0001:0001d300       __wsetlocale_get_all       1001e300 f   libucrt:wsetlocale.obj
 0001:0001d49b       __wsetlocale_nolock        1001e49b f   libucrt:wsetlocale.obj
 0001:0001d78b       __wsetlocale_set_cat       1001e78b f   libucrt:wsetlocale.obj
 0001:0001db4b       _get_default_code_page     1001eb4b f   libucrt:wsetlocale.obj
 0001:0001db7a       _parse_bcp47               1001eb7a f   libucrt:wsetlocale.obj
 0001:0001dd54       _parse_bcp47_code_page     1001ed54 f   libucrt:wsetlocale.obj
 0001:0001dd93       _parse_bcp47_language      1001ed93 f   libucrt:wsetlocale.obj
 0001:0001de05       _parse_bcp47_region        1001ee05 f   libucrt:wsetlocale.obj
 0001:0001dec3       _parse_bcp47_script        1001eec3 f   libucrt:wsetlocale.obj
 0001:0001df33       _string_is_alpha           1001ef33 f   libucrt:wsetlocale.obj
 0001:0001df72       ?initialize_inherited_file_handles_nolock@@YAXXZ 1001ef72 f   libucrt:ioinit.obj
 0001:0001e028       ?initialize_stdio_handles_nolock@@YAXXZ 1001f028 f   libucrt:ioinit.obj
 0001:0001e164       ?__acrt_LCMapStringA_stat@@YAHPAU__crt_locale_pointers@@PB_WKPBDHPADHHH@Z 1001f164 f   libucrt:lcmapstringa.obj
 0001:0001e52d       ?<lambda_invoker_stdcall>@<lambda_29d3c280b90b41c2ae070ffca879996a>@@CG@PA_W@Z 1001f52d f   libucrt:winapi_thunks.obj
 0001:0001e53a       ??$?RV<lambda_6b4b7855443974f2b4b77000ea21c99c>@@AAV<lambda_8f7d3b162ab39427f4fa9995c67a7986>@@V<lambda_cc9a5ba8a5d8428b9634eab82665e5dc>@@@?$__crt_seh_guarded_call@H@@QAEH$$QAV<lambda_6b4b7855443974f2b4b77000ea21c99c>@@AAV<lambda_8f7d3b162ab39427f4fa9995c67a7986>@@$$QAV<lambda_cc9a5ba8a5d8428b9634eab82665e5dc>@@@Z 1001f53a f   libucrt:winapi_thunks.obj
 0001:0001e5b6       ??R<lambda_29d3c280b90b41c2ae070ffca879996a>@@QBE@PA_W@Z 1001f5b6 f   libucrt:winapi_thunks.obj
 0001:0001e5e9       ?try_get_AreFileApisANSI@@YAP6GHXZXZ 1001f5e9 f   libucrt:winapi_thunks.obj
 0001:0001e603       ?try_get_CompareStringEx@@YAP6GHPB_WK0H0HPAU_nlsversioninfo@@PAXJ@ZXZ 1001f603 f   libucrt:winapi_thunks.obj
 0001:0001e61d       ?try_get_EnumSystemLocalesEx@@YAP6GHP6GHPA_WKJ@ZKJPAX@ZXZ 1001f61d f   libucrt:winapi_thunks.obj
 0001:0001e637       ?try_get_GetDateFormatEx@@YAP6GHPB_WKPBU_SYSTEMTIME@@0PA_WH0@ZXZ 1001f637 f   libucrt:winapi_thunks.obj
 0001:0001e651       ?try_get_GetLocaleInfoEx@@YAP6GHPB_WKPA_WH@ZXZ 1001f651 f   libucrt:winapi_thunks.obj
 0001:0001e66b       ?try_get_GetTimeFormatEx@@YAP6GHPB_WKPBU_SYSTEMTIME@@0PA_WH@ZXZ 1001f66b f   libucrt:winapi_thunks.obj
 0001:0001e685       ?try_get_GetUserDefaultLocaleName@@YAP6GHPA_WH@ZXZ 1001f685 f   libucrt:winapi_thunks.obj
 0001:0001e69f       ?try_get_IsValidLocaleName@@YAP6GHPB_W@ZXZ 1001f69f f   libucrt:winapi_thunks.obj
 0001:0001e6b9       ?try_get_LCIDToLocaleName@@YAP6GHKPA_WHK@ZXZ 1001f6b9 f   libucrt:winapi_thunks.obj
 0001:0001e6d3       ?try_get_LCMapStringEx@@YAP6GHPB_WK0HPA_WHPAU_nlsversioninfo@@PAXJ@ZXZ 1001f6d3 f   libucrt:winapi_thunks.obj
 0001:0001e6ed       ?try_get_LocaleNameToLCID@@YAP6GKPB_WK@ZXZ 1001f6ed f   libucrt:winapi_thunks.obj
 0001:0001e707       ?try_get_first_available_module@@YAPAUHINSTANCE__@@QBW4module_id@?A0x391cf84c@@0@Z 1001f707 f   libucrt:winapi_thunks.obj
 0001:0001e7d2       ?try_get_function@@YAPAXW4function_id@?A0x391cf84c@@QBDQBW4module_id@2@2@Z 1001f7d2 f   libucrt:winapi_thunks.obj
 0001:0001ed77       ?_mbstowcs_internal@@YAHPAIPA_WIPBDIAAV__crt_cached_ptd_host@@@Z 1001fd77 f   libucrt:mbstowcs.obj
 0001:0001ee53       ?_mbstowcs_l_helper@@YAIPA_WPBDIAAV__crt_cached_ptd_host@@@Z 1001fe53 f   libucrt:mbstowcs.obj
 0001:0001f057       ?_wcstombs_internal@@YAHPAIPADIPB_WIAAV__crt_cached_ptd_host@@@Z 10020057 f   libucrt:wcstombs.obj
 0001:0001f12c       ?_wcstombs_l_helper@@YAIPADPB_WIAAV__crt_cached_ptd_host@@@Z 1002012c f   libucrt:wcstombs.obj
 0001:0001f411       ?InternalGetLocaleInfoA@@YAHQAU__crt_locale_pointers@@QB_WKQADH@Z 10020411 f   libucrt:getlocaleinfoa.obj
 0001:0001f805       ??$?RV<lambda_cbab9ec6f41b0180b23cc171c22676b0>@@AAV<lambda_44731a7d0e6d81c3e6aa82d741081786>@@V<lambda_4b292cb8dd18144e164572427af410ab>@@@?$__crt_seh_guarded_call@P6AXH@Z@@QAEP6AXH@Z$$QAV<lambda_cbab9ec6f41b0180b23cc171c22676b0>@@AAV<lambda_44731a7d0e6d81c3e6aa82d741081786>@@$$QAV<lambda_4b292cb8dd18144e164572427af410ab>@@@Z 10020805 f   libucrt:signal.obj
 0001:0001f86d       ?get_global_action_nolock@@YAPAP6AXH@ZH@Z 1002086d f   libucrt:signal.obj
 0001:0001f8af       ?siglookup@@YAPAU__crt_signal_action_t@@HQAU1@@Z 100208af f   libucrt:signal.obj
 0001:0002060f       ??$?RV<lambda_2866be3712abc81a800a822484c830d8>@@AAV<lambda_39ca0ed439415581b5b15c265174cece>@@V<lambda_2b24c74d71094a6cd0cb82e44167d71b>@@@?$__crt_seh_guarded_call@X@@QAEX$$QAV<lambda_2866be3712abc81a800a822484c830d8>@@AAV<lambda_39ca0ed439415581b5b15c265174cece>@@$$QAV<lambda_2b24c74d71094a6cd0cb82e44167d71b>@@@Z 1002160f f   libucrt:fflush.obj
 0001:0002069b       ??$?RV<lambda_2cc53f568c5a2bb6f192f930a45d44ea>@@AAV<lambda_ab61a845afdef5b7c387490eaf3616ee>@@V<lambda_c2ffc0b7726aa6be21d5f0026187e748>@@@?$__crt_seh_guarded_call@X@@QAEX$$QAV<lambda_2cc53f568c5a2bb6f192f930a45d44ea>@@AAV<lambda_ab61a845afdef5b7c387490eaf3616ee>@@$$QAV<lambda_c2ffc0b7726aa6be21d5f0026187e748>@@@Z 1002169b f   libucrt:fflush.obj
 0001:00020747       ?common_flush_all@@YAH_N@Z 10021747 f   libucrt:fflush.obj
 0001:00020794       ?common_flush_all_should_try_to_flush_stream@@YA_NV__crt_stdio_stream@@QAH@Z 10021794 f   libucrt:fflush.obj
 0001:000207c5       ?is_stream_flushable_or_commitable@@YA_NJ@Z 100217c5 f   libucrt:fflush.obj
 0001:000208ff       ?filter_mbtowcs_flags@@YAKIK@Z 100218ff f   libucrt:multibytetowidechar.obj
 0001:000209c1       ?filter_wcstomb_flags@@YAKIK@Z 100219c1 f   libucrt:widechartomultibyte.obj
 0001:00020cd3       ?<lambda_invoker_cdecl>@<lambda_838c7f62c73c983481e27c09e84b0b5d>@@CAHPBX0@Z 10021cd3 f   libucrt:argv_wildcards.obj
 0001:00020db1       ??$common_expand_argv_wildcards@D@@YAHQAPADQAPAPAD@Z 10021db1 f   libucrt:argv_wildcards.obj
 0001:00020f2e       ??$copy_and_add_argument_to_buffer@D@@YAHQBD0IAAV?$argument_list@D@?A0x5f5c8891@@@Z 10021f2e f   libucrt:argv_wildcards.obj
 0001:00020fdf       ??$expand_argument_wildcards@D@@YAHQAD0AAV?$argument_list@D@?A0x5f5c8891@@@Z 10021fdf f   libucrt:argv_wildcards.obj
 0001:00021264       ??1?$argument_list@D@?A0x5f5c8891@@QAE@XZ 10022264 f   libucrt:argv_wildcards.obj
 0001:000212c5       ?expand_if_necessary@?$argument_list@D@?A0x5f5c8891@@AAEHXZ 100222c5 f   libucrt:argv_wildcards.obj
 0001:000213f8       ??$?RV<lambda_ceb1ee4838e85a9d631eb091e2fbe199>@@AAV<lambda_ae742caa10f662c28703da3d2ea5e57e>@@V<lambda_cd08b5d6af4937fe54fc07d0c9bf6b37>@@@?$__crt_seh_guarded_call@X@@QAEX$$QAV<lambda_ceb1ee4838e85a9d631eb091e2fbe199>@@AAV<lambda_ae742caa10f662c28703da3d2ea5e57e>@@$$QAV<lambda_cd08b5d6af4937fe54fc07d0c9bf6b37>@@@Z 100223f8 f   libucrt:mbctype.obj
 0001:00021445       ??R<lambda_ae742caa10f662c28703da3d2ea5e57e>@@QBE@XZ 10022445 f   libucrt:mbctype.obj
 0001:000214c8       ?CPtoLocaleName@@YAPB_WH@Z 100224c8 f   libucrt:mbctype.obj
 0001:00021506       ?getSystemCP@@YAHH@Z       10022506 f   libucrt:mbctype.obj
 0001:00021577       ?setSBCS@@YAXPAU__crt_multibyte_data@@@Z 10022577 f   libucrt:mbctype.obj
 0001:000215da       ?setSBUpLow@@YAXPAU__crt_multibyte_data@@@Z 100225da f   libucrt:mbctype.obj
 0001:0002177f       ?setmbcp_internal@@YAHH_NQAU__acrt_ptd@@QAPAU__crt_multibyte_data@@@Z 1002277f f   libucrt:mbctype.obj
 0001:000218d4       ?update_thread_multibyte_data_internal@@YAPAU__crt_multibyte_data@@QAU__acrt_ptd@@QAPAU1@@Z 100228d4 f   libucrt:mbctype.obj
 0001:00021bd4       ?x_ismbbtype_l@@YAHPAU__crt_locale_pointers@@IHH@Z 10022bd4 f   libucrt:ismbbyte.obj
 0001:00021c55       ?find_end_of_double_null_terminated_sequence@@YAPB_WQB_W@Z 10022c55 f   libucrt:get_environment_from_os.obj
 0001:00022250       ?check_trailing@@YA_NPBDW4__acrt_has_trailing_digits@@@Z 10023250 f   libucrt:_fptostr.obj
 0001:00022273       ?should_round_up@@YA_NQBD0HW4__acrt_has_trailing_digits@@W4__acrt_rounding_mode@@@Z 10023273 f   libucrt:_fptostr.obj
 0001:00023a93       ??R<lambda_e96123212306c92459f955e8e4eac55d>@@QBEIPBD@Z 10024a93 f   libucrt:mbrtowc.obj
 0001:00024345       ?free_crt_array_internal@@YAXQAPBXI@Z 10025345 f   libucrt:inittime.obj
 0001:0002436a       ?initialize_lc_time@@YA_NQAU__crt_lc_time_data@@QAU__crt_locale_data@@@Z 1002536a f   libucrt:inittime.obj
 0001:000247b4       ??$common_tcsncat_s@_W@@YAHQA_WIQB_WI@Z 100257b4 f   libucrt:wcsncat_s.obj
 0001:000248a7       ??$common_tcsncpy_s@_W@@YAHQA_WIQB_WI@Z 100258a7 f   libucrt:wcsncpy_s.obj
 0001:00024a27       _GetLocaleNameFromDefault  10025a27 f   libucrt:get_qualified_locale.obj
 0001:00024aae       _GetLocaleNameFromLangCountry 10025aae f   libucrt:get_qualified_locale.obj
 0001:00024b47       _GetLocaleNameFromLanguage 10025b47 f   libucrt:get_qualified_locale.obj
 0001:00024ba0       _GetPrimaryLen             10025ba0 f   libucrt:get_qualified_locale.obj
 0001:00024bd4       _LangCountryEnumProcEx@12  10025bd4 f   libucrt:get_qualified_locale.obj
 0001:00024eb5       _LanguageEnumProcEx@12     10025eb5 f   libucrt:get_qualified_locale.obj
 0001:00024f74       _ProcessCodePage           10025f74 f   libucrt:get_qualified_locale.obj
 0001:00025064       _TestDefaultCountry        10026064 f   libucrt:get_qualified_locale.obj
 0001:000250b1       _TranslateName             100260b1 f   libucrt:get_qualified_locale.obj
 0001:00025323       _CountryEnumProc@4         10026323 f   libucrt:getqloc_downlevel.obj
 0001:000253ca       _GetLcidFromCountry        100263ca f   libucrt:getqloc_downlevel.obj
 0001:00025415       _GetLcidFromLangCountry    10026415 f   libucrt:getqloc_downlevel.obj
 0001:000254b0       _GetLcidFromLanguage       100264b0 f   libucrt:getqloc_downlevel.obj
 0001:0002550f       _GetPrimaryLen             1002650f f   libucrt:getqloc_downlevel.obj
 0001:0002553b       _LangCountryEnumProc@4     1002653b f   libucrt:getqloc_downlevel.obj
 0001:0002578e       _LanguageEnumProc@4        1002678e f   libucrt:getqloc_downlevel.obj
 0001:00025863       _LcidFromHexString         10026863 f   libucrt:getqloc_downlevel.obj
 0001:000258b7       _ProcessCodePage           100268b7 f   libucrt:getqloc_downlevel.obj
 0001:00025998       _TestDefaultCountry        10026998 f   libucrt:getqloc_downlevel.obj
 0001:000259bd       _TestDefaultLanguage       100269bd f   libucrt:getqloc_downlevel.obj
 0001:00025a32       _TranslateName             10026a32 f   libucrt:getqloc_downlevel.obj
 0001:00025f2b       ?GetTableIndexFromLocaleName@@YAHPB_W@Z 10026f2b f   libucrt:lcidtoname_downlevel.obj
 0001:0002604a       ?to_abstract_control@@YA?AW4__acrt_fenv_abstract_control@@W4__acrt_fenv_machine_sse_control@@@Z 1002704a f   libucrt:_fenvutils.obj
 0001:000260fa       ?to_abstract_control@@YA?AW4__acrt_fenv_abstract_control@@W4__acrt_fenv_machine_x87_control@@@Z 100270fa f   libucrt:_fenvutils.obj
 0001:000261a7       ?to_machine_sse_control@@YA?AW4__acrt_fenv_machine_sse_control@@W4__acrt_fenv_abstract_control@@@Z 100271a7 f   libucrt:_fenvutils.obj
 0001:0002625d       ?to_machine_x87_control@@YA?AW4__acrt_fenv_machine_x87_control@@W4__acrt_fenv_abstract_control@@@Z 1002725d f   libucrt:_fenvutils.obj
 0001:000266e5       ??$common_tcsncpy_s@D@@YAHQADIQBDI@Z 100276e5 f   libucrt:strncpy_s.obj
 0001:000267a7       ?_fclose_internal@@YAHQAU_iobuf@@AAV__crt_cached_ptd_host@@@Z 100277a7 f   libucrt:fclose.obj
 0001:0002683e       ?_fclose_nolock_internal@@YAHQAU_iobuf@@AAV__crt_cached_ptd_host@@@Z 1002783e f   libucrt:fclose.obj
 0001:000268fc       ??$?RV<lambda_9e9de3de5fa147e2223d7db92bc10aa6>@@AAV<lambda_38ce7e780aa69e748d6df282ebc68efe>@@V<lambda_8ca6da459f0f6780f1cff60fdc3d00e5>@@@?$__crt_seh_guarded_call@H@@QAEH$$QAV<lambda_9e9de3de5fa147e2223d7db92bc10aa6>@@AAV<lambda_38ce7e780aa69e748d6df282ebc68efe>@@$$QAV<lambda_8ca6da459f0f6780f1cff60fdc3d00e5>@@@Z 100278fc f   libucrt:commit.obj
 0001:00026a1b       ?write_double_translated_ansi_nolock@@YA?AUwrite_result@?A0x17268360@@HQBDIAAV__crt_cached_ptd_host@@@Z 10027a1b f   libucrt:write.obj
 0001:00026de2       ?write_double_translated_unicode_nolock@@YA?AUwrite_result@?A0x17268360@@QBDI@Z 10027de2 f   libucrt:write.obj
 0001:00026e4a       ?write_requires_double_translation_nolock@@YA_NHAAV__crt_cached_ptd_host@@@Z 10027e4a f   libucrt:write.obj
 0001:00026ec7       ?write_text_ansi_nolock@@YA?AUwrite_result@?A0x17268360@@HQBDI@Z 10027ec7 f   libucrt:write.obj
 0001:00026fa2       ?write_text_utf16le_nolock@@YA?AUwrite_result@?A0x17268360@@HQBDI@Z 10027fa2 f   libucrt:write.obj
 0001:0002708b       ?write_text_utf8_nolock@@YA?AUwrite_result@?A0x17268360@@HQBDI@Z 1002808b f   libucrt:write.obj
 0001:000274ea       ??$common_lseek_nolock@_J@@YA_JH_JHAAV__crt_cached_ptd_host@@@Z 100284ea f   libucrt:lseek.obj
 0001:00027b50       $$000000                   10028b50     libucrt:strpbrk.obj
 0001:00027c34       ?initialize_multibyte@@YAHXZ 10028c34 f   libucrt:multibyte_initializer.obj
 0001:00027d90       $$000000                   10028d90     libucrt:log10_impl.obj
 0001:00027ea0       $$000000                   10028ea0     libucrt:ceil_pentium4.obj
 0001:000281a4       ??$common_xtox@K_W@@YAHKQA_WII_N@Z 100291a4 f   libucrt:xtoa.obj
 0001:00028260       ??$common_xtox_s@K_W@@YAHKQA_WII_N@Z 10029260 f   libucrt:xtoa.obj
 0001:00028523       ??$?RV<lambda_d422a76eb4c3bf3ad751449ab71a6ea4>@@AAV<lambda_c9ba49e555ba839a7b07aa3fbecb7617>@@V<lambda_9476263c8ee91a25d21c55370bdb50de>@@@?$__crt_seh_guarded_call@H@@QAEH$$QAV<lambda_d422a76eb4c3bf3ad751449ab71a6ea4>@@AAV<lambda_c9ba49e555ba839a7b07aa3fbecb7617>@@$$QAV<lambda_9476263c8ee91a25d21c55370bdb50de>@@@Z 10029523 f   libucrt:close.obj
 0001:000287a2       ___hw_cw_sse2              100297a2 f   libucrt:ieee87.obj
 0001:00028c28       __hw_cw                    10029c28 f   libucrt:ieee87.obj
 0001:00028ce0       $$000000                   10029ce0     libucrt:log10_pentium4.obj
 0001:00028f70       $$000000                   10029f70     libucrt:87tran.obj
 0001:00029180       $$000000                   1002a180     libucrt:87disp.obj
 0001:000293e0       $$000000                   1002a3e0     libucrt:common.obj
 0001:00029570       $$000000                   1002a570     libucrt:genexcep.obj
 0001:00029875       ?__dcrt_lowio_initialize_console_output@@YAXXZ 1002a875 f   libucrt:initcon.obj
 0001:00029920       $$000000                   1002a920     libucrt:_strnicm.obj
 0001:00029e40       $$000000                   1002ae40     LIBCMT:llshl.obj
 0001:00029e50       MORE32                     1002ae50     LIBCMT:llshl.obj
 0001:00029e5a       RETZERO                    1002ae5a     LIBCMT:llshl.obj
 0001:00029e60       $$000000                   1002ae60     LIBCMT:ullshr.obj
 0001:00029e70       MORE32                     1002ae70     LIBCMT:ullshr.obj
 0001:00029e7a       RETZERO                    1002ae7a     LIBCMT:ullshr.obj
 0001:00029e80       $$000000                   1002ae80     LIBCMT:lldiv.obj
 0001:00029ea1       L1                         1002aea1     LIBCMT:lldiv.obj
 0001:00029ebd       L2                         1002aebd     LIBCMT:lldiv.obj
 0001:00029ed9       L3                         1002aed9     LIBCMT:lldiv.obj
 0001:00029ee7       L5                         1002aee7     LIBCMT:lldiv.obj
 0001:00029f15       L6                         1002af15     LIBCMT:lldiv.obj
 0001:00029f16       L7                         1002af16     LIBCMT:lldiv.obj
 0001:00029f1a       L4                         1002af1a     LIBCMT:lldiv.obj
 0001:00029f24       L8                         1002af24     LIBCMT:lldiv.obj
 0001:00029f30       $$000000                   1002af30     LIBCMT:llrem.obj
 0001:00029f50       L1                         1002af50     LIBCMT:llrem.obj
 0001:00029f6b       L2                         1002af6b     LIBCMT:llrem.obj
 0001:00029f8a       L3                         1002af8a     LIBCMT:llrem.obj
 0001:00029f98       L5                         1002af98     LIBCMT:llrem.obj
 0001:00029fc3       L6                         1002afc3     LIBCMT:llrem.obj
 0001:00029fcb       L7                         1002afcb     LIBCMT:llrem.obj
 0001:00029fd6       L4                         1002afd6     LIBCMT:llrem.obj
 0001:00029fdd       L8                         1002afdd     LIBCMT:llrem.obj
 0001:00029ff0       $$000000                   1002aff0     LIBCMT:ftol2.obj
 0001:0002a000       $$000000                   1002b000     LIBCMT:ftol2.obj
 0001:0002a011       L3B                        1002b011     LIBCMT:ftol2.obj
 0001:0002a054       L3F                        1002b054     LIBCMT:ftol2.obj
 0001:0002a05c       L40                        1002b05c     LIBCMT:ftol2.obj
 0001:0002a06f       L41                        1002b06f     LIBCMT:ftol2.obj
 0001:0002a080       $$000000                   1002b080     libvcruntime:strrchr.obj
 0001:0002a0bd       strrchr_sse_loop           1002b0bd     libvcruntime:strrchr.obj
 0001:0002a0ed       strrchr_sse_break          1002b0ed     libvcruntime:strrchr.obj
 0001:0002a10d       strrchr_sttni              1002b10d     libvcruntime:strrchr.obj
 0001:0002a11f       strrchr_sttni_chars        1002b11f     libvcruntime:strrchr.obj
 0001:0002a134       strrchr_sttni_aligned      1002b134     libvcruntime:strrchr.obj
 0001:0002a138       strrchr_sttni_xmm          1002b138     libvcruntime:strrchr.obj
 0001:0002a14b       exit                       1002b14b     libvcruntime:strrchr.obj
 0001:0002a14e       strrchr_zero               1002b14e     libvcruntime:strrchr.obj
 0001:0002a173       strchr_zero_loop           1002b173     libvcruntime:strrchr.obj
 0001:0002a187       strchr_zero_result         1002b187     libvcruntime:strrchr.obj
 0001:0002a18e       strrchr_no_sse             1002b18e     libvcruntime:strrchr.obj
 0001:0002a1b1       returndi                   1002b1b1     libvcruntime:strrchr.obj
 0001:0002a1b3       toend                      1002b1b3     libvcruntime:strrchr.obj
 0001:0002db98       $LN12                      1002eb98     CreatureBanksExtender.obj
 0001:0002dc7c       $LN14                      1002ec7c     CreatureBanksExtender.obj
 0001:0002dc94       $LN13                      1002ec94     CreatureBanksExtender.obj
 0001:0002e40c       $LN117                     1002f40c     CreatureBanksExtender.obj
 0001:0002e4b0       ??1CreatureName@?4??ShowMultiplePicsArmyMessage@cbanks@@YAHPBDHHHPAUH3Army@h3@@@Z@QAE@XZ 1002f4b0 f   CreatureBanksExtender.obj
 0001:0002e4f0       ??0CreatureName@?4??ShowMultiplePicsArmyMessage@cbanks@@YAHPBDHHHPAUH3Army@h3@@@Z@QAE@XZ 1002f4f0 f   CreatureBanksExtender.obj
 0001:0002f9bc       $LN14                      100309bc     WarehousesExtender.obj
 0001:00032834       $LN100                     10033834     RMGObjectsEditor.obj
 0001:00032858       $LN99                      10033858     RMGObjectsEditor.obj
 0001:00033c04       $LN159                     10034c04     RMGObjectsEditor.obj
 0001:00033c0c       $LN158                     10034c0c     RMGObjectsEditor.obj
 0001:00035620       ??0<lambda_1>@?8??FindDataInObjectGeneratorsList@rmgdlg@@YAXAAV?$vector@U?$pair@UH3ObjectAttributes@h3@@PAUH3LoadedPcx16@2@@std@@V?$allocator@U?$pair@UH3ObjectAttributes@h3@@PAUH3LoadedPcx16@2@@std@@@2@@std@@@Z@QAE@AAPBUH3RmgObjectGenerator@h3@@@Z 10036620 f   RMG_SettingsDlg.obj
 0001:00035630       ??R<lambda_1>@?8??FindDataInObjectGeneratorsList@rmgdlg@@YAXAAV?$vector@U?$pair@UH3ObjectAttributes@h3@@PAUH3LoadedPcx16@2@@std@@V?$allocator@U?$pair@UH3ObjectAttributes@h3@@PAUH3LoadedPcx16@2@@std@@@2@@std@@@Z@QBE_NABU?$pair@UH3ObjectAttributes@h3@@PAUH3LoadedPcx16@2@@4@@Z 10036630 f   RMG_SettingsDlg.obj
 0001:000357c0       ??0<lambda_1>@?7??GetObjectPrototypesByTypes@rmgdlg@@YAXAAV?$vector@U?$pair@UH3ObjectAttributes@h3@@PAUH3LoadedPcx16@2@@std@@V?$allocator@U?$pair@UH3ObjectAttributes@h3@@PAUH3LoadedPcx16@2@@std@@@2@@std@@PBHI@Z@QAE@ABUH3ObjectAttributes@h3@@@Z 100367c0 f   RMG_SettingsDlg.obj
 0001:000357d0       ??R<lambda_1>@?7??GetObjectPrototypesByTypes@rmgdlg@@YAXAAV?$vector@U?$pair@UH3ObjectAttributes@h3@@PAUH3LoadedPcx16@2@@std@@V?$allocator@U?$pair@UH3ObjectAttributes@h3@@PAUH3LoadedPcx16@2@@std@@@2@@std@@PBHI@Z@QBE_NABU?$pair@UH3ObjectAttributes@h3@@PAUH3LoadedPcx16@2@@4@@Z 100367d0 f   RMG_SettingsDlg.obj
 0001:000368a0       ??0<unnamed-type-lastSorting>@ObjectsPage@RMG_SettingsDlg@rmgdlg@@QAE@XZ 100378a0 f   RMG_SettingsDlg.obj
 0001:00038678       $LN113                     10039678     RMG_SettingsDlg.obj
 0001:00038694       $LN112                     10039694     RMG_SettingsDlg.obj
 0001:000392f0       ??0<lambda_1>@?1??SortRmgObjects@sorting@rmgdlg@@YAXAAV?$vector@VRMGObject@rmgdlg@@V?$allocator@VRMGObject@rmgdlg@@@std@@@std@@W4eSorting@23@_N@Z@QAE@ABW4623@@Z 1003a2f0 f   RMG_SettingsDlg.obj
 0001:00039300       ??R<lambda_1>@?1??SortRmgObjects@sorting@rmgdlg@@YAXAAV?$vector@VRMGObject@rmgdlg@@V?$allocator@VRMGObject@rmgdlg@@@std@@@std@@W4eSorting@23@_N@Z@QBE_NABVRMGObject@3@3@Z 1003a300 f   RMG_SettingsDlg.obj
 0001:0003941c       $LN204                     1003a41c     RMG_SettingsDlg.obj
 0001:00039630       $$000000                   1003a630     LIBCMT:ftol3.obj
 0001:0003964f       _ftol3_default             1003a64f     LIBCMT:ftol3.obj
 0001:00039663       _ftol3_notsafe             1003a663     LIBCMT:ftol3.obj
 0001:00039683       _ftol3_mincheck            1003a683     LIBCMT:ftol3.obj
 0001:00039689       _ftol3_NaN                 1003a689     LIBCMT:ftol3.obj
 0001:00039691       _ftol3_retmin              1003a691     LIBCMT:ftol3.obj
 0001:000396cf       ?FindMITargetTypeInstance@@YAPBU_s_RTTIBaseClassDescriptor@@PAXPBU_s_RTTICompleteObjectLocator@@PAUTypeDescriptor@@H2@Z 1003a6cf f   libvcruntime:rtti.obj
 0001:000397b8       ?FindSITargetTypeInstance@@YAPBU_s_RTTIBaseClassDescriptor@@PBU_s_RTTICompleteObjectLocator@@PAUTypeDescriptor@@1@Z 1003a7b8 f   libvcruntime:rtti.obj
 0001:000398a1       ?FindVITargetTypeInstance@@YAPBU_s_RTTIBaseClassDescriptor@@PAXPBU_s_RTTICompleteObjectLocator@@PAUTypeDescriptor@@H2@Z 1003a8a1 f   libvcruntime:rtti.obj
 0001:00039a00       ?PMDtoOffset@@YAHPAXABUPMD@@@Z 1003aa00 f   libvcruntime:rtti.obj
 0001:00039a24       ?TypeidsEqual@@YA_NQBUTypeDescriptor@@0@Z 1003aa24 f   libvcruntime:rtti.obj
 0001:00039ba0       __ehhandler$??1_Sentry_base@?$basic_istream@DU?$char_traits@D@std@@@std@@QAE@XZ 1003aba0 f   ObjectsExtender.obj
 0001:00039ba0       __ehhandler$??1_Sentry_base@?$basic_ostream@DU?$char_traits@D@std@@@std@@QAE@XZ 1003aba0 f   ObjectsExtender.obj
 0001:00039ba0       __ehhandler$??$_Invoke@V?$tuple@P6AXPBF@ZPBF@std@@$0A@$00@thread@std@@CGIPAX@Z 1003aba0 f   RMGObjectsEditor.obj
 0001:00039ba0       __ehhandler$??$_Invoke@V?$tuple@P6AXXZ@std@@$0A@@thread@std@@CGIPAX@Z 1003aba0 f   RMG_SettingsDlg.obj
 0001:00039ba0       __ehhandler$??1?$H3BinaryLoader@UH3LoadedDef@h3@@@h3@@QAE@XZ 1003aba0 f   RMG_SettingsDlg.obj
 0001:00039ba0       __ehhandler$??1?$H3BinaryLoader@UH3LoadedPcx@h3@@@h3@@QAE@XZ 1003aba0 f   RMG_SettingsDlg.obj
 0001:00039ba0       __ehhandler$??1?$array@V?$vector@HV?$allocator@H@std@@@std@@$03@std@@QAE@XZ 1003aba0 f   RMG_SettingsDlg.obj
 0001:00039ba0       __ehhandler$??1H3BasePalette565@h3@@QAE@XZ 1003aba0 f   RMG_SettingsDlg.obj
 0001:00039ba0       __ehhandler$??1H3String@h3@@QAE@XZ 1003aba0 f   SoundManager.obj
 0001:00039bb0       __unwindfunclet$?Format@H3String@h3@@SA?AU12@PBDZZ$1 1003abb0 f   SoundManager.obj
 0001:00039bce       __ehhandler$?Format@H3String@h3@@SA?AU12@PBDZZ 1003abce f   SoundManager.obj
 0001:00039be0       __unwindfunclet$??__E?soundManager@SoundManager@sound@@2U12@A@@YAXXZ$0 1003abe0 f   SoundManager.obj
 0001:00039bea       __unwindfunclet$??__E?soundManager@SoundManager@sound@@2U12@A@@YAXXZ$1 1003abea f   SoundManager.obj
 0001:00039bf4       __unwindfunclet$??__E?soundManager@SoundManager@sound@@2U12@A@@YAXXZ$2 1003abf4 f   SoundManager.obj
 0001:00039bfe       __unwindfunclet$??__E?soundManager@SoundManager@sound@@2U12@A@@YAXXZ$5 1003abfe f   SoundManager.obj
 0001:00039c09       __unwindfunclet$??__E?soundManager@SoundManager@sound@@2U12@A@@YAXXZ$6 1003ac09 f   SoundManager.obj
 0001:00039c19       __ehhandler$??__E?soundManager@SoundManager@sound@@2U12@A@@YAXXZ 1003ac19 f   SoundManager.obj
 0001:00039c30       __unwindfunclet$??$emplace@U?$pair@V?$basic_string@DU?$char_traits@D@std@@V?$allocator@D@2@@std@@I@std@@@?$_Hash@V?$_Umap_traits@V?$basic_string@DU?$char_traits@D@std@@V?$allocator@D@2@@std@@IV?$_Uhash_compare@V?$basic_string@DU?$char_traits@D@std@@V?$allocator@D@2@@std@@U?$hash@V?$basic_string@DU?$char_traits@D@std@@V?$allocator@D@2@@std@@@2@U?$equal_to@V?$basic_string@DU?$char_traits@D@std@@V?$allocator@D@2@@std@@@2@@2@V?$allocator@U?$pair@$$CBV?$basic_string@DU?$char_traits@D@std@@V?$allocator@D@2@@std@@I@std@@@2@$0A@@std@@@std@@QAE?AU?$pair@V?$_List_iterator@V?$_List_val@U?$_List_simple_types@U?$pair@$$CBV?$basic_string@DU?$char_traits@D@std@@V?$allocator@D@2@@std@@I@std@@@std@@@std@@@std@@_N@1@$$QAU?$pair@V?$basic_string@DU?$char_traits@D@std@@V?$allocator@D@2@@std@@I@1@@Z$1 1003ac30 f   SoundManager.obj
 0001:00039c38       __unwindfunclet$??$emplace@U?$pair@V?$basic_string@DU?$char_traits@D@std@@V?$allocator@D@2@@std@@I@std@@@?$_Hash@V?$_Umap_traits@V?$basic_string@DU?$char_traits@D@std@@V?$allocator@D@2@@std@@IV?$_Uhash_compare@V?$basic_string@DU?$char_traits@D@std@@V?$allocator@D@2@@std@@U?$hash@V?$basic_string@DU?$char_traits@D@std@@V?$allocator@D@2@@std@@@2@U?$equal_to@V?$basic_string@DU?$char_traits@D@std@@V?$allocator@D@2@@std@@@2@@2@V?$allocator@U?$pair@$$CBV?$basic_string@DU?$char_traits@D@std@@V?$allocator@D@2@@std@@I@std@@@2@$0A@@std@@@std@@QAE?AU?$pair@V?$_List_iterator@V?$_List_val@U?$_List_simple_types@U?$pair@$$CBV?$basic_string@DU?$char_traits@D@std@@V?$allocator@D@2@@std@@I@std@@@std@@@std@@@std@@_N@1@$$QAU?$pair@V?$basic_string@DU?$char_traits@D@std@@V?$allocator@D@2@@std@@I@1@@Z$0 1003ac38 f   SoundManager.obj
 0001:00039c45       __ehhandler$??$emplace@U?$pair@V?$basic_string@DU?$char_traits@D@std@@V?$allocator@D@2@@std@@I@std@@@?$_Hash@V?$_Umap_traits@V?$basic_string@DU?$char_traits@D@std@@V?$allocator@D@2@@std@@IV?$_Uhash_compare@V?$basic_string@DU?$char_traits@D@std@@V?$allocator@D@2@@std@@U?$hash@V?$basic_string@DU?$char_traits@D@std@@V?$allocator@D@2@@std@@@2@U?$equal_to@V?$basic_string@DU?$char_traits@D@std@@V?$allocator@D@2@@std@@@2@@2@V?$allocator@U?$pair@$$CBV?$basic_string@DU?$char_traits@D@std@@V?$allocator@D@2@@std@@I@std@@@2@$0A@@std@@@std@@QAE?AU?$pair@V?$_List_iterator@V?$_List_val@U?$_List_simple_types@U?$pair@$$CBV?$basic_string@DU?$char_traits@D@std@@V?$allocator@D@2@@std@@I@std@@@std@@@std@@@std@@_N@1@$$QAU?$pair@V?$basic_string@DU?$char_traits@D@std@@V?$allocator@D@2@@std@@I@1@@Z 1003ac45 f   SoundManager.obj
 0001:00039c60       __unwindfunclet$??$emplace@U?$pair@PBDI@std@@@?$_Hash@V?$_Umap_traits@V?$basic_string@DU?$char_traits@D@std@@V?$allocator@D@2@@std@@IV?$_Uhash_compare@V?$basic_string@DU?$char_traits@D@std@@V?$allocator@D@2@@std@@U?$hash@V?$basic_string@DU?$char_traits@D@std@@V?$allocator@D@2@@std@@@2@U?$equal_to@V?$basic_string@DU?$char_traits@D@std@@V?$allocator@D@2@@std@@@2@@2@V?$allocator@U?$pair@$$CBV?$basic_string@DU?$char_traits@D@std@@V?$allocator@D@2@@std@@I@std@@@2@$0A@@std@@@std@@QAE?AU?$pair@V?$_List_iterator@V?$_List_val@U?$_List_simple_types@U?$pair@$$CBV?$basic_string@DU?$char_traits@D@std@@V?$allocator@D@2@@std@@I@std@@@std@@@std@@@std@@_N@1@$$QAU?$pair@PBDI@1@@Z$1 1003ac60 f   SoundManager.obj
 0001:00039c68       __unwindfunclet$??$emplace@U?$pair@PBDI@std@@@?$_Hash@V?$_Umap_traits@V?$basic_string@DU?$char_traits@D@std@@V?$allocator@D@2@@std@@IV?$_Uhash_compare@V?$basic_string@DU?$char_traits@D@std@@V?$allocator@D@2@@std@@U?$hash@V?$basic_string@DU?$char_traits@D@std@@V?$allocator@D@2@@std@@@2@U?$equal_to@V?$basic_string@DU?$char_traits@D@std@@V?$allocator@D@2@@std@@@2@@2@V?$allocator@U?$pair@$$CBV?$basic_string@DU?$char_traits@D@std@@V?$allocator@D@2@@std@@I@std@@@2@$0A@@std@@@std@@QAE?AU?$pair@V?$_List_iterator@V?$_List_val@U?$_List_simple_types@U?$pair@$$CBV?$basic_string@DU?$char_traits@D@std@@V?$allocator@D@2@@std@@I@std@@@std@@@std@@@std@@_N@1@$$QAU?$pair@PBDI@1@@Z$0 1003ac68 f   SoundManager.obj
 0001:00039c75       __ehhandler$??$emplace@U?$pair@PBDI@std@@@?$_Hash@V?$_Umap_traits@V?$basic_string@DU?$char_traits@D@std@@V?$allocator@D@2@@std@@IV?$_Uhash_compare@V?$basic_string@DU?$char_traits@D@std@@V?$allocator@D@2@@std@@U?$hash@V?$basic_string@DU?$char_traits@D@std@@V?$allocator@D@2@@std@@@2@U?$equal_to@V?$basic_string@DU?$char_traits@D@std@@V?$allocator@D@2@@std@@@2@@2@V?$allocator@U?$pair@$$CBV?$basic_string@DU?$char_traits@D@std@@V?$allocator@D@2@@std@@I@std@@@2@$0A@@std@@@std@@QAE?AU?$pair@V?$_List_iterator@V?$_List_val@U?$_List_simple_types@U?$pair@$$CBV?$basic_string@DU?$char_traits@D@std@@V?$allocator@D@2@@std@@I@std@@@std@@@std@@@std@@_N@1@$$QAU?$pair@PBDI@1@@Z 1003ac75 f   SoundManager.obj
 0001:00039c90       __unwindfunclet$??$emplace@URMGObjectSetable@extender@@@?$_Hash@V?$_Uset_traits@URMGObjectSetable@extender@@V?$_Uhash_compare@URMGObjectSetable@extender@@UHashFunction@12@U?$equal_to@URMGObjectSetable@extender@@@std@@@std@@V?$allocator@URMGObjectSetable@extender@@@4@$0A@@std@@@std@@QAE?AU?$pair@V?$_List_const_iterator@V?$_List_val@U?$_List_simple_types@URMGObjectSetable@extender@@@std@@@std@@@std@@_N@1@$$QAURMGObjectSetable@extender@@@Z$1 1003ac90 f   ObjectsExtender.obj
 0001:00039c90       __unwindfunclet$??$emplace@U?$pair@KH@std@@@?$_Hash@V?$_Umap_traits@KHV?$_Uhash_compare@KU?$hash@K@std@@U?$equal_to@K@2@@std@@V?$allocator@U?$pair@$$CBKH@std@@@2@$0A@@std@@@std@@QAE?AU?$pair@V?$_List_iterator@V?$_List_val@U?$_List_simple_types@U?$pair@$$CBKH@std@@@std@@@std@@@std@@_N@1@$$QAU?$pair@KH@1@@Z$1 1003ac90 f   SoundManager.obj
 0001:00039c98       __unwindfunclet$??$emplace@URMGObjectSetable@extender@@@?$_Hash@V?$_Uset_traits@URMGObjectSetable@extender@@V?$_Uhash_compare@URMGObjectSetable@extender@@UHashFunction@12@U?$equal_to@URMGObjectSetable@extender@@@std@@@std@@V?$allocator@URMGObjectSetable@extender@@@4@$0A@@std@@@std@@QAE?AU?$pair@V?$_List_const_iterator@V?$_List_val@U?$_List_simple_types@URMGObjectSetable@extender@@@std@@@std@@@std@@_N@1@$$QAURMGObjectSetable@extender@@@Z$0 1003ac98 f   ObjectsExtender.obj
 0001:00039c98       __unwindfunclet$??$emplace@U?$pair@KH@std@@@?$_Hash@V?$_Umap_traits@KHV?$_Uhash_compare@KU?$hash@K@std@@U?$equal_to@K@2@@std@@V?$allocator@U?$pair@$$CBKH@std@@@2@$0A@@std@@@std@@QAE?AU?$pair@V?$_List_iterator@V?$_List_val@U?$_List_simple_types@U?$pair@$$CBKH@std@@@std@@@std@@@std@@_N@1@$$QAU?$pair@KH@1@@Z$0 1003ac98 f   SoundManager.obj
 0001:00039ca5       __ehhandler$??$emplace@URMGObjectSetable@extender@@@?$_Hash@V?$_Uset_traits@URMGObjectSetable@extender@@V?$_Uhash_compare@URMGObjectSetable@extender@@UHashFunction@12@U?$equal_to@URMGObjectSetable@extender@@@std@@@std@@V?$allocator@URMGObjectSetable@extender@@@4@$0A@@std@@@std@@QAE?AU?$pair@V?$_List_const_iterator@V?$_List_val@U?$_List_simple_types@URMGObjectSetable@extender@@@std@@@std@@@std@@_N@1@$$QAURMGObjectSetable@extender@@@Z 1003aca5 f   ObjectsExtender.obj
 0001:00039ca5       __ehhandler$??$emplace@U?$pair@KH@std@@@?$_Hash@V?$_Umap_traits@KHV?$_Uhash_compare@KU?$hash@K@std@@U?$equal_to@K@2@@std@@V?$allocator@U?$pair@$$CBKH@std@@@2@$0A@@std@@@std@@QAE?AU?$pair@V?$_List_iterator@V?$_List_val@U?$_List_simple_types@U?$pair@$$CBKH@std@@@std@@@std@@@std@@_N@1@$$QAU?$pair@KH@1@@Z 1003aca5 f   SoundManager.obj
 0001:00039cc0       __unwindfunclet$??0H3CreatureBankSetup@h3@@QAE@XZ$0 1003acc0 f   CreatureBanksExtender.obj
 0001:00039ccd       __ehhandler$??0H3CreatureBankSetup@h3@@QAE@XZ 1003accd f   CreatureBanksExtender.obj
 0001:00039ce0       __ehhandler$??$_Destroy_range@V?$allocator@UH3CreatureBankSetup@h3@@@std@@@std@@YAXPAUH3CreatureBankSetup@h3@@QAU12@AAV?$allocator@UH3CreatureBankSetup@h3@@@0@@Z 1003ace0 f   CreatureBanksExtender.obj
 0001:00039ce0       __ehhandler$??1?$_Uninitialized_backout_al@V?$allocator@UH3CreatureBankSetup@h3@@@std@@@std@@QAE@XZ 1003ace0 f   CreatureBanksExtender.obj
 0001:00039ce0       __ehhandler$??1H3CreatureBankSetup@h3@@QAE@XZ 1003ace0 f   CreatureBanksExtender.obj
 0001:00039ce0       __ehhandler$??1?$basic_ios@DU?$char_traits@D@std@@@std@@UAE@XZ 1003ace0 f   ObjectsExtender.obj
 0001:00039ce0       __ehhandler$??1sentry@?$basic_istream@DU?$char_traits@D@std@@@std@@QAE@XZ 1003ace0 f   ObjectsExtender.obj
 0001:00039ce0       __ehhandler$??1sentry@?$basic_ostream@DU?$char_traits@D@std@@@std@@QAE@XZ 1003ace0 f   ObjectsExtender.obj
 0001:00039ce0       __ehhandler$??_D?$basic_istringstream@DU?$char_traits@D@std@@V?$allocator@D@2@@std@@QAEXXZ 1003ace0 f   ObjectsExtender.obj
 0001:00039ce0       __ehhandler$??_G?$basic_ios@DU?$char_traits@D@std@@@std@@UAEPAXI@Z 1003ace0 f   ObjectsExtender.obj
 0001:00039ce0       __ehhandler$??_G?$basic_istream@DU?$char_traits@D@std@@@std@@UAEPAXI@Z 1003ace0 f   ObjectsExtender.obj
 0001:00039ce0       __ehhandler$??_G?$basic_istringstream@DU?$char_traits@D@std@@V?$allocator@D@2@@std@@UAEPAXI@Z 1003ace0 f   ObjectsExtender.obj
 0001:00039ce0       __ehhandler$??_Gios_base@std@@UAEPAXI@Z 1003ace0 f   ObjectsExtender.obj
 0001:00039ce0       __ehhandler$??1?$H3Vector@PAUH3RmgObjectGenerator@h3@@@h3@@QAE@XZ 1003ace0 f   RMGObjectsEditor.obj
 0001:00039ce0       __ehhandler$??$_Destroy_range@V?$allocator@U?$pair@UH3ObjectAttributes@h3@@PAUH3LoadedPcx16@2@@std@@@std@@@std@@YAXPAU?$pair@UH3ObjectAttributes@h3@@PAUH3LoadedPcx16@2@@0@QAU10@AAV?$allocator@U?$pair@UH3ObjectAttributes@h3@@PAUH3LoadedPcx16@2@@std@@@0@@Z 1003ace0 f   RMG_SettingsDlg.obj
 0001:00039ce0       __ehhandler$??1?$_Uninitialized_backout_al@V?$allocator@U?$pair@UH3ObjectAttributes@h3@@PAUH3LoadedPcx16@2@@std@@@std@@@std@@QAE@XZ 1003ace0 f   RMG_SettingsDlg.obj
 0001:00039ce0       __ehhandler$??1?$pair@UH3ObjectAttributes@h3@@$$T@std@@QAE@XZ 1003ace0 f   RMG_SettingsDlg.obj
 0001:00039ce0       __ehhandler$??1H3Dlg@h3@@QAE@XZ 1003ace0 f   RMG_SettingsDlg.obj
 0001:00039ce0       __ehhandler$??1H3NetworkDlg@h3@@QAE@XZ 1003ace0 f   RMG_SettingsDlg.obj
 0001:00039ce0       __ehhandler$??_GRMG_SettingsDlg@rmgdlg@@EAEPAXI@Z 1003ace0 f   RMG_SettingsDlg.obj
 0001:00039ce0       __ehhandler$?_Tidy@?$vector@U?$pair@UH3ObjectAttributes@h3@@PAUH3LoadedPcx16@2@@std@@V?$allocator@U?$pair@UH3ObjectAttributes@h3@@PAUH3LoadedPcx16@2@@std@@@2@@std@@AAEXXZ 1003ace0 f   RMG_SettingsDlg.obj
 0001:00039cf0       __unwindfunclet$??$_Reallocate@$00@?$vector@UH3CreatureBankSetup@h3@@V?$allocator@UH3CreatureBankSetup@h3@@@std@@@std@@AAEXAAI@Z$2 1003acf0 f   CreatureBanksExtender.obj
 0001:00039cf0       __unwindfunclet$??$_Reallocate@$0A@@?$vector@UH3CreatureBankSetup@h3@@V?$allocator@UH3CreatureBankSetup@h3@@@std@@@std@@AAEXAAI@Z$2 1003acf0 f   CreatureBanksExtender.obj
 0001:00039cfd       __ehhandler$??$_Reallocate@$00@?$vector@UH3CreatureBankSetup@h3@@V?$allocator@UH3CreatureBankSetup@h3@@@std@@@std@@AAEXAAI@Z 1003acfd f   CreatureBanksExtender.obj
 0001:00039cfd       __ehhandler$??$_Reallocate@$0A@@?$vector@UH3CreatureBankSetup@h3@@V?$allocator@UH3CreatureBankSetup@h3@@@std@@@std@@AAEXAAI@Z 1003acfd f   CreatureBanksExtender.obj
 0001:00039d10       __ehhandler$??$_Emplace_reallocate@AAUH3CreatureBankSetup@h3@@@?$vector@UH3CreatureBankSetup@h3@@V?$allocator@UH3CreatureBankSetup@h3@@@std@@@std@@AAEPAUH3CreatureBankSetup@h3@@QAU23@AAU23@@Z 1003ad10 f   CreatureBanksExtender.obj
 0001:00039d20       __unwindfunclet$??$_Uninitialized_copy@PAUH3CreatureBankSetup@h3@@PAU12@V?$allocator@UH3CreatureBankSetup@h3@@@std@@@std@@YAPAUH3CreatureBankSetup@h3@@PAU12@00AAV?$allocator@UH3CreatureBankSetup@h3@@@0@@Z$0 1003ad20 f   CreatureBanksExtender.obj
 0001:00039d20       __unwindfunclet$??$_Uninitialized_value_construct_n@V?$allocator@UH3CreatureBankSetup@h3@@@std@@@std@@YAPAUH3CreatureBankSetup@h3@@PAU12@IAAV?$allocator@UH3CreatureBankSetup@h3@@@0@@Z$0 1003ad20 f   CreatureBanksExtender.obj
 0001:00039d2d       __ehhandler$??$_Uninitialized_copy@PAUH3CreatureBankSetup@h3@@PAU12@V?$allocator@UH3CreatureBankSetup@h3@@@std@@@std@@YAPAUH3CreatureBankSetup@h3@@PAU12@00AAV?$allocator@UH3CreatureBankSetup@h3@@@0@@Z 1003ad2d f   CreatureBanksExtender.obj
 0001:00039d2d       __ehhandler$??$_Uninitialized_value_construct_n@V?$allocator@UH3CreatureBankSetup@h3@@@std@@@std@@YAPAUH3CreatureBankSetup@h3@@PAU12@IAAV?$allocator@UH3CreatureBankSetup@h3@@@0@@Z 1003ad2d f   CreatureBanksExtender.obj
 0001:00039d40       __unwindfunclet$??$_Resize_reallocate@U_Value_init_tag@std@@@?$vector@UH3CreatureBankSetup@h3@@V?$allocator@UH3CreatureBankSetup@h3@@@std@@@std@@AAEXIABU_Value_init_tag@1@@Z$2 1003ad40 f   CreatureBanksExtender.obj
 0001:00039d4d       __ehhandler$??$_Resize_reallocate@U_Value_init_tag@std@@@?$vector@UH3CreatureBankSetup@h3@@V?$allocator@UH3CreatureBankSetup@h3@@@std@@@std@@AAEXIABU_Value_init_tag@1@@Z 1003ad4d f   CreatureBanksExtender.obj
 0001:00039d60       __ehhandler$??$_Uninitialized_move@PAUH3CreatureBankSetup@h3@@V?$allocator@UH3CreatureBankSetup@h3@@@std@@@std@@YAPAUH3CreatureBankSetup@h3@@QAU12@0PAU12@AAV?$allocator@UH3CreatureBankSetup@h3@@@0@@Z 1003ad60 f   CreatureBanksExtender.obj
 0001:00039d70       __ehhandler$?Reserve@?$H3Vector@V?$array@H$01@std@@@h3@@QAEHI@Z 1003ad70 f   CreatureBanksExtender.obj
 0001:00039d70       __ehhandler$?Reserve@?$H3Vector@PAUH3RmgObjectGenerator@h3@@@h3@@QAEHI@Z 1003ad70 f   ObjectsExtender.obj
 0001:00039d70       __ehhandler$?Reserve@?$H3Vector@PBD@h3@@QAEHI@Z 1003ad70 f   ObjectsExtender.obj
 0001:00039d70       __ehhandler$?Reserve@?$H3Vector@H@h3@@QAEHI@Z 1003ad70 f   RMG_SettingsDlg.obj
 0001:00039d70       __ehhandler$?Reserve@?$H3Vector@PAUH3DlgItem@h3@@@h3@@QAEHI@Z 1003ad70 f   RMG_SettingsDlg.obj
 0001:00039d80       __unwindfunclet$??0_System_error@std@@IAE@Verror_code@1@ABV?$basic_string@DU?$char_traits@D@std@@V?$allocator@D@2@@1@@Z$3 1003ad80 f   ObjectsExtender.obj
 0001:00039d88       __unwindfunclet$??0_System_error@std@@IAE@Verror_code@1@ABV?$basic_string@DU?$char_traits@D@std@@V?$allocator@D@2@@1@@Z$4 1003ad88 f   ObjectsExtender.obj
 0001:00039d95       __ehhandler$??0_System_error@std@@IAE@Verror_code@1@ABV?$basic_string@DU?$char_traits@D@std@@V?$allocator@D@2@@1@@Z 1003ad95 f   ObjectsExtender.obj
 0001:00039db0       __unwindfunclet$?_Getcat@?$ctype@D@std@@SAIPAPBVfacet@locale@2@PBV42@@Z$0 1003adb0 f   ObjectsExtender.obj
 0001:00039dbf       __unwindfunclet$?_Getcat@?$ctype@D@std@@SAIPAPBVfacet@locale@2@PBV42@@Z$2 1003adbf f   ObjectsExtender.obj
 0001:00039dc7       __unwindfunclet$?_Getcat@?$ctype@D@std@@SAIPAPBVfacet@locale@2@PBV42@@Z$3 1003adc7 f   ObjectsExtender.obj
 0001:00039dcf       __unwindfunclet$?_Getcat@?$ctype@D@std@@SAIPAPBVfacet@locale@2@PBV42@@Z$4 1003adcf f   ObjectsExtender.obj
 0001:00039dd7       __unwindfunclet$?_Getcat@?$ctype@D@std@@SAIPAPBVfacet@locale@2@PBV42@@Z$5 1003add7 f   ObjectsExtender.obj
 0001:00039ddf       __unwindfunclet$?_Getcat@?$ctype@D@std@@SAIPAPBVfacet@locale@2@PBV42@@Z$6 1003addf f   ObjectsExtender.obj
 0001:00039de7       __unwindfunclet$?_Getcat@?$ctype@D@std@@SAIPAPBVfacet@locale@2@PBV42@@Z$7 1003ade7 f   ObjectsExtender.obj
 0001:00039def       __unwindfunclet$?_Getcat@?$ctype@D@std@@SAIPAPBVfacet@locale@2@PBV42@@Z$8 1003adef f   ObjectsExtender.obj
 0001:00039dfc       __ehhandler$?_Getcat@?$ctype@D@std@@SAIPAPBVfacet@locale@2@PBV42@@Z 1003adfc f   ObjectsExtender.obj
 0001:00039e10       __unwindfunclet$??0failure@ios_base@std@@QAE@PBDABVerror_code@2@@Z$1 1003ae10 f   ObjectsExtender.obj
 0001:00039e1d       __ehhandler$??0failure@ios_base@std@@QAE@PBDABVerror_code@2@@Z 1003ae1d f   ObjectsExtender.obj
 0001:00039e30       __unwindfunclet$?GetEraModList@modList@@YAHAAV?$vector@V?$basic_string@DU?$char_traits@D@std@@V?$allocator@D@2@@std@@V?$allocator@V?$basic_string@DU?$char_traits@D@std@@V?$allocator@D@2@@std@@@2@@std@@H@Z$26 1003ae30 f   ObjectsExtender.obj
 0001:00039e38       __unwindfunclet$?GetEraModList@modList@@YAHAAV?$vector@V?$basic_string@DU?$char_traits@D@std@@V?$allocator@D@2@@std@@V?$allocator@V?$basic_string@DU?$char_traits@D@std@@V?$allocator@D@2@@std@@@2@@std@@H@Z$0 1003ae38 f   ObjectsExtender.obj
 0001:00039e40       __unwindfunclet$?GetEraModList@modList@@YAHAAV?$vector@V?$basic_string@DU?$char_traits@D@std@@V?$allocator@D@2@@std@@V?$allocator@V?$basic_string@DU?$char_traits@D@std@@V?$allocator@D@2@@std@@@2@@std@@H@Z$1 1003ae40 f   ObjectsExtender.obj
 0001:00039e4b       __unwindfunclet$?GetEraModList@modList@@YAHAAV?$vector@V?$basic_string@DU?$char_traits@D@std@@V?$allocator@D@2@@std@@V?$allocator@V?$basic_string@DU?$char_traits@D@std@@V?$allocator@D@2@@std@@@2@@std@@H@Z$2 1003ae4b f   ObjectsExtender.obj
 0001:00039e53       __unwindfunclet$?GetEraModList@modList@@YAHAAV?$vector@V?$basic_string@DU?$char_traits@D@std@@V?$allocator@D@2@@std@@V?$allocator@V?$basic_string@DU?$char_traits@D@std@@V?$allocator@D@2@@std@@@2@@std@@H@Z$7 1003ae53 f   ObjectsExtender.obj
 0001:00039e5b       __unwindfunclet$?GetEraModList@modList@@YAHAAV?$vector@V?$basic_string@DU?$char_traits@D@std@@V?$allocator@D@2@@std@@V?$allocator@V?$basic_string@DU?$char_traits@D@std@@V?$allocator@D@2@@std@@@2@@std@@H@Z$3 1003ae5b f   ObjectsExtender.obj
 0001:00039e68       __ehhandler$?GetEraModList@modList@@YAHAAV?$vector@V?$basic_string@DU?$char_traits@D@std@@V?$allocator@D@2@@std@@V?$allocator@V?$basic_string@DU?$char_traits@D@std@@V?$allocator@D@2@@std@@@2@@std@@H@Z 1003ae68 f   ObjectsExtender.obj
 0001:00039e80       __unwindfunclet$??0?$basic_istringstream@DU?$char_traits@D@std@@V?$allocator@D@2@@std@@QAE@ABV?$basic_string@DU?$char_traits@D@std@@V?$allocator@D@2@@1@H@Z$0 1003ae80 f   ObjectsExtender.obj
 0001:00039e9c       __unwindfunclet$??0?$basic_istringstream@DU?$char_traits@D@std@@V?$allocator@D@2@@std@@QAE@ABV?$basic_string@DU?$char_traits@D@std@@V?$allocator@D@2@@1@H@Z$5 1003ae9c f   ObjectsExtender.obj
 0001:00039ea4       __unwindfunclet$??0?$basic_istringstream@DU?$char_traits@D@std@@V?$allocator@D@2@@std@@QAE@ABV?$basic_string@DU?$char_traits@D@std@@V?$allocator@D@2@@1@H@Z$1 1003aea4 f   ObjectsExtender.obj
 0001:00039eaf       __unwindfunclet$??0?$basic_istringstream@DU?$char_traits@D@std@@V?$allocator@D@2@@std@@QAE@ABV?$basic_string@DU?$char_traits@D@std@@V?$allocator@D@2@@1@H@Z$7 1003aeaf f   ObjectsExtender.obj
 0001:00039ebc       __ehhandler$??0?$basic_istringstream@DU?$char_traits@D@std@@V?$allocator@D@2@@std@@QAE@ABV?$basic_string@DU?$char_traits@D@std@@V?$allocator@D@2@@1@H@Z 1003aebc f   ObjectsExtender.obj
 0001:00039ed0       __unwindfunclet$??$use_facet@V?$ctype@D@std@@@std@@YAABV?$ctype@D@0@ABVlocale@0@@Z$0 1003aed0 f   ObjectsExtender.obj
 0001:00039ed8       __unwindfunclet$??$use_facet@V?$ctype@D@std@@@std@@YAABV?$ctype@D@0@ABVlocale@0@@Z$1 1003aed8 f   ObjectsExtender.obj
 0001:00039ee5       __ehhandler$??$use_facet@V?$ctype@D@std@@@std@@YAABV?$ctype@D@0@ABVlocale@0@@Z 1003aee5 f   ObjectsExtender.obj
 0001:00039f00       __unwindfunclet$??$getline@DU?$char_traits@D@std@@V?$allocator@D@2@@std@@YAAAV?$basic_istream@DU?$char_traits@D@std@@@0@AAV10@AAV?$basic_string@DU?$char_traits@D@std@@V?$allocator@D@2@@0@@Z$0 1003af00 f   ObjectsExtender.obj
 0001:00039f0d       __ehhandler$??$getline@DU?$char_traits@D@std@@V?$allocator@D@2@@std@@YAAAV?$basic_istream@DU?$char_traits@D@std@@@0@AAV10@AAV?$basic_string@DU?$char_traits@D@std@@V?$allocator@D@2@@0@@Z 1003af0d f   ObjectsExtender.obj
 0001:00039f20       __unwindfunclet$??$getline@DU?$char_traits@D@std@@V?$allocator@D@2@@std@@YAAAV?$basic_istream@DU?$char_traits@D@std@@@0@$$QAV10@AAV?$basic_string@DU?$char_traits@D@std@@V?$allocator@D@2@@0@D@Z$5 1003af20 f   ObjectsExtender.obj
 0001:00039f28       __unwindfunclet$??$getline@DU?$char_traits@D@std@@V?$allocator@D@2@@std@@YAAAV?$basic_istream@DU?$char_traits@D@std@@@0@$$QAV10@AAV?$basic_string@DU?$char_traits@D@std@@V?$allocator@D@2@@0@D@Z$2 1003af28 f   ObjectsExtender.obj
 0001:00039f35       __ehhandler$??$getline@DU?$char_traits@D@std@@V?$allocator@D@2@@std@@YAAAV?$basic_istream@DU?$char_traits@D@std@@@0@$$QAV10@AAV?$basic_string@DU?$char_traits@D@std@@V?$allocator@D@2@@0@D@Z 1003af35 f   ObjectsExtender.obj
 0001:00039f50       __ehhandler$??$_Emplace_reallocate@AAV?$basic_string@DU?$char_traits@D@std@@V?$allocator@D@2@@std@@@?$vector@V?$basic_string@DU?$char_traits@D@std@@V?$allocator@D@2@@std@@V?$allocator@V?$basic_string@DU?$char_traits@D@std@@V?$allocator@D@2@@std@@@2@@std@@AAEPAV?$basic_string@DU?$char_traits@D@std@@V?$allocator@D@2@@1@QAV21@AAV21@@Z 1003af50 f   ObjectsExtender.obj
 0001:00039f60       __ehhandler$??$_Emplace_reallocate@AAPBD@?$vector@V?$basic_string@DU?$char_traits@D@std@@V?$allocator@D@2@@std@@V?$allocator@V?$basic_string@DU?$char_traits@D@std@@V?$allocator@D@2@@std@@@2@@std@@AAEPAV?$basic_string@DU?$char_traits@D@std@@V?$allocator@D@2@@1@QAV21@AAPBD@Z 1003af60 f   ObjectsExtender.obj
 0001:00039f70       __ehhandler$?_Ipfx@?$basic_istream@DU?$char_traits@D@std@@@std@@QAE_N_N@Z 1003af70 f   ObjectsExtender.obj
 0001:00039f80       __unwindfunclet$?flush@?$basic_ostream@DU?$char_traits@D@std@@@std@@QAEAAV12@XZ$3 1003af80 f   ObjectsExtender.obj
 0001:00039f88       __unwindfunclet$?flush@?$basic_ostream@DU?$char_traits@D@std@@@std@@QAEAAV12@XZ$2 1003af88 f   ObjectsExtender.obj
 0001:00039f95       __ehhandler$?flush@?$basic_ostream@DU?$char_traits@D@std@@@std@@QAEAAV12@XZ 1003af95 f   ObjectsExtender.obj
 0001:00039fb0       __ehhandler$?_Osfx@?$basic_ostream@DU?$char_traits@D@std@@@std@@QAEXXZ 1003afb0 f   ObjectsExtender.obj
 0001:00039fc0       __unwindfunclet$??$_Insert_range_unchecked@PAPBDPAPBD@?$_Hash@V?$_Uset_traits@PBDV?$_Uhash_compare@PBDU?$hash@PBD@std@@U?$equal_to@PBD@2@@std@@V?$allocator@PBD@2@$0A@@std@@@std@@IAEXPAPBDQAPBD@Z$1 1003afc0 f   ObjectsExtender.obj
 0001:00039fc8       __unwindfunclet$??$_Insert_range_unchecked@PAPBDPAPBD@?$_Hash@V?$_Uset_traits@PBDV?$_Uhash_compare@PBDU?$hash@PBD@std@@U?$equal_to@PBD@2@@std@@V?$allocator@PBD@2@$0A@@std@@@std@@IAEXPAPBDQAPBD@Z$0 1003afc8 f   ObjectsExtender.obj
 0001:00039fd5       __ehhandler$??$_Insert_range_unchecked@PAPBDPAPBD@?$_Hash@V?$_Uset_traits@PBDV?$_Uhash_compare@PBDU?$hash@PBD@std@@U?$equal_to@PBD@2@@std@@V?$allocator@PBD@2@$0A@@std@@@std@@IAEXPAPBDQAPBD@Z 1003afd5 f   ObjectsExtender.obj
 0001:00039ff0       __ehhandler$??1PseudoH3RmgRandomMapGenerator@editor@@QAE@XZ 1003aff0 f   RMGObjectsEditor.obj
 0001:0003a000       __ehhandler$??1?$H3Vector@UH3ObjectAttributes@h3@@@h3@@QAE@XZ 1003b000 f   RMGObjectsEditor.obj
 0001:0003a010       __ehhandler$??$swap@U?$H3Vector@PAUH3RmgObjectGenerator@h3@@@h3@@$0A@@std@@YAXAAU?$H3Vector@PAUH3RmgObjectGenerator@h3@@@h3@@0@Z 1003b010 f   RMGObjectsEditor.obj
 0001:0003a010       __ehhandler$?CreateText@H3BaseDlg@h3@@QAEPAUH3DlgText@2@HHHHPBD0HHW4eTextAlignment@NTextAlignment@NH3Dlg@2@H@Z 1003b010 f   RMG_SettingsDlg.obj
 0001:0003a010       __ehhandler$?_Change_array@?$vector@U?$pair@UH3ObjectAttributes@h3@@PAUH3LoadedPcx16@2@@std@@V?$allocator@U?$pair@UH3ObjectAttributes@h3@@PAUH3LoadedPcx16@2@@std@@@2@@std@@AAEXQAU?$pair@UH3ObjectAttributes@h3@@PAUH3LoadedPcx16@2@@2@II@Z 1003b010 f   RMG_SettingsDlg.obj
 0001:0003a020       __unwindfunclet$??$emplace@I@?$_Hash@V?$_Uset_traits@IV?$_Uhash_compare@IU?$hash@I@std@@U?$equal_to@I@2@@std@@V?$allocator@I@2@$0A@@std@@@std@@QAE?AU?$pair@V?$_List_const_iterator@V?$_List_val@U?$_List_simple_types@I@std@@@std@@@std@@_N@1@$$QAI@Z$1 1003b020 f   RMGObjectsEditor.obj
 0001:0003a028       __unwindfunclet$??$emplace@I@?$_Hash@V?$_Uset_traits@IV?$_Uhash_compare@IU?$hash@I@std@@U?$equal_to@I@2@@std@@V?$allocator@I@2@$0A@@std@@@std@@QAE?AU?$pair@V?$_List_const_iterator@V?$_List_val@U?$_List_simple_types@I@std@@@std@@@std@@_N@1@$$QAI@Z$0 1003b028 f   RMGObjectsEditor.obj
 0001:0003a035       __ehhandler$??$emplace@I@?$_Hash@V?$_Uset_traits@IV?$_Uhash_compare@IU?$hash@I@std@@U?$equal_to@I@2@@std@@V?$allocator@I@2@$0A@@std@@@std@@QAE?AU?$pair@V?$_List_const_iterator@V?$_List_val@U?$_List_simple_types@I@std@@@std@@@std@@_N@1@$$QAI@Z 1003b035 f   RMGObjectsEditor.obj
 0001:0003a050       __unwindfunclet$?FrameRegion@H3LoadedPcx16@h3@@QAEHHHHHHHH@Z$0 1003b050 f   RMG_SettingsDlg.obj
 0001:0003a058       __unwindfunclet$?FrameRegion@H3LoadedPcx16@h3@@QAEHHHHHHHH@Z$1 1003b058 f   RMG_SettingsDlg.obj
 0001:0003a068       __ehhandler$?FrameRegion@H3LoadedPcx16@h3@@QAEHHHHHHHH@Z 1003b068 f   RMG_SettingsDlg.obj
 0001:0003a080       __unwindfunclet$??0H3Dlg@h3@@QAE@HHHHHHH@Z$0 1003b080 f   RMG_SettingsDlg.obj
 0001:0003a08d       __ehhandler$??0H3Dlg@h3@@QAE@HHHHHHH@Z 1003b08d f   RMG_SettingsDlg.obj
 0001:0003a0a0       __unwindfunclet$?AddBackground@H3Dlg@h3@@QAEHHHHHHHHH@Z$2 1003b0a0 f   RMG_SettingsDlg.obj
 0001:0003a0ad       __ehhandler$?AddBackground@H3Dlg@h3@@QAEHHHHHHHHH@Z 1003b0ad f   RMG_SettingsDlg.obj
 0001:0003a0c0       __ehhandler$??$_Reallocate@$00@?$vector@U?$pair@UH3ObjectAttributes@h3@@PAUH3LoadedPcx16@2@@std@@V?$allocator@U?$pair@UH3ObjectAttributes@h3@@PAUH3LoadedPcx16@2@@std@@@2@@std@@AAEXAAI@Z 1003b0c0 f   RMG_SettingsDlg.obj
 0001:0003a0c0       __ehhandler$??$_Reallocate@$0A@@?$vector@U?$pair@UH3ObjectAttributes@h3@@PAUH3LoadedPcx16@2@@std@@V?$allocator@U?$pair@UH3ObjectAttributes@h3@@PAUH3LoadedPcx16@2@@std@@@2@@std@@AAEXAAI@Z 1003b0c0 f   RMG_SettingsDlg.obj
 0001:0003a0d0       __unwindfunclet$??$_Assign_counted_range@PAU?$pair@UH3ObjectAttributes@h3@@PAUH3LoadedPcx16@2@@std@@@?$vector@U?$pair@UH3ObjectAttributes@h3@@PAUH3LoadedPcx16@2@@std@@V?$allocator@U?$pair@UH3ObjectAttributes@h3@@PAUH3LoadedPcx16@2@@std@@@2@@std@@AAEXPAU?$pair@UH3ObjectAttributes@h3@@PAUH3LoadedPcx16@2@@1@I@Z$0 1003b0d0 f   RMG_SettingsDlg.obj
 0001:0003a0d8       __unwindfunclet$??$_Assign_counted_range@PAU?$pair@UH3ObjectAttributes@h3@@PAUH3LoadedPcx16@2@@std@@@?$vector@U?$pair@UH3ObjectAttributes@h3@@PAUH3LoadedPcx16@2@@std@@V?$allocator@U?$pair@UH3ObjectAttributes@h3@@PAUH3LoadedPcx16@2@@std@@@2@@std@@AAEXPAU?$pair@UH3ObjectAttributes@h3@@PAUH3LoadedPcx16@2@@1@I@Z$5 1003b0d8 f   RMG_SettingsDlg.obj
 0001:0003a0e5       __ehhandler$??$_Assign_counted_range@PAU?$pair@UH3ObjectAttributes@h3@@PAUH3LoadedPcx16@2@@std@@@?$vector@U?$pair@UH3ObjectAttributes@h3@@PAUH3LoadedPcx16@2@@std@@V?$allocator@U?$pair@UH3ObjectAttributes@h3@@PAUH3LoadedPcx16@2@@std@@@2@@std@@AAEXPAU?$pair@UH3ObjectAttributes@h3@@PAUH3LoadedPcx16@2@@1@I@Z 1003b0e5 f   RMG_SettingsDlg.obj
 0001:0003a100       __ehhandler$??$_Emplace_reallocate@ABUH3ObjectAttributes@h3@@ABQAUH3LoadedPcx16@2@@?$vector@VRMGObject@rmgdlg@@V?$allocator@VRMGObject@rmgdlg@@@std@@@std@@AAEPAVRMGObject@rmgdlg@@QAV23@ABUH3ObjectAttributes@h3@@ABQAUH3LoadedPcx16@5@@Z 1003b100 f   RMG_SettingsDlg.obj
 0001:0003a110       __ehhandler$??$_Emplace_reallocate@U?$pair@UH3ObjectAttributes@h3@@$$T@std@@@?$vector@U?$pair@UH3ObjectAttributes@h3@@PAUH3LoadedPcx16@2@@std@@V?$allocator@U?$pair@UH3ObjectAttributes@h3@@PAUH3LoadedPcx16@2@@std@@@2@@std@@AAEPAU?$pair@UH3ObjectAttributes@h3@@PAUH3LoadedPcx16@2@@1@QAU21@$$QAU?$pair@UH3ObjectAttributes@h3@@$$T@1@@Z 1003b110 f   RMG_SettingsDlg.obj
 0001:0003a120       __ehhandler$??$_Emplace_reallocate@AAU?$pair@UH3ObjectAttributes@h3@@PAUH3LoadedPcx16@2@@std@@@?$vector@U?$pair@UH3ObjectAttributes@h3@@PAUH3LoadedPcx16@2@@std@@V?$allocator@U?$pair@UH3ObjectAttributes@h3@@PAUH3LoadedPcx16@2@@std@@@2@@std@@AAEPAU?$pair@UH3ObjectAttributes@h3@@PAUH3LoadedPcx16@2@@1@QAU21@AAU21@@Z 1003b120 f   RMG_SettingsDlg.obj
 0001:0003a130       __unwindfunclet$??$_Insertion_sort_unchecked@PAVRMGObject@rmgdlg@@V<lambda_1>@?1??SortRmgObjects@sorting@2@YAXAAV?$vector@VRMGObject@rmgdlg@@V?$allocator@VRMGObject@rmgdlg@@@std@@@std@@W4eSorting@52@_N@Z@@std@@YAPAVRMGObject@rmgdlg@@QAV12@0V<lambda_1>@?1??SortRmgObjects@sorting@2@YAXAAV?$vector@VRMGObject@rmgdlg@@V?$allocator@VRMGObject@rmgdlg@@@std@@@0@W4eSorting@52@_N@Z@@Z$0 1003b130 f   RMG_SettingsDlg.obj
 0001:0003a138       __unwindfunclet$??$_Insertion_sort_unchecked@PAVRMGObject@rmgdlg@@V<lambda_1>@?1??SortRmgObjects@sorting@2@YAXAAV?$vector@VRMGObject@rmgdlg@@V?$allocator@VRMGObject@rmgdlg@@@std@@@std@@W4eSorting@52@_N@Z@@std@@YAPAVRMGObject@rmgdlg@@QAV12@0V<lambda_1>@?1??SortRmgObjects@sorting@2@YAXAAV?$vector@VRMGObject@rmgdlg@@V?$allocator@VRMGObject@rmgdlg@@@std@@@0@W4eSorting@52@_N@Z@@Z$1 1003b138 f   RMG_SettingsDlg.obj
 0001:0003a140       __unwindfunclet$??$_Insertion_sort_unchecked@PAVRMGObject@rmgdlg@@V<lambda_1>@?1??SortRmgObjects@sorting@2@YAXAAV?$vector@VRMGObject@rmgdlg@@V?$allocator@VRMGObject@rmgdlg@@@std@@@std@@W4eSorting@52@_N@Z@@std@@YAPAVRMGObject@rmgdlg@@QAV12@0V<lambda_1>@?1??SortRmgObjects@sorting@2@YAXAAV?$vector@VRMGObject@rmgdlg@@V?$allocator@VRMGObject@rmgdlg@@@std@@@0@W4eSorting@52@_N@Z@@Z$22 1003b140 f   RMG_SettingsDlg.obj
 0001:0003a148       __unwindfunclet$??$_Insertion_sort_unchecked@PAVRMGObject@rmgdlg@@V<lambda_1>@?1??SortRmgObjects@sorting@2@YAXAAV?$vector@VRMGObject@rmgdlg@@V?$allocator@VRMGObject@rmgdlg@@@std@@@std@@W4eSorting@52@_N@Z@@std@@YAPAVRMGObject@rmgdlg@@QAV12@0V<lambda_1>@?1??SortRmgObjects@sorting@2@YAXAAV?$vector@VRMGObject@rmgdlg@@V?$allocator@VRMGObject@rmgdlg@@@std@@@0@W4eSorting@52@_N@Z@@Z$23 1003b148 f   RMG_SettingsDlg.obj
 0001:0003a155       __ehhandler$??$_Insertion_sort_unchecked@PAVRMGObject@rmgdlg@@V<lambda_1>@?1??SortRmgObjects@sorting@2@YAXAAV?$vector@VRMGObject@rmgdlg@@V?$allocator@VRMGObject@rmgdlg@@@std@@@std@@W4eSorting@52@_N@Z@@std@@YAPAVRMGObject@rmgdlg@@QAV12@0V<lambda_1>@?1??SortRmgObjects@sorting@2@YAXAAV?$vector@VRMGObject@rmgdlg@@V?$allocator@VRMGObject@rmgdlg@@@std@@@0@W4eSorting@52@_N@Z@@Z 1003b155 f   RMG_SettingsDlg.obj
 0001:0003a170       __unwindfunclet$??$_Make_heap_unchecked@PAVRMGObject@rmgdlg@@V<lambda_1>@?1??SortRmgObjects@sorting@2@YAXAAV?$vector@VRMGObject@rmgdlg@@V?$allocator@VRMGObject@rmgdlg@@@std@@@std@@W4eSorting@52@_N@Z@@std@@YAXPAVRMGObject@rmgdlg@@0V<lambda_1>@?1??SortRmgObjects@sorting@2@YAXAAV?$vector@VRMGObject@rmgdlg@@V?$allocator@VRMGObject@rmgdlg@@@std@@@0@W4eSorting@52@_N@Z@@Z$0 1003b170 f   RMG_SettingsDlg.obj
 0001:0003a178       __unwindfunclet$??$_Make_heap_unchecked@PAVRMGObject@rmgdlg@@V<lambda_1>@?1??SortRmgObjects@sorting@2@YAXAAV?$vector@VRMGObject@rmgdlg@@V?$allocator@VRMGObject@rmgdlg@@@std@@@std@@W4eSorting@52@_N@Z@@std@@YAXPAVRMGObject@rmgdlg@@0V<lambda_1>@?1??SortRmgObjects@sorting@2@YAXAAV?$vector@VRMGObject@rmgdlg@@V?$allocator@VRMGObject@rmgdlg@@@std@@@0@W4eSorting@52@_N@Z@@Z$1 1003b178 f   RMG_SettingsDlg.obj
 0001:0003a185       __ehhandler$??$_Make_heap_unchecked@PAVRMGObject@rmgdlg@@V<lambda_1>@?1??SortRmgObjects@sorting@2@YAXAAV?$vector@VRMGObject@rmgdlg@@V?$allocator@VRMGObject@rmgdlg@@@std@@@std@@W4eSorting@52@_N@Z@@std@@YAXPAVRMGObject@rmgdlg@@0V<lambda_1>@?1??SortRmgObjects@sorting@2@YAXAAV?$vector@VRMGObject@rmgdlg@@V?$allocator@VRMGObject@rmgdlg@@@std@@@0@W4eSorting@52@_N@Z@@Z 1003b185 f   RMG_SettingsDlg.obj
 0001:0003a1a0       __unwindfunclet$??$_Partition_by_median_guess_unchecked@PAVRMGObject@rmgdlg@@V<lambda_1>@?1??SortRmgObjects@sorting@2@YAXAAV?$vector@VRMGObject@rmgdlg@@V?$allocator@VRMGObject@rmgdlg@@@std@@@std@@W4eSorting@52@_N@Z@@std@@YA?AU?$pair@PAVRMGObject@rmgdlg@@PAV12@@0@PAVRMGObject@rmgdlg@@0V<lambda_1>@?1??SortRmgObjects@sorting@3@YAXAAV?$vector@VRMGObject@rmgdlg@@V?$allocator@VRMGObject@rmgdlg@@@std@@@0@W4eSorting@63@_N@Z@@Z$88 1003b1a0 f   RMG_SettingsDlg.obj
 0001:0003a1a8       __unwindfunclet$??$_Partition_by_median_guess_unchecked@PAVRMGObject@rmgdlg@@V<lambda_1>@?1??SortRmgObjects@sorting@2@YAXAAV?$vector@VRMGObject@rmgdlg@@V?$allocator@VRMGObject@rmgdlg@@@std@@@std@@W4eSorting@52@_N@Z@@std@@YA?AU?$pair@PAVRMGObject@rmgdlg@@PAV12@@0@PAVRMGObject@rmgdlg@@0V<lambda_1>@?1??SortRmgObjects@sorting@3@YAXAAV?$vector@VRMGObject@rmgdlg@@V?$allocator@VRMGObject@rmgdlg@@@std@@@0@W4eSorting@63@_N@Z@@Z$89 1003b1a8 f   RMG_SettingsDlg.obj
 0001:0003a1b0       __unwindfunclet$??$_Partition_by_median_guess_unchecked@PAVRMGObject@rmgdlg@@V<lambda_1>@?1??SortRmgObjects@sorting@2@YAXAAV?$vector@VRMGObject@rmgdlg@@V?$allocator@VRMGObject@rmgdlg@@@std@@@std@@W4eSorting@52@_N@Z@@std@@YA?AU?$pair@PAVRMGObject@rmgdlg@@PAV12@@0@PAVRMGObject@rmgdlg@@0V<lambda_1>@?1??SortRmgObjects@sorting@3@YAXAAV?$vector@VRMGObject@rmgdlg@@V?$allocator@VRMGObject@rmgdlg@@@std@@@0@W4eSorting@63@_N@Z@@Z$132 1003b1b0 f   RMG_SettingsDlg.obj
 0001:0003a1b8       __unwindfunclet$??$_Partition_by_median_guess_unchecked@PAVRMGObject@rmgdlg@@V<lambda_1>@?1??SortRmgObjects@sorting@2@YAXAAV?$vector@VRMGObject@rmgdlg@@V?$allocator@VRMGObject@rmgdlg@@@std@@@std@@W4eSorting@52@_N@Z@@std@@YA?AU?$pair@PAVRMGObject@rmgdlg@@PAV12@@0@PAVRMGObject@rmgdlg@@0V<lambda_1>@?1??SortRmgObjects@sorting@3@YAXAAV?$vector@VRMGObject@rmgdlg@@V?$allocator@VRMGObject@rmgdlg@@@std@@@0@W4eSorting@63@_N@Z@@Z$133 1003b1b8 f   RMG_SettingsDlg.obj
 0001:0003a1c0       __unwindfunclet$??$_Partition_by_median_guess_unchecked@PAVRMGObject@rmgdlg@@V<lambda_1>@?1??SortRmgObjects@sorting@2@YAXAAV?$vector@VRMGObject@rmgdlg@@V?$allocator@VRMGObject@rmgdlg@@@std@@@std@@W4eSorting@52@_N@Z@@std@@YA?AU?$pair@PAVRMGObject@rmgdlg@@PAV12@@0@PAVRMGObject@rmgdlg@@0V<lambda_1>@?1??SortRmgObjects@sorting@3@YAXAAV?$vector@VRMGObject@rmgdlg@@V?$allocator@VRMGObject@rmgdlg@@@std@@@0@W4eSorting@63@_N@Z@@Z$110 1003b1c0 f   RMG_SettingsDlg.obj
 0001:0003a1c8       __unwindfunclet$??$_Partition_by_median_guess_unchecked@PAVRMGObject@rmgdlg@@V<lambda_1>@?1??SortRmgObjects@sorting@2@YAXAAV?$vector@VRMGObject@rmgdlg@@V?$allocator@VRMGObject@rmgdlg@@@std@@@std@@W4eSorting@52@_N@Z@@std@@YA?AU?$pair@PAVRMGObject@rmgdlg@@PAV12@@0@PAVRMGObject@rmgdlg@@0V<lambda_1>@?1??SortRmgObjects@sorting@3@YAXAAV?$vector@VRMGObject@rmgdlg@@V?$allocator@VRMGObject@rmgdlg@@@std@@@0@W4eSorting@63@_N@Z@@Z$111 1003b1c8 f   RMG_SettingsDlg.obj
 0001:0003a1d0       __unwindfunclet$??$_Partition_by_median_guess_unchecked@PAVRMGObject@rmgdlg@@V<lambda_1>@?1??SortRmgObjects@sorting@2@YAXAAV?$vector@VRMGObject@rmgdlg@@V?$allocator@VRMGObject@rmgdlg@@@std@@@std@@W4eSorting@52@_N@Z@@std@@YA?AU?$pair@PAVRMGObject@rmgdlg@@PAV12@@0@PAVRMGObject@rmgdlg@@0V<lambda_1>@?1??SortRmgObjects@sorting@3@YAXAAV?$vector@VRMGObject@rmgdlg@@V?$allocator@VRMGObject@rmgdlg@@@std@@@0@W4eSorting@63@_N@Z@@Z$154 1003b1d0 f   RMG_SettingsDlg.obj
 0001:0003a1d8       __unwindfunclet$??$_Partition_by_median_guess_unchecked@PAVRMGObject@rmgdlg@@V<lambda_1>@?1??SortRmgObjects@sorting@2@YAXAAV?$vector@VRMGObject@rmgdlg@@V?$allocator@VRMGObject@rmgdlg@@@std@@@std@@W4eSorting@52@_N@Z@@std@@YA?AU?$pair@PAVRMGObject@rmgdlg@@PAV12@@0@PAVRMGObject@rmgdlg@@0V<lambda_1>@?1??SortRmgObjects@sorting@3@YAXAAV?$vector@VRMGObject@rmgdlg@@V?$allocator@VRMGObject@rmgdlg@@@std@@@0@W4eSorting@63@_N@Z@@Z$155 1003b1d8 f   RMG_SettingsDlg.obj
 0001:0003a1e0       __unwindfunclet$??$_Partition_by_median_guess_unchecked@PAVRMGObject@rmgdlg@@V<lambda_1>@?1??SortRmgObjects@sorting@2@YAXAAV?$vector@VRMGObject@rmgdlg@@V?$allocator@VRMGObject@rmgdlg@@@std@@@std@@W4eSorting@52@_N@Z@@std@@YA?AU?$pair@PAVRMGObject@rmgdlg@@PAV12@@0@PAVRMGObject@rmgdlg@@0V<lambda_1>@?1??SortRmgObjects@sorting@3@YAXAAV?$vector@VRMGObject@rmgdlg@@V?$allocator@VRMGObject@rmgdlg@@@std@@@0@W4eSorting@63@_N@Z@@Z$44 1003b1e0 f   RMG_SettingsDlg.obj
 0001:0003a1e8       __unwindfunclet$??$_Partition_by_median_guess_unchecked@PAVRMGObject@rmgdlg@@V<lambda_1>@?1??SortRmgObjects@sorting@2@YAXAAV?$vector@VRMGObject@rmgdlg@@V?$allocator@VRMGObject@rmgdlg@@@std@@@std@@W4eSorting@52@_N@Z@@std@@YA?AU?$pair@PAVRMGObject@rmgdlg@@PAV12@@0@PAVRMGObject@rmgdlg@@0V<lambda_1>@?1??SortRmgObjects@sorting@3@YAXAAV?$vector@VRMGObject@rmgdlg@@V?$allocator@VRMGObject@rmgdlg@@@std@@@0@W4eSorting@63@_N@Z@@Z$45 1003b1e8 f   RMG_SettingsDlg.obj
 0001:0003a1f0       __unwindfunclet$??$_Partition_by_median_guess_unchecked@PAVRMGObject@rmgdlg@@V<lambda_1>@?1??SortRmgObjects@sorting@2@YAXAAV?$vector@VRMGObject@rmgdlg@@V?$allocator@VRMGObject@rmgdlg@@@std@@@std@@W4eSorting@52@_N@Z@@std@@YA?AU?$pair@PAVRMGObject@rmgdlg@@PAV12@@0@PAVRMGObject@rmgdlg@@0V<lambda_1>@?1??SortRmgObjects@sorting@3@YAXAAV?$vector@VRMGObject@rmgdlg@@V?$allocator@VRMGObject@rmgdlg@@@std@@@0@W4eSorting@63@_N@Z@@Z$66 1003b1f0 f   RMG_SettingsDlg.obj
 0001:0003a1f8       __unwindfunclet$??$_Partition_by_median_guess_unchecked@PAVRMGObject@rmgdlg@@V<lambda_1>@?1??SortRmgObjects@sorting@2@YAXAAV?$vector@VRMGObject@rmgdlg@@V?$allocator@VRMGObject@rmgdlg@@@std@@@std@@W4eSorting@52@_N@Z@@std@@YA?AU?$pair@PAVRMGObject@rmgdlg@@PAV12@@0@PAVRMGObject@rmgdlg@@0V<lambda_1>@?1??SortRmgObjects@sorting@3@YAXAAV?$vector@VRMGObject@rmgdlg@@V?$allocator@VRMGObject@rmgdlg@@@std@@@0@W4eSorting@63@_N@Z@@Z$67 1003b1f8 f   RMG_SettingsDlg.obj
 0001:0003a200       __unwindfunclet$??$_Partition_by_median_guess_unchecked@PAVRMGObject@rmgdlg@@V<lambda_1>@?1??SortRmgObjects@sorting@2@YAXAAV?$vector@VRMGObject@rmgdlg@@V?$allocator@VRMGObject@rmgdlg@@@std@@@std@@W4eSorting@52@_N@Z@@std@@YA?AU?$pair@PAVRMGObject@rmgdlg@@PAV12@@0@PAVRMGObject@rmgdlg@@0V<lambda_1>@?1??SortRmgObjects@sorting@3@YAXAAV?$vector@VRMGObject@rmgdlg@@V?$allocator@VRMGObject@rmgdlg@@@std@@@0@W4eSorting@63@_N@Z@@Z$0 1003b200 f   RMG_SettingsDlg.obj
 0001:0003a20b       __unwindfunclet$??$_Partition_by_median_guess_unchecked@PAVRMGObject@rmgdlg@@V<lambda_1>@?1??SortRmgObjects@sorting@2@YAXAAV?$vector@VRMGObject@rmgdlg@@V?$allocator@VRMGObject@rmgdlg@@@std@@@std@@W4eSorting@52@_N@Z@@std@@YA?AU?$pair@PAVRMGObject@rmgdlg@@PAV12@@0@PAVRMGObject@rmgdlg@@0V<lambda_1>@?1??SortRmgObjects@sorting@3@YAXAAV?$vector@VRMGObject@rmgdlg@@V?$allocator@VRMGObject@rmgdlg@@@std@@@0@W4eSorting@63@_N@Z@@Z$1 1003b20b f   RMG_SettingsDlg.obj
 0001:0003a216       __unwindfunclet$??$_Partition_by_median_guess_unchecked@PAVRMGObject@rmgdlg@@V<lambda_1>@?1??SortRmgObjects@sorting@2@YAXAAV?$vector@VRMGObject@rmgdlg@@V?$allocator@VRMGObject@rmgdlg@@@std@@@std@@W4eSorting@52@_N@Z@@std@@YA?AU?$pair@PAVRMGObject@rmgdlg@@PAV12@@0@PAVRMGObject@rmgdlg@@0V<lambda_1>@?1??SortRmgObjects@sorting@3@YAXAAV?$vector@VRMGObject@rmgdlg@@V?$allocator@VRMGObject@rmgdlg@@@std@@@0@W4eSorting@63@_N@Z@@Z$22 1003b216 f   RMG_SettingsDlg.obj
 0001:0003a221       __unwindfunclet$??$_Partition_by_median_guess_unchecked@PAVRMGObject@rmgdlg@@V<lambda_1>@?1??SortRmgObjects@sorting@2@YAXAAV?$vector@VRMGObject@rmgdlg@@V?$allocator@VRMGObject@rmgdlg@@@std@@@std@@W4eSorting@52@_N@Z@@std@@YA?AU?$pair@PAVRMGObject@rmgdlg@@PAV12@@0@PAVRMGObject@rmgdlg@@0V<lambda_1>@?1??SortRmgObjects@sorting@3@YAXAAV?$vector@VRMGObject@rmgdlg@@V?$allocator@VRMGObject@rmgdlg@@@std@@@0@W4eSorting@63@_N@Z@@Z$23 1003b221 f   RMG_SettingsDlg.obj
 0001:0003a231       __ehhandler$??$_Partition_by_median_guess_unchecked@PAVRMGObject@rmgdlg@@V<lambda_1>@?1??SortRmgObjects@sorting@2@YAXAAV?$vector@VRMGObject@rmgdlg@@V?$allocator@VRMGObject@rmgdlg@@@std@@@std@@W4eSorting@52@_N@Z@@std@@YA?AU?$pair@PAVRMGObject@rmgdlg@@PAV12@@0@PAVRMGObject@rmgdlg@@0V<lambda_1>@?1??SortRmgObjects@sorting@3@YAXAAV?$vector@VRMGObject@rmgdlg@@V?$allocator@VRMGObject@rmgdlg@@@std@@@0@W4eSorting@63@_N@Z@@Z 1003b231 f   RMG_SettingsDlg.obj
 0001:0003a240       __unwindfunclet$??$_Pop_heap_hole_by_index@PAVRMGObject@rmgdlg@@V12@V<lambda_1>@?1??SortRmgObjects@sorting@2@YAXAAV?$vector@VRMGObject@rmgdlg@@V?$allocator@VRMGObject@rmgdlg@@@std@@@std@@W4eSorting@52@_N@Z@@std@@YAXPAVRMGObject@rmgdlg@@HH$$QAV12@V<lambda_1>@?1??SortRmgObjects@sorting@2@YAXAAV?$vector@VRMGObject@rmgdlg@@V?$allocator@VRMGObject@rmgdlg@@@std@@@0@W4eSorting@52@_N@Z@@Z$0 1003b240 f   RMG_SettingsDlg.obj
 0001:0003a248       __unwindfunclet$??$_Pop_heap_hole_by_index@PAVRMGObject@rmgdlg@@V12@V<lambda_1>@?1??SortRmgObjects@sorting@2@YAXAAV?$vector@VRMGObject@rmgdlg@@V?$allocator@VRMGObject@rmgdlg@@@std@@@std@@W4eSorting@52@_N@Z@@std@@YAXPAVRMGObject@rmgdlg@@HH$$QAV12@V<lambda_1>@?1??SortRmgObjects@sorting@2@YAXAAV?$vector@VRMGObject@rmgdlg@@V?$allocator@VRMGObject@rmgdlg@@@std@@@0@W4eSorting@52@_N@Z@@Z$1 1003b248 f   RMG_SettingsDlg.obj
 0001:0003a255       __ehhandler$??$_Pop_heap_hole_by_index@PAVRMGObject@rmgdlg@@V12@V<lambda_1>@?1??SortRmgObjects@sorting@2@YAXAAV?$vector@VRMGObject@rmgdlg@@V?$allocator@VRMGObject@rmgdlg@@@std@@@std@@W4eSorting@52@_N@Z@@std@@YAXPAVRMGObject@rmgdlg@@HH$$QAV12@V<lambda_1>@?1??SortRmgObjects@sorting@2@YAXAAV?$vector@VRMGObject@rmgdlg@@V?$allocator@VRMGObject@rmgdlg@@@std@@@0@W4eSorting@52@_N@Z@@Z 1003b255 f   RMG_SettingsDlg.obj
 0001:0003a270       __unwindfunclet$??$_Push_heap_by_index@PAVRMGObject@rmgdlg@@V12@V<lambda_1>@?1??SortRmgObjects@sorting@2@YAXAAV?$vector@VRMGObject@rmgdlg@@V?$allocator@VRMGObject@rmgdlg@@@std@@@std@@W4eSorting@52@_N@Z@@std@@YAXPAVRMGObject@rmgdlg@@HH$$QAV12@V<lambda_1>@?1??SortRmgObjects@sorting@2@YAXAAV?$vector@VRMGObject@rmgdlg@@V?$allocator@VRMGObject@rmgdlg@@@std@@@0@W4eSorting@52@_N@Z@@Z$0 1003b270 f   RMG_SettingsDlg.obj
 0001:0003a278       __unwindfunclet$??$_Push_heap_by_index@PAVRMGObject@rmgdlg@@V12@V<lambda_1>@?1??SortRmgObjects@sorting@2@YAXAAV?$vector@VRMGObject@rmgdlg@@V?$allocator@VRMGObject@rmgdlg@@@std@@@std@@W4eSorting@52@_N@Z@@std@@YAXPAVRMGObject@rmgdlg@@HH$$QAV12@V<lambda_1>@?1??SortRmgObjects@sorting@2@YAXAAV?$vector@VRMGObject@rmgdlg@@V?$allocator@VRMGObject@rmgdlg@@@std@@@0@W4eSorting@52@_N@Z@@Z$1 1003b278 f   RMG_SettingsDlg.obj
 0001:0003a285       __ehhandler$??$_Push_heap_by_index@PAVRMGObject@rmgdlg@@V12@V<lambda_1>@?1??SortRmgObjects@sorting@2@YAXAAV?$vector@VRMGObject@rmgdlg@@V?$allocator@VRMGObject@rmgdlg@@@std@@@std@@W4eSorting@52@_N@Z@@std@@YAXPAVRMGObject@rmgdlg@@HH$$QAV12@V<lambda_1>@?1??SortRmgObjects@sorting@2@YAXAAV?$vector@VRMGObject@rmgdlg@@V?$allocator@VRMGObject@rmgdlg@@@std@@@0@W4eSorting@52@_N@Z@@Z 1003b285 f   RMG_SettingsDlg.obj
 0001:0003a291       __unwindfunclet$?_Init@locale@std@@CAPAV_Locimp@12@_N@Z$0 1003b291 f   libcpmt:locale0.obj
 0001:0003a29e       __ehhandler$?_Init@locale@std@@CAPAV_Locimp@12@_N@Z 1003b29e f   libcpmt:locale0.obj
 0001:0003a2bb       __ehhandler$?try_cor_exit_process@@YAXI@Z 1003b2bb f   libucrt:exit.obj
 0001:0003a2bb       __ehhandler$?_Tidy@ios_base@std@@AAEXXZ 1003b2bb f   libcpmt:ios.obj
 0001:0003a2d8       __unwindfunclet$??0system_error@std@@QAE@HABVerror_category@1@PBD@Z$0 1003b2d8 f   libcpmt:thread0.obj
 0001:0003a2e5       __ehhandler$??0system_error@std@@QAE@HABVerror_category@1@PBD@Z 1003b2e5 f   libcpmt:thread0.obj
 0001:0003a30c       __ehhandler$__Cnd_do_broadcast_at_thread_exit 1003b30c f   libcpmt:xnotify.obj
 0001:0003a329       __ehhandler$??1_Init_atexit@@QAE@XZ 1003b329 f   libcpmt:iosptrs.obj
 0001:0003a329       __ehhandler$___crtGetSystemTimePreciseAsFileTime 1003b329 f   libcpmt:winapisupp.obj
 0001:0003a346       __ehhandler$?CallUnexpected@@YAXPBU_s_ESTypeList@@@Z 1003b346 f   libvcruntime:frame.obj
 0001:0003a363       __ehhandler$?common_exit@@YAXHW4_crt_exit_cleanup_mode@@W4_crt_exit_return_mode@@@Z 1003b363 f   libucrt:exit.obj
 0001:0003a380       __ehhandler$___dcrt_uninitialize_environments_nolock 1003b380 f   libucrt:environment_initialization.obj
 0001:0003a39d       __ehhandler$__execute_onexit_table 1003b39d f   libucrt:onexit.obj
 0001:0003a3ba       __ehhandler$?_mbstowcs_l_helper@@YAIPA_WPBDIAAV__crt_cached_ptd_host@@@Z 1003b3ba f   libucrt:mbstowcs.obj
 0001:0003a3d7       __ehhandler$?write_double_translated_ansi_nolock@@YA?AUwrite_result@?A0x17268360@@HQBDIAAV__crt_cached_ptd_host@@@Z 1003b3d7 f   libucrt:write.obj
 0001:0003a410       __unwindfunclet$?ConnectEra@Era@@YAXPAUHINSTANCE__@@PBD@Z$0 1003b410 f   era.obj
 0001:0003a418       __unwindfunclet$?ConnectEra@Era@@YAXPAUHINSTANCE__@@PBD@Z$1 1003b418 f   era.obj
 0001:0003a420       __unwindfunclet$?ConnectEra@Era@@YAXPAUHINSTANCE__@@PBD@Z$2 1003b420 f   era.obj
 0001:0003a428       __unwindfunclet$?ConnectEra@Era@@YAXPAUHINSTANCE__@@PBD@Z$3 1003b428 f   era.obj
 0001:0003a435       __ehhandler$?ConnectEra@Era@@YAXPAUHINSTANCE__@@PBD@Z 1003b435 f   era.obj
 0001:0003a450       __unwindfunclet$?CrBanksTxt_AfterLoad@@YGHPAVLoHook@@PAUHookContext@@@Z$0 1003b450 f   dllmain.obj
 0001:0003a45c       __unwindfunclet$?CrBanksTxt_AfterLoad@@YGHPAVLoHook@@PAUHookContext@@@Z$1 1003b45c f   dllmain.obj
 0001:0003a466       __unwindfunclet$?CrBanksTxt_AfterLoad@@YGHPAVLoHook@@PAUHookContext@@@Z$2 1003b466 f   dllmain.obj
 0001:0003a472       __unwindfunclet$?CrBanksTxt_AfterLoad@@YGHPAVLoHook@@PAUHookContext@@@Z$4 1003b472 f   dllmain.obj
 0001:0003a47e       __unwindfunclet$?CrBanksTxt_AfterLoad@@YGHPAVLoHook@@PAUHookContext@@@Z$5 1003b47e f   dllmain.obj
 0001:0003a488       __unwindfunclet$?CrBanksTxt_AfterLoad@@YGHPAVLoHook@@PAUHookContext@@@Z$6 1003b488 f   dllmain.obj
 0001:0003a494       __unwindfunclet$?CrBanksTxt_AfterLoad@@YGHPAVLoHook@@PAUHookContext@@@Z$7 1003b494 f   dllmain.obj
 0001:0003a49e       __unwindfunclet$?CrBanksTxt_AfterLoad@@YGHPAVLoHook@@PAUHookContext@@@Z$8 1003b49e f   dllmain.obj
 0001:0003a4af       __ehhandler$?CrBanksTxt_AfterLoad@@YGHPAVLoHook@@PAUHookContext@@@Z 1003b4af f   dllmain.obj
 0001:0003a4bb       __unwindfunclet$?OnReportVersion@@YGXPAUTEvent@Era@@@Z$0 1003b4bb f   dllmain.obj
 0001:0003a4c8       __ehhandler$?OnReportVersion@@YGXPAUTEvent@Era@@@Z 1003b4c8 f   dllmain.obj
 0001:0003a4e0       __unwindfunclet$?H3AdventureManager__ObjectVisit_SoundPlay@SoundManager@sound@@CGHPAVLoHook@@PAUHookContext@@@Z$0 1003b4e0 f   SoundManager.obj
 0001:0003a4e8       __unwindfunclet$?H3AdventureManager__ObjectVisit_SoundPlay@SoundManager@sound@@CGHPAVLoHook@@PAUHookContext@@@Z$1 1003b4e8 f   SoundManager.obj
 0001:0003a4f5       __ehhandler$?H3AdventureManager__ObjectVisit_SoundPlay@SoundManager@sound@@CGHPAVLoHook@@PAUHookContext@@@Z 1003b4f5 f   SoundManager.obj
 0001:0003a501       __unwindfunclet$?CreateNewLoopSoundsTable@SoundManager@sound@@AAEXABV?$vector@UObjectSound@SoundManager@sound@@V?$allocator@UObjectSound@SoundManager@sound@@@std@@@std@@@Z$18 1003b501 f   SoundManager.obj
 0001:0003a509       __unwindfunclet$?CreateNewLoopSoundsTable@SoundManager@sound@@AAEXABV?$vector@UObjectSound@SoundManager@sound@@V?$allocator@UObjectSound@SoundManager@sound@@@std@@@std@@@Z$19 1003b509 f   SoundManager.obj
 0001:0003a511       __unwindfunclet$?CreateNewLoopSoundsTable@SoundManager@sound@@AAEXABV?$vector@UObjectSound@SoundManager@sound@@V?$allocator@UObjectSound@SoundManager@sound@@@std@@@std@@@Z$0 1003b511 f   SoundManager.obj
 0001:0003a519       __unwindfunclet$?CreateNewLoopSoundsTable@SoundManager@sound@@AAEXABV?$vector@UObjectSound@SoundManager@sound@@V?$allocator@UObjectSound@SoundManager@sound@@@std@@@std@@@Z$1 1003b519 f   SoundManager.obj
 0001:0003a521       __unwindfunclet$?CreateNewLoopSoundsTable@SoundManager@sound@@AAEXABV?$vector@UObjectSound@SoundManager@sound@@V?$allocator@UObjectSound@SoundManager@sound@@@std@@@std@@@Z$2 1003b521 f   SoundManager.obj
 0001:0003a52c       __unwindfunclet$?CreateNewLoopSoundsTable@SoundManager@sound@@AAEXABV?$vector@UObjectSound@SoundManager@sound@@V?$allocator@UObjectSound@SoundManager@sound@@@std@@@std@@@Z$3 1003b52c f   SoundManager.obj
 0001:0003a539       __ehhandler$?CreateNewLoopSoundsTable@SoundManager@sound@@AAEXABV?$vector@UObjectSound@SoundManager@sound@@V?$allocator@UObjectSound@SoundManager@sound@@@std@@@std@@@Z 1003b539 f   SoundManager.obj
 0001:0003a550       __ehhandler$?CreateRMGObjectGen@ColosseumOfTheMagiExtender@colosseumOfTheMagi@@EBEPAUH3RmgObjectGenerator@h3@@ABURMGObjectInfo@@@Z 1003b550 f   ColosseumOfTheMagiExtender.obj
 0001:0003a55c       __ehhandler$?SetHintInH3TextBuffer@ColosseumOfTheMagiExtender@colosseumOfTheMagi@@EBEHPAUH3MapItem@h3@@PBUH3Hero@4@PBUH3Player@4@H@Z 1003b55c f   ColosseumOfTheMagiExtender.obj
 0001:0003a568       __ehhandler$?VisitMapItem@ColosseumOfTheMagiExtender@colosseumOfTheMagi@@EBEHPAUH3Hero@h3@@PAUH3MapItem@4@UH3Position@4@H@Z 1003b568 f   ColosseumOfTheMagiExtender.obj
 0001:0003a574       __unwindfunclet$?AskQuestionWithTwoOptions@colosseumOfTheMagi@@YA?AW4ePick@H3Messagebox@h3@@PBUH3MapItem@4@@Z$0 1003b574 f   ColosseumOfTheMagiExtender.obj
 0001:0003a57c       __unwindfunclet$?AskQuestionWithTwoOptions@colosseumOfTheMagi@@YA?AW4ePick@H3Messagebox@h3@@PBUH3MapItem@4@@Z$1 1003b57c f   ColosseumOfTheMagiExtender.obj
 0001:0003a589       __ehhandler$?AskQuestionWithTwoOptions@colosseumOfTheMagi@@YA?AW4ePick@H3Messagebox@h3@@PBUH3MapItem@4@@Z 1003b589 f   ColosseumOfTheMagiExtender.obj
 0001:0003a595       __unwindfunclet$?ShowMessage@colosseumOfTheMagi@@YAXPBUH3MapItem@h3@@@Z$0 1003b595 f   ColosseumOfTheMagiExtender.obj
 0001:0003a59d       __unwindfunclet$?ShowMessage@colosseumOfTheMagi@@YAXPBUH3MapItem@h3@@@Z$1 1003b59d f   ColosseumOfTheMagiExtender.obj
 0001:0003a5aa       __ehhandler$?ShowMessage@colosseumOfTheMagi@@YAXPBUH3MapItem@h3@@@Z 1003b5aa f   ColosseumOfTheMagiExtender.obj
 0001:0003a5b6       __ehhandler$?SetAiMapItemWeight@ColosseumOfTheMagiExtender@colosseumOfTheMagi@@EBEHPAUH3MapItem@h3@@PBUH3Hero@4@PBUH3Player@4@AAH@Z 1003b5b6 f   ColosseumOfTheMagiExtender.obj
 0001:0003a5c2       __unwindfunclet$??0ColosseumOfTheMagiExtender@colosseumOfTheMagi@@AAE@XZ$0 1003b5c2 f   ColosseumOfTheMagiExtender.obj
 0001:0003a5cf       __ehhandler$??0ColosseumOfTheMagiExtender@colosseumOfTheMagi@@AAE@XZ 1003b5cf f   ColosseumOfTheMagiExtender.obj
 0001:0003a5db       __unwindfunclet$?Get@ColosseumOfTheMagiExtender@colosseumOfTheMagi@@SAAAV12@XZ$0 1003b5db f   ColosseumOfTheMagiExtender.obj
 0001:0003a5e7       __unwindfunclet$?Get@ColosseumOfTheMagiExtender@colosseumOfTheMagi@@SAAAV12@XZ$1 1003b5e7 f   ColosseumOfTheMagiExtender.obj
 0001:0003a5f6       __ehhandler$?Get@ColosseumOfTheMagiExtender@colosseumOfTheMagi@@SAAAV12@XZ 1003b5f6 f   ColosseumOfTheMagiExtender.obj
 0001:0003a610       __ehhandler$?ShrinkToFit@CreatureBanksExtender@cbanks@@AAEXXZ 1003b610 f   CreatureBanksExtender.obj
 0001:0003a61c       __ehhandler$?Reserve@CreatureBanksExtender@cbanks@@AAEXG@Z 1003b61c f   CreatureBanksExtender.obj
 0001:0003a628       __ehhandler$?Resize@CreatureBanksExtender@cbanks@@AAEXG@Z 1003b628 f   CreatureBanksExtender.obj
 0001:0003a634       __unwindfunclet$?GetBankSetupsNumberFromJson@CreatureBanksExtender@cbanks@@AAE?BHF@Z$33 1003b634 f   CreatureBanksExtender.obj
 0001:0003a63f       __unwindfunclet$?GetBankSetupsNumberFromJson@CreatureBanksExtender@cbanks@@AAE?BHF@Z$0 1003b63f f   CreatureBanksExtender.obj
 0001:0003a64a       __unwindfunclet$?GetBankSetupsNumberFromJson@CreatureBanksExtender@cbanks@@AAE?BHF@Z$1 1003b64a f   CreatureBanksExtender.obj
 0001:0003a652       __unwindfunclet$?GetBankSetupsNumberFromJson@CreatureBanksExtender@cbanks@@AAE?BHF@Z$2 1003b652 f   CreatureBanksExtender.obj
 0001:0003a65f       __ehhandler$?GetBankSetupsNumberFromJson@CreatureBanksExtender@cbanks@@AAE?BHF@Z 1003b65f f   CreatureBanksExtender.obj
 0001:0003a66b       __ehhandler$?CreateRMGObjectGen@CreatureBanksExtender@cbanks@@MBEPAUH3RmgObjectGenerator@h3@@ABURMGObjectInfo@@@Z 1003b66b f   CreatureBanksExtender.obj
 0001:0003a677       __ehhandler$?GetCreatureBankId@CreatureBanksExtender@cbanks@@SAHHH@Z 1003b677 f   CreatureBanksExtender.obj
 0001:0003a683       __unwindfunclet$?CrBank_AskForVisitMessage@CreatureBanksExtender@cbanks@@CGXPAVHiHook@@PADHHHHHHHHHHH@Z$1 1003b683 f   CreatureBanksExtender.obj
 0001:0003a68b       __unwindfunclet$?CrBank_AskForVisitMessage@CreatureBanksExtender@cbanks@@CGXPAVHiHook@@PADHHHHHHHHHHH@Z$3 1003b68b f   CreatureBanksExtender.obj
 0001:0003a698       __ehhandler$?CrBank_AskForVisitMessage@CreatureBanksExtender@cbanks@@CGXPAVHiHook@@PADHHHHHHHHHHH@Z 1003b698 f   CreatureBanksExtender.obj
 0001:0003a6a4       __unwindfunclet$?OnAfterReloadLanguageData@CreatureBanksExtender@cbanks@@CGXPAUTEvent@Era@@@Z$0 1003b6a4 f   CreatureBanksExtender.obj
 0001:0003a6ac       __unwindfunclet$?OnAfterReloadLanguageData@CreatureBanksExtender@cbanks@@CGXPAUTEvent@Era@@@Z$1 1003b6ac f   CreatureBanksExtender.obj
 0001:0003a6b9       __ehhandler$?OnAfterReloadLanguageData@CreatureBanksExtender@cbanks@@CGXPAUTEvent@Era@@@Z 1003b6b9 f   CreatureBanksExtender.obj
 0001:0003a6c5       __unwindfunclet$??0CreatureBanksExtender@cbanks@@AAE@XZ$0 1003b6c5 f   CreatureBanksExtender.obj
 0001:0003a6cd       __unwindfunclet$??0CreatureBanksExtender@cbanks@@AAE@XZ$1 1003b6cd f   CreatureBanksExtender.obj
 0001:0003a6dd       __ehhandler$??0CreatureBanksExtender@cbanks@@AAE@XZ 1003b6dd f   CreatureBanksExtender.obj
 0001:0003a6e9       __ehhandler$??1CreatureName@?4??ShowMultiplePicsArmyMessage@cbanks@@YAHPBDHHHPAUH3Army@h3@@@Z@QAE@XZ 1003b6e9 f   CreatureBanksExtender.obj
 0001:0003a6f5       __ehhandler$?ShowMultiplePicsArmyMessage@cbanks@@YAHPBDHHHPAUH3Army@h3@@@Z 1003b6f5 f   CreatureBanksExtender.obj
 0001:0003a701       __ehhandler$?GetArmyMessage@cbanks@@YAHPBUH3CreatureBank@h3@@AAUH3String@3@_N@Z 1003b701 f   CreatureBanksExtender.obj
 0001:0003a70d       __unwindfunclet$?Get@CreatureBanksExtender@cbanks@@SAAAV12@XZ$0 1003b70d f   CreatureBanksExtender.obj
 0001:0003a719       __unwindfunclet$?Get@CreatureBanksExtender@cbanks@@SAAAV12@XZ$1 1003b719 f   CreatureBanksExtender.obj
 0001:0003a723       __unwindfunclet$?Get@CreatureBanksExtender@cbanks@@SAAAV12@XZ$2 1003b723 f   CreatureBanksExtender.obj
 0001:0003a732       __ehhandler$?Get@CreatureBanksExtender@cbanks@@SAAAV12@XZ 1003b732 f   CreatureBanksExtender.obj
 0001:0003a740       __ehhandler$?CreateRMGObjectGen@GazeboExtender@gazebo@@EBEPAUH3RmgObjectGenerator@h3@@ABURMGObjectInfo@@@Z 1003b740 f   GazeboExtender.obj
 0001:0003a74c       __ehhandler$?SetHintInH3TextBuffer@GazeboExtender@gazebo@@EBEHPAUH3MapItem@h3@@PBUH3Hero@4@PBUH3Player@4@H@Z 1003b74c f   GazeboExtender.obj
 0001:0003a758       __ehhandler$?VisitMapItem@GazeboExtender@gazebo@@EBEHPAUH3Hero@h3@@PAUH3MapItem@4@UH3Position@4@H@Z 1003b758 f   GazeboExtender.obj
 0001:0003a764       __unwindfunclet$?ShowMessage@gazebo@@YAXPBUH3MapItem@h3@@H_N@Z$0 1003b764 f   GazeboExtender.obj
 0001:0003a76c       __unwindfunclet$?ShowMessage@gazebo@@YAXPBUH3MapItem@h3@@H_N@Z$1 1003b76c f   GazeboExtender.obj
 0001:0003a774       __unwindfunclet$?ShowMessage@gazebo@@YAXPBUH3MapItem@h3@@H_N@Z$2 1003b774 f   GazeboExtender.obj
 0001:0003a77c       __unwindfunclet$?ShowMessage@gazebo@@YAXPBUH3MapItem@h3@@H_N@Z$3 1003b77c f   GazeboExtender.obj
 0001:0003a784       __unwindfunclet$?ShowMessage@gazebo@@YAXPBUH3MapItem@h3@@H_N@Z$4 1003b784 f   GazeboExtender.obj
 0001:0003a791       __ehhandler$?ShowMessage@gazebo@@YAXPBUH3MapItem@h3@@H_N@Z 1003b791 f   GazeboExtender.obj
 0001:0003a79d       __ehhandler$?SetAiMapItemWeight@GazeboExtender@gazebo@@EBEHPAUH3MapItem@h3@@PBUH3Hero@4@PBUH3Player@4@AAH@Z 1003b79d f   GazeboExtender.obj
 0001:0003a7a9       __unwindfunclet$??0GazeboExtender@gazebo@@AAE@XZ$0 1003b7a9 f   GazeboExtender.obj
 0001:0003a7b6       __ehhandler$??0GazeboExtender@gazebo@@AAE@XZ 1003b7b6 f   GazeboExtender.obj
 0001:0003a7c2       __unwindfunclet$?Get@GazeboExtender@gazebo@@SAAAV12@XZ$0 1003b7c2 f   GazeboExtender.obj
 0001:0003a7ce       __unwindfunclet$?Get@GazeboExtender@gazebo@@SAAAV12@XZ$1 1003b7ce f   GazeboExtender.obj
 0001:0003a7dd       __ehhandler$?Get@GazeboExtender@gazebo@@SAAAV12@XZ 1003b7dd f   GazeboExtender.obj
 0001:0003a7f0       __ehhandler$?CreateRMGObjectGen@ShrinesExternder@shrines@@MBEPAUH3RmgObjectGenerator@h3@@ABURMGObjectInfo@@@Z 1003b7f0 f   ShrinesExternder.obj
 0001:0003a7fc       __ehhandler$?Shrine__AtGetHint@ShrinesExternder@shrines@@CGHPAVLoHook@@PAUHookContext@@@Z 1003b7fc f   ShrinesExternder.obj
 0001:0003a808       __ehhandler$?Shrine__AtGetName@ShrinesExternder@shrines@@CGHPAVLoHook@@PAUHookContext@@@Z 1003b808 f   ShrinesExternder.obj
 0001:0003a814       __unwindfunclet$??0ShrinesExternder@shrines@@AAE@XZ$0 1003b814 f   ShrinesExternder.obj
 0001:0003a821       __ehhandler$??0ShrinesExternder@shrines@@AAE@XZ 1003b821 f   ShrinesExternder.obj
 0001:0003a82d       __unwindfunclet$?Get@ShrinesExternder@shrines@@SAAAV12@XZ$0 1003b82d f   ShrinesExternder.obj
 0001:0003a839       __unwindfunclet$?Get@ShrinesExternder@shrines@@SAAAV12@XZ$1 1003b839 f   ShrinesExternder.obj
 0001:0003a848       __ehhandler$?Get@ShrinesExternder@shrines@@SAAAV12@XZ 1003b848 f   ShrinesExternder.obj
 0001:0003a860       __ehhandler$?CreateRMGObjectGen@WarehousesExtender@warehouses@@EBEPAUH3RmgObjectGenerator@h3@@ABURMGObjectInfo@@@Z 1003b860 f   WarehousesExtender.obj
 0001:0003a86c       __ehhandler$?SetAiMapItemWeight@WarehousesExtender@warehouses@@EBEHPAUH3MapItem@h3@@PBUH3Hero@4@PBUH3Player@4@AAH@Z 1003b86c f   WarehousesExtender.obj
 0001:0003a878       __ehhandler$?VisitMapItem@WarehousesExtender@warehouses@@EBEHPAUH3Hero@h3@@PAUH3MapItem@4@UH3Position@4@H@Z 1003b878 f   WarehousesExtender.obj
 0001:0003a884       __ehhandler$?SetHintInH3TextBuffer@WarehousesExtender@warehouses@@EBEHPAUH3MapItem@h3@@PBUH3Hero@4@PBUH3Player@4@H@Z 1003b884 f   WarehousesExtender.obj
 0001:0003a890       __unwindfunclet$?ShowMessage@warehouses@@YAXPBUH3MapItem@h3@@HH@Z$0 1003b890 f   WarehousesExtender.obj
 0001:0003a898       __unwindfunclet$?ShowMessage@warehouses@@YAXPBUH3MapItem@h3@@HH@Z$1 1003b898 f   WarehousesExtender.obj
 0001:0003a8a0       __unwindfunclet$?ShowMessage@warehouses@@YAXPBUH3MapItem@h3@@HH@Z$2 1003b8a0 f   WarehousesExtender.obj
 0001:0003a8b9       __unwindfunclet$?ShowMessage@warehouses@@YAXPBUH3MapItem@h3@@HH@Z$3 1003b8b9 f   WarehousesExtender.obj
 0001:0003a8d7       __ehhandler$?ShowMessage@warehouses@@YAXPBUH3MapItem@h3@@HH@Z 1003b8d7 f   WarehousesExtender.obj
 0001:0003a8e3       __unwindfunclet$?Get@WarehousesExtender@warehouses@@SAAAV12@XZ$0 1003b8e3 f   WarehousesExtender.obj
 0001:0003a8f4       __ehhandler$?Get@WarehousesExtender@warehouses@@SAAAV12@XZ 1003b8f4 f   WarehousesExtender.obj
 0001:0003a900       __ehhandler$?CreateRMGObjectGen@WateringPlaceExtender@wateringPlace@@EBEPAUH3RmgObjectGenerator@h3@@ABURMGObjectInfo@@@Z 1003b900 f   WateringPlaceExtender.obj
 0001:0003a90c       __ehhandler$?OnEveryDay@wateringPlace@@YGXPAUTEvent@Era@@@Z 1003b90c f   WateringPlaceExtender.obj
 0001:0003a918       __ehhandler$?SetHintInH3TextBuffer@WateringPlaceExtender@wateringPlace@@EBEHPAUH3MapItem@h3@@PBUH3Hero@4@PBUH3Player@4@H@Z 1003b918 f   WateringPlaceExtender.obj
 0001:0003a924       __ehhandler$?VisitMapItem@WateringPlaceExtender@wateringPlace@@EBEHPAUH3Hero@h3@@PAUH3MapItem@4@UH3Position@4@H@Z 1003b924 f   WateringPlaceExtender.obj
 0001:0003a930       __unwindfunclet$?AskQuestion@wateringPlace@@YAHPBUH3MapItem@h3@@@Z$0 1003b930 f   WateringPlaceExtender.obj
 0001:0003a938       __unwindfunclet$?AskQuestion@wateringPlace@@YAHPBUH3MapItem@h3@@@Z$1 1003b938 f   WateringPlaceExtender.obj
 0001:0003a945       __ehhandler$?AskQuestion@wateringPlace@@YAHPBUH3MapItem@h3@@@Z 1003b945 f   WateringPlaceExtender.obj
 0001:0003a951       __unwindfunclet$?ShowMessage@wateringPlace@@YAXPBUH3MapItem@h3@@@Z$0 1003b951 f   WateringPlaceExtender.obj
 0001:0003a959       __unwindfunclet$?ShowMessage@wateringPlace@@YAXPBUH3MapItem@h3@@@Z$1 1003b959 f   WateringPlaceExtender.obj
 0001:0003a966       __ehhandler$?ShowMessage@wateringPlace@@YAXPBUH3MapItem@h3@@@Z 1003b966 f   WateringPlaceExtender.obj
 0001:0003a980       __ehhandler$?AfterLoadingObjectTxtProc@WoGObjectsExtender@wog@@MAEXPBF@Z 1003b980 f   WoGObjectsExtender.obj
 0001:0003a98c       __ehhandler$?CreateRMGObjectGen@WoGObjectsExtender@wog@@MBEPAUH3RmgObjectGenerator@h3@@ABURMGObjectInfo@@@Z 1003b98c f   WoGObjectsExtender.obj
 0001:0003a998       __unwindfunclet$?Get@WoGObjectsExtender@wog@@SAAAV12@XZ$0 1003b998 f   WoGObjectsExtender.obj
 0001:0003a9a9       __ehhandler$?Get@WoGObjectsExtender@wog@@SAAAV12@XZ 1003b9a9 f   WoGObjectsExtender.obj
 0001:0003a9c0       __ehhandler$?ShowObjectHint@ObjectsExtender@extender@@CAHPAVLoHook@@PAUHookContext@@H@Z 1003b9c0 f   ObjectsExtender.obj
 0001:0003a9cc       __unwindfunclet$?AddObjectsToObjectGenList@ObjectsExtender@extender@@SAXPAU?$H3Vector@PAUH3RmgObjectGenerator@h3@@@h3@@@Z$4 1003b9cc f   ObjectsExtender.obj
 0001:0003a9d4       __unwindfunclet$?AddObjectsToObjectGenList@ObjectsExtender@extender@@SAXPAU?$H3Vector@PAUH3RmgObjectGenerator@h3@@@h3@@@Z$5 1003b9d4 f   ObjectsExtender.obj
 0001:0003a9dc       __unwindfunclet$?AddObjectsToObjectGenList@ObjectsExtender@extender@@SAXPAU?$H3Vector@PAUH3RmgObjectGenerator@h3@@@h3@@@Z$0 1003b9dc f   ObjectsExtender.obj
 0001:0003a9e9       __ehhandler$?AddObjectsToObjectGenList@ObjectsExtender@extender@@SAXPAU?$H3Vector@PAUH3RmgObjectGenerator@h3@@@h3@@@Z 1003b9e9 f   ObjectsExtender.obj
 0001:0003a9f5       __ehhandler$?CreateRMGObjectGen@ObjectsExtender@extender@@MBEPAUH3RmgObjectGenerator@h3@@ABURMGObjectInfo@@@Z 1003b9f5 f   ObjectsExtender.obj
 0001:0003aa01       __unwindfunclet$?H3GameMainSetup__LoadObjects@ObjectsExtender@extender@@CGXPAVHiHook@@PBUH3MainSetup@h3@@@Z$0 1003ba01 f   ObjectsExtender.obj
 0001:0003aa0e       __ehhandler$?H3GameMainSetup__LoadObjects@ObjectsExtender@extender@@CGXPAVHiHook@@PBUH3MainSetup@h3@@@Z 1003ba0e f   ObjectsExtender.obj
 0001:0003aa1a       __ehhandler$?LoadMapObjectPropertiesFromLoadedMods@ObjectsExtender@extender@@CAXXZ 1003ba1a f   ObjectsExtender.obj
 0001:0003aa26       __ehhandler$?LoadMapObjectPropertiesByTypeSubtypes@ObjectsExtender@extender@@CAXXZ 1003ba26 f   ObjectsExtender.obj
 0001:0003aa32       __unwindfunclet$?LoadObjectsTxt@ObjectsExtender@extender@@CGHPAVLoHook@@PAUHookContext@@@Z$2 1003ba32 f   ObjectsExtender.obj
 0001:0003aa3a       __unwindfunclet$?LoadObjectsTxt@ObjectsExtender@extender@@CGHPAVLoHook@@PAUHookContext@@@Z$3 1003ba3a f   ObjectsExtender.obj
 0001:0003aa42       __unwindfunclet$?LoadObjectsTxt@ObjectsExtender@extender@@CGHPAVLoHook@@PAUHookContext@@@Z$1 1003ba42 f   ObjectsExtender.obj
 0001:0003aa4a       __unwindfunclet$?LoadObjectsTxt@ObjectsExtender@extender@@CGHPAVLoHook@@PAUHookContext@@@Z$0 1003ba4a f   ObjectsExtender.obj
 0001:0003aa52       __unwindfunclet$?LoadObjectsTxt@ObjectsExtender@extender@@CGHPAVLoHook@@PAUHookContext@@@Z$8 1003ba52 f   ObjectsExtender.obj
 0001:0003aa5a       __unwindfunclet$?LoadObjectsTxt@ObjectsExtender@extender@@CGHPAVLoHook@@PAUHookContext@@@Z$7 1003ba5a f   ObjectsExtender.obj
 0001:0003aa67       __ehhandler$?LoadObjectsTxt@ObjectsExtender@extender@@CGHPAVLoHook@@PAUHookContext@@@Z 1003ba67 f   ObjectsExtender.obj
 0001:0003aa73       __ehhandler$?CreateDefaultH3RmgObjectGenerator@ObjectsExtender@extender@@KAPAUH3RmgObjectGenerator@h3@@ABURMGObjectInfo@@@Z 1003ba73 f   ObjectsExtender.obj
 0001:0003aa80       __unwindfunclet$?Assign@GeneratedInfo@@QAEXPBUH3RmgRandomMapGenerator@h3@@AAY0OI@$$CBV?$vector@URMGObjectInfo@@V?$allocator@URMGObjectInfo@@@std@@@std@@@Z$3 1003ba80 f   RMGObjectsEditor.obj
 0001:0003aa88       __unwindfunclet$?Assign@GeneratedInfo@@QAEXPBUH3RmgRandomMapGenerator@h3@@AAY0OI@$$CBV?$vector@URMGObjectInfo@@V?$allocator@URMGObjectInfo@@@std@@@std@@@Z$4 1003ba88 f   RMGObjectsEditor.obj
 0001:0003aa90       __unwindfunclet$?Assign@GeneratedInfo@@QAEXPBUH3RmgRandomMapGenerator@h3@@AAY0OI@$$CBV?$vector@URMGObjectInfo@@V?$allocator@URMGObjectInfo@@@std@@@std@@@Z$0 1003ba90 f   RMGObjectsEditor.obj
 0001:0003aa9d       __ehhandler$?Assign@GeneratedInfo@@QAEXPBUH3RmgRandomMapGenerator@h3@@AAY0OI@$$CBV?$vector@URMGObjectInfo@@V?$allocator@URMGObjectInfo@@@std@@@std@@@Z 1003ba9d f   RMGObjectsEditor.obj
 0001:0003aaa9       __ehhandler$?GetObjectName@RMGObjectInfo@@SAPBDHH@Z 1003baa9 f   RMGObjectsEditor.obj
 0001:0003aab5       __ehhandler$?LoadUserProperties@RMGObjectInfo@@SAXPBF@Z 1003bab5 f   RMGObjectsEditor.obj
 0001:0003aac1       __ehhandler$?InitDefaultProperties@RMGObjectInfo@@SAXABUObjectLimitsInfo@@PBF@Z 1003bac1 f   RMGObjectsEditor.obj
 0001:0003aacd       __ehhandler$?WriteToINI@RMGObjectInfo@@QBEHXZ 1003bacd f   RMGObjectsEditor.obj
 0001:0003aad9       __ehhandler$?GetName@RMGObjectInfo@@QBEPBDXZ 1003bad9 f   RMGObjectsEditor.obj
 0001:0003aae5       __ehhandler$?BeforeMapGeneration@RMGObjectsEditor@editor@@ABEXPBUH3RmgRandomMapGenerator@h3@@@Z 1003bae5 f   RMGObjectsEditor.obj
