 RMG_CustomizeObjectProperties

 Timestamp is 6719bfd7 (Thu Oct 24 06:32:39 2024)

 Preferred load address is 10000000

 Start         Length     Name                   Class
 0001:00000000 00000c20H .text$di                CODE
 0001:00000c20 00039fe0H .text$mn                CODE
 0001:0003ac00 00001c30H .text$x                 CODE
 0001:0003c830 00000230H .text$yd                CODE
 0002:00000000 000001a8H .idata$5                DATA
 0002:000001a8 00000004H .00cfg                  DATA
 0002:000001ac 00000004H .CRT$XCA                DATA
 0002:000001b0 0000000cH .CRT$XCC                DATA
 0002:000001bc 00000160H .CRT$XCU                DATA
 0002:0000031c 00000004H .CRT$XCZ                DATA
 0002:00000320 00000004H .CRT$XIA                DATA
 0002:00000324 00000014H .CRT$XIC                DATA
 0002:00000338 00000004H .CRT$XIZ                DATA
 0002:0000033c 00000004H .CRT$XLA                DATA
 0002:00000340 00000004H .CRT$XLZ                DATA
 0002:00000344 00000004H .CRT$XPA                DATA
 0002:00000348 00000004H .CRT$XPB                DATA
 0002:0000034c 00000008H .CRT$XPX                DATA
 0002:00000354 00000004H .CRT$XPXA               DATA
 0002:00000358 00000004H .CRT$XPZ                DATA
 0002:0000035c 00000004H .CRT$XTA                DATA
 0002:00000360 00000010H .CRT$XTZ                DATA
 0002:00000370 0000891cH .rdata                  DATA
 0002:00008c8c 00000018H .rdata$T                DATA
 0002:00008ca4 000021bcH .rdata$r                DATA
 0002:0000ae60 000002f4H .rdata$sxdata           DATA
 0002:0000b154 00000418H .rdata$zzzdbg           DATA
 0002:0000b56c 00000004H .rtc$IAA                DATA
 0002:0000b570 00000004H .rtc$IZZ                DATA
 0002:0000b574 00000004H .rtc$TAA                DATA
 0002:0000b578 00000008H .rtc$TZZ                DATA
 0002:0000b580 00003670H .xdata$x                DATA
 0002:0000ebf0 00000080H .edata                  DATA
 0002:0000ec70 00000014H .idata$2                DATA
 0002:0000ec84 00000014H .idata$3                DATA
 0002:0000ec98 000001a8H .idata$4                DATA
 0002:0000ee40 000007ecH .idata$6                DATA
 0003:00000000 00000848H .data                   DATA
 0003:00000848 00001648H .data$r                 DATA
 0003:00001e90 00002a1cH .bss                    DATA
 0004:00000000 00000090H .gfids$x                DATA
 0004:00000090 000009dcH .gfids$y                DATA
 0005:00000000 00000004H .tls                    DATA
 0005:00000004 00000004H .tls$                   DATA
 0005:00000008 00000001H .tls$ZZZ                DATA
 0006:00000000 00000060H .rsrc$01                DATA
 0006:00000060 00000098H .rsrc$02                DATA

  Address         Publics by Value              Rva+Base       Lib:Object

 0000:00000000       __except_list              00000000     <absolute>
 0000:00000000       ___guard_fids_count        00000000     <absolute>
 0000:00000000       ___guard_longjmp_count     00000000     <absolute>
 0000:00000000       ___guard_fids_table        00000000     <absolute>
 0000:00000000       ___guard_longjmp_table     00000000     <absolute>
 0000:00000000       ___guard_iat_table         00000000     <absolute>
 0000:00000000       ___guard_iat_count         00000000     <absolute>
 0000:00000000       ___dynamic_value_reloc_table 00000000     <absolute>
 0000:0000002c       __tls_array                0000002c     <absolute>
 0000:000000bd       ___safe_se_handler_count   000000bd     <absolute>
 0000:00000100       ___guard_flags             00000100     <absolute>
 0000:00000000       ___ImageBase               10000000     <linker-defined>
 0001:00000c20       ??_H@YGXPAXIIP6EPAX0@Z@Z   10001c20 f i DrawPcx16ResizedBicubic.obj
 0001:00000c50       ?RMAwaken@InternalContextBase@details@Concurrency@@EAEXXZ 10001c50 f i libconcrt:InternalContextBase.obj
 0001:00000c50       ___except_validate_jump_buffer 10001c50 f i libvcruntime:jbcxrval.obj
 0001:00000c50       ?NotifyAffinitizedWork@FairScheduleGroupSegment@details@Concurrency@@UAEXXZ 10001c50 f i libconcrt:SchedulerBase.obj
 0001:00000c50       ?__empty_global_delete@@YAXPAXI@Z 10001c50 f i DrawPcx16ResizedBicubic.obj
 0001:00000c50       ___except_validate_context_record 10001c50 f i libvcruntime:jbcxrval.obj
 0001:00000c50       ?destroy@stl_critical_section_win7@details@Concurrency@@UAEXXZ 10001c50 f i libcpmt:mutex.obj
 0001:00000c50       ?OnOK@H3Dlg@h3@@UAEXXZ     10001c50 f i RMG_SettingsDlg.obj
 0001:00000c50       ?OnCancel@H3Dlg@h3@@UAEXXZ 10001c50 f i RMG_SettingsDlg.obj
 0001:00000c50       ?_Orphan_all@?$_Vector_alloc@U?$_Vec_base_types@URMGObjectInfo@@V?$allocator@URMGObjectInfo@@@std@@@std@@@std@@QAEXXZ 10001c50 f i ObjectsExtender.obj
 0001:00000c50       ?Destroy@WaitAnyBlock@details@Concurrency@@UAEXXZ 10001c50 f i libconcrt:event.obj
 0001:00000c50       ?__global_delete@@YAXPAXI@Z 10001c50 f i * CIL library *:* CIL module *
 0001:00000c50       ?_Orphan_all@?$_Vector_alloc@U?$_Vec_base_types@V?$basic_string@DU?$char_traits@D@std@@V?$allocator@D@2@@std@@V?$allocator@V?$basic_string@DU?$char_traits@D@std@@V?$allocator@D@2@@std@@@2@@std@@@std@@QAEXXZ 10001c50 f i ObjectsExtender.obj
 0001:00000c50       ?_Orphan_all@?$_Vector_alloc@U?$_Vec_base_types@PAV?$vector@U?$pair@UH3ObjectAttributes@h3@@PAUH3LoadedPcx16@2@@std@@V?$allocator@U?$pair@UH3ObjectAttributes@h3@@PAUH3LoadedPcx16@2@@std@@@2@@std@@V?$allocator@PAV?$vector@U?$pair@UH3ObjectAttributes@h3@@PAUH3LoadedPcx16@2@@std@@V?$allocator@U?$pair@UH3ObjectAttributes@h3@@PAUH3LoadedPcx16@2@@std@@@2@@std@@@2@@std@@@std@@QAEXXZ 10001c50 f i RMG_SettingsDlg.obj
 0001:00000c50       ??1critical_section@Concurrency@@QAE@XZ 10001c50 f i libconcrt:rtlocks.obj
 0001:00000c50       ??3@YAXPAX0@Z              10001c50 f i CreatureBanksExtender.obj
 0001:00000c50       ?destroy@stl_condition_variable_vista@details@Concurrency@@UAEXXZ 10001c50 f i libcpmt:cond.obj
 0001:00000c50       @_guard_check_icall_nop@4  10001c50 f i LIBCMT:guard_support.obj
 0001:00000c50       ?destroy@stl_condition_variable_win7@details@Concurrency@@UAEXXZ 10001c50 f i libcpmt:cond.obj
 0001:00000c60       ___local_stdio_printf_options 10001c60 f i era.obj
 0001:00000c70       _sprintf_s                 10001c70 f i era.obj
 0001:00000ca0       ?length@?$char_traits@D@std@@SAIPBD@Z 10001ca0 f i era.obj
 0001:00000cc0       ??1?$basic_string@DU?$char_traits@D@std@@V?$allocator@D@2@@std@@QAE@XZ 10001cc0 f i era.obj
 0001:00000d00       ??0?$basic_string@DU?$char_traits@D@std@@V?$allocator@D@2@@std@@QAE@PBD@Z 10001d00 f i era.obj
 0001:00000d60       ?_Tidy@?$basic_string@DU?$char_traits@D@std@@V?$allocator@D@2@@std@@QAEX_NI@Z 10001d60 f i era.obj
 0001:00000dc0       ?assign@?$basic_string@DU?$char_traits@D@std@@V?$allocator@D@2@@std@@QAEAAV12@PBDI@Z 10001dc0 f i era.obj
 0001:00000ec0       ?assign@?$basic_string@DU?$char_traits@D@std@@V?$allocator@D@2@@std@@QAEAAV12@ABV12@II@Z 10001ec0 f i era.obj
 0001:00000ff0       ?deallocate@?$_Wrap_alloc@V?$allocator@D@std@@@std@@QAEXPADI@Z 10001ff0 f i era.obj
 0001:00001040       ?_Xlen@?$basic_string@DU?$char_traits@D@std@@V?$allocator@D@2@@std@@QBEXXZ 10002040 f i era.obj
 0001:00001050       ?_Inside@?$basic_string@DU?$char_traits@D@std@@V?$allocator@D@2@@std@@QAE_NPBD@Z 10002050 f i era.obj
 0001:00001090       ?_Grow@?$basic_string@DU?$char_traits@D@std@@V?$allocator@D@2@@std@@QAE_NI_N@Z 10002090 f i era.obj
 0001:00001100       ?erase@?$basic_string@DU?$char_traits@D@std@@V?$allocator@D@2@@std@@QAEAAV12@II@Z 10002100 f i era.obj
 0001:000011a0       ?_Xran@?$basic_string@DU?$char_traits@D@std@@V?$allocator@D@2@@std@@QBEXXZ 100021a0 f i era.obj
 0001:000011b0       ?_Copy@?$basic_string@DU?$char_traits@D@std@@V?$allocator@D@2@@std@@QAEXII@Z 100021b0 f i era.obj
 0001:00001340       ?allocate@?$_Wrap_alloc@V?$allocator@D@std@@@std@@QAEPADI@Z 10002340 f i era.obj
 0001:00001390       _sprintf                   10002390 f i CreatureBanksExtender.obj
 0001:000013d0       ??1H3String@h3@@QAE@XZ     100023d0 f i CreatureBanksExtender.obj
 0001:00001400       ?Format@H3String@h3@@SA?AU12@PBDZZ 10002400 f i CreatureBanksExtender.obj
 0001:00001430       ?Format@H3String@h3@@SA?AU12@PBDPAD@Z 10002430 f i CreatureBanksExtender.obj
 0001:000014f0       ??_ECreatureBanksExtender@cbanks@@EAEPAXI@Z 100024f0 f i * CIL library *:* CIL module *
 0001:000014f0       ??_GCreatureBanksExtender@cbanks@@EAEPAXI@Z 100024f0 f i CreatureBanksExtender.obj
 0001:00001520       ??1CreatureBank@CreatureBanksExtender@cbanks@@QAE@XZ 10002520 f i CreatureBanksExtender.obj
 0001:000015c0       ??1LoopSoundManager@CreatureBanksExtender@cbanks@@QAE@XZ 100025c0 f i CreatureBanksExtender.obj
 0001:00001620       ??0H3CreatureBankSetup@h3@@QAE@XZ 10002620 f i CreatureBanksExtender.obj
 0001:000016d0       ??1H3CreatureBankSetup@h3@@QAE@XZ 100026d0 f i CreatureBanksExtender.obj
 0001:000016d0       ??1?$pair@UH3ObjectAttributes@h3@@$$T@std@@QAE@XZ 100026d0 f i RMG_SettingsDlg.obj
 0001:00001710       ??4H3CreatureBankState@h3@@QAEAAU01@ABU01@@Z 10002710 f i CreatureBanksExtender.obj
 0001:000017d0       ?resize@?$vector@HV?$allocator@H@std@@@std@@QAEXI@Z 100027d0 f i CreatureBanksExtender.obj
 0001:000017d0       ?resize@?$vector@PAUH3WavFile@h3@@V?$allocator@PAUH3WavFile@h3@@@std@@@std@@QAEXI@Z 100027d0 f i CreatureBanksExtender.obj
 0001:000017d0       ?resize@?$vector@PBDV?$allocator@PBD@std@@@std@@QAEXI@Z 100027d0 f i CreatureBanksExtender.obj
 0001:00001840       ?clear@?$vector@UH3CreatureBankSetup@h3@@V?$allocator@UH3CreatureBankSetup@h3@@@std@@@std@@QAEXXZ 10002840 f i CreatureBanksExtender.obj
 0001:000018c0       ?resize@?$vector@UH3CreatureBankSetup@h3@@V?$allocator@UH3CreatureBankSetup@h3@@@std@@@std@@QAEXI@Z 100028c0 f i CreatureBanksExtender.obj
 0001:000019b0       ?resize@?$vector@V?$array@H$04@std@@V?$allocator@V?$array@H$04@std@@@2@@std@@QAEXI@Z 100029b0 f i CreatureBanksExtender.obj
 0001:00001a60       ?shrink_to_fit@?$vector@V?$array@H$04@std@@V?$allocator@V?$array@H$04@std@@@2@@std@@QAEXXZ 10002a60 f i CreatureBanksExtender.obj
 0001:00001ad0       ??1?$vector@PAUH3DlgItem@h3@@V?$allocator@PAUH3DlgItem@h3@@@std@@@std@@QAE@XZ 10002ad0 f i RMG_SettingsDlg.obj
 0001:00001ad0       ??1?$vector@PAUObjectsPanel@RMG_SettingsDlg@rmgdlg@@V?$allocator@PAUObjectsPanel@RMG_SettingsDlg@rmgdlg@@@std@@@std@@QAE@XZ 10002ad0 f i RMG_SettingsDlg.obj
 0001:00001ad0       ??1?$vector@HV?$allocator@H@std@@@std@@QAE@XZ 10002ad0 f i CreatureBanksExtender.obj
 0001:00001ad0       ??1?$vector@PAUH3DlgDef@h3@@V?$allocator@PAUH3DlgDef@h3@@@std@@@std@@QAE@XZ 10002ad0 f i RMG_SettingsDlg.obj
 0001:00001ad0       ??1?$vector@PAUH3DlgCaptionButton@h3@@V?$allocator@PAUH3DlgCaptionButton@h3@@@std@@@std@@QAE@XZ 10002ad0 f i RMG_SettingsDlg.obj
 0001:00001ad0       ??1?$vector@PAUPage@RMG_SettingsDlg@rmgdlg@@V?$allocator@PAUPage@RMG_SettingsDlg@rmgdlg@@@std@@@std@@QAE@XZ 10002ad0 f i RMG_SettingsDlg.obj
 0001:00001b00       ?_Reserve@?$vector@HV?$allocator@H@std@@@std@@IAEXI@Z 10002b00 f i CreatureBanksExtender.obj
 0001:00001b00       ?_Reserve@?$vector@PBDV?$allocator@PBD@std@@@std@@IAEXI@Z 10002b00 f i CreatureBanksExtender.obj
 0001:00001b00       ?_Reserve@?$vector@PAUH3DlgCaptionButton@h3@@V?$allocator@PAUH3DlgCaptionButton@h3@@@std@@@std@@IAEXI@Z 10002b00 f i RMG_SettingsDlg.obj
 0001:00001b00       ?_Reserve@?$vector@PAUH3WavFile@h3@@V?$allocator@PAUH3WavFile@h3@@@std@@@std@@IAEXI@Z 10002b00 f i CreatureBanksExtender.obj
 0001:00001b70       ?_Reallocate@?$vector@PAUObjectsPanel@RMG_SettingsDlg@rmgdlg@@V?$allocator@PAUObjectsPanel@RMG_SettingsDlg@rmgdlg@@@std@@@std@@IAEXI@Z 10002b70 f i RMG_SettingsDlg.obj
 0001:00001b70       ?_Reallocate@?$vector@PBDV?$allocator@PBD@std@@@std@@IAEXI@Z 10002b70 f i CreatureBanksExtender.obj
 0001:00001b70       ?_Reallocate@?$vector@PAUH3DlgCaptionButton@h3@@V?$allocator@PAUH3DlgCaptionButton@h3@@@std@@@std@@IAEXI@Z 10002b70 f i RMG_SettingsDlg.obj
 0001:00001b70       ?_Reallocate@?$vector@PAUH3WavFile@h3@@V?$allocator@PAUH3WavFile@h3@@@std@@@std@@IAEXI@Z 10002b70 f i CreatureBanksExtender.obj
 0001:00001b70       ?_Reallocate@?$vector@HV?$allocator@H@std@@@std@@IAEXI@Z 10002b70 f i CreatureBanksExtender.obj
 0001:00001b70       ?_Reallocate@?$vector@PAUPage@RMG_SettingsDlg@rmgdlg@@V?$allocator@PAUPage@RMG_SettingsDlg@rmgdlg@@@std@@@std@@IAEXI@Z 10002b70 f i RMG_SettingsDlg.obj
 0001:00001b70       ?_Reallocate@?$vector@PAUH3DlgItem@h3@@V?$allocator@PAUH3DlgItem@h3@@@std@@@std@@IAEXI@Z 10002b70 f i RMG_SettingsDlg.obj
 0001:00001b70       ?_Reallocate@?$vector@PAUH3DlgDef@h3@@V?$allocator@PAUH3DlgDef@h3@@@std@@@std@@IAEXI@Z 10002b70 f i RMG_SettingsDlg.obj
 0001:00001c20       ?_Tidy@?$vector@UH3CreatureBankSetup@h3@@V?$allocator@UH3CreatureBankSetup@h3@@@std@@@std@@IAEXXZ 10002c20 f i CreatureBanksExtender.obj
 0001:00001cc0       ?_Reserve@?$vector@UH3CreatureBankSetup@h3@@V?$allocator@UH3CreatureBankSetup@h3@@@std@@@std@@IAEXI@Z 10002cc0 f i CreatureBanksExtender.obj
 0001:00001d60       ?_Reallocate@?$vector@UH3CreatureBankSetup@h3@@V?$allocator@UH3CreatureBankSetup@h3@@@std@@@std@@IAEXI@Z 10002d60 f i CreatureBanksExtender.obj
 0001:00001e70       ?_Pop_back_n@?$vector@UH3CreatureBankSetup@h3@@V?$allocator@UH3CreatureBankSetup@h3@@@std@@@std@@QAEXI@Z 10002e70 f i CreatureBanksExtender.obj
 0001:00001f00       ?_Reserve@?$vector@V?$array@H$04@std@@V?$allocator@V?$array@H$04@std@@@2@@std@@IAEXI@Z 10002f00 f i CreatureBanksExtender.obj
 0001:00001fa0       ?_Reallocate@?$vector@V?$array@H$04@std@@V?$allocator@V?$array@H$04@std@@@2@@std@@IAEXI@Z 10002fa0 f i CreatureBanksExtender.obj
 0001:00002020       ?deallocate@?$_Wrap_alloc@V?$allocator@PAV?$vector@U?$pair@UH3ObjectAttributes@h3@@PAUH3LoadedPcx16@2@@std@@V?$allocator@U?$pair@UH3ObjectAttributes@h3@@PAUH3LoadedPcx16@2@@std@@@2@@std@@@std@@@std@@QAEXPAPAV?$vector@U?$pair@UH3ObjectAttributes@h3@@PAUH3LoadedPcx16@2@@std@@V?$allocator@U?$pair@UH3ObjectAttributes@h3@@PAUH3LoadedPcx16@2@@std@@@2@@2@I@Z 10003020 f i RMG_SettingsDlg.obj
 0001:00002020       ?deallocate@?$_Wrap_alloc@V?$allocator@PAUH3DlgItem@h3@@@std@@@std@@QAEXPAPAUH3DlgItem@h3@@I@Z 10003020 f i RMG_SettingsDlg.obj
 0001:00002020       ?deallocate@?$_Wrap_alloc@V?$allocator@PAUH3DlgDef@h3@@@std@@@std@@QAEXPAPAUH3DlgDef@h3@@I@Z 10003020 f i RMG_SettingsDlg.obj
 0001:00002020       ?deallocate@?$_Wrap_alloc@V?$allocator@PAUH3WavFile@h3@@@std@@@std@@QAEXPAPAUH3WavFile@h3@@I@Z 10003020 f i CreatureBanksExtender.obj
 0001:00002020       ?deallocate@?$_Wrap_alloc@V?$allocator@PBD@std@@@std@@QAEXPAPBDI@Z 10003020 f i CreatureBanksExtender.obj
 0001:00002020       ?deallocate@?$_Wrap_alloc@V?$allocator@PAUPage@RMG_SettingsDlg@rmgdlg@@@std@@@std@@QAEXPAPAUPage@RMG_SettingsDlg@rmgdlg@@I@Z 10003020 f i RMG_SettingsDlg.obj
 0001:00002020       ?deallocate@?$_Wrap_alloc@V?$allocator@PAUObjectsPanel@RMG_SettingsDlg@rmgdlg@@@std@@@std@@QAEXPAPAUObjectsPanel@RMG_SettingsDlg@rmgdlg@@I@Z 10003020 f i RMG_SettingsDlg.obj
 0001:00002020       ?deallocate@?$_Wrap_alloc@V?$allocator@H@std@@@std@@QAEXPAHI@Z 10003020 f i CreatureBanksExtender.obj
 0001:00002020       ?deallocate@?$_Wrap_alloc@V?$allocator@PAUH3DlgCaptionButton@h3@@@std@@@std@@QAEXPAPAUH3DlgCaptionButton@h3@@I@Z 10003020 f i RMG_SettingsDlg.obj
 0001:00002080       ?deallocate@?$_Wrap_alloc@V?$allocator@UH3CreatureBankSetup@h3@@@std@@@std@@QAEXPAUH3CreatureBankSetup@h3@@I@Z 10003080 f i CreatureBanksExtender.obj
 0001:000020e0       ?deallocate@?$_Wrap_alloc@V?$allocator@V?$array@H$04@std@@@std@@@std@@QAEXPAV?$array@H$04@2@I@Z 100030e0 f i CreatureBanksExtender.obj
 0001:00002140       ?allocate@?$_Wrap_alloc@V?$allocator@PAV?$vector@U?$pair@UH3ObjectAttributes@h3@@PAUH3LoadedPcx16@2@@std@@V?$allocator@U?$pair@UH3ObjectAttributes@h3@@PAUH3LoadedPcx16@2@@std@@@2@@std@@@std@@@std@@QAEPAPAV?$vector@U?$pair@UH3ObjectAttributes@h3@@PAUH3LoadedPcx16@2@@std@@V?$allocator@U?$pair@UH3ObjectAttributes@h3@@PAUH3LoadedPcx16@2@@std@@@2@@2@I@Z 10003140 f i RMG_SettingsDlg.obj
 0001:00002140       ?allocate@?$_Wrap_alloc@V?$allocator@H@std@@@std@@QAEPAHI@Z 10003140 f i CreatureBanksExtender.obj
 0001:000021a0       ?allocate@?$allocator@UH3CreatureBankSetup@h3@@@std@@QAEPAUH3CreatureBankSetup@h3@@I@Z 100031a0 f i CreatureBanksExtender.obj
 0001:00002200       ?allocate@?$allocator@V?$array@H$04@std@@@std@@QAEPAV?$array@H$04@2@I@Z 10003200 f i CreatureBanksExtender.obj
 0001:00002260       ??$_Destroy_range@V?$allocator@UH3CreatureBankSetup@h3@@@std@@PAUH3CreatureBankSetup@h3@@@std@@YAXPAUH3CreatureBankSetup@h3@@0AAU?$_Wrap_alloc@V?$allocator@UH3CreatureBankSetup@h3@@@std@@@0@@Z 10003260 f i CreatureBanksExtender.obj
 0001:000022c0       ??$_Uninitialized_default_fill_n1@PAUH3CreatureBankSetup@h3@@IV?$allocator@UH3CreatureBankSetup@h3@@@std@@@std@@YAXPAUH3CreatureBankSetup@h3@@IAAU?$_Wrap_alloc@V?$allocator@UH3CreatureBankSetup@h3@@@std@@@0@U?$integral_constant@_N$0A@@0@@Z 100032c0 f i CreatureBanksExtender.obj
 0001:00002360       ??$_Uninitialized_default_fill_n1@PAV?$array@H$04@std@@IV?$allocator@V?$array@H$04@std@@@2@@std@@YAXPAV?$array@H$04@0@IAAU?$_Wrap_alloc@V?$allocator@V?$array@H$04@std@@@std@@@0@U?$integral_constant@_N$0A@@0@@Z 10003360 f i CreatureBanksExtender.obj
 0001:00002380       ??$_Uninitialized_move_al_unchecked1@PAUH3CreatureBankSetup@h3@@PAU12@V?$allocator@UH3CreatureBankSetup@h3@@@std@@@std@@YAPAUH3CreatureBankSetup@h3@@PAU12@00AAU?$_Wrap_alloc@V?$allocator@UH3CreatureBankSetup@h3@@@std@@@0@U_General_ptr_iterator_tag@0@U_Any_tag@0@@Z 10003380 f i CreatureBanksExtender.obj
 0001:00002440       ??0H3CreatureBankState@h3@@QAE@ABU01@@Z 10003440 f i CreatureBanksExtender.obj
 0001:00002440       ??0H3CreatureBankState@h3@@QAE@$$QAU01@@Z 10003440 f i CreatureBanksExtender.obj
 0001:000024f0       ??_GShrinesExternder@shrines@@EAEPAXI@Z 100034f0 f i ShrinesExternder.obj
 0001:000024f0       ??_EShrinesExternder@shrines@@EAEPAXI@Z 100034f0 f i * CIL library *:* CIL module *
 0001:000024f0       ??_EWarehousesExtender@warehouses@@EAEPAXI@Z 100034f0 f i * CIL library *:* CIL module *
 0001:000024f0       ??_GObjectsExtender@extender@@MAEPAXI@Z 100034f0 f i ObjectsExtender.obj
 0001:000024f0       ??_EObjectsExtender@extender@@MAEPAXI@Z 100034f0 f i * CIL library *:* CIL module *
 0001:000024f0       ??_GWarehousesExtender@warehouses@@EAEPAXI@Z 100034f0 f i WarehousesExtender.obj
 0001:00002560       ?sprintf@libc@h3@@YAHPADPBDZZ 10003560 f i WarehousesExtender.obj
 0001:00002580       ??1?$set@URMGObjectSetable@extender@@U?$less@URMGObjectSetable@extender@@@std@@V?$allocator@URMGObjectSetable@extender@@@4@@std@@QAE@XZ 10003580 f i ObjectsExtender.obj
 0001:00002580       ??1?$set@PBDU?$less@PBD@std@@V?$allocator@PBD@2@@std@@QAE@XZ 10003580 f i ObjectsExtender.obj
 0001:00002580       ??1?$_Tree@V?$_Tset_traits@PBDU?$less@PBD@std@@V?$allocator@PBD@2@$0A@@std@@@std@@QAE@XZ 10003580 f i ObjectsExtender.obj
 0001:000025b0       ??E?$_Tree_unchecked_const_iterator@V?$_Tree_val@U?$_Tree_simple_types@URMGObjectSetable@extender@@@std@@@std@@U_Iterator_base0@2@@std@@QAEAAV01@XZ 100035b0 f i ObjectsExtender.obj
 0001:000025b0       ??E?$_Tree_unchecked_const_iterator@V?$_Tree_val@U?$_Tree_simple_types@PBD@std@@@std@@U_Iterator_base0@2@@std@@QAEAAV01@XZ 100035b0 f i ObjectsExtender.obj
 0001:000025b0       ??E?$_Tree_unchecked_const_iterator@V?$_Tree_val@U?$_Tree_simple_types@PAVObjectsExtender@extender@@@std@@@std@@U_Iterator_base0@2@@std@@QAEAAV01@XZ 100035b0 f i ObjectsExtender.obj
 0001:00002600       ?erase@?$_Tree@V?$_Tset_traits@PAVObjectsExtender@extender@@U?$less@PAVObjectsExtender@extender@@@std@@V?$allocator@PAVObjectsExtender@extender@@@4@$0A@@std@@@std@@QAE?AV?$_Tree_const_iterator@V?$_Tree_val@U?$_Tree_simple_types@PAVObjectsExtender@extender@@@std@@@std@@@2@V32@0@Z 10003600 f i ObjectsExtender.obj
 0001:000026a0       ?_Tidy@?$vector@V?$basic_string@DU?$char_traits@D@std@@V?$allocator@D@2@@std@@V?$allocator@V?$basic_string@DU?$char_traits@D@std@@V?$allocator@D@2@@std@@@2@@std@@IAEXXZ 100036a0 f i ObjectsExtender.obj
 0001:00002710       ?_Assign_rv@?$basic_string@DU?$char_traits@D@std@@V?$allocator@D@2@@std@@QAEX$$QAV12@@Z 10003710 f i ObjectsExtender.obj
 0001:00002780       ?erase@?$_Tree@V?$_Tset_traits@PBDU?$less@PBD@std@@V?$allocator@PBD@2@$0A@@std@@@std@@QAE?AV?$_Tree_const_iterator@V?$_Tree_val@U?$_Tree_simple_types@PBD@std@@@std@@@2@V32@0@Z 10003780 f i ObjectsExtender.obj
 0001:00002780       ?erase@?$_Tree@V?$_Tset_traits@URMGObjectSetable@extender@@U?$less@URMGObjectSetable@extender@@@std@@V?$allocator@URMGObjectSetable@extender@@@4@$0A@@std@@@std@@QAE?AV?$_Tree_const_iterator@V?$_Tree_val@U?$_Tree_simple_types@URMGObjectSetable@extender@@@std@@@std@@@2@V32@0@Z 10003780 f i ObjectsExtender.obj
 0001:00002820       ?deallocate@?$_Wrap_alloc@V?$allocator@URMGObjectInfo@@@std@@@std@@QAEXPAURMGObjectInfo@@I@Z 10003820 f i ObjectsExtender.obj
 0001:00002880       ?deallocate@?$_Wrap_alloc@V?$allocator@V?$basic_string@DU?$char_traits@D@std@@V?$allocator@D@2@@std@@@std@@@std@@QAEXPAV?$basic_string@DU?$char_traits@D@std@@V?$allocator@D@2@@2@I@Z 10003880 f i ObjectsExtender.obj
 0001:000028e0       ?clear@?$_Tree@V?$_Tset_traits@PAVObjectsExtender@extender@@U?$less@PAVObjectsExtender@extender@@@std@@V?$allocator@PAVObjectsExtender@extender@@@4@$0A@@std@@@std@@QAEXXZ 100038e0 f i ObjectsExtender.obj
 0001:00002970       ?erase@?$_Tree@V?$_Tset_traits@PAVObjectsExtender@extender@@U?$less@PAVObjectsExtender@extender@@@std@@V?$allocator@PAVObjectsExtender@extender@@@4@$0A@@std@@@std@@QAE?AV?$_Tree_const_iterator@V?$_Tree_val@U?$_Tree_simple_types@PAVObjectsExtender@extender@@@std@@@std@@@2@V32@@Z 10003970 f i ObjectsExtender.obj
 0001:00002be0       ?_Destroy@?$vector@URMGObjectInfo@@V?$allocator@URMGObjectInfo@@@std@@@std@@IAEXPAURMGObjectInfo@@0@Z 10003be0 f i ObjectsExtender.obj
 0001:00002be0       ?NotifyResourcesExternallyIdle@ThreadScheduler@details@Concurrency@@UAEXPAPAUIVirtualProcessorRoot@3@I@Z 10003be0 f i libconcrt:ThreadScheduler.obj
 0001:00002be0       ?_Destroy@?$vector@PAV?$vector@U?$pair@UH3ObjectAttributes@h3@@PAUH3LoadedPcx16@2@@std@@V?$allocator@U?$pair@UH3ObjectAttributes@h3@@PAUH3LoadedPcx16@2@@std@@@2@@std@@V?$allocator@PAV?$vector@U?$pair@UH3ObjectAttributes@h3@@PAUH3LoadedPcx16@2@@std@@V?$allocator@U?$pair@UH3ObjectAttributes@h3@@PAUH3LoadedPcx16@2@@std@@@2@@std@@@2@@std@@IAEXPAPAV?$vector@U?$pair@UH3ObjectAttributes@h3@@PAUH3LoadedPcx16@2@@std@@V?$allocator@U?$pair@UH3ObjectAttributes@h3@@PAUH3LoadedPcx16@2@@std@@@2@@2@0@Z 10003be0 f i RMG_SettingsDlg.obj
 0001:00002be0       ?NotifyResourcesExternallyBusy@ThreadScheduler@details@Concurrency@@UAEXPAPAUIVirtualProcessorRoot@3@I@Z 10003be0 f i libconcrt:ThreadScheduler.obj
 0001:00002be0       ?VirtualProcessorActiveNotification@SchedulerBase@details@Concurrency@@MAEX_NJ@Z 10003be0 f i libconcrt:SchedulerBase.obj
 0001:00002bf0       ?clear@?$_Tree@V?$_Tset_traits@URMGObjectSetable@extender@@U?$less@URMGObjectSetable@extender@@@std@@V?$allocator@URMGObjectSetable@extender@@@4@$0A@@std@@@std@@QAEXXZ 10003bf0 f i ObjectsExtender.obj
 0001:00002bf0       ?clear@?$_Tree@V?$_Tset_traits@PBDU?$less@PBD@std@@V?$allocator@PBD@2@$0A@@std@@@std@@QAEXXZ 10003bf0 f i ObjectsExtender.obj
 0001:00002c70       ?erase@?$_Tree@V?$_Tset_traits@URMGObjectSetable@extender@@U?$less@URMGObjectSetable@extender@@@std@@V?$allocator@URMGObjectSetable@extender@@@4@$0A@@std@@@std@@QAE?AV?$_Tree_const_iterator@V?$_Tree_val@U?$_Tree_simple_types@URMGObjectSetable@extender@@@std@@@std@@@2@V32@@Z 10003c70 f i ObjectsExtender.obj
 0001:00002c70       ?erase@?$_Tree@V?$_Tset_traits@PBDU?$less@PBD@std@@V?$allocator@PBD@2@$0A@@std@@@std@@QAE?AV?$_Tree_const_iterator@V?$_Tree_val@U?$_Tree_simple_types@PBD@std@@@std@@@2@V32@@Z 10003c70 f i ObjectsExtender.obj
 0001:00002ef0       ?_Rrotate@?$_Tree@V?$_Tset_traits@PAVObjectsExtender@extender@@U?$less@PAVObjectsExtender@extender@@@std@@V?$allocator@PAVObjectsExtender@extender@@@4@$0A@@std@@@std@@IAEXPAU?$_Tree_node@PAVObjectsExtender@extender@@PAX@2@@Z 10003ef0 f i ObjectsExtender.obj
 0001:00002f50       ?_Lrotate@?$_Tree@V?$_Tset_traits@PAVObjectsExtender@extender@@U?$less@PAVObjectsExtender@extender@@@std@@V?$allocator@PAVObjectsExtender@extender@@@4@$0A@@std@@@std@@IAEXPAU?$_Tree_node@PAVObjectsExtender@extender@@PAX@2@@Z 10003f50 f i ObjectsExtender.obj
 0001:00002fb0       ?_Erase@?$_Tree@V?$_Tset_traits@URMGObjectSetable@extender@@U?$less@URMGObjectSetable@extender@@@std@@V?$allocator@URMGObjectSetable@extender@@@4@$0A@@std@@@std@@IAEXPAU?$_Tree_node@URMGObjectSetable@extender@@PAX@2@@Z 10003fb0 f i ObjectsExtender.obj
 0001:00002fb0       ?_Erase@?$_Tree@V?$_Tset_traits@PAVObjectsExtender@extender@@U?$less@PAVObjectsExtender@extender@@@std@@V?$allocator@PAVObjectsExtender@extender@@@4@$0A@@std@@@std@@IAEXPAU?$_Tree_node@PAVObjectsExtender@extender@@PAX@2@@Z 10003fb0 f i ObjectsExtender.obj
 0001:00002fb0       ?_Erase@?$_Tree@V?$_Tset_traits@PBDU?$less@PBD@std@@V?$allocator@PBD@2@$0A@@std@@@std@@IAEXPAU?$_Tree_node@PBDPAX@2@@Z 10003fb0 f i ObjectsExtender.obj
 0001:00002ff0       ?_Buyheadnode@?$_Tree_comp_alloc@V?$_Tset_traits@URMGObjectSetable@extender@@U?$less@URMGObjectSetable@extender@@@std@@V?$allocator@URMGObjectSetable@extender@@@4@$0A@@std@@@std@@QAEPAU?$_Tree_node@URMGObjectSetable@extender@@PAX@2@XZ 10003ff0 f i ObjectsExtender.obj
 0001:00003020       ?_Rrotate@?$_Tree@V?$_Tset_traits@PBDU?$less@PBD@std@@V?$allocator@PBD@2@$0A@@std@@@std@@IAEXPAU?$_Tree_node@PBDPAX@2@@Z 10004020 f i ObjectsExtender.obj
 0001:00003020       ?_Rrotate@?$_Tree@V?$_Tset_traits@URMGObjectSetable@extender@@U?$less@URMGObjectSetable@extender@@@std@@V?$allocator@URMGObjectSetable@extender@@@4@$0A@@std@@@std@@IAEXPAU?$_Tree_node@URMGObjectSetable@extender@@PAX@2@@Z 10004020 f i ObjectsExtender.obj
 0001:00003080       ?_Lrotate@?$_Tree@V?$_Tset_traits@PBDU?$less@PBD@std@@V?$allocator@PBD@2@$0A@@std@@@std@@IAEXPAU?$_Tree_node@PBDPAX@2@@Z 10004080 f i ObjectsExtender.obj
 0001:00003080       ?_Lrotate@?$_Tree@V?$_Tset_traits@URMGObjectSetable@extender@@U?$less@URMGObjectSetable@extender@@@std@@V?$allocator@URMGObjectSetable@extender@@@4@$0A@@std@@@std@@IAEXPAU?$_Tree_node@URMGObjectSetable@extender@@PAX@2@@Z 10004080 f i ObjectsExtender.obj
 0001:000030e0       ?_Buyheadnode@?$_Tree_comp_alloc@V?$_Tset_traits@PBDU?$less@PBD@std@@V?$allocator@PBD@2@$0A@@std@@@std@@QAEPAU?$_Tree_node@PBDPAX@2@XZ 100040e0 f i ObjectsExtender.obj
 0001:000030e0       ?_Buyheadnode@?$_Tree_comp_alloc@V?$_Tset_traits@PAVObjectsExtender@extender@@U?$less@PAVObjectsExtender@extender@@@std@@V?$allocator@PAVObjectsExtender@extender@@@4@$0A@@std@@@std@@QAEPAU?$_Tree_node@PAVObjectsExtender@extender@@PAX@2@XZ 100040e0 f i ObjectsExtender.obj
 0001:00003110       ??$?0PAPBD@?$set@PBDU?$less@PBD@std@@V?$allocator@PBD@2@@std@@QAE@PAPBD0@Z 10004110 f i ObjectsExtender.obj
 0001:00003190       ??$emplace_back@AAPBD@?$vector@V?$basic_string@DU?$char_traits@D@std@@V?$allocator@D@2@@std@@V?$allocator@V?$basic_string@DU?$char_traits@D@std@@V?$allocator@D@2@@std@@@2@@std@@QAEXAAPBD@Z 10004190 f i ObjectsExtender.obj
 0001:00003270       ?vParentActivate_10@H3Dlg@h3@@MAEXPAUH3DlgItem@2@@Z 10004270 f i RMG_SettingsDlg.obj
 0001:00003270       ??$destroy@PAU?$_Tree_node@PAVObjectsExtender@extender@@PAX@std@@@?$_Wrap_alloc@V?$allocator@U?$_Tree_node@PAVObjectsExtender@extender@@PAX@std@@@std@@@std@@QAEXPAPAU?$_Tree_node@PAVObjectsExtender@extender@@PAX@1@@Z 10004270 f i ObjectsExtender.obj
 0001:00003270       ?OnClose@H3Dlg@h3@@UAEXH@Z 10004270 f i RMG_SettingsDlg.obj
 0001:00003280       ??0?$_Wrap_alloc@V?$allocator@URMGObjectInfo@@@std@@@std@@QAE@XZ 10004280 f i ObjectsExtender.obj
 0001:00003280       ??0?$_Wrap_alloc@V?$allocator@U?$pair@UH3ObjectAttributes@h3@@PAUH3LoadedPcx16@2@@std@@@std@@@std@@QAE@XZ 10004280 f i RMG_SettingsDlg.obj
 0001:00003290       ??0?$_Wrap_alloc@V?$allocator@V?$basic_string@DU?$char_traits@D@std@@V?$allocator@D@2@@std@@@std@@@std@@QAE@XZ 10004290 f i ObjectsExtender.obj
 0001:000032a0       ?_Reserve@?$vector@URMGObjectInfo@@V?$allocator@URMGObjectInfo@@@std@@@std@@IAEXI@Z 100042a0 f i ObjectsExtender.obj
 0001:00003310       ?_Reserve@?$vector@V?$basic_string@DU?$char_traits@D@std@@V?$allocator@D@2@@std@@V?$allocator@V?$basic_string@DU?$char_traits@D@std@@V?$allocator@D@2@@std@@@2@@std@@IAEXI@Z 10004310 f i ObjectsExtender.obj
 0001:000033b0       ?_Reallocate@?$vector@URMGObjectInfo@@V?$allocator@URMGObjectInfo@@@std@@@std@@IAEXI@Z 100043b0 f i ObjectsExtender.obj
 0001:00003460       ?_Reallocate@?$vector@V?$basic_string@DU?$char_traits@D@std@@V?$allocator@D@2@@std@@V?$allocator@V?$basic_string@DU?$char_traits@D@std@@V?$allocator@D@2@@std@@@2@@std@@IAEXI@Z 10004460 f i ObjectsExtender.obj
 0001:00003520       ?allocate@?$_Wrap_alloc@V?$allocator@URMGObjectInfo@@@std@@@std@@QAEPAURMGObjectInfo@@I@Z 10004520 f i ObjectsExtender.obj
 0001:00003580       ?allocate@?$allocator@V?$basic_string@DU?$char_traits@D@std@@V?$allocator@D@2@@std@@@std@@QAEPAV?$basic_string@DU?$char_traits@D@std@@V?$allocator@D@2@@2@I@Z 10004580 f i ObjectsExtender.obj
 0001:000035e0       ??$_Eqrange@PAVObjectsExtender@extender@@@?$_Tree@V?$_Tset_traits@PAVObjectsExtender@extender@@U?$less@PAVObjectsExtender@extender@@@std@@V?$allocator@PAVObjectsExtender@extender@@@4@$0A@@std@@@std@@IBE?AU?$pair@V?$_Tree_const_iterator@V?$_Tree_val@U?$_Tree_simple_types@PAVObjectsExtender@extender@@@std@@@std@@@std@@V12@@1@ABQAVObjectsExtender@extender@@@Z 100045e0 f i ObjectsExtender.obj
 0001:00003660       ??$_Insert_nohint@ABQAVObjectsExtender@extender@@U_Nil@std@@@?$_Tree@V?$_Tset_traits@PAVObjectsExtender@extender@@U?$less@PAVObjectsExtender@extender@@@std@@V?$allocator@PAVObjectsExtender@extender@@@4@$0A@@std@@@std@@IAE?AU?$pair@V?$_Tree_const_iterator@V?$_Tree_val@U?$_Tree_simple_types@PAVObjectsExtender@extender@@@std@@@std@@@std@@_N@1@_NABQAVObjectsExtender@extender@@U_Nil@1@@Z 10004660 f i ObjectsExtender.obj
 0001:00003770       ??$_Insert_nohint@PBDU_Nil@std@@@?$_Tree@V?$_Tset_traits@PBDU?$less@PBD@std@@V?$allocator@PBD@2@$0A@@std@@@std@@IAE?AU?$pair@V?$_Tree_const_iterator@V?$_Tree_val@U?$_Tree_simple_types@PBD@std@@@std@@@std@@_N@1@_N$$QAPBDU_Nil@1@@Z 10004770 f i ObjectsExtender.obj
 0001:00003860       ??$_Insert_nohint@URMGObjectSetable@extender@@U_Nil@std@@@?$_Tree@V?$_Tset_traits@URMGObjectSetable@extender@@U?$less@URMGObjectSetable@extender@@@std@@V?$allocator@URMGObjectSetable@extender@@@4@$0A@@std@@@std@@IAE?AU?$pair@V?$_Tree_const_iterator@V?$_Tree_val@U?$_Tree_simple_types@URMGObjectSetable@extender@@@std@@@std@@@std@@_N@1@_N$$QAURMGObjectSetable@extender@@U_Nil@1@@Z 10004860 f i ObjectsExtender.obj
 0001:00003970       ??$_Destroy_range1@V?$allocator@V?$basic_string@DU?$char_traits@D@std@@V?$allocator@D@2@@std@@@std@@PAV?$basic_string@DU?$char_traits@D@std@@V?$allocator@D@2@@2@@std@@YAXPAV?$basic_string@DU?$char_traits@D@std@@V?$allocator@D@2@@0@0AAU?$_Wrap_alloc@V?$allocator@V?$basic_string@DU?$char_traits@D@std@@V?$allocator@D@2@@std@@@std@@@0@U?$integral_constant@_N$0A@@0@@Z 10004970 f i ObjectsExtender.obj
 0001:000039f0       ??0?$_Wrap_alloc@V?$allocator@U?$_Tree_node@PAVObjectsExtender@extender@@PAX@std@@@std@@@std@@QAE@XZ 100049f0 f i ObjectsExtender.obj
 0001:00003a00       ??F?$_Tree_unchecked_const_iterator@V?$_Tree_val@U?$_Tree_simple_types@PBD@std@@@std@@U_Iterator_base0@2@@std@@QAEAAV01@XZ 10004a00 f i ObjectsExtender.obj
 0001:00003a00       ??F?$_Tree_unchecked_const_iterator@V?$_Tree_val@U?$_Tree_simple_types@URMGObjectSetable@extender@@@std@@@std@@U_Iterator_base0@2@@std@@QAEAAV01@XZ 10004a00 f i ObjectsExtender.obj
 0001:00003a00       ??F?$_Tree_unchecked_const_iterator@V?$_Tree_val@U?$_Tree_simple_types@PAVObjectsExtender@extender@@@std@@@std@@U_Iterator_base0@2@@std@@QAEAAV01@XZ 10004a00 f i ObjectsExtender.obj
 0001:00003a60       ?Reserve@?$H3Vector@PAUH3RmgObjectGenerator@h3@@@h3@@QAEHI@Z 10004a60 f i ObjectsExtender.obj
 0001:00003a60       ?Reserve@?$H3Vector@PBD@h3@@QAEHI@Z 10004a60 f i ObjectsExtender.obj
 0001:00003a60       ?Reserve@?$H3Vector@H@h3@@QAEHI@Z 10004a60 f i RMG_SettingsDlg.obj
 0001:00003a60       ?Reserve@?$H3Vector@PAUH3DlgItem@h3@@@h3@@QAEHI@Z 10004a60 f i RMG_SettingsDlg.obj
 0001:00003b50       ??$_Insert_at@ABQAVObjectsExtender@extender@@U_Nil@std@@@?$_Tree@V?$_Tset_traits@PAVObjectsExtender@extender@@U?$less@PAVObjectsExtender@extender@@@std@@V?$allocator@PAVObjectsExtender@extender@@@4@$0A@@std@@@std@@IAE?AV?$_Tree_const_iterator@V?$_Tree_val@U?$_Tree_simple_types@PAVObjectsExtender@extender@@@std@@@std@@@1@_NPAU?$_Tree_node@PAVObjectsExtender@extender@@PAX@1@ABQAVObjectsExtender@extender@@U_Nil@1@@Z 10004b50 f i ObjectsExtender.obj
 0001:00003d00       ??$_Insert_at@PBDU_Nil@std@@@?$_Tree@V?$_Tset_traits@PBDU?$less@PBD@std@@V?$allocator@PBD@2@$0A@@std@@@std@@IAE?AV?$_Tree_const_iterator@V?$_Tree_val@U?$_Tree_simple_types@PBD@std@@@std@@@1@_NPAU?$_Tree_node@PBDPAX@1@$$QAPBDU_Nil@1@@Z 10004d00 f i ObjectsExtender.obj
 0001:00003ea0       ??$_Insert_at@URMGObjectSetable@extender@@U_Nil@std@@@?$_Tree@V?$_Tset_traits@URMGObjectSetable@extender@@U?$less@URMGObjectSetable@extender@@@std@@V?$allocator@URMGObjectSetable@extender@@@4@$0A@@std@@@std@@IAE?AV?$_Tree_const_iterator@V?$_Tree_val@U?$_Tree_simple_types@URMGObjectSetable@extender@@@std@@@std@@@1@_NPAU?$_Tree_node@URMGObjectSetable@extender@@PAX@1@$$QAURMGObjectSetable@extender@@U_Nil@1@@Z 10004ea0 f i ObjectsExtender.obj
 0001:00004040       ??$_Buynode@PBD@?$_Tree_comp_alloc@V?$_Tset_traits@PBDU?$less@PBD@std@@V?$allocator@PBD@2@$0A@@std@@@std@@QAEPAU?$_Tree_node@PBDPAX@1@$$QAPBD@Z 10005040 f i ObjectsExtender.obj
 0001:00004040       ??$_Buynode@AAPBD@?$_Tree_comp_alloc@V?$_Tset_traits@PBDU?$less@PBD@std@@V?$allocator@PBD@2@$0A@@std@@@std@@QAEPAU?$_Tree_node@PBDPAX@1@AAPBD@Z 10005040 f i ObjectsExtender.obj
 0001:00004060       ??$_Insert_hint@AAPBDPAU?$_Tree_node@PBDPAX@std@@@?$_Tree@V?$_Tset_traits@PBDU?$less@PBD@std@@V?$allocator@PBD@2@$0A@@std@@@std@@IAE?AV?$_Tree_const_iterator@V?$_Tree_val@U?$_Tree_simple_types@PBD@std@@@std@@@1@V21@AAPBDPAU?$_Tree_node@PBDPAX@1@@Z 10005060 f i ObjectsExtender.obj
 0001:00004260       ?_Buynode0@?$_Tree_comp_alloc@V?$_Tset_traits@PBDU?$less@PBD@std@@V?$allocator@PBD@2@$0A@@std@@@std@@QAEPAU?$_Tree_node@PBDPAX@2@XZ 10005260 f i ObjectsExtender.obj
 0001:000042a0       ??$_Buynode@ABQAVObjectsExtender@extender@@@?$_Tree_comp_alloc@V?$_Tset_traits@PAVObjectsExtender@extender@@U?$less@PAVObjectsExtender@extender@@@std@@V?$allocator@PAVObjectsExtender@extender@@@4@$0A@@std@@@std@@QAEPAU?$_Tree_node@PAVObjectsExtender@extender@@PAX@1@ABQAVObjectsExtender@extender@@@Z 100052a0 f i ObjectsExtender.obj
 0001:000042c0       ??$_Insert_at@AAPBDPAU?$_Tree_node@PBDPAX@std@@@?$_Tree@V?$_Tset_traits@PBDU?$less@PBD@std@@V?$allocator@PBD@2@$0A@@std@@@std@@IAE?AV?$_Tree_const_iterator@V?$_Tree_val@U?$_Tree_simple_types@PBD@std@@@std@@@1@_NPAU?$_Tree_node@PBDPAX@1@AAPBD1@Z 100052c0 f i ObjectsExtender.obj
 0001:00004460       ??$_Insert_nohint@AAPBDPAU?$_Tree_node@PBDPAX@std@@@?$_Tree@V?$_Tset_traits@PBDU?$less@PBD@std@@V?$allocator@PBD@2@$0A@@std@@@std@@IAE?AU?$pair@V?$_Tree_const_iterator@V?$_Tree_val@U?$_Tree_simple_types@PBD@std@@@std@@@std@@_N@1@_NAAPBDPAU?$_Tree_node@PBDPAX@1@@Z 10005460 f i ObjectsExtender.obj
 0001:00004560       ??$_Buynode@URMGObjectSetable@extender@@@?$_Tree_comp_alloc@V?$_Tset_traits@URMGObjectSetable@extender@@U?$less@URMGObjectSetable@extender@@@std@@V?$allocator@URMGObjectSetable@extender@@@4@$0A@@std@@@std@@QAEPAU?$_Tree_node@URMGObjectSetable@extender@@PAX@1@$$QAURMGObjectSetable@extender@@@Z 10005560 f i ObjectsExtender.obj
 0001:00004590       ??$_Uninitialized_copy_al_unchecked1@PBURMGObjectInfo@@PAU1@V?$allocator@URMGObjectInfo@@@std@@@std@@YAPAURMGObjectInfo@@PBU1@0PAU1@AAU?$_Wrap_alloc@V?$allocator@URMGObjectInfo@@@std@@@0@U_General_ptr_iterator_tag@0@U_Any_tag@0@@Z 10005590 f i RMGObjectsEditor.obj
 0001:00004590       ??$_Uninitialized_move_al_unchecked1@PAURMGObjectInfo@@PAU1@V?$allocator@URMGObjectInfo@@@std@@@std@@YAPAURMGObjectInfo@@PAU1@00AAU?$_Wrap_alloc@V?$allocator@URMGObjectInfo@@@std@@@0@U_General_ptr_iterator_tag@0@U_Any_tag@0@@Z 10005590 f i ObjectsExtender.obj
 0001:00004590       ??$_Uninitialized_copy_al_unchecked1@PAURMGObjectInfo@@PAU1@V?$allocator@URMGObjectInfo@@@std@@@std@@YAPAURMGObjectInfo@@PAU1@00AAU?$_Wrap_alloc@V?$allocator@URMGObjectInfo@@@std@@@0@U_General_ptr_iterator_tag@0@U_Any_tag@0@@Z 10005590 f i RMGObjectsEditor.obj
 0001:000045c0       ??$_Uninitialized_move_al_unchecked1@PAV?$basic_string@DU?$char_traits@D@std@@V?$allocator@D@2@@std@@PAV12@V?$allocator@V?$basic_string@DU?$char_traits@D@std@@V?$allocator@D@2@@std@@@2@@std@@YAPAV?$basic_string@DU?$char_traits@D@std@@V?$allocator@D@2@@0@PAV10@00AAU?$_Wrap_alloc@V?$allocator@V?$basic_string@DU?$char_traits@D@std@@V?$allocator@D@2@@std@@@std@@@0@U_General_ptr_iterator_tag@0@U_Any_tag@0@@Z 100055c0 f i ObjectsExtender.obj
 0001:00004660       ?_Buynode0@?$_Tree_comp_alloc@V?$_Tset_traits@URMGObjectSetable@extender@@U?$less@URMGObjectSetable@extender@@@std@@V?$allocator@URMGObjectSetable@extender@@@4@$0A@@std@@@std@@QAEPAU?$_Tree_node@URMGObjectSetable@extender@@PAX@2@XZ 10005660 f i ObjectsExtender.obj
 0001:000046a0       ?_Buynode0@?$_Tree_comp_alloc@V?$_Tset_traits@PAVObjectsExtender@extender@@U?$less@PAVObjectsExtender@extender@@@std@@V?$allocator@PAVObjectsExtender@extender@@@4@$0A@@std@@@std@@QAEPAU?$_Tree_node@PAVObjectsExtender@extender@@PAX@2@XZ 100056a0 f i ObjectsExtender.obj
 0001:000046e0       ??_ERMGObjectsEditor@editor@@EAEPAXI@Z 100056e0 f i * CIL library *:* CIL module *
 0001:000046e0       ??_GRMGObjectsEditor@editor@@EAEPAXI@Z 100056e0 f i RMGObjectsEditor.obj
 0001:00004710       ??0PseudoH3RmgRandomMapGenerator@@QAE@XZ 10005710 f i RMGObjectsEditor.obj
 0001:000047b0       ??1PseudoH3RmgRandomMapGenerator@@QAE@XZ 100057b0 f i RMGObjectsEditor.obj
 0001:00004880       ?resize@?$vector@V?$vector@URMGObjectInfo@@V?$allocator@URMGObjectInfo@@@std@@@std@@V?$allocator@V?$vector@URMGObjectInfo@@V?$allocator@URMGObjectInfo@@@std@@@std@@@2@@std@@QAEXI@Z 10005880 f i RMGObjectsEditor.obj
 0001:00004950       ??4?$vector@V?$vector@URMGObjectInfo@@V?$allocator@URMGObjectInfo@@@std@@@std@@V?$allocator@V?$vector@URMGObjectInfo@@V?$allocator@URMGObjectInfo@@@std@@@std@@@2@@std@@QAEAAV01@ABV01@@Z 10005950 f i RMGObjectsEditor.obj
 0001:00004b20       ??1?$vector@V?$vector@URMGObjectInfo@@V?$allocator@URMGObjectInfo@@@std@@@std@@V?$allocator@V?$vector@URMGObjectInfo@@V?$allocator@URMGObjectInfo@@@std@@@std@@@2@@std@@QAE@XZ 10005b20 f i RMGObjectsEditor.obj
 0001:00004b20       ?_Tidy@?$vector@V?$vector@URMGObjectInfo@@V?$allocator@URMGObjectInfo@@@std@@@std@@V?$allocator@V?$vector@URMGObjectInfo@@V?$allocator@URMGObjectInfo@@@std@@@std@@@2@@std@@IAEXXZ 10005b20 f i RMGObjectsEditor.obj
 0001:00004b80       ?resize@?$vector@URMGObjectInfo@@V?$allocator@URMGObjectInfo@@@std@@@std@@QAEXI@Z 10005b80 f i RMGObjectsEditor.obj
 0001:00004bf0       ?deallocate@?$_Wrap_alloc@V?$allocator@V?$vector@URMGObjectInfo@@V?$allocator@URMGObjectInfo@@@std@@@std@@@std@@@std@@QAEXPAV?$vector@URMGObjectInfo@@V?$allocator@URMGObjectInfo@@@std@@@2@I@Z 10005bf0 f i RMGObjectsEditor.obj
 0001:00004c50       ?_Reserve@?$vector@V?$vector@URMGObjectInfo@@V?$allocator@URMGObjectInfo@@@std@@@std@@V?$allocator@V?$vector@URMGObjectInfo@@V?$allocator@URMGObjectInfo@@@std@@@std@@@2@@std@@IAEXI@Z 10005c50 f i RMGObjectsEditor.obj
 0001:00004cf0       ?_Buy@?$vector@V?$vector@URMGObjectInfo@@V?$allocator@URMGObjectInfo@@@std@@@std@@V?$allocator@V?$vector@URMGObjectInfo@@V?$allocator@URMGObjectInfo@@@std@@@std@@@2@@std@@IAE_NI@Z 10005cf0 f i RMGObjectsEditor.obj
 0001:00004d50       ?_Reallocate@?$vector@V?$vector@URMGObjectInfo@@V?$allocator@URMGObjectInfo@@@std@@@std@@V?$allocator@V?$vector@URMGObjectInfo@@V?$allocator@URMGObjectInfo@@@std@@@std@@@2@@std@@IAEXI@Z 10005d50 f i RMGObjectsEditor.obj
 0001:00004df0       ?allocate@?$allocator@V?$vector@URMGObjectInfo@@V?$allocator@URMGObjectInfo@@@std@@@std@@@std@@QAEPAV?$vector@URMGObjectInfo@@V?$allocator@URMGObjectInfo@@@std@@@2@I@Z 10005df0 f i RMGObjectsEditor.obj
 0001:00004e50       ??0?$H3Vector@UH3ObjectAttributes@h3@@@h3@@QAE@XZ 10005e50 f i RMGObjectsEditor.obj
 0001:00004e70       ??1?$H3Vector@UH3ObjectAttributes@h3@@@h3@@QAE@XZ 10005e70 f i RMGObjectsEditor.obj
 0001:00004f00       ??1?$H3Vector@PAUH3RmgObjectGenerator@h3@@@h3@@QAE@XZ 10005f00 f i RMGObjectsEditor.obj
 0001:00004f60       ??$swap@U?$H3Vector@PAUH3RmgObjectGenerator@h3@@@h3@@X@std@@YAXAAU?$H3Vector@PAUH3RmgObjectGenerator@h3@@@h3@@0@Z 10005f60 f i RMGObjectsEditor.obj
 0001:00005020       ??$_Copy_unchecked@PAV?$vector@URMGObjectInfo@@V?$allocator@URMGObjectInfo@@@std@@@std@@PAV12@@std@@YAPAV?$vector@URMGObjectInfo@@V?$allocator@URMGObjectInfo@@@std@@@0@PAV10@00@Z 10006020 f i RMGObjectsEditor.obj
 0001:00005050       ??$_Uninitialized_default_fill_n1@PAV?$vector@URMGObjectInfo@@V?$allocator@URMGObjectInfo@@@std@@@std@@IV?$allocator@V?$vector@URMGObjectInfo@@V?$allocator@URMGObjectInfo@@@std@@@std@@@2@@std@@YAXPAV?$vector@URMGObjectInfo@@V?$allocator@URMGObjectInfo@@@std@@@0@IAAU?$_Wrap_alloc@V?$allocator@V?$vector@URMGObjectInfo@@V?$allocator@URMGObjectInfo@@@std@@@std@@@std@@@0@U?$integral_constant@_N$0A@@0@@Z 10006050 f i RMGObjectsEditor.obj
 0001:00005080       ??$_Uninitialized_default_fill_n1@PAURMGObjectInfo@@IV?$allocator@URMGObjectInfo@@@std@@@std@@YAXPAURMGObjectInfo@@IAAU?$_Wrap_alloc@V?$allocator@URMGObjectInfo@@@std@@@0@U?$integral_constant@_N$0A@@0@@Z 10006080 f i RMGObjectsEditor.obj
 0001:000050c0       ??$_Destroy_range1@V?$allocator@V?$vector@URMGObjectInfo@@V?$allocator@URMGObjectInfo@@@std@@@std@@@std@@PAV?$vector@URMGObjectInfo@@V?$allocator@URMGObjectInfo@@@std@@@2@@std@@YAXPAV?$vector@URMGObjectInfo@@V?$allocator@URMGObjectInfo@@@std@@@0@0AAU?$_Wrap_alloc@V?$allocator@V?$vector@URMGObjectInfo@@V?$allocator@URMGObjectInfo@@@std@@@std@@@std@@@0@U?$integral_constant@_N$0A@@0@@Z 100060c0 f i RMGObjectsEditor.obj
 0001:00005140       ??4?$vector@URMGObjectInfo@@V?$allocator@URMGObjectInfo@@@std@@@std@@QAEAAV01@ABV01@@Z 10006140 f i RMGObjectsEditor.obj
 0001:00005220       ?_Buy@?$vector@URMGObjectInfo@@V?$allocator@URMGObjectInfo@@@std@@@std@@IAE_NI@Z 10006220 f i RMGObjectsEditor.obj
 0001:00005280       ??$_Uninitialized_copy_al_unchecked1@PAV?$vector@URMGObjectInfo@@V?$allocator@URMGObjectInfo@@@std@@@std@@PAV12@V?$allocator@V?$vector@URMGObjectInfo@@V?$allocator@URMGObjectInfo@@@std@@@std@@@2@@std@@YAPAV?$vector@URMGObjectInfo@@V?$allocator@URMGObjectInfo@@@std@@@0@PAV10@00AAU?$_Wrap_alloc@V?$allocator@V?$vector@URMGObjectInfo@@V?$allocator@URMGObjectInfo@@@std@@@std@@@std@@@0@U_General_ptr_iterator_tag@0@U_Any_tag@0@@Z 10006280 f i RMGObjectsEditor.obj
 0001:00005310       ??$_Uninitialized_move_al_unchecked1@PAV?$vector@URMGObjectInfo@@V?$allocator@URMGObjectInfo@@@std@@@std@@PAV12@V?$allocator@V?$vector@URMGObjectInfo@@V?$allocator@URMGObjectInfo@@@std@@@std@@@2@@std@@YAPAV?$vector@URMGObjectInfo@@V?$allocator@URMGObjectInfo@@@std@@@0@PAV10@00AAU?$_Wrap_alloc@V?$allocator@V?$vector@URMGObjectInfo@@V?$allocator@URMGObjectInfo@@@std@@@std@@@std@@@0@U_General_ptr_iterator_tag@0@U_Any_tag@0@@Z 10006310 f i RMGObjectsEditor.obj
 0001:00005370       ??0?$vector@URMGObjectInfo@@V?$allocator@URMGObjectInfo@@@std@@@std@@QAE@ABV01@@Z 10006370 f i RMGObjectsEditor.obj
 0001:00005400       ?_Mtx_lockX@std@@YAHPAU_Mtx_internal_imp_t@@@Z 10006400 f i RMG_SettingsDlg.obj
 0001:00005430       ?_Mtx_unlockX@std@@YAHPAU_Mtx_internal_imp_t@@@Z 10006430 f i RMG_SettingsDlg.obj
 0001:00005460       ?_Cnd_waitX@std@@YAHPAU_Cnd_internal_imp_t@@PAU_Mtx_internal_imp_t@@@Z 10006460 f i RMG_SettingsDlg.obj
 0001:00005490       ??1_Auto_cnd@std@@QAE@XZ   10006490 f i RMG_SettingsDlg.obj
 0001:000054a0       ??1_Auto_mtx@std@@QAE@XZ   100064a0 f i RMG_SettingsDlg.obj
 0001:000054b0       ??0_Pad@std@@QAE@XZ        100064b0 f i RMG_SettingsDlg.obj
 0001:00005560       ?_Launch@_Pad@std@@QAEXPAU_Thrd_imp_t@@@Z 10006560 f i RMG_SettingsDlg.obj
 0001:000055c0       ?_Call_func@_Pad@std@@CGIPAX@Z 100065c0 f i RMG_SettingsDlg.obj
 0001:000055e0       ??1thread@std@@QAE@XZ      100065e0 f i RMG_SettingsDlg.obj
 0001:000055f0       ??1H3BasePalette565@h3@@QAE@XZ 100065f0 f i RMG_SettingsDlg.obj
 0001:00005620       ?BackgroundRegion@H3LoadedPcx16@h3@@QAEHHHHHH@Z 10006620 f i RMG_SettingsDlg.obj
 0001:00005730       ?FrameRegion@H3LoadedPcx16@h3@@QAEHHHHHHHH@Z 10006730 f i RMG_SettingsDlg.obj
 0001:000059d0       ??0H3BaseDlg@h3@@QAE@HHHH@Z 100069d0 f i RMG_SettingsDlg.obj
 0001:00005a50       ?Redraw@H3BaseDlg@h3@@QAEXXZ 10006a50 f i RMG_SettingsDlg.obj
 0001:00005a70       ?AddItem@H3BaseDlg@h3@@QAEPAUH3DlgItem@2@PAU32@H@Z 10006a70 f i RMG_SettingsDlg.obj
 0001:00005ad0       ?CreateCaptionButton@H3BaseDlg@h3@@QAEPAUH3DlgCaptionButton@2@HHHHHPBD00HHHHH@Z 10006ad0 f i RMG_SettingsDlg.obj
 0001:00005ba0       ?CreateText@H3BaseDlg@h3@@QAEPAUH3DlgText@2@HHHHPBD0HHW4eTextAlignment@NTextAlignment@NH3Dlg@2@H@Z 10006ba0 f i RMG_SettingsDlg.obj
 0001:00005c70       ??0H3Dlg@h3@@QAE@HHHHHHH@Z 10006c70 f i RMG_SettingsDlg.obj
 0001:00005d60       ??1H3NetworkDlg@h3@@QAE@XZ 10006d60 f i RMG_SettingsDlg.obj
 0001:00005dc0       ??1H3Dlg@h3@@QAE@XZ        10006dc0 f i RMG_SettingsDlg.obj
 0001:00005e50       ?Start@H3Dlg@h3@@QAEXXZ    10006e50 f i RMG_SettingsDlg.obj
 0001:00005ec0       ?AddBackground@H3Dlg@h3@@QAEHHHHHHHHH@Z 10006ec0 f i RMG_SettingsDlg.obj
 0001:00006030       ?vDestroy@H3Dlg@h3@@MAEPAU12@XZ 10007030 f i RMG_SettingsDlg.obj
 0001:00006040       ?vShow@H3Dlg@h3@@MAEHHD@Z  10007040 f i RMG_SettingsDlg.obj
 0001:00006050       ?vHide@H3Dlg@h3@@MAEHD@Z   10007050 f i RMG_SettingsDlg.obj
 0001:00006060       ?vPreProcess@H3Dlg@h3@@MAEHAAUH3Msg@2@@Z 10007060 f i RMG_SettingsDlg.obj
 0001:00006070       ?vRedraw@H3Dlg@h3@@MAEDDHH@Z 10007070 f i RMG_SettingsDlg.obj
 0001:00006080       ?vShowAndRun@H3Dlg@h3@@MAEHD@Z 10007080 f i RMG_SettingsDlg.obj
 0001:00006090       ?vInitiateItems@H3Dlg@h3@@MAEHXZ 10007090 f i RMG_SettingsDlg.obj
 0001:000060a0       ?vActivateItems@H3Dlg@h3@@MAEHD@Z 100070a0 f i RMG_SettingsDlg.obj
 0001:000060b0       ?vOnMouseMove@H3Dlg@h3@@MAEDHH@Z 100070b0 f i RMG_SettingsDlg.obj
 0001:000060c0       ?vOnRightClick@H3Dlg@h3@@MAEDH@Z 100070c0 f i RMG_SettingsDlg.obj
 0001:000060d0       ?vOnLeftClick@H3Dlg@h3@@MAEDHAAD@Z 100070d0 f i RMG_SettingsDlg.obj
 0001:000060e0       ?vGetStatusBar@H3Dlg@h3@@MAEPAUH3DlgTextPcx@2@XZ 100070e0 f i RMG_SettingsDlg.obj
 0001:000060e0       ?ExitCriticalRegion@ContextBase@details@Concurrency@@QAEHXZ 100070e0 f i libconcrt:ContextBase.obj
 0001:000060e0       ?EnterHyperCriticalRegion@ContextBase@details@Concurrency@@QAEHXZ 100070e0 f i libconcrt:ContextBase.obj
 0001:000060e0       ?GetContextKind@ExternalContextBase@details@Concurrency@@EBE?AW4ContextKind@ContextBase@23@XZ 100070e0 f i libconcrt:ExternalContextBase.obj
 0001:000060e0       ?EnterCriticalRegion@ContextBase@details@Concurrency@@QAEHXZ 100070e0 f i libconcrt:ContextBase.obj
 0001:000060e0       ?GetDefaultDestination@VirtualProcessor@details@Concurrency@@UAEPAUIExecutionContext@3@XZ 100070e0 f i libconcrt:VirtualProcessor.obj
 0001:000060e0       ?PreRunnableSearch@VirtualProcessor@details@Concurrency@@UAEPAVInternalContextBase@23@XZ 100070e0 f i libconcrt:VirtualProcessor.obj
 0001:000060e0       ?ExitHyperCriticalRegion@ContextBase@details@Concurrency@@QAEHXZ 100070e0 f i libconcrt:ContextBase.obj
 0001:000060f0       ?vEndDialogOnTimeExpired@H3Dlg@h3@@MAEHAAUH3Msg@2@@Z 100070f0 f i RMG_SettingsDlg.obj
 0001:00006100       ?vDialogProc@H3Dlg@h3@@MAEHAAUH3Msg@2@@Z 10007100 f i RMG_SettingsDlg.obj
 0001:000063f0       ?OnKeyPress@H3Dlg@h3@@UAEHW4eVirtualKeys@NH3VKey@2@W4eMessageMsgFlag@NMessageMsgFlag@NH3Messages@2@@Z 100073f0 f i RMG_SettingsDlg.obj
 0001:000063f0       ?OnKeyHeld@H3Dlg@h3@@UAEHW4eVirtualKeys@NH3VKey@2@W4eMessageMsgFlag@NMessageMsgFlag@NH3Messages@2@@Z 100073f0 f i RMG_SettingsDlg.obj
 0001:000063f0       ?OnDoubleClick@H3Dlg@h3@@UAEHHAAUH3Msg@2@@Z 100073f0 f i RMG_SettingsDlg.obj
 0001:000063f0       ?OnNotify@H3Dlg@h3@@UAEHPAUH3DlgItem@2@AAUH3Msg@2@@Z 100073f0 f i RMG_SettingsDlg.obj
 0001:000063f0       ?OnMouseHover@H3Dlg@h3@@UAEHHH@Z 100073f0 f i RMG_SettingsDlg.obj
 0001:000063f0       ?OnLeftClick@H3Dlg@h3@@UAEHHAAUH3Msg@2@@Z 100073f0 f i RMG_SettingsDlg.obj
 0001:00006400       ?OnRightClick@H3Dlg@h3@@UAEHPAUH3DlgItem@2@@Z 10007400 f i RMG_SettingsDlg.obj
 0001:00006400       ?OnMouseWheel@H3Dlg@h3@@UAEHH@Z 10007400 f i RMG_SettingsDlg.obj
 0001:00006400       ?DialogProc@H3Dlg@h3@@UAEHAAUH3Msg@2@@Z 10007400 f i RMG_SettingsDlg.obj
 0001:00006400       ?OnMouseHover@H3Dlg@h3@@UAEHPAUH3DlgItem@2@@Z 10007400 f i RMG_SettingsDlg.obj
 0001:00006400       ?OnWheelButton@H3Dlg@h3@@UAEHPAUH3DlgItem@2@@Z 10007400 f i RMG_SettingsDlg.obj
 0001:00006410       ?OnCreate@H3Dlg@h3@@UAEHXZ 10007410 f i RMG_SettingsDlg.obj
 0001:00006410       ?OnLeftClickOutside@H3Dlg@h3@@UAEHXZ 10007410 f i RMG_SettingsDlg.obj
 0001:00006410       ?OnRightClickOutside@H3Dlg@h3@@UAEHXZ 10007410 f i RMG_SettingsDlg.obj
 0001:00006420       ?IsRightClick@H3Msg@h3@@QBEHXZ 10007420 f i RMG_SettingsDlg.obj
 0001:00006440       ?ClickSound@H3SoundManager@h3@@QAEXXZ 10007440 f i RMG_SettingsDlg.obj
 0001:00006480       ?Create@H3DlgCustomButton@h3@@SAPAU12@HHPBDP6IHPAUH3Msg@2@@ZHH@Z 10007480 f i RMG_SettingsDlg.obj
 0001:00006510       ?ShowHint@H3DlgHintBar@h3@@QAEXPAUH3Msg@2@@Z 10007510 f i RMG_SettingsDlg.obj
 0001:00006590       ?ShowMessage@H3DlgHintBar@h3@@QAEXPBD@Z 10007590 f i RMG_SettingsDlg.obj
 0001:000065e0       ?to_string@std@@YA?AV?$basic_string@DU?$char_traits@D@std@@V?$allocator@D@2@@1@H@Z 100075e0 f i RMG_SettingsDlg.obj
 0001:00006600       ?to_string@std@@YA?AV?$basic_string@DU?$char_traits@D@std@@V?$allocator@D@2@@1@I@Z 10007600 f i RMG_SettingsDlg.obj
 0001:00006780       ??_ERMG_SettingsDlg@rmgdlg@@EAEPAXI@Z 10007780 f i * CIL library *:* CIL module *
 0001:00006780       ??_GRMG_SettingsDlg@rmgdlg@@EAEPAXI@Z 10007780 f i RMG_SettingsDlg.obj
 0001:00006800       ??_EBanksPage@RMG_SettingsDlg@rmgdlg@@UAEPAXI@Z 10007800 f i * CIL library *:* CIL module *
 0001:00006800       ??_GBanksPage@RMG_SettingsDlg@rmgdlg@@UAEPAXI@Z 10007800 f i RMG_SettingsDlg.obj
 0001:00006830       ??_EObjectsPanel@RMG_SettingsDlg@rmgdlg@@UAEPAXI@Z 10007830 f i * CIL library *:* CIL module *
 0001:00006830       ??_GObjectsPanel@RMG_SettingsDlg@rmgdlg@@UAEPAXI@Z 10007830 f i RMG_SettingsDlg.obj
 0001:00006890       ??_EPage@RMG_SettingsDlg@rmgdlg@@UAEPAXI@Z 10007890 f i * CIL library *:* CIL module *
 0001:00006890       ??_GPage@RMG_SettingsDlg@rmgdlg@@UAEPAXI@Z 10007890 f i RMG_SettingsDlg.obj
 0001:000068c0       ??_EObjectsPage@RMG_SettingsDlg@rmgdlg@@UAEPAXI@Z 100078c0 f i * CIL library *:* CIL module *
 0001:000068c0       ??_GObjectsPage@RMG_SettingsDlg@rmgdlg@@UAEPAXI@Z 100078c0 f i RMG_SettingsDlg.obj
 0001:000068f0       ??_GMiscPage@RMG_SettingsDlg@rmgdlg@@UAEPAXI@Z 100078f0 f i RMG_SettingsDlg.obj
 0001:000068f0       ??_EMiscPage@RMG_SettingsDlg@rmgdlg@@UAEPAXI@Z 100078f0 f i * CIL library *:* CIL module *
 0001:00006920       ??1?$array@V?$vector@HV?$allocator@H@std@@@std@@$03@std@@QAE@XZ 10007920 f i RMG_SettingsDlg.obj
 0001:00006960       ?resize@?$vector@PAUH3DlgCaptionButton@h3@@V?$allocator@PAUH3DlgCaptionButton@h3@@@std@@@std@@QAEXI@Z 10007960 f i RMG_SettingsDlg.obj
 0001:000069d0       ??1?$vector@VRMGObject@rmgdlg@@V?$allocator@VRMGObject@rmgdlg@@@std@@@std@@QAE@XZ 100079d0 f i RMG_SettingsDlg.obj
 0001:00006a10       ?clear@?$vector@U?$pair@UH3ObjectAttributes@h3@@PAUH3LoadedPcx16@2@@std@@V?$allocator@U?$pair@UH3ObjectAttributes@h3@@PAUH3LoadedPcx16@2@@std@@@2@@std@@QAEXXZ 10007a10 f i RMG_SettingsDlg.obj
 0001:00006a90       ??4?$vector@U?$pair@UH3ObjectAttributes@h3@@PAUH3LoadedPcx16@2@@std@@V?$allocator@U?$pair@UH3ObjectAttributes@h3@@PAUH3LoadedPcx16@2@@std@@@2@@std@@QAEAAV01@ABV01@@Z 10007a90 f i RMG_SettingsDlg.obj
 0001:00006c40       ??1?$vector@U?$pair@UH3ObjectAttributes@h3@@PAUH3LoadedPcx16@2@@std@@V?$allocator@U?$pair@UH3ObjectAttributes@h3@@PAUH3LoadedPcx16@2@@std@@@2@@std@@QAE@XZ 10007c40 f i RMG_SettingsDlg.obj
 0001:00006c50       ?deallocate@?$_Wrap_alloc@V?$allocator@U?$pair@UH3ObjectAttributes@h3@@PAUH3LoadedPcx16@2@@std@@@std@@@std@@QAEXPAU?$pair@UH3ObjectAttributes@h3@@PAUH3LoadedPcx16@2@@2@I@Z 10007c50 f i RMG_SettingsDlg.obj
 0001:00006cb0       ?_Reallocate@?$vector@VRMGObject@rmgdlg@@V?$allocator@VRMGObject@rmgdlg@@@std@@@std@@IAEXI@Z 10007cb0 f i RMG_SettingsDlg.obj
 0001:00006d30       ?_Tidy@?$vector@U?$pair@UH3ObjectAttributes@h3@@PAUH3LoadedPcx16@2@@std@@V?$allocator@U?$pair@UH3ObjectAttributes@h3@@PAUH3LoadedPcx16@2@@std@@@2@@std@@IAEXXZ 10007d30 f i RMG_SettingsDlg.obj
 0001:00006dd0       ?_Reallocate@?$vector@U?$pair@UH3ObjectAttributes@h3@@PAUH3LoadedPcx16@2@@std@@V?$allocator@U?$pair@UH3ObjectAttributes@h3@@PAUH3LoadedPcx16@2@@std@@@2@@std@@IAEXI@Z 10007dd0 f i RMG_SettingsDlg.obj
 0001:00006ec0       ?_Destroy@?$vector@U?$pair@UH3ObjectAttributes@h3@@PAUH3LoadedPcx16@2@@std@@V?$allocator@U?$pair@UH3ObjectAttributes@h3@@PAUH3LoadedPcx16@2@@std@@@2@@std@@IAEXPAU?$pair@UH3ObjectAttributes@h3@@PAUH3LoadedPcx16@2@@2@0@Z 10007ec0 f i RMG_SettingsDlg.obj
 0001:00006f20       ?_Buy@?$vector@U?$pair@UH3ObjectAttributes@h3@@PAUH3LoadedPcx16@2@@std@@V?$allocator@U?$pair@UH3ObjectAttributes@h3@@PAUH3LoadedPcx16@2@@std@@@2@@std@@IAE_NI@Z 10007f20 f i RMG_SettingsDlg.obj
 0001:00006f80       ?deallocate@?$_Wrap_alloc@V?$allocator@VRMGObject@rmgdlg@@@std@@@std@@QAEXPAVRMGObject@rmgdlg@@I@Z 10007f80 f i RMG_SettingsDlg.obj
 0001:00006fe0       ?allocate@?$allocator@VRMGObject@rmgdlg@@@std@@QAEPAVRMGObject@rmgdlg@@I@Z 10007fe0 f i RMG_SettingsDlg.obj
 0001:00007040       ?allocate@?$allocator@U?$pair@UH3ObjectAttributes@h3@@PAUH3LoadedPcx16@2@@std@@@std@@QAEPAU?$pair@UH3ObjectAttributes@h3@@PAUH3LoadedPcx16@2@@2@I@Z 10008040 f i RMG_SettingsDlg.obj
 0001:000070a0       ??1?$H3BinaryLoader@UH3LoadedPcx@h3@@@h3@@QAE@XZ 100080a0 f i RMG_SettingsDlg.obj
 0001:000070a0       ??1?$H3BinaryLoader@UH3LoadedDef@h3@@@h3@@QAE@XZ 100080a0 f i RMG_SettingsDlg.obj
 0001:000070e0       ??$_Integral_to_string@DH@std@@YA?AV?$basic_string@DU?$char_traits@D@std@@V?$allocator@D@2@@0@H@Z 100080e0 f i RMG_SettingsDlg.obj
 0001:00007180       ??$_Integral_to_string@DI@std@@YA?AV?$basic_string@DU?$char_traits@D@std@@V?$allocator@D@2@@0@I@Z 10008180 f i RMG_SettingsDlg.obj
 0001:000071f0       ??$make_pair@ABUH3ObjectAttributes@h3@@$$T@std@@YA?AU?$pair@UH3ObjectAttributes@h3@@$$T@0@ABUH3ObjectAttributes@h3@@$$QA$$T@Z 100081f0 f i RMG_SettingsDlg.obj
 0001:00007220       ??$_Destroy_range@V?$allocator@U?$pair@UH3ObjectAttributes@h3@@PAUH3LoadedPcx16@2@@std@@@std@@PAU?$pair@UH3ObjectAttributes@h3@@PAUH3LoadedPcx16@2@@2@@std@@YAXPAU?$pair@UH3ObjectAttributes@h3@@PAUH3LoadedPcx16@2@@0@0AAU?$_Wrap_alloc@V?$allocator@U?$pair@UH3ObjectAttributes@h3@@PAUH3LoadedPcx16@2@@std@@@std@@@0@@Z 10008220 f i RMG_SettingsDlg.obj
 0001:00007280       ??1?$unique_ptr@V?$tuple@P6AXXZ@std@@U?$default_delete@V?$tuple@P6AXXZ@std@@@2@@std@@QAE@XZ 10008280 f i RMG_SettingsDlg.obj
 0001:000072a0       ?_Reserve@?$vector@VRMGObject@rmgdlg@@V?$allocator@VRMGObject@rmgdlg@@@std@@@std@@IAEXI@Z 100082a0 f i RMG_SettingsDlg.obj
 0001:00007330       ?_Reserve@?$vector@U?$pair@UH3ObjectAttributes@h3@@PAUH3LoadedPcx16@2@@std@@V?$allocator@U?$pair@UH3ObjectAttributes@h3@@PAUH3LoadedPcx16@2@@std@@@2@@std@@IAEXI@Z 10008330 f i RMG_SettingsDlg.obj
 0001:000073c0       ?_Reserve@?$vector@PAUH3DlgItem@h3@@V?$allocator@PAUH3DlgItem@h3@@@std@@@std@@IAEXI@Z 100083c0 f i RMG_SettingsDlg.obj
 0001:00007420       ??$_Reverse_unchecked@PAVRMGObject@rmgdlg@@@std@@YAXPAVRMGObject@rmgdlg@@0@Z 10008420 f i RMG_SettingsDlg.obj
 0001:00007470       ??$make_unique@V?$tuple@P6AXXZ@std@@A6AXXZ@std@@YA?AV?$unique_ptr@V?$tuple@P6AXXZ@std@@U?$default_delete@V?$tuple@P6AXXZ@std@@@2@@0@A6AXXZ@Z 10008470 f i RMG_SettingsDlg.obj
 0001:000074a0       ??$_Launch@V?$unique_ptr@V?$tuple@P6AXXZ@std@@U?$default_delete@V?$tuple@P6AXXZ@std@@@2@@std@@@std@@YAXPAU_Thrd_imp_t@@$$QAV?$unique_ptr@V?$tuple@P6AXXZ@std@@U?$default_delete@V?$tuple@P6AXXZ@std@@@2@@0@@Z 100084a0 f i RMG_SettingsDlg.obj
 0001:00007550       ??$_Construct@PBQAV?$vector@U?$pair@UH3ObjectAttributes@h3@@PAUH3LoadedPcx16@2@@std@@V?$allocator@U?$pair@UH3ObjectAttributes@h3@@PAUH3LoadedPcx16@2@@std@@@2@@std@@@?$vector@PAV?$vector@U?$pair@UH3ObjectAttributes@h3@@PAUH3LoadedPcx16@2@@std@@V?$allocator@U?$pair@UH3ObjectAttributes@h3@@PAUH3LoadedPcx16@2@@std@@@2@@std@@V?$allocator@PAV?$vector@U?$pair@UH3ObjectAttributes@h3@@PAUH3LoadedPcx16@2@@std@@V?$allocator@U?$pair@UH3ObjectAttributes@h3@@PAUH3LoadedPcx16@2@@std@@@2@@std@@@2@@std@@QAEXPBQAV?$vector@U?$pair@UH3ObjectAttributes@h3@@PAUH3LoadedPcx16@2@@std@@V?$allocator@U?$pair@UH3ObjectAttributes@h3@@PAUH3LoadedPcx16@2@@std@@@2@@1@0Uforward_iterator_tag@1@@Z 10008550 f i RMG_SettingsDlg.obj
 0001:00007590       ??$_Copy_unchecked1@PAU?$pair@UH3ObjectAttributes@h3@@PAUH3LoadedPcx16@2@@std@@PAU12@@std@@YAPAU?$pair@UH3ObjectAttributes@h3@@PAUH3LoadedPcx16@2@@0@PAU10@00U_General_ptr_iterator_tag@0@@Z 10008590 f i RMG_SettingsDlg.obj
 0001:00007650       ??$_Construct@PBH@?$vector@HV?$allocator@H@std@@@std@@QAEXPBH0Uforward_iterator_tag@1@@Z 10008650 f i RMG_SettingsDlg.obj
 0001:000076c0       ??0H3ObjectAttributes@h3@@QAE@ABU01@@Z 100086c0 f i RMG_SettingsDlg.obj
 0001:00007760       ??1?$_LaunchPad@V?$unique_ptr@V?$tuple@P6AXXZ@std@@U?$default_delete@V?$tuple@P6AXXZ@std@@@2@@std@@@std@@QAE@XZ 10008760 f i RMG_SettingsDlg.obj
 0001:000077e0       ?_Go@?$_LaunchPad@V?$unique_ptr@V?$tuple@P6AXXZ@std@@U?$default_delete@V?$tuple@P6AXXZ@std@@@2@@std@@@std@@UAEXXZ 100087e0 f i RMG_SettingsDlg.obj
 0001:000077f0       ?_Buy@?$vector@PAV?$vector@U?$pair@UH3ObjectAttributes@h3@@PAUH3LoadedPcx16@2@@std@@V?$allocator@U?$pair@UH3ObjectAttributes@h3@@PAUH3LoadedPcx16@2@@std@@@2@@std@@V?$allocator@PAV?$vector@U?$pair@UH3ObjectAttributes@h3@@PAUH3LoadedPcx16@2@@std@@V?$allocator@U?$pair@UH3ObjectAttributes@h3@@PAUH3LoadedPcx16@2@@std@@@2@@std@@@2@@std@@IAE_NI@Z 100087f0 f i RMG_SettingsDlg.obj
 0001:00007860       ?_Run@?$_LaunchPad@V?$unique_ptr@V?$tuple@P6AXXZ@std@@U?$default_delete@V?$tuple@P6AXXZ@std@@@2@@std@@@std@@CAXPAV12@@Z 10008860 f i RMG_SettingsDlg.obj
 0001:00007900       ??$_Sort_unchecked1@PAVRMGObject@rmgdlg@@HV<lambda_50df53dded5631204e54f143e779c3fc>@@@std@@YAXPAVRMGObject@rmgdlg@@0HAAV<lambda_50df53dded5631204e54f143e779c3fc>@@@Z 10008900 f i RMG_SettingsDlg.obj
 0001:00007a30       ??$?0ABV?$allocator@PAV?$vector@U?$pair@UH3ObjectAttributes@h3@@PAUH3LoadedPcx16@2@@std@@V?$allocator@U?$pair@UH3ObjectAttributes@h3@@PAUH3LoadedPcx16@2@@std@@@2@@std@@@std@@@?$_Wrap_alloc@V?$allocator@PAV?$vector@U?$pair@UH3ObjectAttributes@h3@@PAUH3LoadedPcx16@2@@std@@V?$allocator@U?$pair@UH3ObjectAttributes@h3@@PAUH3LoadedPcx16@2@@std@@@2@@std@@@std@@@std@@QAE@ABV?$allocator@PAV?$vector@U?$pair@UH3ObjectAttributes@h3@@PAUH3LoadedPcx16@2@@std@@V?$allocator@U?$pair@UH3ObjectAttributes@h3@@PAUH3LoadedPcx16@2@@std@@@2@@std@@@1@@Z 10008a30 f i RMG_SettingsDlg.obj
 0001:00007a40       ??$_Partition_by_median_guess_unchecked@PAVRMGObject@rmgdlg@@V<lambda_50df53dded5631204e54f143e779c3fc>@@@std@@YA?AU?$pair@PAVRMGObject@rmgdlg@@PAV12@@0@PAVRMGObject@rmgdlg@@0AAV<lambda_50df53dded5631204e54f143e779c3fc>@@@Z 10008a40 f i RMG_SettingsDlg.obj
 0001:00007d60       ??$_Make_heap_unchecked@PAVRMGObject@rmgdlg@@V<lambda_50df53dded5631204e54f143e779c3fc>@@@std@@YAXPAVRMGObject@rmgdlg@@0AAV<lambda_50df53dded5631204e54f143e779c3fc>@@@Z 10008d60 f i RMG_SettingsDlg.obj
 0001:00007e90       ??$_Sort_heap_unchecked@PAVRMGObject@rmgdlg@@V<lambda_50df53dded5631204e54f143e779c3fc>@@@std@@YAXPAVRMGObject@rmgdlg@@0AAV<lambda_50df53dded5631204e54f143e779c3fc>@@@Z 10008e90 f i RMG_SettingsDlg.obj
 0001:00007f40       ??$_Insertion_sort_unchecked@PAVRMGObject@rmgdlg@@V<lambda_50df53dded5631204e54f143e779c3fc>@@@std@@YAXPAVRMGObject@rmgdlg@@0AAV<lambda_50df53dded5631204e54f143e779c3fc>@@@Z 10008f40 f i RMG_SettingsDlg.obj
 0001:00008030       ??$_Uninitialized_copy_al_unchecked1@PAU?$pair@UH3ObjectAttributes@h3@@PAUH3LoadedPcx16@2@@std@@PAU12@V?$allocator@U?$pair@UH3ObjectAttributes@h3@@PAUH3LoadedPcx16@2@@std@@@2@@std@@YAPAU?$pair@UH3ObjectAttributes@h3@@PAUH3LoadedPcx16@2@@0@PAU10@00AAU?$_Wrap_alloc@V?$allocator@U?$pair@UH3ObjectAttributes@h3@@PAUH3LoadedPcx16@2@@std@@@std@@@0@U_General_ptr_iterator_tag@0@U_Any_tag@0@@Z 10009030 f i RMG_SettingsDlg.obj
 0001:000080c0       ??$_Uninitialized_move_al_unchecked1@PAVRMGObject@rmgdlg@@PAV12@V?$allocator@VRMGObject@rmgdlg@@@std@@@std@@YAPAVRMGObject@rmgdlg@@PAV12@00AAU?$_Wrap_alloc@V?$allocator@VRMGObject@rmgdlg@@@std@@@0@U_General_ptr_iterator_tag@0@U_Any_tag@0@@Z 100090c0 f i RMG_SettingsDlg.obj
 0001:00008100       ??$_Uninitialized_move_al_unchecked1@PAU?$pair@UH3ObjectAttributes@h3@@PAUH3LoadedPcx16@2@@std@@PAU12@V?$allocator@U?$pair@UH3ObjectAttributes@h3@@PAUH3LoadedPcx16@2@@std@@@2@@std@@YAPAU?$pair@UH3ObjectAttributes@h3@@PAUH3LoadedPcx16@2@@0@PAU10@00AAU?$_Wrap_alloc@V?$allocator@U?$pair@UH3ObjectAttributes@h3@@PAUH3LoadedPcx16@2@@std@@@std@@@0@U_General_ptr_iterator_tag@0@U_Any_tag@0@@Z 10009100 f i RMG_SettingsDlg.obj
 0001:00008140       ??$_Guess_median_unchecked@PAVRMGObject@rmgdlg@@V<lambda_50df53dded5631204e54f143e779c3fc>@@@std@@YAXPAVRMGObject@rmgdlg@@00AAV<lambda_50df53dded5631204e54f143e779c3fc>@@@Z 10009140 f i RMG_SettingsDlg.obj
 0001:00008200       ??$_Pop_heap_hole_by_index@PAVRMGObject@rmgdlg@@HV12@V<lambda_50df53dded5631204e54f143e779c3fc>@@@std@@YAXPAVRMGObject@rmgdlg@@HH$$QAV12@AAV<lambda_50df53dded5631204e54f143e779c3fc>@@@Z 10009200 f i RMG_SettingsDlg.obj
 0001:000082d0       ??0H3ObjectAttributes@h3@@QAE@$$QAU01@@Z 100092d0 f i RMG_SettingsDlg.obj
 0001:00008370       ??$_Med3_unchecked@PAVRMGObject@rmgdlg@@V<lambda_50df53dded5631204e54f143e779c3fc>@@@std@@YAXPAVRMGObject@rmgdlg@@00AAV<lambda_50df53dded5631204e54f143e779c3fc>@@@Z 10009370 f i RMG_SettingsDlg.obj
 0001:00008440       ??$_Push_heap_by_index@PAVRMGObject@rmgdlg@@HV12@V<lambda_50df53dded5631204e54f143e779c3fc>@@@std@@YAXPAVRMGObject@rmgdlg@@HH$$QAV12@AAV<lambda_50df53dded5631204e54f143e779c3fc>@@@Z 10009440 f i RMG_SettingsDlg.obj
 0001:000086c4       ??0bad_alloc@std@@QAE@ABV01@@Z 100096c4 f i libcpmt:xthrow.obj
 0001:000086df       ??0bad_alloc@std@@QAE@XZ   100096df f i libcpmt:xthrow.obj
 0001:000086f7       ??0exception@std@@QAE@ABV01@@Z 100096f7 f i libcpmt:xthrow.obj
 0001:00008723       ??0exception@std@@QAE@QBD@Z 10009723 f i libcpmt:xthrow.obj
 0001:0000875a       ??0invalid_argument@std@@QAE@ABV01@@Z 1000975a f i libcpmt:xthrow.obj
 0001:00008775       ??0invalid_argument@std@@QAE@PBD@Z 10009775 f i libcpmt:xthrow.obj
 0001:00008796       ??0length_error@std@@QAE@ABV01@@Z 10009796 f i libcpmt:xthrow.obj
 0001:000087b1       ??0length_error@std@@QAE@PBD@Z 100097b1 f i libcpmt:xthrow.obj
 0001:000087d2       ??0logic_error@std@@QAE@ABV01@@Z 100097d2 f i libcpmt:xthrow.obj
 0001:000087ed       ??0out_of_range@std@@QAE@ABV01@@Z 100097ed f i libcpmt:xthrow.obj
 0001:00008808       ??0out_of_range@std@@QAE@PBD@Z 10009808 f i libcpmt:xthrow.obj
 0001:00008829       ??0runtime_error@std@@QAE@ABV01@@Z 10009829 f i libcpmt:xthrow.obj
 0001:00008844       ?_Xbad_alloc@std@@YAXXZ    10009844 f   libcpmt:xthrow.obj
 0001:00008844       ?__scrt_throw_std_bad_alloc@@YAXXZ 10009844 f   LIBCMT:throw_bad_alloc.obj
 0001:00008861       ?_Xlength_error@std@@YAXPBD@Z 10009861 f   libcpmt:xthrow.obj
 0001:00008881       ?_Xout_of_range@std@@YAXPBD@Z 10009881 f   libcpmt:xthrow.obj
 0001:000088a1       ?what@exception@std@@UBEPBDXZ 100098a1 f i libcpmt:xthrow.obj
 0001:000088ae       ??0stl_condition_variable_vista@details@Concurrency@@QAE@XZ 100098ae f i libcpmt:cond.obj
 0001:000088c5       ??0stl_condition_variable_win7@details@Concurrency@@QAE@XZ 100098c5 f i libcpmt:cond.obj
 0001:000088dc       ??1GlobalCore@details@Concurrency@@QAE@XZ 100098dc f i libcpmt:cond.obj
 0001:000088e9       ??_EGlobalCore@details@Concurrency@@QAEPAXI@Z 100098e9 f i libcpmt:cond.obj
 0001:00008971       ?create_stl_condition_variable@details@Concurrency@@YAXPAVstl_condition_variable_interface@12@@Z 10009971 f i libcpmt:cond.obj
 0001:000089e6       ?destroy@stl_condition_variable_concrt@details@Concurrency@@UAEXXZ 100099e6 f i libcpmt:cond.obj
 0001:00008ab6       ?notify_all@stl_condition_variable_concrt@details@Concurrency@@UAEXXZ 10009ab6 f i libcpmt:cond.obj
 0001:00008abe       ?notify_all@stl_condition_variable_win7@details@Concurrency@@UAEXXZ 10009abe f i libcpmt:cond.obj
 0001:00008abe       ?notify_all@stl_condition_variable_vista@details@Concurrency@@UAEXXZ 10009abe f i libcpmt:cond.obj
 0001:00008ac9       ?notify_one@stl_condition_variable_concrt@details@Concurrency@@UAEXXZ 10009ac9 f i libcpmt:cond.obj
 0001:00008ad1       ?notify_one@stl_condition_variable_win7@details@Concurrency@@UAEXXZ 10009ad1 f i libcpmt:cond.obj
 0001:00008ad1       ?notify_one@stl_condition_variable_vista@details@Concurrency@@UAEXXZ 10009ad1 f i libcpmt:cond.obj
 0001:00008adc       ?wait@stl_condition_variable_concrt@details@Concurrency@@UAEXPAVstl_critical_section_interface@23@@Z 10009adc f i libcpmt:cond.obj
 0001:00008af2       ?wait@stl_condition_variable_vista@details@Concurrency@@UAEXPAVstl_critical_section_interface@23@@Z 10009af2 f i libcpmt:cond.obj
 0001:00008b0d       ?wait@stl_condition_variable_win7@details@Concurrency@@UAEXPAVstl_critical_section_interface@23@@Z 10009b0d f i libcpmt:cond.obj
 0001:00008b28       ?wait_for@stl_condition_variable_concrt@details@Concurrency@@UAE_NPAVstl_critical_section_interface@23@I@Z 10009b28 f i libcpmt:cond.obj
 0001:00008b41       ?wait_for@stl_condition_variable_vista@details@Concurrency@@UAE_NPAVstl_critical_section_interface@23@I@Z 10009b41 f i libcpmt:cond.obj
 0001:00008b64       ?wait_for@stl_condition_variable_win7@details@Concurrency@@UAE_NPAVstl_critical_section_interface@23@I@Z 10009b64 f i libcpmt:cond.obj
 0001:00008b89       __Cnd_broadcast            10009b89 f   libcpmt:cond.obj
 0001:00008ba7       __Cnd_destroy              10009ba7 f   libcpmt:cond.obj
 0001:00008bc1       __Cnd_destroy_in_situ      10009bc1 f   libcpmt:cond.obj
 0001:00008bdd       __Cnd_init                 10009bdd f   libcpmt:cond.obj
 0001:00008c0b       __Cnd_init_in_situ         10009c0b f   libcpmt:cond.obj
 0001:00008c10       __Cnd_signal               10009c10 f   libcpmt:cond.obj
 0001:00008c2e       __Cnd_wait                 10009c2e f   libcpmt:cond.obj
 0001:00008c43       ??$_Immortalize@V_Generic_error_category@std@@@std@@YAAAV_Generic_error_category@0@XZ 10009c43 f i libcpmt:thread0.obj
 0001:00008c79       ??0?$basic_string@DU?$char_traits@D@std@@V?$allocator@D@2@@std@@QAE@ABV01@@Z 10009c79 f i libcpmt:thread0.obj
 0001:00008c9f       ??0_System_error@std@@IAE@Verror_code@1@ABV?$basic_string@DU?$char_traits@D@std@@V?$allocator@D@2@@1@@Z 10009c9f f i libcpmt:thread0.obj
 0001:00008d0e       ??0_System_error@std@@QAE@ABV01@@Z 10009d0e f i libcpmt:thread0.obj
 0001:00008d38       ??0runtime_error@std@@QAE@ABV?$basic_string@DU?$char_traits@D@std@@V?$allocator@D@2@@1@@Z 10009d38 f i libcpmt:thread0.obj
 0001:00008d62       ??0system_error@std@@QAE@ABV01@@Z 10009d62 f i libcpmt:thread0.obj
 0001:00008d7d       ??0system_error@std@@QAE@HABVerror_category@1@PBD@Z 10009d7d f i libcpmt:thread0.obj
 0001:00008dcb       ??8std@@YA_NABVerror_condition@0@0@Z 10009dcb f i libcpmt:thread0.obj
 0001:00008df3       ??_E_Generic_error_category@std@@UAEPAXI@Z 10009df3 f i libcpmt:thread0.obj
 0001:00008df3       ??_G_Generic_error_category@std@@UAEPAXI@Z 10009df3 f i libcpmt:thread0.obj
 0001:00008df3       ??_Gerror_category@std@@UAEPAXI@Z 10009df3 f i libcpmt:thread0.obj
 0001:00008df3       ??_Eerror_category@std@@UAEPAXI@Z 10009df3 f i libcpmt:thread0.obj
 0001:00008e16       ??_Gsystem_error@std@@UAEPAXI@Z 10009e16 f i libcpmt:thread0.obj
 0001:00008e16       ??_G_System_error@std@@UAEPAXI@Z 10009e16 f i libcpmt:thread0.obj
 0001:00008e16       ??_E_System_error@std@@UAEPAXI@Z 10009e16 f i libcpmt:thread0.obj
 0001:00008e16       ??_Esystem_error@std@@UAEPAXI@Z 10009e16 f i libcpmt:thread0.obj
 0001:00008e43       ?_Makestr@_System_error@std@@CA?AV?$basic_string@DU?$char_traits@D@std@@V?$allocator@D@2@@2@Verror_code@2@V32@@Z 10009e43 f i libcpmt:thread0.obj
 0001:00008ec6       ?_Throw_C_error@std@@YAXH@Z 10009ec6 f   libcpmt:thread0.obj
 0001:00008ef3       ?_Throw_Cpp_error@std@@YAXH@Z 10009ef3 f   libcpmt:thread0.obj
 0001:00008f28       ?append@?$basic_string@DU?$char_traits@D@std@@V?$allocator@D@2@@std@@QAEAAV12@ABV12@II@Z 10009f28 f i libcpmt:thread0.obj
 0001:00008fcb       ?append@?$basic_string@DU?$char_traits@D@std@@V?$allocator@D@2@@std@@QAEAAV12@PBDI@Z 10009fcb f i libcpmt:thread0.obj
 0001:0000906e       ?default_error_condition@error_category@std@@UBE?AVerror_condition@2@H@Z 1000a06e f i libcpmt:thread0.obj
 0001:00009080       ?equivalent@error_category@std@@UBE_NABVerror_code@2@H@Z 1000a080 f i libcpmt:thread0.obj
 0001:000090a5       ?equivalent@error_category@std@@UBE_NHABVerror_condition@2@@Z 1000a0a5 f i libcpmt:thread0.obj
 0001:000090d8       ?generic_category@std@@YAABVerror_category@1@XZ 1000a0d8 f i libcpmt:thread0.obj
 0001:000090dd       ?message@_Generic_error_category@std@@UBE?AV?$basic_string@DU?$char_traits@D@std@@V?$allocator@D@2@@2@H@Z 1000a0dd f i libcpmt:thread0.obj
 0001:00009100       ?message@error_code@std@@QBE?AV?$basic_string@DU?$char_traits@D@std@@V?$allocator@D@2@@2@XZ 1000a100 f i libcpmt:thread0.obj
 0001:0000912d       ?name@_Generic_error_category@std@@UBEPBDXZ 1000a12d f i libcpmt:thread0.obj
 0001:00009133       ??0stl_critical_section_vista@details@Concurrency@@QAE@XZ 1000a133 f i libcpmt:mutex.obj
 0001:00009153       ??0stl_critical_section_win7@details@Concurrency@@QAE@XZ 1000a153 f i libcpmt:mutex.obj
 0001:0000916a       ?create_stl_critical_section@details@Concurrency@@YAXPAVstl_critical_section_interface@12@@Z 1000a16a f i libcpmt:mutex.obj
 0001:000091df       ?destroy@stl_critical_section_concrt@details@Concurrency@@UAEXXZ 1000a1df f i libcpmt:mutex.obj
 0001:000091e7       ?destroy@stl_critical_section_vista@details@Concurrency@@UAEXXZ 1000a1e7 f i libcpmt:mutex.obj
 0001:000091f2       ?lock@stl_critical_section_concrt@details@Concurrency@@UAEXXZ 1000a1f2 f i libcpmt:mutex.obj
 0001:000091fa       ?lock@stl_critical_section_vista@details@Concurrency@@UAEXXZ 1000a1fa f i libcpmt:mutex.obj
 0001:00009205       ?lock@stl_critical_section_win7@details@Concurrency@@UAEXXZ 1000a205 f i libcpmt:mutex.obj
 0001:00009396       ?try_lock@stl_critical_section_concrt@details@Concurrency@@UAE_NXZ 1000a396 f i libcpmt:mutex.obj
 0001:0000939e       ?try_lock@stl_critical_section_vista@details@Concurrency@@UAE_NXZ 1000a39e f i libcpmt:mutex.obj
 0001:000093af       ?try_lock@stl_critical_section_win7@details@Concurrency@@UAE_NXZ 1000a3af f i libcpmt:mutex.obj
 0001:000093c3       ?try_lock_for@stl_critical_section_concrt@details@Concurrency@@UAE_NI@Z 1000a3c3 f i libcpmt:mutex.obj
 0001:000093cf       ?try_lock_for@stl_critical_section_vista@details@Concurrency@@UAE_NI@Z 1000a3cf f i libcpmt:mutex.obj
 0001:000093e2       ?try_lock_for@stl_critical_section_win7@details@Concurrency@@UAE_NI@Z 1000a3e2 f i libcpmt:mutex.obj
 0001:000093ea       ?unlock@stl_critical_section_concrt@details@Concurrency@@UAEXXZ 1000a3ea f i libcpmt:mutex.obj
 0001:000093f2       ?unlock@stl_critical_section_vista@details@Concurrency@@UAEXXZ 1000a3f2 f i libcpmt:mutex.obj
 0001:000093fd       ?unlock@stl_critical_section_win7@details@Concurrency@@UAEXXZ 1000a3fd f i libcpmt:mutex.obj
 0001:00009408       __Mtx_clear_owner          1000a408 f   libcpmt:mutex.obj
 0001:00009417       __Mtx_destroy              1000a417 f   libcpmt:mutex.obj
 0001:00009431       __Mtx_destroy_in_situ      1000a431 f   libcpmt:mutex.obj
 0001:0000944f       __Mtx_getconcrtcs          1000a44f f   libcpmt:mutex.obj
 0001:0000945a       __Mtx_init                 1000a45a f   libcpmt:mutex.obj
 0001:0000948c       __Mtx_init_in_situ         1000a48c f   libcpmt:mutex.obj
 0001:000094ad       __Mtx_lock                 1000a4ad f   libcpmt:mutex.obj
 0001:000094be       __Mtx_reset_owner          1000a4be f   libcpmt:mutex.obj
 0001:000094d2       __Mtx_unlock               1000a4d2 f   libcpmt:mutex.obj
 0001:000094fc       __Cnd_do_broadcast_at_thread_exit 1000a4fc f   libcpmt:xnotify.obj
 0001:000095a8       __Thrd_current             1000a5a8 f   libcpmt:cthread.obj
 0001:000095f4       __Thrd_detach              1000a5f4 f   libcpmt:cthread.obj
 0001:0000960c       __Thrd_equal               1000a60c f   libcpmt:cthread.obj
 0001:0000961c       __Thrd_start               1000a61c f   libcpmt:cthread.obj
 0001:00009649       __Xtime_diff_to_millis2    1000a649 f   libcpmt:xtime.obj
 0001:0000968b       __Xtime_get_ticks          1000a68b f   libcpmt:xtime.obj
 0001:00009751       _xtime_get                 1000a751 f   libcpmt:xtime.obj
 0001:00009b42       ___crtAcquireSRWLockExclusive 1000ab42 f   libcpmt:winapisupp.obj
 0001:00009b61       ___crtCloseThreadpoolTimer 1000ab61 f   libcpmt:winapisupp.obj
 0001:00009b82       ___crtCloseThreadpoolWait  1000ab82 f   libcpmt:winapisupp.obj
 0001:00009ba3       ___crtCreateEventExW       1000aba3 f   libcpmt:winapisupp.obj
 0001:00009be8       ___crtCreateSemaphoreExW   1000abe8 f   libcpmt:winapisupp.obj
 0001:00009c3e       ___crtCreateThreadpoolTimer 1000ac3e f   libcpmt:winapisupp.obj
 0001:00009c69       ___crtCreateThreadpoolWait 1000ac69 f   libcpmt:winapisupp.obj
 0001:00009c94       ___crtFlushProcessWriteBuffers 1000ac94 f   libcpmt:winapisupp.obj
 0001:00009cae       ___crtFreeLibraryWhenCallbackReturns 1000acae f   libcpmt:winapisupp.obj
 0001:00009cd2       ___crtGetCurrentProcessorNumber 1000acd2 f   libcpmt:winapisupp.obj
 0001:00009cf0       ___crtGetSystemTimePreciseAsFileTime 1000acf0 f   libcpmt:winapisupp.obj
 0001:00009d19       ___crtGetTickCount64       1000ad19 f   libcpmt:winapisupp.obj
 0001:00009d3d       ___crtInitializeConditionVariable 1000ad3d f   libcpmt:winapisupp.obj
 0001:00009d5c       ___crtInitializeCriticalSectionEx 1000ad5c f   libcpmt:winapisupp.obj
 0001:00009d94       ___crtInitializeSRWLock    1000ad94 f   libcpmt:winapisupp.obj
 0001:00009db3       ___crtReleaseSRWLockExclusive 1000adb3 f   libcpmt:winapisupp.obj
 0001:00009dd2       ___crtSetThreadpoolTimer   1000add2 f   libcpmt:winapisupp.obj
 0001:00009dfc       ___crtSetThreadpoolWait    1000adfc f   libcpmt:winapisupp.obj
 0001:00009e23       ___crtSleepConditionVariableCS 1000ae23 f   libcpmt:winapisupp.obj
 0001:00009e48       ___crtSleepConditionVariableSRW 1000ae48 f   libcpmt:winapisupp.obj
 0001:00009e70       ___crtTryAcquireSRWLockExclusive 1000ae70 f   libcpmt:winapisupp.obj
 0001:00009e8f       ___crtWaitForThreadpoolTimerCallbacks 1000ae8f f   libcpmt:winapisupp.obj
 0001:00009eb3       ___crtWakeAllConditionVariable 1000aeb3 f   libcpmt:winapisupp.obj
 0001:00009ed2       ___crtWakeConditionVariable 1000aed2 f   libcpmt:winapisupp.obj
 0001:00009ef1       ?_Syserror_map@std@@YAPBDH@Z 1000aef1 f   libcpmt:syserror.obj
 0001:00009f16       ??0_Init_locks@std@@QAE@XZ 1000af16 f   libcpmt:xlock.obj
 0001:00009f43       ??1_Init_locks@std@@QAE@XZ 1000af43 f   libcpmt:xlock.obj
 0001:00009f6a       __Lock_at_thread_exit_mutex 1000af6a f   libcpmt:xlock.obj
 0001:00009f76       __Unlock_at_thread_exit_mutex 1000af76 f   libcpmt:xlock.obj
 0001:00009f82       __Mtxdst                   1000af82 f   libcpmt:xmtx.obj
 0001:00009f90       __Mtxinit                  1000af90 f   libcpmt:xmtx.obj
 0001:00009fa7       __Mtxlock                  1000afa7 f   libcpmt:xmtx.obj
 0001:00009fb5       __Mtxunlock                1000afb5 f   libcpmt:xmtx.obj
 0001:00009fc3       ??_V@YAXPAX@Z              1000afc3 f   LIBCMT:delete_array.obj
 0001:00009fc8       ??_U@YAPAXI@Z              1000afc8 f   LIBCMT:new_array.obj
 0001:00009fd1       ??2@YAPAXI@Z               1000afd1 f   LIBCMT:new_scalar.obj
 0001:0000a004       ??3@YAXPAX@Z               1000b004 f   LIBCMT:delete_scalar.obj
 0001:0000a0e5       __Init_thread_abort        1000b0e5 f   LIBCMT:thread_safe_statics.obj
 0001:0000a0fe       __Init_thread_footer       1000b0fe f   LIBCMT:thread_safe_statics.obj
 0001:0000a13d       __Init_thread_header       1000b13d f   LIBCMT:thread_safe_statics.obj
 0001:0000a183       __Init_thread_lock         1000b183 f   LIBCMT:thread_safe_statics.obj
 0001:0000a18f       __Init_thread_notify       1000b18f f   LIBCMT:thread_safe_statics.obj
 0001:0000a1d0       __Init_thread_unlock       1000b1d0 f   LIBCMT:thread_safe_statics.obj
 0001:0000a1dc       __Init_thread_wait         1000b1dc f   LIBCMT:thread_safe_statics.obj
 0001:0000a285       ___scrt_acquire_startup_lock 1000b285 f   LIBCMT:utility.obj
 0001:0000a2ba       ___scrt_dllmain_after_initialize_c 1000b2ba f   LIBCMT:utility.obj
 0001:0000a2e5       ___scrt_dllmain_before_initialize_c 1000b2e5 f   LIBCMT:utility.obj
 0001:0000a2f3       ___scrt_dllmain_crt_thread_attach 1000b2f3 f   LIBCMT:utility.obj
 0001:0000a312       ___scrt_dllmain_crt_thread_detach 1000b312 f   LIBCMT:utility.obj
 0001:0000a31f       ___scrt_dllmain_exception_filter 1000b31f f   LIBCMT:utility.obj
 0001:0000a352       ___scrt_dllmain_uninitialize_c 1000b352 f   LIBCMT:utility.obj
 0001:0000a375       ___scrt_dllmain_uninitialize_critical 1000b375 f   LIBCMT:utility.obj
 0001:0000a382       ___scrt_initialize_crt     1000b382 f   LIBCMT:utility.obj
 0001:0000a3bb       ___scrt_initialize_onexit_tables 1000b3bb f   LIBCMT:utility.obj
 0001:0000a452       ___scrt_is_nonwritable_in_current_image 1000b452 f   LIBCMT:utility.obj
 0001:0000a4dc       ___scrt_release_startup_lock 1000b4dc f   LIBCMT:utility.obj
 0001:0000a4f9       ___scrt_uninitialize_crt   1000b4f9 f   LIBCMT:utility.obj
 0001:0000a521       __onexit                   1000b521 f   LIBCMT:utility.obj
 0001:0000a55c       _atexit                    1000b55c f   LIBCMT:utility.obj
 0001:0000a571       ??3@YAXPAXI@Z              1000b571 f   LIBCMT:delete_scalar_size.obj
 0001:0000a57f       ??_Etype_info@@UAEPAXI@Z   1000b57f f i LIBCMT:std_type_info_static.obj
 0001:0000a57f       ??_Gtype_info@@UAEPAXI@Z   1000b57f f i LIBCMT:std_type_info_static.obj
 0001:0000a5a2       ??_M@YGXPAXIIP6EX0@Z@Z     1000b5a2 f   LIBCMT:ehvecdtr.obj
 0001:0000a61c       ?__ArrayUnwind@@YGXPAXIIP6EX0@Z@Z 1000b61c f   LIBCMT:ehvecdtr.obj
 0001:0000a689       ??_L@YGXPAXIIP6EX0@Z1@Z    1000b689 f   LIBCMT:ehvecctr.obj
 0001:0000a9fa       __DllMainCRTStartup@12     1000b9fa f   LIBCMT:dll_dllmain.obj
 0001:0000aa1d       ??_V@YAXPAXI@Z             1000ba1d f   LIBCMT:delete_array_size.obj
 0001:0000aa2b       @__security_check_cookie@4 1000ba2b f   LIBCMT:_secchk_.obj
 0001:0000aa3c       @_guard_check_icall@4      1000ba3c f i LIBCMT:checkcfg.obj
 0001:0000aa42       __EH_epilog3               1000ba42 f   LIBCMT:ehprolg3.obj
 0001:0000aa57       __EH_epilog3_GS            1000ba57 f   LIBCMT:ehprolg3.obj
 0001:0000aa68       __EH_prolog3               1000ba68 f   LIBCMT:ehprolg3.obj
 0001:0000aa9c       __EH_prolog3_GS            1000ba9c f   LIBCMT:ehprolg3.obj
 0001:0000aad3       __EH_prolog3_catch         1000bad3 f   LIBCMT:ehprolg3.obj
 0001:0000ab10       __aulldvrm                 1000bb10 f   LIBCMT:ulldvrm.obj
 0001:0000aba5       ??0bad_array_new_length@std@@QAE@ABV01@@Z 1000bba5 f i LIBCMT:throw_bad_alloc.obj
 0001:0000abc0       ??0bad_array_new_length@std@@QAE@XZ 1000bbc0 f i LIBCMT:throw_bad_alloc.obj
 0001:0000abd8       ?__scrt_throw_std_bad_array_new_length@@YAXXZ 1000bbd8 f   LIBCMT:throw_bad_alloc.obj
 0001:0000abf5       ___scrt_fastfail           1000bbf5 f   LIBCMT:utility_desktop.obj
 0001:0000ad10       __crt_debugger_hook        1000bd10 f   LIBCMT:utility_desktop.obj
 0001:0000ad18       ___isa_available_init      1000bd18 f   LIBCMT:_cpu_disp_.obj
 0001:0000aebc       ?GetContextKind@ThreadInternalContext@details@Concurrency@@UBE?AW4ContextKind@ContextBase@23@XZ 1000bebc f   libconcrt:ThreadScheduler.obj
 0001:0000aebc       __get_startup_argv_mode    1000bebc f   LIBCMT:argv_mode.obj
 0001:0000aec0       ___scrt_is_ucrt_dll_in_use 1000bec0 f   LIBCMT:ucrt_detection.obj
 0001:0000aed0       __SEH_prolog4              1000bed0 f   LIBCMT:_sehprolg4_.obj
 0001:0000af16       __SEH_epilog4              1000bf16 f   LIBCMT:_sehprolg4_.obj
 0001:0000af2b       ___security_init_cookie    1000bf2b f   LIBCMT:gs_support.obj
 0001:0000afc7       ?__scrt_initialize_type_info@@YAXXZ 1000bfc7 f   LIBCMT:tncleanup.obj
 0001:0000afd3       ?__scrt_uninitialize_type_info@@YAXXZ 1000bfd3 f   LIBCMT:tncleanup.obj
 0001:0000afdf       ___local_stdio_scanf_options 1000bfdf f i LIBCMT:default_local_stdio_options.obj
 0001:0000afe5       ___scrt_initialize_default_local_stdio_options 1000bfe5 f   LIBCMT:default_local_stdio_options.obj
 0001:0000b002       ___scrt_get_dyn_tls_init_callback 1000c002 f   LIBCMT:dyn_tls_init.obj
 0001:0000b008       __RTC_Initialize           1000c008 f   LIBCMT:_initsect_.obj
 0001:0000b033       __RTC_Terminate            1000c033 f   LIBCMT:_initsect_.obj
 0001:0000b05e       ___raise_securityfailure   1000c05e f   LIBCMT:gs_report.obj
 0001:0000b086       ___report_gsfailure        1000c086 f   LIBCMT:gs_report.obj
 0001:0000b181       ??0MultiWaitBlock@details@Concurrency@@QAE@I_N0@Z 1000c181 f i libconcrt:event.obj
 0001:0000b1c1       ??0MultiWaitBlockHolder@details@Concurrency@@QAE@_NI00@Z 1000c1c1 f   libconcrt:event.obj
 0001:0000b277       ??0TimedSingleWaitBlock@details@Concurrency@@QAE@_N@Z 1000c277 f i libconcrt:event.obj
 0001:0000b2a6       ??0WaitAnyBlock@details@Concurrency@@QAE@I_N0@Z 1000c2a6 f i libconcrt:event.obj
 0001:0000b2ce       ??0WaitBlock@details@Concurrency@@QAE@XZ 1000c2ce f i libconcrt:event.obj
 0001:0000b2ee       ??0_Condition_variable@details@Concurrency@@QAE@XZ 1000c2ee f   libconcrt:event.obj
 0001:0000b30d       ??0event@Concurrency@@QAE@XZ 1000c30d f   libconcrt:event.obj
 0001:0000b330       ??1?$_MallocaArrayHolder@PAVContext@Concurrency@@@details@Concurrency@@UAE@XZ 1000c330 f i libconcrt:event.obj
 0001:0000b340       ??1MultiWaitBlockHolder@details@Concurrency@@QAE@XZ 1000c340 f   libconcrt:event.obj
 0001:0000b35a       ??1_Condition_variable@details@Concurrency@@QAE@XZ 1000c35a f   libconcrt:event.obj
 0001:0000b3a8       ??1event@Concurrency@@QAE@XZ 1000c3a8 f   libconcrt:event.obj
 0001:0000b42c       ??_G?$_MallocaArrayHolder@PAVContext@Concurrency@@@details@Concurrency@@UAEPAXI@Z 1000c42c f i libconcrt:event.obj
 0001:0000b42c       ??_E?$_MallocaArrayHolder@PAVContext@Concurrency@@@details@Concurrency@@UAEPAXI@Z 1000c42c f i libconcrt:event.obj
 0001:0000b458       ?Destroy@EventWaitNode@details@Concurrency@@QAEXXZ 1000c458 f i libconcrt:event.obj
 0001:0000b470       ?Destroy@SingleWaitBlock@details@Concurrency@@UAEXXZ 1000c470 f   libconcrt:event.obj
 0001:0000b470       ?SweepResetNode@WaitAnyBlock@details@Concurrency@@UAE_NXZ 1000c470 f   libconcrt:event.obj
 0001:0000b470       ?SweepResetNode@SingleWaitBlock@details@Concurrency@@UAE_NXZ 1000c470 f   libconcrt:event.obj
 0001:0000b470       ?Reset@SingleWaitBlock@details@Concurrency@@UAE_NXZ 1000c470 f   libconcrt:event.obj
 0001:0000b470       ?Reset@WaitAnyBlock@details@Concurrency@@UAE_NXZ 1000c470 f   libconcrt:event.obj
 0001:0000b471       ?Destroy@TimedSingleWaitBlock@details@Concurrency@@UAEXXZ 1000c471 f   libconcrt:event.obj
 0001:0000b48a       ?Destroy@WaitAllBlock@details@Concurrency@@UAEXXZ 1000c48a f   libconcrt:event.obj
 0001:0000b48f       ?DispatchEventTimer@MultiWaitBlock@details@Concurrency@@SGXPAU_TP_CALLBACK_INSTANCE@@PAXPAU_TP_TIMER@@@Z 1000c48f f   libconcrt:event.obj
 0001:0000b4ee       ?DispatchEventTimer@TimedSingleWaitBlock@details@Concurrency@@SGXPAU_TP_CALLBACK_INSTANCE@@PAXPAU_TP_TIMER@@@Z 1000c4ee f   libconcrt:event.obj
 0001:0000b520       ?DispatchEventTimerXP@MultiWaitBlock@details@Concurrency@@SGXPAXE@Z 1000c520 f   libconcrt:event.obj
 0001:0000b577       ?DispatchEventTimerXP@TimedSingleWaitBlock@details@Concurrency@@SGXPAXE@Z 1000c577 f   libconcrt:event.obj
 0001:0000b598       ?GetSharedTimerQueue@details@Concurrency@@YAPAXXZ 1000c598 f   libconcrt:event.obj
 0001:0000b62e       ?NotifyCompletedNode@MultiWaitBlock@details@Concurrency@@QAEXXZ 1000c62e f   libconcrt:event.obj
 0001:0000b647       ?Reset@WaitAllBlock@details@Concurrency@@UAE_NXZ 1000c647 f   libconcrt:event.obj
 0001:0000b680       ?Satisfy@EventWaitNode@details@Concurrency@@QAE_NPAPAVContext@3@@Z 1000c680 f i libconcrt:event.obj
 0001:0000b6a1       ?Satisfy@SingleWaitBlock@details@Concurrency@@UAE_NPAPAVContext@3@PAVEventWaitNode@23@@Z 1000c6a1 f   libconcrt:event.obj
 0001:0000b6fd       ?Satisfy@TimedSingleWaitBlock@details@Concurrency@@UAE_NPAPAVContext@3@PAVEventWaitNode@23@@Z 1000c6fd f   libconcrt:event.obj
 0001:0000b758       ?Satisfy@WaitAllBlock@details@Concurrency@@UAE_NPAPAVContext@3@PAVEventWaitNode@23@@Z 1000c758 f   libconcrt:event.obj
 0001:0000b79e       ?Satisfy@WaitAnyBlock@details@Concurrency@@UAE_NPAPAVContext@3@PAVEventWaitNode@23@@Z 1000c79e f   libconcrt:event.obj
 0001:0000b7e0       ?Set@StructuredEvent@details@Concurrency@@QAEXXZ 1000c7e0 f   libconcrt:event.obj
 0001:0000b827       ?SingleSatisfy@MultiWaitBlock@details@Concurrency@@MAEXPAPAVContext@3@PAVEventWaitNode@23@@Z 1000c827 f   libconcrt:event.obj
 0001:0000b8d6       ?Sweep@details@Concurrency@@YAPAVEventWaitNode@12@PAV312@_N@Z 1000c8d6 f   libconcrt:event.obj
 0001:0000b910       ?SweepResetNode@EventWaitNode@details@Concurrency@@QAE_NXZ 1000c910 f i libconcrt:event.obj
 0001:0000b928       ?SweepResetNode@WaitAllBlock@details@Concurrency@@UAE_NXZ 1000c928 f   libconcrt:event.obj
 0001:0000b95a       ?SweepWaitNode@EventWaitNode@details@Concurrency@@QAE_NXZ 1000c95a f i libconcrt:event.obj
 0001:0000b972       ?SweepWaitNode@TimedSingleWaitBlock@details@Concurrency@@UAE_NXZ 1000c972 f   libconcrt:event.obj
 0001:0000b995       ?SweepWaitNode@WaitAllBlock@details@Concurrency@@UAE_NXZ 1000c995 f   libconcrt:event.obj
 0001:0000b9d8       ?SweepWaitNode@WaitAnyBlock@details@Concurrency@@UAE_NXZ 1000c9d8 f   libconcrt:event.obj
 0001:0000ba0f       ?_SetSpinCount@?$_SpinWait@$00@details@Concurrency@@QAEXI@Z 1000ca0f f i libconcrt:event.obj
 0001:0000ba31       ?_SetSpinCount@?$_SpinWait@$0A@@details@Concurrency@@QAEXI@Z 1000ca31 f i libconcrt:event.obj
 0001:0000ba55       ?_SpinOnce@?$_SpinWait@$00@details@Concurrency@@QAE_NXZ 1000ca55 f i libconcrt:event.obj
 0001:0000badc       ?_SpinOnce@?$_SpinWait@$0A@@details@Concurrency@@QAE_NXZ 1000cadc f i libconcrt:event.obj
 0001:0000bb53       ?createTimer@TimedSingleWaitBlock@details@Concurrency@@QAE_NI@Z 1000cb53 f i libconcrt:event.obj
 0001:0000bbb6       ?destroyTimer@TimedSingleWaitBlock@details@Concurrency@@QAEX_N@Z 1000cbb6 f i libconcrt:event.obj
 0001:0000bc03       ?notify_all@_Condition_variable@details@Concurrency@@QAEXXZ 1000cc03 f   libconcrt:event.obj
 0001:0000bc6f       ?notify_one@_Condition_variable@details@Concurrency@@QAEXXZ 1000cc6f f   libconcrt:event.obj
 0001:0000bcf2       ?set@event@Concurrency@@QAEXXZ 1000ccf2 f   libconcrt:event.obj
 0001:0000be23       ?wait@_Condition_variable@details@Concurrency@@QAEXAAVcritical_section@3@@Z 1000ce23 f   libconcrt:event.obj
 0001:0000be87       ?wait@event@Concurrency@@QAEII@Z 1000ce87 f   libconcrt:event.obj
 0001:0000bf63       ?wait_for@_Condition_variable@details@Concurrency@@QAE_NAAVcritical_section@3@I@Z 1000cf63 f   libconcrt:event.obj
 0001:0000c049       ?wait_for_multiple@event@Concurrency@@SAIPAPAV12@I_NI@Z 1000d049 f   libconcrt:event.obj
 0001:0000c307       __freea                    1000d307 f i libconcrt:event.obj
 0001:0000c325       ??0LockQueueNode@details@Concurrency@@QAE@I@Z 1000d325 f i libconcrt:rtlocks.obj
 0001:0000c3cb       ??0_ReentrantBlockingLock@details@Concurrency@@QAE@XZ 1000d3cb f   libconcrt:rtlocks.obj
 0001:0000c3cb       ??0_NonReentrantBlockingLock@details@Concurrency@@QAE@XZ 1000d3cb f   libconcrt:rtlocks.obj
 0001:0000c3e0       ??0_ReaderWriterLock@details@Concurrency@@QAE@XZ 1000d3e0 f   libconcrt:rtlocks.obj
 0001:0000c3f0       ??0critical_section@Concurrency@@QAE@XZ 1000d3f0 f   libconcrt:rtlocks.obj
 0001:0000c41a       ??0improper_lock@Concurrency@@QAE@ABV01@@Z 1000d41a f i libconcrt:rtlocks.obj
 0001:0000c435       ??0scoped_lock@critical_section@Concurrency@@QAE@AAV12@@Z 1000d435 f   libconcrt:rtlocks.obj
 0001:0000c47a       ??1_ReentrantBlockingLock@details@Concurrency@@QAE@XZ 1000d47a f   libconcrt:rtlocks.obj
 0001:0000c47a       ??1_NonReentrantBlockingLock@details@Concurrency@@QAE@XZ 1000d47a f   libconcrt:rtlocks.obj
 0001:0000c482       ??1scoped_lock@critical_section@Concurrency@@QAE@XZ 1000d482 f   libconcrt:rtlocks.obj
 0001:0000c4ba       ??_Ebad_typeid@std@@UAEPAXI@Z 1000d4ba f i libvcruntime:rtti.obj
 0001:0000c4ba       ??_Einvalid_operation@Concurrency@@UAEPAXI@Z 1000d4ba f i libconcrt:ResourceManager.obj
 0001:0000c4ba       ??_Gruntime_error@std@@UAEPAXI@Z 1000d4ba f i libcpmt:xthrow.obj
 0001:0000c4ba       ??_Gbad_typeid@std@@UAEPAXI@Z 1000d4ba f i libvcruntime:rtti.obj
 0001:0000c4ba       ??_Glength_error@std@@UAEPAXI@Z 1000d4ba f i libcpmt:xthrow.obj
 0001:0000c4ba       ??_Ginvalid_operation@Concurrency@@UAEPAXI@Z 1000d4ba f i libconcrt:ResourceManager.obj
 0001:0000c4ba       ??_Einvalid_oversubscribe_operation@Concurrency@@UAEPAXI@Z 1000d4ba f i libconcrt:Exceptions.obj
 0001:0000c4ba       ??_Gexception@std@@UAEPAXI@Z 1000d4ba f i libcpmt:xthrow.obj
 0001:0000c4ba       ??_Eout_of_range@std@@UAEPAXI@Z 1000d4ba f i libcpmt:xthrow.obj
 0001:0000c4ba       ??_E__non_rtti_object@std@@UAEPAXI@Z 1000d4ba f i libvcruntime:rtti.obj
 0001:0000c4ba       ??_Ginvalid_argument@std@@UAEPAXI@Z 1000d4ba f i libcpmt:xthrow.obj
 0001:0000c4ba       ??_Einvalid_scheduler_policy_thread_specification@Concurrency@@UAEPAXI@Z 1000d4ba f i libconcrt:Exceptions.obj
 0001:0000c4ba       ??_Ebad_cast@std@@UAEPAXI@Z 1000d4ba f i libvcruntime:rtti.obj
 0001:0000c4ba       ??_Emissing_wait@Concurrency@@UAEPAXI@Z 1000d4ba f i libconcrt:Exceptions.obj
 0001:0000c4ba       ??_Glogic_error@std@@UAEPAXI@Z 1000d4ba f i libcpmt:xthrow.obj
 0001:0000c4ba       ??_Ebad_alloc@std@@UAEPAXI@Z 1000d4ba f i libcpmt:xthrow.obj
 0001:0000c4ba       ??_Einvalid_scheduler_policy_key@Concurrency@@UAEPAXI@Z 1000d4ba f i libconcrt:Exceptions.obj
 0001:0000c4ba       ??_Gbad_cast@std@@UAEPAXI@Z 1000d4ba f i libvcruntime:rtti.obj
 0001:0000c4ba       ??_Ginvalid_scheduler_policy_key@Concurrency@@UAEPAXI@Z 1000d4ba f i libconcrt:Exceptions.obj
 0001:0000c4ba       ??_Gout_of_range@std@@UAEPAXI@Z 1000d4ba f i libcpmt:xthrow.obj
 0001:0000c4ba       ??_Eimproper_scheduler_reference@Concurrency@@UAEPAXI@Z 1000d4ba f i libconcrt:SchedulerBase.obj
 0001:0000c4ba       ??_Gbad_alloc@std@@UAEPAXI@Z 1000d4ba f i libcpmt:xthrow.obj
 0001:0000c4ba       ??_Ginvalid_oversubscribe_operation@Concurrency@@UAEPAXI@Z 1000d4ba f i libconcrt:Exceptions.obj
 0001:0000c4ba       ??_Ginvalid_scheduler_policy_thread_specification@Concurrency@@UAEPAXI@Z 1000d4ba f i libconcrt:Exceptions.obj
 0001:0000c4ba       ??_Eexception@std@@UAEPAXI@Z 1000d4ba f i libcpmt:xthrow.obj
 0001:0000c4ba       ??_Enested_scheduler_missing_detach@Concurrency@@UAEPAXI@Z 1000d4ba f i libconcrt:Exceptions.obj
 0001:0000c4ba       ??_Econtext_self_unblock@Concurrency@@UAEPAXI@Z 1000d4ba f i libconcrt:Exceptions.obj
 0001:0000c4ba       ??_Gcontext_unblock_unbalanced@Concurrency@@UAEPAXI@Z 1000d4ba f i libconcrt:Exceptions.obj
 0001:0000c4ba       ??_G_Interruption_exception@details@Concurrency@@UAEPAXI@Z 1000d4ba f i libconcrt:TaskCollection.obj
 0001:0000c4ba       ??_Einvalid_scheduler_policy_value@Concurrency@@UAEPAXI@Z 1000d4ba f i libconcrt:Exceptions.obj
 0001:0000c4ba       ??_Gnested_scheduler_missing_detach@Concurrency@@UAEPAXI@Z 1000d4ba f i libconcrt:Exceptions.obj
 0001:0000c4ba       ??_G__non_rtti_object@std@@UAEPAXI@Z 1000d4ba f i libvcruntime:rtti.obj
 0001:0000c4ba       ??_Gimproper_scheduler_attach@Concurrency@@UAEPAXI@Z 1000d4ba f i libconcrt:SchedulerBase.obj
 0001:0000c4ba       ??_Eunsupported_os@Concurrency@@UAEPAXI@Z 1000d4ba f i libconcrt:ResourceManager.obj
 0001:0000c4ba       ??_Gunsupported_os@Concurrency@@UAEPAXI@Z 1000d4ba f i libconcrt:ResourceManager.obj
 0001:0000c4ba       ??_Gmissing_wait@Concurrency@@UAEPAXI@Z 1000d4ba f i libconcrt:Exceptions.obj
 0001:0000c4ba       ??_Eimproper_lock@Concurrency@@UAEPAXI@Z 1000d4ba f i libconcrt:rtlocks.obj
 0001:0000c4ba       ??_Elength_error@std@@UAEPAXI@Z 1000d4ba f i libcpmt:xthrow.obj
 0001:0000c4ba       ??_Gbad_exception@std@@UAEPAXI@Z 1000d4ba f i libvcruntime:frame.obj
 0001:0000c4ba       ??_Gimproper_lock@Concurrency@@UAEPAXI@Z 1000d4ba f i libconcrt:rtlocks.obj
 0001:0000c4ba       ??_Einvalid_argument@std@@UAEPAXI@Z 1000d4ba f i libcpmt:xthrow.obj
 0001:0000c4ba       ??_E_Interruption_exception@details@Concurrency@@UAEPAXI@Z 1000d4ba f i libconcrt:TaskCollection.obj
 0001:0000c4ba       ??_Gcontext_self_unblock@Concurrency@@UAEPAXI@Z 1000d4ba f i libconcrt:Exceptions.obj
 0001:0000c4ba       ??_Elogic_error@std@@UAEPAXI@Z 1000d4ba f i libcpmt:xthrow.obj
 0001:0000c4ba       ??_Econtext_unblock_unbalanced@Concurrency@@UAEPAXI@Z 1000d4ba f i libconcrt:Exceptions.obj
 0001:0000c4ba       ??_Ebad_exception@std@@UAEPAXI@Z 1000d4ba f i libvcruntime:frame.obj
 0001:0000c4ba       ??_Ginvalid_scheduler_policy_value@Concurrency@@UAEPAXI@Z 1000d4ba f i libconcrt:Exceptions.obj
 0001:0000c4ba       ??_Eruntime_error@std@@UAEPAXI@Z 1000d4ba f i libcpmt:xthrow.obj
 0001:0000c4ba       ??_Gbad_array_new_length@std@@UAEPAXI@Z 1000d4ba f i LIBCMT:throw_bad_alloc.obj
 0001:0000c4ba       ??_Ebad_array_new_length@std@@UAEPAXI@Z 1000d4ba f i LIBCMT:throw_bad_alloc.obj
 0001:0000c4ba       ??_Eimproper_scheduler_attach@Concurrency@@UAEPAXI@Z 1000d4ba f i libconcrt:SchedulerBase.obj
 0001:0000c4ba       ??_Gimproper_scheduler_reference@Concurrency@@UAEPAXI@Z 1000d4ba f i libconcrt:SchedulerBase.obj
 0001:0000c4e7       ?Block@LockQueueNode@details@Concurrency@@QAEXI@Z 1000d4e7 f i libconcrt:rtlocks.obj
 0001:0000c56f       ?CurrentContext@SchedulerBase@details@Concurrency@@SAPAVContextBase@23@XZ 1000d56f f i libconcrt:rtlocks.obj
 0001:0000c591       ?DerefTimerNode@LockQueueNode@details@Concurrency@@QAEXXZ 1000d591 f i libconcrt:rtlocks.obj
 0001:0000c5b0       ?DispatchNodeTimeoutTimer@LockQueueNode@details@Concurrency@@SGXPAU_TP_CALLBACK_INSTANCE@@PAXPAU_TP_TIMER@@@Z 1000d5b0 f i libconcrt:rtlocks.obj
 0001:0000c5f6       ?DispatchNodeTimeoutTimerXP@LockQueueNode@details@Concurrency@@SGXPAXE@Z 1000d5f6 f i libconcrt:rtlocks.obj
 0001:0000c642       ?TryCompensateTimer@LockQueueNode@details@Concurrency@@QAEXXZ 1000d642 f i libconcrt:rtlocks.obj
 0001:0000c667       ?Unblock@LockQueueNode@details@Concurrency@@QAE_NXZ 1000d667 f i libconcrt:rtlocks.obj
 0001:0000c698       ?UpdateQueuePosition@LockQueueNode@details@Concurrency@@QAEXPAV123@@Z 1000d698 f i libconcrt:rtlocks.obj
 0001:0000c701       ?WaitForNextNode@LockQueueNode@details@Concurrency@@QAEPAV123@XZ 1000d701 f i libconcrt:rtlocks.obj
 0001:0000c72e       ?_Acquire@_ReentrantBlockingLock@details@Concurrency@@QAEXXZ 1000d72e f   libconcrt:rtlocks.obj
 0001:0000c72e       ?_Acquire@_NonReentrantBlockingLock@details@Concurrency@@QAEXXZ 1000d72e f   libconcrt:rtlocks.obj
 0001:0000c736       ?_AcquireRead@_ReaderWriterLock@details@Concurrency@@QAEXXZ 1000d736 f   libconcrt:rtlocks.obj
 0001:0000c766       ?_AcquireWrite@_ReaderWriterLock@details@Concurrency@@QAEXXZ 1000d766 f   libconcrt:rtlocks.obj
 0001:0000c794       ?_Acquire_lock@critical_section@Concurrency@@QAE_NPAX_N@Z 1000d794 f   libconcrt:rtlocks.obj
 0001:0000c835       ?_FlushWriteOwners@_ReaderWriterLock@details@Concurrency@@QAEXXZ 1000d835 f   libconcrt:rtlocks.obj
 0001:0000c84b       ?_Flush_current_owner@critical_section@Concurrency@@QAEXXZ 1000d84b f   libconcrt:rtlocks.obj
 0001:0000c863       ?_Initialize@_SpinCount@details@Concurrency@@SAXXZ 1000d863 f   libconcrt:rtlocks.obj
 0001:0000c87a       ?_Release@_ReentrantBlockingLock@details@Concurrency@@QAEXXZ 1000d87a f   libconcrt:rtlocks.obj
 0001:0000c87a       ?_Release@_NonReentrantBlockingLock@details@Concurrency@@QAEXXZ 1000d87a f   libconcrt:rtlocks.obj
 0001:0000c882       ?_ReleaseRead@_ReaderWriterLock@details@Concurrency@@QAEXXZ 1000d882 f   libconcrt:rtlocks.obj
 0001:0000c886       ?_ReleaseWrite@_ReaderWriterLock@details@Concurrency@@QAEXXZ 1000d886 f   libconcrt:rtlocks.obj
 0001:0000c891       ?_Switch_to_active@critical_section@Concurrency@@AAEXPAX@Z 1000d891 f   libconcrt:rtlocks.obj
 0001:0000c8e0       ?_TryAcquireWrite@_ReaderWriterLock@details@Concurrency@@QAE_NXZ 1000d8e0 f   libconcrt:rtlocks.obj
 0001:0000c8f7       ?_Value@_SpinCount@details@Concurrency@@SAIXZ 1000d8f7 f   libconcrt:rtlocks.obj
 0001:0000c8fd       ?_WaitEquals@_ReaderWriterLock@details@Concurrency@@CAXADJJJ@Z 1000d8fd f   libconcrt:rtlocks.obj
 0001:0000c936       ?lock@critical_section@Concurrency@@QAEXXZ 1000d936 f   libconcrt:rtlocks.obj
 0001:0000c966       ?try_lock@critical_section@Concurrency@@QAE_NXZ 1000d966 f   libconcrt:rtlocks.obj
 0001:0000c9b3       ?try_lock_for@critical_section@Concurrency@@QAE_NI@Z 1000d9b3 f   libconcrt:rtlocks.obj
 0001:0000ca11       ?unlock@critical_section@Concurrency@@QAEXXZ 1000da11 f   libconcrt:rtlocks.obj
 0001:0000ca82       ??0scheduler_resource_allocation_error@Concurrency@@QAE@ABV01@@Z 1000da82 f i libconcrt:Platform.obj
 0001:0000caa6       ??1DefaultWaiterPool@platform@details@Concurrency@@QAE@XZ 1000daa6 f i libconcrt:Platform.obj
 0001:0000cacb       ??1WaiterThreadPool@platform@details@Concurrency@@QAE@XZ 1000dacb f i libconcrt:Platform.obj
 0001:0000caed       ??1nested_scheduler_missing_detach@Concurrency@@UAE@XZ 1000daed f i libconcrt:Exceptions.obj
 0001:0000caed       ??1invalid_scheduler_policy_thread_specification@Concurrency@@UAE@XZ 1000daed f i libconcrt:Exceptions.obj
 0001:0000caed       ??1improper_lock@Concurrency@@UAE@XZ 1000daed f i libconcrt:rtlocks.obj
 0001:0000caed       ??1scheduler_resource_allocation_error@Concurrency@@UAE@XZ 1000daed f i libconcrt:Platform.obj
 0001:0000caed       ??1bad_exception@std@@UAE@XZ 1000daed f i libvcruntime:frame.obj
 0001:0000caed       ??1context_unblock_unbalanced@Concurrency@@UAE@XZ 1000daed f i libconcrt:Exceptions.obj
 0001:0000caed       ??1invalid_operation@Concurrency@@UAE@XZ 1000daed f i libconcrt:ResourceManager.obj
 0001:0000caed       ??1_Interruption_exception@details@Concurrency@@UAE@XZ 1000daed f i libconcrt:TaskCollection.obj
 0001:0000caed       ??1unsupported_os@Concurrency@@UAE@XZ 1000daed f i libconcrt:ResourceManager.obj
 0001:0000caed       ??1improper_scheduler_reference@Concurrency@@UAE@XZ 1000daed f i libconcrt:SchedulerBase.obj
 0001:0000caed       ??1out_of_range@std@@UAE@XZ 1000daed f i libcpmt:xthrow.obj
 0001:0000caed       ??1invalid_scheduler_policy_key@Concurrency@@UAE@XZ 1000daed f i libconcrt:Exceptions.obj
 0001:0000caed       ??1length_error@std@@UAE@XZ 1000daed f i libcpmt:xthrow.obj
 0001:0000caed       ??1scheduler_worker_creation_error@Concurrency@@UAE@XZ 1000daed f i libconcrt:Exceptions.obj
 0001:0000caed       ??1bad_cast@std@@UAE@XZ    1000daed f i libvcruntime:rtti.obj
 0001:0000caed       ??1system_error@std@@UAE@XZ 1000daed f i libcpmt:thread0.obj
 0001:0000caed       ??1improper_scheduler_attach@Concurrency@@UAE@XZ 1000daed f i libconcrt:SchedulerBase.obj
 0001:0000caed       ??1invalid_scheduler_policy_value@Concurrency@@UAE@XZ 1000daed f i libconcrt:Exceptions.obj
 0001:0000caed       ??1bad_array_new_length@std@@UAE@XZ 1000daed f i LIBCMT:throw_bad_alloc.obj
 0001:0000caed       ??1__non_rtti_object@std@@UAE@XZ 1000daed f i libvcruntime:rtti.obj
 0001:0000caed       ??1invalid_oversubscribe_operation@Concurrency@@UAE@XZ 1000daed f i libconcrt:Exceptions.obj
 0001:0000caed       ??1invalid_argument@std@@UAE@XZ 1000daed f i libcpmt:xthrow.obj
 0001:0000caed       ??1bad_alloc@std@@UAE@XZ   1000daed f i libcpmt:xthrow.obj
 0001:0000caed       ??1context_self_unblock@Concurrency@@UAE@XZ 1000daed f i libconcrt:Exceptions.obj
 0001:0000caed       ??1missing_wait@Concurrency@@UAE@XZ 1000daed f i libconcrt:Exceptions.obj
 0001:0000cafe       ?InitializeSystemFunctionPointers@platform@details@Concurrency@@YAXXZ 1000dafe f   libconcrt:Platform.obj
 0001:0000cbb1       ?__ChangeTimerQueueTimer@platform@details@Concurrency@@YAHPAX0KK@Z 1000dbb1 f   libconcrt:Platform.obj
 0001:0000cbc8       ?__CloseThreadHandle@platform@details@Concurrency@@YAXPAX@Z 1000dbc8 f   libconcrt:Platform.obj
 0001:0000cbd6       ?__CreateAutoResetEvent@platform@details@Concurrency@@YAPAX_N@Z 1000dbd6 f   libconcrt:Platform.obj
 0001:0000cc2d       ?__CreateThread@platform@details@Concurrency@@YAPAXPAU_SECURITY_ATTRIBUTES@@IP6GKPAX@Z1KPAK@Z 1000dc2d f   libconcrt:Platform.obj
 0001:0000cc4a       ?__CreateTimerQueueTimer@platform@details@Concurrency@@YAHPAPAXPAXP6GX1E@Z1KKK@Z 1000dc4a f   libconcrt:Platform.obj
 0001:0000cc6a       ?__DeleteTimerQueueTimer@platform@details@Concurrency@@YAXPAX00@Z 1000dc6a f   libconcrt:Platform.obj
 0001:0000cc99       ?__GetCurrentProcessorNumberEx@platform@details@Concurrency@@YAXPAU_PROCESSOR_NUMBER@@@Z 1000dc99 f   libconcrt:Platform.obj
 0001:0000ccba       ?__GetLogicalProcessorInformation@platform@details@Concurrency@@YAPAU_SYSTEM_LOGICAL_PROCESSOR_INFORMATION@@PAK@Z 1000dcba f   libconcrt:Platform.obj
 0001:0000cd45       ?__GetLogicalProcessorInformationEx@platform@details@Concurrency@@YAPAU_SYSTEM_LOGICAL_PROCESSOR_INFORMATION_EX@@W4_LOGICAL_PROCESSOR_RELATIONSHIP@@PAK@Z 1000dd45 f   libconcrt:Platform.obj
 0001:0000cdfb       ?__GetNumaHighestNodeNumber@platform@details@Concurrency@@YAKXZ 1000ddfb f   libconcrt:Platform.obj
 0001:0000ce42       ?__GetThreadGroupAffinity@platform@details@Concurrency@@YAHPAXPAU_GROUP_AFFINITY@@@Z 1000de42 f   libconcrt:Platform.obj
 0001:0000ce9c       ?__GetThreadPriority@platform@details@Concurrency@@YAHPAX@Z 1000de9c f   libconcrt:Platform.obj
 0001:0000ceaa       ?__GetTickCount64@platform@details@Concurrency@@YA_KXZ 1000deaa f   libconcrt:Platform.obj
 0001:0000ceaf       ?__InitializeCriticalSectionEx@platform@details@Concurrency@@YAHPAU_RTL_CRITICAL_SECTION@@K@Z 1000deaf f   libconcrt:Platform.obj
 0001:0000cec4       ?__RegisterWaitForSingleObject@platform@details@Concurrency@@YAPAXPAXP6GX0E@Z0@Z 1000dec4 f   libconcrt:Platform.obj
 0001:0000cf18       ?__SetThreadGroupAffinity@platform@details@Concurrency@@YAHPAXPBU_GROUP_AFFINITY@@@Z 1000df18 f   libconcrt:Platform.obj
 0001:0000cf5b       ?__SetThreadPriority@platform@details@Concurrency@@YAXPAXH@Z 1000df5b f   libconcrt:Platform.obj
 0001:0000cfa1       ?__SignalObjectAndWait@platform@details@Concurrency@@YAKPAX0KH@Z 1000dfa1 f   libconcrt:Platform.obj
 0001:0000cfb8       ?__Sleep@platform@details@Concurrency@@YAXK@Z 1000dfb8 f   libconcrt:Platform.obj
 0001:0000cfc6       ?__SwitchToThread@platform@details@Concurrency@@YAXXZ 1000dfc6 f   libconcrt:Platform.obj
 0001:0000cfcd       ?__TlsAlloc@platform@details@Concurrency@@YAKXZ 1000dfcd f   libconcrt:Platform.obj
 0001:0000d00e       ?__TlsFree@platform@details@Concurrency@@YAXK@Z 1000e00e f   libconcrt:Platform.obj
 0001:0000d01c       ?__TlsGetValue@platform@details@Concurrency@@YAPAXK@Z 1000e01c f   libconcrt:Platform.obj
 0001:0000d02a       ?__TlsSetValue@platform@details@Concurrency@@YAXKPAX@Z 1000e02a f   libconcrt:Platform.obj
 0001:0000d070       ?__UnregisterWait@platform@details@Concurrency@@YAXPAX@Z 1000e070 f   libconcrt:Platform.obj
 0001:0000d07e       ?__WaitForThread@platform@details@Concurrency@@YAKPAXK@Z 1000e07e f   libconcrt:Platform.obj
 0001:0000d091       ?notify@WaiterThread@platform@details@Concurrency@@AAEX_N@Z 1000e091 f i libconcrt:Platform.obj
 0001:0000d0c5       __concrt_static_cleanup    1000e0c5 f   libconcrt:utils.obj
 0001:0000d0d3       ?DeleteAsyncTimerAndUnloadLibrary@details@Concurrency@@YAXPAU_TP_TIMER@@@Z 1000e0d3 f   libconcrt:utils.obj
 0001:0000d10f       ?DecodePointer@Security@details@Concurrency@@SAPAXPAX@Z 1000e10f f   libconcrt:utils.obj
 0001:0000d10f       ?EncodePointer@Security@details@Concurrency@@SAPAXPAX@Z 1000e10f f   libconcrt:utils.obj
 0001:0000d11c       ?FreeLibraryAndDestroyThread@details@Concurrency@@YAXK@Z 1000e11c f   libconcrt:utils.obj
 0001:0000d146       ?InitializeCookie@Security@details@Concurrency@@SAKXZ 1000e146 f   libconcrt:utils.obj
 0001:0000d194       ?LoadLibraryAndCreateThread@details@Concurrency@@YAPAXPAU_SECURITY_ATTRIBUTES@@KP6GKPAX@Z1KPAK@Z 1000e194 f   libconcrt:utils.obj
 0001:0000d1da       ?ReferenceLoadLibrary@details@Concurrency@@YAXXZ 1000e1da f   libconcrt:utils.obj
 0001:0000d270       ?RegisterAsyncTimerAndLoadLibrary@details@Concurrency@@YAPAU_TP_TIMER@@KP6GXPAU_TP_CALLBACK_INSTANCE@@PAXPAU3@@Z1_N@Z 1000e270 f   libconcrt:utils.obj
 0001:0000d2d1       ?RegisterAsyncWaitAndLoadLibrary@details@Concurrency@@YAPAU_TP_WAIT@@PAXP6GXPAU_TP_CALLBACK_INSTANCE@@0PAU3@K@Z0@Z 1000e2d1 f   libconcrt:utils.obj
 0001:0000d30a       ?UnRegisterAsyncTimerAndUnloadLibrary@details@Concurrency@@YAXPAU_TP_CALLBACK_INSTANCE@@PAU_TP_TIMER@@@Z 1000e30a f   libconcrt:utils.obj
 0001:0000d340       ?UnRegisterAsyncWaitAndUnloadLibrary@details@Concurrency@@YAXPAU_TP_CALLBACK_INSTANCE@@PAU_TP_WAIT@@@Z 1000e340 f   libconcrt:utils.obj
 0001:0000d375       ?_Acquire@_HyperNonReentrantLock@details@Concurrency@@QAEXXZ 1000e375 f   libconcrt:utils.obj
 0001:0000d375       ?_Acquire@_CriticalNonReentrantLock@details@Concurrency@@QAEXXZ 1000e375 f   libconcrt:utils.obj
 0001:0000d385       ?_Acquire@_NonReentrantLock@details@Concurrency@@QAEXXZ 1000e385 f i libconcrt:utils.obj
 0001:0000d3b8       ?_Release@_CriticalNonReentrantLock@details@Concurrency@@QAEXXZ 1000e3b8 f   libconcrt:utils.obj
 0001:0000d3b8       ?_Release@_HyperNonReentrantLock@details@Concurrency@@QAEXXZ 1000e3b8 f   libconcrt:utils.obj
 0001:0000d3c3       ?_Sleep0@details@Concurrency@@YAXXZ 1000e3c3 f   libconcrt:utils.obj
 0001:0000d3cc       ?_TryAcquire@_CriticalNonReentrantLock@details@Concurrency@@QAE_NXZ 1000e3cc f   libconcrt:utils.obj
 0001:0000d3ec       ?_TryAcquire@_NonReentrantLock@details@Concurrency@@QAE_NXZ 1000e3ec f i libconcrt:utils.obj
 0001:0000d401       ?_UnderlyingYield@details@Concurrency@@YAXXZ 1000e401 f   libconcrt:utils.obj
 0001:0000d427       ?Block@Context@Concurrency@@SAXXZ 1000e427 f   libconcrt:Context.obj
 0001:0000d443       ?CurrentContext@Context@Concurrency@@SAPAV12@XZ 1000e443 f   libconcrt:Context.obj
 0001:0000d448       ??0HardwareAffinity@details@Concurrency@@QAE@PAX@Z 1000e448 f   libconcrt:ResourceManager.obj
 0001:0000d469       ??0ResourceManager@details@Concurrency@@AAE@XZ 1000e469 f   libconcrt:ResourceManager.obj
 0001:0000d54c       ??0SchedulerCore@details@Concurrency@@QAE@XZ 1000e54c f i libconcrt:ResourceManager.obj
 0001:0000d557       ??0invalid_operation@Concurrency@@QAE@ABV01@@Z 1000e557 f i libconcrt:ResourceManager.obj
 0001:0000d572       ??0invalid_operation@Concurrency@@QAE@XZ 1000e572 f i libconcrt:ResourceManager.obj
 0001:0000d583       ??0unsupported_os@Concurrency@@QAE@ABV01@@Z 1000e583 f i libconcrt:ResourceManager.obj
 0001:0000d59e       ??1GlobalNode@details@Concurrency@@QAE@XZ 1000e59e f i libconcrt:ResourceManager.obj
 0001:0000d5ab       ??1ResourceManager@details@Concurrency@@AAE@XZ 1000e5ab f   libconcrt:ResourceManager.obj
 0001:0000d680       ??1_Scoped_lock@_NonReentrantBlockingLock@details@Concurrency@@QAE@XZ 1000e680 f i libconcrt:ResourceManager.obj
 0001:0000d680       ??1_Scoped_lock@_ReentrantBlockingLock@details@Concurrency@@QAE@XZ 1000e680 f i libconcrt:SchedulerProxy.obj
 0001:0000d6b8       ??1_Scoped_lock@_NonReentrantLock@details@Concurrency@@QAE@XZ 1000e6b8 f i libconcrt:ResourceManager.obj
 0001:0000d6c1       ??_EGlobalNode@details@Concurrency@@QAEPAXI@Z 1000e6c1 f i libconcrt:ResourceManager.obj
 0001:0000d749       ??_GAffinityRestriction@ResourceManager@details@Concurrency@@QAEPAXI@Z 1000e749 f i libconcrt:ResourceManager.obj
 0001:0000d772       ?AddTail@?$List@VSchedulerProxy@details@Concurrency@@VCount@CollectionTypes@23@@details@Concurrency@@QAEXPAVSchedulerProxy@23@@Z 1000e772 f i libconcrt:ResourceManager.obj
 0001:0000d7ab       ?AdjustDynamicAllocation@ResourceManager@details@Concurrency@@AAEIIII@Z 1000e7ab f   libconcrt:ResourceManager.obj
 0001:0000d87d       ?ApplyAffinityLimits@AffinityRestriction@ResourceManager@details@Concurrency@@QAEXPAU_GROUP_AFFINITY@@@Z 1000e87d f i libconcrt:ResourceManager.obj
 0001:0000d8a0       ?ApplyAffinityRestrictions@ResourceManager@details@Concurrency@@CAXPAK@Z 1000e8a0 f   libconcrt:ResourceManager.obj
 0001:0000d8d1       ?ApplyAffinityRestrictions@ResourceManager@details@Concurrency@@CAXPAU_GROUP_AFFINITY@@@Z 1000e8d1 f   libconcrt:ResourceManager.obj
 0001:0000d8f8       ?ApplyTo@HardwareAffinity@details@Concurrency@@QAEXPAX@Z 1000e8f8 f   libconcrt:ResourceManager.obj
 0001:0000d90a       ?CaptureProcessAffinity@ResourceManager@details@Concurrency@@CAXXZ 1000e90a f   libconcrt:ResourceManager.obj
 0001:0000da2a       ?CleanupTopologyInformation@ResourceManager@details@Concurrency@@CAXXZ 1000ea2a f   libconcrt:ResourceManager.obj
 0001:0000da45       ?CommitStolenCores@ResourceManager@details@Concurrency@@AAEXPAVSchedulerProxy@23@@Z 1000ea45 f   libconcrt:ResourceManager.obj
 0001:0000db54       ?ComputeDesiredHWThreadsWithExternalThread@SchedulerProxy@details@Concurrency@@QBEIXZ 1000eb54 f i libconcrt:ResourceManager.obj
 0001:0000db77       ?ComputeMinHWThreadsWithExternalThread@SchedulerProxy@details@Concurrency@@QBEIXZ 1000eb77 f i libconcrt:ResourceManager.obj
 0001:0000dba4       ?CreateAllocatedNodeData@ResourceManager@details@Concurrency@@QAEPAUSchedulerNode@23@XZ 1000eba4 f   libconcrt:ResourceManager.obj
 0001:0000dcdb       ?CreateDynamicRMWorker@ResourceManager@details@Concurrency@@AAEXXZ 1000ecdb f   libconcrt:ResourceManager.obj
 0001:0000dd3e       ?CreateNodeTopology@ResourceManager@details@Concurrency@@UAEXIPAIPAPAI0@Z 1000ed3e f   libconcrt:ResourceManager.obj
 0001:0000dd41       ?CreateResourceManager@Concurrency@@YAPAUIResourceManager@1@XZ 1000ed41 f   libconcrt:ResourceManager.obj
 0001:0000dd46       ?CreateSchedulerProxy@ResourceManager@details@Concurrency@@AAEPAVSchedulerProxy@23@PAUIScheduler@3@@Z 1000ed46 f   libconcrt:ResourceManager.obj
 0001:0000dda7       ?CreateSingleton@ResourceManager@details@Concurrency@@SAPAV123@XZ 1000eda7 f   libconcrt:ResourceManager.obj
 0001:0000de3a       ?CurrentSubscriptionLevel@ResourceManager@details@Concurrency@@QAEIII@Z 1000ee3a f   libconcrt:ResourceManager.obj
 0001:0000dea4       ?DesiredHWThreads@SchedulerProxy@details@Concurrency@@QBEIXZ 1000eea4 f i libconcrt:ResourceManager.obj
 0001:0000debd       ?DestroyAllocatedNodeData@ResourceManager@details@Concurrency@@QAEXPAUSchedulerNode@23@@Z 1000eebd f   libconcrt:ResourceManager.obj
 0001:0000def9       ?DetermineTopology@ResourceManager@details@Concurrency@@AAEXXZ 1000eef9 f   libconcrt:ResourceManager.obj
 0001:0000e20c       ?DiscardExistingSchedulerStatistics@ResourceManager@details@Concurrency@@AAEXXZ 1000f20c f   libconcrt:ResourceManager.obj
 0001:0000e278       ?DistributeCoresToSurvivingScheduler@ResourceManager@details@Concurrency@@AAE_NXZ 1000f278 f   libconcrt:ResourceManager.obj
 0001:0000e41d       ?DistributeExclusiveCores@ResourceManager@details@Concurrency@@AAEXIIIII@Z 1000f41d f   libconcrt:ResourceManager.obj
 0001:0000e55f       ?DistributeIdleCores@ResourceManager@details@Concurrency@@AAEXII@Z 1000f55f f   libconcrt:ResourceManager.obj
 0001:0000e6e5       ?DoCoreMigration@ResourceManager@details@Concurrency@@AAEXXZ 1000f6e5 f   libconcrt:ResourceManager.obj
 0001:0000e949       ?DynamicAssignCores@ResourceManager@details@Concurrency@@AAEXPAVSchedulerProxy@23@II_N@Z 1000f949 f   libconcrt:ResourceManager.obj
 0001:0000e9b8       ?DynamicMigrateCores@ResourceManager@details@Concurrency@@AAEXPAUDynamicAllocationData@23@PAVSchedulerProxy@23@II@Z 1000f9b8 f   libconcrt:ResourceManager.obj
 0001:0000eb23       ?DynamicRMThreadProc@ResourceManager@details@Concurrency@@CGKPAX@Z 1000fb23 f   libconcrt:ResourceManager.obj
 0001:0000eb3c       ?DynamicResourceManager@ResourceManager@details@Concurrency@@AAEXXZ 1000fb3c f   libconcrt:ResourceManager.obj
 0001:0000ec3c       ?FindBestFitExclusiveAllocation@ResourceManager@details@Concurrency@@AAEIAAI0PAUDynamicAllocationData@23@II@Z 1000fc3c f   libconcrt:ResourceManager.obj
 0001:0000ef80       ?FindBestFitIdleAllocation@ResourceManager@details@Concurrency@@AAEIIPAUDynamicAllocationData@23@I@Z 1000ff80 f   libconcrt:ResourceManager.obj
 0001:0000f08e       ?FindCoreForPartiallyFilledNode@ResourceManager@details@Concurrency@@AAE_NAAI0PAUDynamicAllocationData@23@I@Z 1001008e f   libconcrt:ResourceManager.obj
 0001:0000f199       ?FindGroupAffinity@AffinityRestriction@ResourceManager@details@Concurrency@@QAEPAUHardwareAffinity@34@G@Z 10010199 f i libconcrt:ResourceManager.obj
 0001:0000f1d0       ?FlushStoreBuffers@ResourceManager@details@Concurrency@@QAEXXZ 100101d0 f   libconcrt:ResourceManager.obj
 0001:0000f202       ?GetCoreCount@ResourceManager@details@Concurrency@@SAIXZ 10010202 f   libconcrt:ResourceManager.obj
 0001:0000f24d       ?GetCurrentNodeAndCore@ResourceManager@details@Concurrency@@QAEIPAI@Z 1001024d f   libconcrt:ResourceManager.obj
 0001:0000f35d       ?GetFirstExecutionResource@TopologyObject@GlobalNode@details@Concurrency@@UBEPAUITopologyExecutionResource@4@XZ 1001035d f i libconcrt:ResourceManager.obj
 0001:0000f367       ?GetFirstNode@ResourceManager@details@Concurrency@@UBEPAUITopologyNode@3@XZ 10010367 f i libconcrt:ResourceManager.obj
 0001:0000f36e       ?GetExecutionResourceCount@TopologyObject@GlobalNode@details@Concurrency@@UBEIXZ 1001036e f i libconcrt:ResourceManager.obj
 0001:0000f36e       ?GetId@TopologyObject@GlobalCore@details@Concurrency@@UBEIXZ 1001036e f i libconcrt:ResourceManager.obj
 0001:0000f375       ?GetId@TopologyObject@GlobalNode@details@Concurrency@@UBEIXZ 10010375 f i libconcrt:ResourceManager.obj
 0001:0000f37c       ?GetNext@TopologyObject@GlobalCore@details@Concurrency@@UBEPAUITopologyExecutionResource@4@XZ 1001037c f   libconcrt:ResourceManager.obj
 0001:0000f393       ?GetNext@TopologyObject@GlobalNode@details@Concurrency@@UBEPAUITopologyNode@4@XZ 10010393 f   libconcrt:ResourceManager.obj
 0001:0000f3aa       ?GetNextGlobalCore@GlobalNode@details@Concurrency@@QAEPAUGlobalCore@23@PBU423@@Z 100103aa f i libconcrt:ResourceManager.obj
 0001:0000f3cf       ?GetNextGlobalNode@ResourceManager@details@Concurrency@@QAEPAUGlobalNode@23@PBU423@@Z 100103cf f i libconcrt:ResourceManager.obj
 0001:0000f3f4       ?GetNodeCount@ResourceManager@details@Concurrency@@SAIXZ 100103f4 f   libconcrt:ResourceManager.obj
 0001:0000f43f       ?GetNumaNode@TopologyObject@GlobalNode@details@Concurrency@@UBEKXZ 1001043f f i libconcrt:ResourceManager.obj
 0001:0000f446       ?GetOSVersion@Concurrency@@YA?AW4OSVersion@IResourceManager@1@XZ 10010446 f   libconcrt:ResourceManager.obj
 0001:0000f44b       ?GetProcessorCount@Concurrency@@YAIXZ 1001044b f   libconcrt:ResourceManager.obj
 0001:0000f450       ?GetProcessorNodeCount@Concurrency@@YAIXZ 10010450 f   libconcrt:ResourceManager.obj
 0001:0000f455       ?GetSchedulerId@Concurrency@@YAIXZ 10010455 f   libconcrt:ResourceManager.obj
 0001:0000f462       ?GetTopologyInformation@ResourceManager@details@Concurrency@@CAXW4_LOGICAL_PROCESSOR_RELATIONSHIP@@@Z 10010462 f   libconcrt:ResourceManager.obj
 0001:0000f48b       ?HandleBorrowedCores@ResourceManager@details@Concurrency@@AAEXPAVSchedulerProxy@23@PAUAllocationData@23@@Z 1001048b f   libconcrt:ResourceManager.obj
 0001:0000f5a6       ?HandleSharedCores@ResourceManager@details@Concurrency@@AAEXPAVSchedulerProxy@23@PAUDynamicAllocationData@23@@Z 100105a6 f   libconcrt:ResourceManager.obj
 0001:0000f6fd       ?IncreaseFullyLoadedSchedulerAllocations@ResourceManager@details@Concurrency@@AAEXXZ 100106fd f   libconcrt:ResourceManager.obj
 0001:0000f733       ?Initialize@GlobalCore@details@Concurrency@@QAEXPAUGlobalNode@23@IE@Z 10010733 f i libconcrt:ResourceManager.obj
 0001:0000f772       ?Initialize@GlobalNode@details@Concurrency@@QAEXPAVResourceManager@23@GGKII@Z 10010772 f i libconcrt:ResourceManager.obj
 0001:0000f88f       ?InitializeRMBuffers@ResourceManager@details@Concurrency@@AAEXXZ 1001088f f   libconcrt:ResourceManager.obj
 0001:0000f951       ?InitializeSystemInformation@ResourceManager@details@Concurrency@@CAX_N@Z 10010951 f   libconcrt:ResourceManager.obj
 0001:0000fb89       ?MinVprocHWThreads@SchedulerProxy@details@Concurrency@@QBEIXZ 10010b89 f i libconcrt:ResourceManager.obj
 0001:0000fba2       ?PerformAllocation@ResourceManager@details@Concurrency@@QAEPAVExecutionResource@23@PAVSchedulerProxy@23@_N1@Z 10010ba2 f   libconcrt:ResourceManager.obj
 0001:0000fcfa       ?PopulateCommonAllocationData@ResourceManager@details@Concurrency@@AAEXIPAVSchedulerProxy@23@PAUAllocationData@23@@Z 10010cfa f   libconcrt:ResourceManager.obj
 0001:0000fdc2       ?PopulateDynamicAllocationData@ResourceManager@details@Concurrency@@AAEXXZ 10010dc2 f   libconcrt:ResourceManager.obj
 0001:0000feea       ?PreProcessDynamicAllocationData@ResourceManager@details@Concurrency@@AAEXXZ 10010eea f   libconcrt:ResourceManager.obj
 0001:0000ffbd       ?PreProcessStaticAllocationData@ResourceManager@details@Concurrency@@AAEXXZ 10010fbd f   libconcrt:ResourceManager.obj
 0001:0000ffec       ?PrepareReceiversForCoreTransfer@ResourceManager@details@Concurrency@@AAEII@Z 10010fec f   libconcrt:ResourceManager.obj
 0001:000101fb       ?RedistributeCoresAmongAll@ResourceManager@details@Concurrency@@AAEIPAVSchedulerProxy@23@III@Z 100111fb f   libconcrt:ResourceManager.obj
 0001:000105d1       ?Reference@ResourceManager@details@Concurrency@@UAEIXZ 100115d1 f   libconcrt:ResourceManager.obj
 0001:000105db       ?RegisterScheduler@ResourceManager@details@Concurrency@@UAEPAUISchedulerProxy@3@PAUIScheduler@3@I@Z 100115db f   libconcrt:ResourceManager.obj
 0001:00010621       ?Release@ResourceManager@details@Concurrency@@UAEIXZ 10011621 f   libconcrt:ResourceManager.obj
 0001:000106cc       ?ReleaseCoresOnExistingSchedulers@ResourceManager@details@Concurrency@@AAEIPAVSchedulerProxy@23@II@Z 100116cc f   libconcrt:ResourceManager.obj
 0001:00010723       ?ReleaseSchedulerResources@ResourceManager@details@Concurrency@@AAE_NPAVSchedulerProxy@23@0I@Z 10011723 f   libconcrt:ResourceManager.obj
 0001:0001081b       ?Remove@?$List@VSchedulerProxy@details@Concurrency@@VCount@CollectionTypes@23@@details@Concurrency@@QAEXPAVSchedulerProxy@23@@Z 1001181b f i libconcrt:ResourceManager.obj
 0001:00010851       ?RemoveExecutionResource@ResourceManager@details@Concurrency@@QAEXPAVExecutionResource@23@@Z 10011851 f   libconcrt:ResourceManager.obj
 0001:000108c8       ?RequestInitialVirtualProcessors@ResourceManager@details@Concurrency@@QAEPAUIExecutionResource@3@PAVSchedulerProxy@23@_N@Z 100118c8 f   libconcrt:ResourceManager.obj
 0001:000109dd       ?ReserveAtHigherUseCounts@ResourceManager@details@Concurrency@@AAEIPAVSchedulerProxy@23@I@Z 100119dd f   libconcrt:ResourceManager.obj
 0001:00010a13       ?ReserveCores@ResourceManager@details@Concurrency@@AAEIPAVSchedulerProxy@23@II@Z 10011a13 f   libconcrt:ResourceManager.obj
 0001:00010be9       ?ResetGlobalAllocationData@ResourceManager@details@Concurrency@@AAEXXZ 10011be9 f   libconcrt:ResourceManager.obj
 0001:00010c42       ?RetrieveSystemVersionInformation@ResourceManager@details@Concurrency@@CAXXZ 10011c42 f   libconcrt:ResourceManager.obj
 0001:00010d32       ?RoundUpScaledAllocations@ResourceManager@details@Concurrency@@CAXPAPAUAllocationData@23@II@Z 10011d32 f   libconcrt:ResourceManager.obj
 0001:00010ef3       ?SafeReference@ResourceManager@details@Concurrency@@AAE_NXZ 10011ef3 f   libconcrt:ResourceManager.obj
 0001:00010f12       ?SendResourceNotifications@ResourceManager@details@Concurrency@@QAEXPAVSchedulerProxy@23@@Z 10011f12 f   libconcrt:ResourceManager.obj
 0001:000110e3       ?SetupStaticAllocationData@ResourceManager@details@Concurrency@@AAEXPAVSchedulerProxy@23@_N@Z 100120e3 f   libconcrt:ResourceManager.obj
 0001:000111b4       ?Shutdown@ResourceManager@details@Concurrency@@QAEXPAVSchedulerProxy@23@@Z 100121b4 f   libconcrt:ResourceManager.obj
 0001:00011287       ?SubscribeCurrentThread@ResourceManager@details@Concurrency@@QAEPAVExecutionResource@23@PAVSchedulerProxy@23@@Z 10012287 f   libconcrt:ResourceManager.obj
 0001:000112db       ?ToggleRMIdleState@ResourceManager@details@Concurrency@@AAEXPAUSchedulerNode@23@PAUSchedulerCore@23@PAUGlobalNode@23@PAUGlobalCore@23@PAUAllocationData@23@@Z 100122db f   libconcrt:ResourceManager.obj
 0001:00011348       ?Version@ResourceManager@details@Concurrency@@SA?AW4OSVersion@IResourceManager@3@XZ 10012348 f   libconcrt:ResourceManager.obj
 0001:00011391       ??$_InternalDeleteHelper@VExternalContextBase@details@Concurrency@@@details@Concurrency@@YAXPAVExternalContextBase@01@@Z 10012391 f i libconcrt:SchedulerBase.obj
 0001:000113b3       ??$_InternalDeleteHelper@VInternalContextBase@details@Concurrency@@@details@Concurrency@@YAXPAVInternalContextBase@01@@Z 100123b3 f i libconcrt:SchedulerBase.obj
 0001:000113d7       ??$_InternalDeleteHelper@VScheduleGroupBase@details@Concurrency@@@details@Concurrency@@YAXPAVScheduleGroupBase@01@@Z 100123d7 f i libconcrt:SchedulerBase.obj
 0001:000113f9       ??0CacheLocalScheduleGroupSegment@details@Concurrency@@QAE@PAVScheduleGroupBase@12@PAVSchedulingRing@12@PAVlocation@2@@Z 100123f9 f i libconcrt:SchedulerBase.obj
 0001:00011433       ??0FairScheduleGroupSegment@details@Concurrency@@QAE@PAVScheduleGroupBase@12@PAVSchedulingRing@12@PAVlocation@2@@Z 10012433 f i libconcrt:SchedulerBase.obj
 0001:0001146d       ??0NumaInformation@SchedulerBase@details@Concurrency@@QAE@XZ 1001246d f i libconcrt:SchedulerBase.obj
 0001:00011487       ??0QuickBitSet@details@Concurrency@@QAE@I@Z 10012487 f i libconcrt:SchedulerBase.obj
 0001:000114cd       ??0SchedulerBase@details@Concurrency@@QAE@ABVSchedulerPolicy@2@@Z 100124cd f   libconcrt:SchedulerBase.obj
 0001:000117e9       ??0improper_scheduler_attach@Concurrency@@QAE@ABV01@@Z 100127e9 f i libconcrt:SchedulerBase.obj
 0001:00011804       ??0improper_scheduler_reference@Concurrency@@QAE@ABV01@@Z 10012804 f i libconcrt:SchedulerBase.obj
 0001:0001181f       ??1?$Hash@PAV_TaskCollection@details@Concurrency@@PAV123@@details@Concurrency@@QAE@XZ 1001281f f i libconcrt:ContextBase.obj
 0001:0001181f       ??1?$Hash@II@details@Concurrency@@QAE@XZ 1001281f f i libconcrt:SchedulerBase.obj
 0001:00011832       ??1?$ListArray@VExternalStatistics@details@Concurrency@@@details@Concurrency@@QAE@XZ 10012832 f i libconcrt:SchedulerBase.obj
 0001:000118ac       ??1?$ListArray@VScheduleGroupBase@details@Concurrency@@@details@Concurrency@@QAE@XZ 100128ac f i libconcrt:SchedulerBase.obj
 0001:00011923       ??1NumaInformation@SchedulerBase@details@Concurrency@@QAE@XZ 10012923 f i libconcrt:SchedulerBase.obj
 0001:0001193a       ??1QuickBitSet@details@Concurrency@@QAE@XZ 1001293a f i libconcrt:SchedulerBase.obj
 0001:00011944       ??1ReferenceCountedQuickBitSet@details@Concurrency@@QAE@XZ 10012944 f i libconcrt:SchedulerBase.obj
 0001:0001195b       ??1ScheduleGroup@Concurrency@@MAE@XZ 1001295b f i libconcrt:SchedulerBase.obj
 0001:00011962       ??1Scheduler@Concurrency@@MAE@XZ 10012962 f i libconcrt:SchedulerBase.obj
 0001:00011969       ??1SchedulerBase@details@Concurrency@@UAE@XZ 10012969 f   libconcrt:SchedulerBase.obj
 0001:00011a24       ??1_Scoped_lock@_HyperNonReentrantLock@details@Concurrency@@QAE@XZ 10012a24 f i libconcrt:SchedulerBase.obj
 0001:00011a24       ??1_Scoped_lock@_CriticalNonReentrantLock@details@Concurrency@@QAE@XZ 10012a24 f i libconcrt:ContextBase.obj
 0001:00011a5c       ??_ENumaInformation@SchedulerBase@details@Concurrency@@QAEPAXI@Z 10012a5c f i libconcrt:SchedulerBase.obj
 0001:00011adf       ??_EFairScheduleGroup@details@Concurrency@@UAEPAXI@Z 10012adf f i libconcrt:SchedulerBase.obj
 0001:00011adf       ??_GFairScheduleGroup@details@Concurrency@@UAEPAXI@Z 10012adf f i libconcrt:SchedulerBase.obj
 0001:00011b02       ??_GCacheLocalScheduleGroupSegment@details@Concurrency@@UAEPAXI@Z 10012b02 f i libconcrt:SchedulerBase.obj
 0001:00011b02       ??_ECacheLocalScheduleGroupSegment@details@Concurrency@@UAEPAXI@Z 10012b02 f i libconcrt:SchedulerBase.obj
 0001:00011b02       ??_EFairScheduleGroupSegment@details@Concurrency@@UAEPAXI@Z 10012b02 f i libconcrt:SchedulerBase.obj
 0001:00011b02       ??_GFairScheduleGroupSegment@details@Concurrency@@UAEPAXI@Z 10012b02 f i libconcrt:SchedulerBase.obj
 0001:00011b27       ??_GRealizedChore@details@Concurrency@@UAEPAXI@Z 10012b27 f i libconcrt:SchedulerBase.obj
 0001:00011b27       ??_ERealizedChore@details@Concurrency@@UAEPAXI@Z 10012b27 f i libconcrt:SchedulerBase.obj
 0001:00011b4a       ??_GScheduleGroup@Concurrency@@MAEPAXI@Z 10012b4a f i libconcrt:SchedulerBase.obj
 0001:00011b4a       ??_EScheduleGroup@Concurrency@@MAEPAXI@Z 10012b4a f i libconcrt:SchedulerBase.obj
 0001:00011b6d       ??_GScheduler@Concurrency@@MAEPAXI@Z 10012b6d f i libconcrt:SchedulerBase.obj
 0001:00011b6d       ??_EScheduler@Concurrency@@MAEPAXI@Z 10012b6d f i libconcrt:SchedulerBase.obj
 0001:00011b90       ??_ESchedulerBase@details@Concurrency@@UAEPAXI@Z 10012b90 f i libconcrt:SchedulerBase.obj
 0001:00011b90       ??_GSchedulerBase@details@Concurrency@@UAEPAXI@Z 10012b90 f i libconcrt:SchedulerBase.obj
 0001:00011bb5       ??_GSubAllocator@details@Concurrency@@QAEPAXI@Z 10012bb5 f i libconcrt:SchedulerBase.obj
 0001:00011c17       ??_G_Chore@details@Concurrency@@MAEPAXI@Z 10012c17 f i libconcrt:SchedulerBase.obj
 0001:00011c17       ??_E_Chore@details@Concurrency@@MAEPAXI@Z 10012c17 f i libconcrt:SchedulerBase.obj
 0001:00011c3a       ?Add@?$ListArray@VScheduleGroupBase@details@Concurrency@@@details@Concurrency@@QAEHPAVScheduleGroupBase@23@@Z 10012c3a f i libconcrt:SchedulerBase.obj
 0001:00011d9d       ?AddContext@SchedulerBase@details@Concurrency@@QAEXPAVInternalContextBase@23@@Z 10012d9d f   libconcrt:SchedulerBase.obj
 0001:00011dd0       ?AddHead@?$List@UBoostedObject@details@Concurrency@@VNoCount@CollectionTypes@23@@details@Concurrency@@QAEXPAUBoostedObject@23@@Z 10012dd0 f i libconcrt:SchedulerBase.obj
 0001:00011e09       ?AddTail@?$List@VWaitNode@SchedulerBase@details@Concurrency@@VNoCount@CollectionTypes@34@@details@Concurrency@@QAEXPAVWaitNode@SchedulerBase@23@@Z 10012e09 f i libconcrt:SchedulerBase.obj
 0001:00011e36       ?AddTail@?$SafeRWList@VWaitNode@SchedulerBase@details@Concurrency@@VNoCount@CollectionTypes@34@V_ReaderWriterLock@34@@details@Concurrency@@QAEXPAVWaitNode@SchedulerBase@23@@Z 10012e36 f i libconcrt:SchedulerBase.obj
 0001:00011e6a       ?AddVirtualProcessors@SchedulerBase@details@Concurrency@@IAEXPAPAUIVirtualProcessorRoot@3@I@Z 10012e6a f   libconcrt:SchedulerBase.obj
 0001:00011f23       ?AllocateSegment@CacheLocalScheduleGroup@details@Concurrency@@MAEPAVScheduleGroupSegmentBase@23@PAVSchedulingRing@23@PAVlocation@3@@Z 10012f23 f i libconcrt:SchedulerBase.obj
 0001:00011f5e       ?AllocateSegment@FairScheduleGroup@details@Concurrency@@MAEPAVScheduleGroupSegmentBase@23@PAVSchedulingRing@23@PAVlocation@3@@Z 10012f5e f i libconcrt:SchedulerBase.obj
 0001:00011faa       ?Attach@SchedulerBase@details@Concurrency@@UAEXXZ 10012faa f   libconcrt:SchedulerBase.obj
 0001:00011ff2       ?AttachExternalContext@SchedulerBase@details@Concurrency@@AAEPAVExternalContextBase@23@_N@Z 10012ff2 f   libconcrt:SchedulerBase.obj
 0001:0001205d       ?AttemptSchedulerSweep@SchedulerBase@details@Concurrency@@IAEXXZ 1001305d f   libconcrt:SchedulerBase.obj
 0001:00012080       ?CancelAllContexts@SchedulerBase@details@Concurrency@@MAEXXZ 10013080 f   libconcrt:SchedulerBase.obj
 0001:000120bd       ?ChangeThrottlingTimer@SchedulerBase@details@Concurrency@@AAEXK@Z 100130bd f   libconcrt:SchedulerBase.obj
 0001:0001211d       ?CheckForDeletion@?$ListArray@VExternalStatistics@details@Concurrency@@@details@Concurrency@@AAEXXZ 1001311d f i libconcrt:SchedulerBase.obj
 0001:0001214b       ?CheckForDeletion@?$ListArray@VScheduleGroupBase@details@Concurrency@@@details@Concurrency@@AAEXXZ 1001314b f i libconcrt:SchedulerBase.obj
 0001:00012179       ?CheckForDeletionBridge@?$ListArray@VExternalStatistics@details@Concurrency@@@details@Concurrency@@CAXPAV123@@Z 10013179 f i libconcrt:SchedulerBase.obj
 0001:00012185       ?CheckForDeletionBridge@?$ListArray@VScheduleGroupBase@details@Concurrency@@@details@Concurrency@@CAXPAV123@@Z 10013185 f i libconcrt:SchedulerBase.obj
 0001:00012191       ?CheckOneShotStaticDestruction@SchedulerBase@details@Concurrency@@SAXXZ 10013191 f   libconcrt:SchedulerBase.obj
 0001:000121b7       ?CheckStaticConstruction@SchedulerBase@details@Concurrency@@CAXXZ 100131b7 f   libconcrt:SchedulerBase.obj
 0001:00012213       ?Cleanup@SchedulerBase@details@Concurrency@@AAEXXZ 10013213 f   libconcrt:SchedulerBase.obj
 0001:000122c2       ?CommitSafePoints@SchedulerBase@details@Concurrency@@QAEXXZ 100132c2 f   libconcrt:SchedulerBase.obj
 0001:00012305       ?CommitToVersion@SchedulerBase@details@Concurrency@@AAEXK@Z 10013305 f   libconcrt:SchedulerBase.obj
 0001:0001239d       ?ComputeSafePointCommitVersion@SchedulerBase@details@Concurrency@@AAEKXZ 1001339d f   libconcrt:SchedulerBase.obj
 0001:00012428       ?CopyFrom@QuickBitSet@details@Concurrency@@IAEXABV123@@Z 10013428 f i libconcrt:SchedulerBase.obj
 0001:00012465       ?CreateContextFromDefaultScheduler@SchedulerBase@details@Concurrency@@SAPAVContextBase@23@XZ 10013465 f   libconcrt:SchedulerBase.obj
 0001:00012490       ?CreateScheduleGroup@SchedulerBase@details@Concurrency@@UAEPAVScheduleGroup@3@AAVlocation@3@@Z 10013490 f i libconcrt:SchedulerBase.obj
 0001:00012499       ?CreateScheduleGroup@SchedulerBase@details@Concurrency@@UAEPAVScheduleGroup@3@XZ 10013499 f i libconcrt:SchedulerBase.obj
 0001:000124ba       ?CreateWithoutInitializing@SchedulerBase@details@Concurrency@@SAPAV123@ABVSchedulerPolicy@3@@Z 100134ba f   libconcrt:SchedulerBase.obj
 0001:000124e0       ?DecrementInternalContextCount@SchedulerBase@details@Concurrency@@QAEXXZ 100134e0 f   libconcrt:SchedulerBase.obj
 0001:000124fb       ?DeferredGetInternalContext@SchedulerBase@details@Concurrency@@QAEXXZ 100134fb f   libconcrt:SchedulerBase.obj
 0001:00012519       ?DeleteElements@?$ListArray@VExternalStatistics@details@Concurrency@@@details@Concurrency@@AAEXPAU_SINGLE_LIST_ENTRY@@@Z 10013519 f i libconcrt:SchedulerBase.obj
 0001:0001253a       ?DeleteElements@?$ListArray@VScheduleGroupBase@details@Concurrency@@@details@Concurrency@@AAEXPAU_SINGLE_LIST_ENTRY@@@Z 1001353a f i libconcrt:SchedulerBase.obj
 0001:00012558       ?Dequeue@?$SQueue@VInternalContextBase@details@Concurrency@@@details@Concurrency@@QAEPAVInternalContextBase@23@XZ 10013558 f i libconcrt:SchedulerBase.obj
 0001:00012575       ?Dequeue@?$SQueue@VSafePointInvocation@details@Concurrency@@@details@Concurrency@@QAEPAVSafePointInvocation@23@XZ 10013575 f i libconcrt:SchedulerBase.obj
 0001:00012575       ?Dequeue@?$SQueue@VRealizedChore@details@Concurrency@@@details@Concurrency@@QAEPAVRealizedChore@23@XZ 10013575 f i libconcrt:ScheduleGroupBase.obj
 0001:0001258f       ?Dequeue@?$SafeSQueue@VInternalContextBase@details@Concurrency@@V_HyperNonReentrantLock@23@@details@Concurrency@@QAEPAVInternalContextBase@23@XZ 1001358f f i libconcrt:SchedulerBase.obj
 0001:000125c3       ?DestroySchedulerEventHandlers@SchedulerBase@details@Concurrency@@MAEXXZ 100135c3 f   libconcrt:SchedulerBase.obj
 0001:00012612       ?DetachExternalContext@SchedulerBase@details@Concurrency@@AAEXPAVExternalContextBase@23@_N@Z 10013612 f   libconcrt:SchedulerBase.obj
 0001:00012655       ?FastCurrentContext@SchedulerBase@details@Concurrency@@SAPAVContextBase@23@XZ 10013655 f   libconcrt:SchedulerBase.obj
 0001:00012662       ?FastCurrentScheduler@SchedulerBase@details@Concurrency@@SAPAV123@XZ 10013662 f   libconcrt:SchedulerBase.obj
 0001:00012675       ?Fill@QuickBitSet@details@Concurrency@@QAEXXZ 10013675 f i libconcrt:SchedulerBase.obj
 0001:00012692       ?Finalize@SchedulerBase@details@Concurrency@@AAEXXZ 10013692 f   libconcrt:SchedulerBase.obj
 0001:000127bb       ?Find@?$Hash@PAV_TaskCollection@details@Concurrency@@PAV123@@details@Concurrency@@QAEPAUListNode@123@ABQAV_TaskCollection@23@PAPAV523@@Z 100137bb f i libconcrt:TaskCollection.obj
 0001:000127bb       ?Find@?$Hash@II@details@Concurrency@@QAEPAUListNode@123@ABIPAI@Z 100137bb f i libconcrt:SchedulerBase.obj
 0001:000127f1       ?FindCurrentNode@SchedulerBase@details@Concurrency@@QAEPAVSchedulingNode@23@XZ 100137f1 f   libconcrt:SchedulerBase.obj
 0001:0001282c       ?FindNodeByLocation@SchedulerBase@details@Concurrency@@QAEPAVSchedulingNode@23@PAVlocation@3@@Z 1001382c f   libconcrt:SchedulerBase.obj
 0001:00012887       ?FindScheduleGroupSegment@SchedulingRing@details@Concurrency@@AAEPAVScheduleGroupSegmentBase@23@HHPAHPAV?$ListArray@VScheduleGroupSegmentBase@details@Concurrency@@@23@@Z 10013887 f i libconcrt:SchedulerBase.obj
 0001:000128b2       ?FindVirtualProcessor@SchedulingNode@details@Concurrency@@QAEPAVVirtualProcessor@23@HHPAH@Z 100138b2 f i libconcrt:SchedulerBase.obj
 0001:000128e1       ?FoundAvailableVirtualProcessor@SchedulerBase@details@Concurrency@@QAE_NAAVClaimTicket@VirtualProcessor@23@Vlocation@3@K@Z 100138e1 f   libconcrt:SchedulerBase.obj
 0001:000129db       ?FoundBlockedContexts@SchedulerBase@details@Concurrency@@AAE_NXZ 100139db f   libconcrt:SchedulerBase.obj
 0001:00012a05       ?FoundUnstartedChores@SchedulerBase@details@Concurrency@@AAE_NXZ 10013a05 f   libconcrt:SchedulerBase.obj
 0001:00012ace       ?GetAnonymousScheduleGroupSegment@SchedulerBase@details@Concurrency@@QAEPAVScheduleGroupSegmentBase@23@XZ 10013ace f   libconcrt:SchedulerBase.obj
 0001:00012ad7       ?GetBitSet@SchedulerBase@details@Concurrency@@QAE?AVQuickBitSet@23@PBVlocation@3@@Z 10013ad7 f   libconcrt:SchedulerBase.obj
 0001:00012b8d       ?GetDefaultScheduler@SchedulerBase@details@Concurrency@@CAPAV123@XZ 10013b8d f   libconcrt:SchedulerBase.obj
 0001:00012c29       ?GetExternalContext@SchedulerBase@details@Concurrency@@AAEPAVExternalContextBase@23@_N@Z 10013c29 f   libconcrt:SchedulerBase.obj
 0001:00012c89       ?GetInternalContext@SchedulerBase@details@Concurrency@@QAEPAVInternalContextBase@23@_N@Z 10013c89 f   libconcrt:SchedulerBase.obj
 0001:00012da9       ?GetNewContextId@SchedulerBase@details@Concurrency@@QAEIXZ 10013da9 f   libconcrt:SchedulerBase.obj
 0001:00012db6       ?GetNewScheduleGroupId@SchedulerBase@details@Concurrency@@QAEIXZ 10013db6 f   libconcrt:SchedulerBase.obj
 0001:00012dc3       ?GetNewWorkQueueId@SchedulerBase@details@Concurrency@@SAIXZ 10013dc3 f   libconcrt:SchedulerBase.obj
 0001:00012dd0       ?GetNextPriorityObject@SchedulerBase@details@Concurrency@@QAEPAUBoostedObject@23@XZ 10013dd0 f   libconcrt:SchedulerBase.obj
 0001:00012e05       ?GetNextScheduleGroupSegment@SchedulingRing@details@Concurrency@@AAEPAVScheduleGroupSegmentBase@23@PAHHPAV?$ListArray@VScheduleGroupSegmentBase@details@Concurrency@@@23@@Z 10013e05 f i libconcrt:SchedulerBase.obj
 0001:00012e41       ?GetNextSchedulingRing@SchedulerBase@details@Concurrency@@QAEPAVSchedulingRing@23@PBV423@PAV423@@Z 10013e41 f   libconcrt:SchedulerBase.obj
 0001:00012e6e       ?GetNextSchedulingRing@SchedulerBase@details@Concurrency@@QAEPAVSchedulingRing@23@XZ 10013e6e f   libconcrt:SchedulerBase.obj
 0001:00012e8f       ?GetNextValidSchedulingRingIndex@SchedulerBase@details@Concurrency@@AAEHH@Z 10013e8f f   libconcrt:SchedulerBase.obj
 0001:00012eb1       ?GetNextVirtualProcessor@SchedulingNode@details@Concurrency@@QAEPAVVirtualProcessor@23@PAHH@Z 10013eb1 f i libconcrt:SchedulerBase.obj
 0001:00012ee6       ?GetNumberOfVirtualProcessors@SchedulerBase@details@Concurrency@@UBEIXZ 10013ee6 f i libconcrt:SchedulerBase.obj
 0001:00012eea       ?GetPolicy@SchedulerBase@details@Concurrency@@UBE?AVSchedulerPolicy@3@XZ 10013eea f   libconcrt:SchedulerBase.obj
 0001:00012f07       ?GetRealizedChore@SchedulerBase@details@Concurrency@@QAEPAVRealizedChore@23@P6AXPAX@Z0@Z 10013f07 f   libconcrt:SchedulerBase.obj
 0001:00012f66       ?GetReservedContext@SchedulerBase@details@Concurrency@@QAEPAVInternalContextBase@23@XZ 10013f66 f i libconcrt:SchedulerBase.obj
 0001:00012f7d       ?GetRunnableContext@FairScheduleGroupSegment@details@Concurrency@@EAEPAVInternalContextBase@23@XZ 10013f7d f i libconcrt:SchedulerBase.obj
 0001:00012f7d       ?GetRunnableContext@CacheLocalScheduleGroupSegment@details@Concurrency@@EAEPAVInternalContextBase@23@XZ 10013f7d f i libconcrt:SchedulerBase.obj
 0001:00012f90       ?GetSubAllocator@SchedulerBase@details@Concurrency@@SAPAVSubAllocator@23@_N@Z 10013f90 f   libconcrt:SchedulerBase.obj
 0001:00013010       ?GetValidSchedulingRingIndex@SchedulerBase@details@Concurrency@@AAEHH@Z 10014010 f   libconcrt:SchedulerBase.obj
 0001:00013033       ?Grow@QuickBitSet@details@Concurrency@@QAEXI@Z 10014033 f i libconcrt:SchedulerBase.obj
 0001:000130b4       ?Grow@ReferenceCountedQuickBitSet@details@Concurrency@@QAEXI@Z 100140b4 f i libconcrt:SchedulerBase.obj
 0001:00013127       ?HasCompletedShutdown@SchedulerBase@details@Concurrency@@QAE_NXZ 10014127 f   libconcrt:SchedulerBase.obj
 0001:0001313a       ?Id@ScheduleGroupBase@details@Concurrency@@UBEIXZ 1001413a f i libconcrt:SchedulerBase.obj
 0001:0001313a       ?GetScheduler@ContextBase@details@Concurrency@@QBEPAVSchedulerBase@23@XZ 1001413a f i libconcrt:ContextBase.obj
 0001:0001313e       ?Id@SchedulerBase@details@Concurrency@@UBEIXZ 1001413e f i libconcrt:SchedulerBase.obj
 0001:00013145       ?Initialize@SchedulerBase@details@Concurrency@@AAEXXZ 10014145 f   libconcrt:SchedulerBase.obj
 0001:000135e8       ?InitializeSchedulerEventHandlers@SchedulerBase@details@Concurrency@@MAEXXZ 100145e8 f   libconcrt:SchedulerBase.obj
 0001:000135f0       ?Insert@?$Hash@II@details@Concurrency@@QAEPAUListNode@123@ABI0@Z 100145f0 f i libconcrt:SchedulerBase.obj
 0001:000135f0       ?Insert@?$Hash@PAV_TaskCollection@details@Concurrency@@PAV123@@details@Concurrency@@QAEPAUListNode@123@ABQAV_TaskCollection@23@0@Z 100145f0 f i libconcrt:TaskCollection.obj
 0001:0001365a       ?InternalCreateScheduleGroup@SchedulerBase@details@Concurrency@@AAEPAVScheduleGroup@3@PAVlocation@3@@Z 1001465a f   libconcrt:SchedulerBase.obj
 0001:00013720       ?InternalRelease@ScheduleGroupBase@details@Concurrency@@IAEJXZ 10014720 f i libconcrt:SchedulerBase.obj
 0001:00013759       ?Intersects@QuickBitSet@details@Concurrency@@QBE_NABV123@@Z 10014759 f i libconcrt:SchedulerBase.obj
 0001:00013797       ?InvokeAtNextSafePoint@SafePointInvocation@details@Concurrency@@QAEXP6AXPAX@Z0PAVSchedulerBase@23@@Z 10014797 f   libconcrt:SchedulerBase.obj
 0001:000137d2       ?InvokeOnSafePoint@SchedulerBase@details@Concurrency@@AAEXPAVSafePointInvocation@23@@Z 100147d2 f   libconcrt:SchedulerBase.obj
 0001:00013816       ?IsActive@ExternalStatistics@details@Concurrency@@QAE_NXZ 10014816 f i libconcrt:SchedulerBase.obj
 0001:00013833       ?IsAvailableLocation@SchedulerBase@details@Concurrency@@UBE_NABVlocation@3@@Z 10014833 f   libconcrt:SchedulerBase.obj
 0001:00013869       ?MailChore@FairScheduleGroup@details@Concurrency@@UAE?AVSlot@?$Mailbox@V_UnrealizedChore@details@Concurrency@@@23@PAV_UnrealizedChore@23@PAVlocation@3@PAPAVScheduleGroupSegmentBase@23@@Z 10014869 f i libconcrt:SchedulerBase.obj
 0001:0001387a       ?MarkSafePoint@SchedulerBase@details@Concurrency@@QAE_NPAVSafePointMarker@23@@Z 1001487a f   libconcrt:SchedulerBase.obj
 0001:0001389c       ?NotifyThrottledContext@SchedulerBase@details@Concurrency@@AAE_NPAVInternalContextBase@23@@Z 1001489c f   libconcrt:SchedulerBase.obj
 0001:00013926       ?OneShotStaticConstruction@SchedulerBase@details@Concurrency@@CAXXZ 10014926 f   libconcrt:SchedulerBase.obj
 0001:0001393a       ?OneShotStaticDestruction@SchedulerBase@details@Concurrency@@CAXXZ 1001493a f   libconcrt:SchedulerBase.obj
 0001:00013953       ?PerformServiceScan@SchedulerBase@details@Concurrency@@AAEX_K@Z 10014953 f   libconcrt:SchedulerBase.obj
 0001:00013afe       ?PhaseOneShutdown@SchedulerBase@details@Concurrency@@AAEXXZ 10014afe f   libconcrt:SchedulerBase.obj
 0001:00013b74       ?PhaseTwoShutdown@SchedulerBase@details@Concurrency@@AAEXXZ 10014b74 f   libconcrt:SchedulerBase.obj
 0001:00013c09       ?PublishNewDataVersion@SchedulerBase@details@Concurrency@@AAEKXZ 10014c09 f i libconcrt:SchedulerBase.obj
 0001:00013c21       ?Push@?$LockFreePushStack@VContextNode@SchedulerBase@details@Concurrency@@@details@Concurrency@@QAEXPAVContextNode@SchedulerBase@23@@Z 10014c21 f i libconcrt:SchedulerBase.obj
 0001:00013c3f       ?PushRunnableToInactive@SchedulerBase@details@Concurrency@@UAE_NPAVInternalContextBase@23@Vlocation@3@@Z 10014c3f f   libconcrt:SchedulerBase.obj
 0001:00013ca7       ?Reallocate@QuickBitSet@details@Concurrency@@IAEXI@Z 10014ca7 f i libconcrt:SchedulerBase.obj
 0001:00013cde       ?Reference@ScheduleGroupBase@details@Concurrency@@UAEIXZ 10014cde f i libconcrt:SchedulerBase.obj
 0001:00013cee       ?Reference@SchedulerBase@details@Concurrency@@UAEIXZ 10014cee f   libconcrt:SchedulerBase.obj
 0001:00013d59       ?ReferenceForAttach@SchedulerBase@details@Concurrency@@IAEXXZ 10014d59 f   libconcrt:SchedulerBase.obj
 0001:00013d77       ?RegisterShutdownEvent@SchedulerBase@details@Concurrency@@UAEXPAX@Z 10014d77 f   libconcrt:SchedulerBase.obj
 0001:00013e18       ?Release@ScheduleGroupBase@details@Concurrency@@UAEIXZ 10014e18 f i libconcrt:SchedulerBase.obj
 0001:00013e1d       ?Release@SchedulerBase@details@Concurrency@@UAEIXZ 10014e1d f   libconcrt:SchedulerBase.obj
 0001:00013e35       ?ReleaseExternalContext@SchedulerBase@details@Concurrency@@AAEXPAVExternalContextBase@23@@Z 10014e35 f   libconcrt:SchedulerBase.obj
 0001:00013e77       ?ReleaseForDetach@SchedulerBase@details@Concurrency@@IAEXXZ 10014e77 f   libconcrt:SchedulerBase.obj
 0001:00013e95       ?ReleaseInternalContext@SchedulerBase@details@Concurrency@@QAEXPAVInternalContextBase@23@_N@Z 10014e95 f   libconcrt:SchedulerBase.obj
 0001:00013ede       ?ReleaseRealizedChore@SchedulerBase@details@Concurrency@@QAEXPAVRealizedChore@23@@Z 10014ede f   libconcrt:SchedulerBase.obj
 0001:00013f2d       ?ReleaseReservedContexts@SchedulerBase@details@Concurrency@@QAEXXZ 10014f2d f   libconcrt:SchedulerBase.obj
 0001:00013f98       ?ReleaseSuspendedVirtualProcessors@SchedulerBase@details@Concurrency@@AAEXJ@Z 10014f98 f   libconcrt:SchedulerBase.obj
 0001:00013fb6       ?Remove@?$List@UBoostedObject@details@Concurrency@@VNoCount@CollectionTypes@23@@details@Concurrency@@QAEXPAUBoostedObject@23@@Z 10014fb6 f i libconcrt:SchedulerBase.obj
 0001:00013fe8       ?Remove@?$ListArray@VExternalStatistics@details@Concurrency@@@details@Concurrency@@QAE_NPAVExternalStatistics@23@H_N@Z 10014fe8 f i libconcrt:SchedulerBase.obj
 0001:000140ed       ?Remove@?$ListArray@VScheduleGroupBase@details@Concurrency@@@details@Concurrency@@QAE_NPAVScheduleGroupBase@23@H_N@Z 100150ed f i libconcrt:SchedulerBase.obj
 0001:000141f2       ?RemoveHead@?$List@UBoostedObject@details@Concurrency@@VNoCount@CollectionTypes@23@@details@Concurrency@@QAEPAUBoostedObject@23@XZ 100151f2 f i libconcrt:SchedulerBase.obj
 0001:0001421a       ?RemoveHead@?$List@VWaitNode@SchedulerBase@details@Concurrency@@VNoCount@CollectionTypes@34@@details@Concurrency@@QAEPAVWaitNode@SchedulerBase@23@XZ 1001521a f i libconcrt:SchedulerBase.obj
 0001:0001423e       ?RemoveHead@?$SafeRWList@VWaitNode@SchedulerBase@details@Concurrency@@VNoCount@CollectionTypes@34@V_ReaderWriterLock@34@@details@Concurrency@@QAEPAVWaitNode@SchedulerBase@23@XZ 1001523e f i libconcrt:SchedulerBase.obj
 0001:00014272       ?RemovePrioritizedObject@SchedulerBase@details@Concurrency@@QAEXPAUBoostedObject@23@@Z 10015272 f   libconcrt:SchedulerBase.obj
 0001:000142ae       ?RemoveScheduleGroup@SchedulerBase@details@Concurrency@@QAEXPAVScheduleGroupBase@23@@Z 100152ae f   libconcrt:SchedulerBase.obj
 0001:000142c6       ?RemoveSegments@FairScheduleGroup@details@Concurrency@@MAEXXZ 100152c6 f i libconcrt:SchedulerBase.obj
 0001:000142d4       ?RemoveVirtualProcessors@SchedulerBase@details@Concurrency@@IAEXPAPAUIVirtualProcessorRoot@3@I@Z 100152d4 f   libconcrt:SchedulerBase.obj
 0001:000143d0       ?Resurrect@SchedulerBase@details@Concurrency@@AAEXXZ 100153d0 f   libconcrt:SchedulerBase.obj
 0001:00014417       ?ReturnSubAllocator@SchedulerBase@details@Concurrency@@SAXPAVSubAllocator@23@@Z 10015417 f   libconcrt:SchedulerBase.obj
 0001:00014459       ?SafeFastCurrentContext@SchedulerBase@details@Concurrency@@SAPAVContextBase@23@XZ 10015459 f   libconcrt:SchedulerBase.obj
 0001:00014475       ?SafeReference@SchedulerBase@details@Concurrency@@AAE_NXZ 10015475 f   libconcrt:SchedulerBase.obj
 0001:00014497       ?ScheduleTask@SchedulerBase@details@Concurrency@@UAEXP6AXPAX@Z0@Z 10015497 f   libconcrt:SchedulerBase.obj
 0001:000144e0       ?ScheduleTask@SchedulerBase@details@Concurrency@@UAEXP6AXPAX@Z0AAVlocation@3@@Z 100154e0 f   libconcrt:SchedulerBase.obj
 0001:00014516       ?SetNextSchedulingRing@SchedulerBase@details@Concurrency@@QAEXPAVSchedulingRing@23@@Z 10015516 f   libconcrt:SchedulerBase.obj
 0001:0001453b       ?SpinUntilBitsReset@details@Concurrency@@YAJPCJJ@Z 1001553b f i libconcrt:SchedulerBase.obj
 0001:0001456e       ?SpinUntilBitsSet@details@Concurrency@@YAJPCJJ@Z 1001556e f i libconcrt:SchedulerBase.obj
 0001:000145aa       ?StartupNewVirtualProcessor@SchedulerBase@details@Concurrency@@UAEXPAVScheduleGroupSegmentBase@23@Vlocation@3@@Z 100155aa f i libconcrt:SchedulerBase.obj
 0001:000145d2       ?StartupVirtualProcessor@SchedulerBase@details@Concurrency@@QAE_NPAVScheduleGroupSegmentBase@23@Vlocation@3@K@Z 100155d2 f   libconcrt:SchedulerBase.obj
 0001:00014629       ?StaticConstruction@SchedulerBase@details@Concurrency@@CAXXZ 10015629 f   libconcrt:SchedulerBase.obj
 0001:00014637       ?StaticDestruction@SchedulerBase@details@Concurrency@@CAXXZ 10015637 f   libconcrt:SchedulerBase.obj
 0001:0001468d       ?Statistics@SchedulerBase@details@Concurrency@@IAEXPAI00@Z 1001568d f   libconcrt:SchedulerBase.obj
 0001:000147cb       ?SweepSchedulerForFinalize@SchedulerBase@details@Concurrency@@AAEXXZ 100157cb f   libconcrt:SchedulerBase.obj
 0001:00014861       ?ThrottlerDispatch@SchedulerBase@details@Concurrency@@AAEXXZ 10015861 f   libconcrt:SchedulerBase.obj
 0001:00014978       ?ThrottlerDispatchBridge@SchedulerBase@details@Concurrency@@CGXPAU_TP_CALLBACK_INSTANCE@@PAXPAU_TP_TIMER@@@Z 10015978 f i libconcrt:SchedulerBase.obj
 0001:00014987       ?ThrottlerDispatchBridgeXP@SchedulerBase@details@Concurrency@@CGXPAXE@Z 10015987 f i libconcrt:SchedulerBase.obj
 0001:00014996       ?ThrottlerTrampoline@SchedulerBase@details@Concurrency@@CGXPAXE@Z 10015996 f   libconcrt:SchedulerBase.obj
 0001:000149d3       ?ThrottlingTime@SchedulerBase@details@Concurrency@@QAEKK@Z 100159d3 f   libconcrt:SchedulerBase.obj
 0001:00014a6a       ?ThrowSchedulerEvent@SchedulerBase@details@Concurrency@@CAXW4ConcRT_EventType@3@EI@Z 10015a6a f   libconcrt:SchedulerBase.obj
 0001:00014ad7       ?TraceSchedulerEvent@SchedulerBase@details@Concurrency@@AAEXW4ConcRT_EventType@3@EI@Z 10015ad7 f i libconcrt:SchedulerBase.obj
 0001:00014b01       ?TriggerCommitSafePoints@SchedulerBase@details@Concurrency@@QAEXPAVSafePointMarker@23@@Z 10015b01 f   libconcrt:SchedulerBase.obj
 0001:00014b36       ?TypeOfWorkPending@SchedulerBase@details@Concurrency@@MAE?AW4PendingWorkType@123@XZ 10015b36 f   libconcrt:SchedulerBase.obj
 0001:00014b64       ?UpdateCommitVersion@SchedulerBase@details@Concurrency@@AAEKK@Z 10015b64 f   libconcrt:SchedulerBase.obj
 0001:00014bac       ?UpdatePendingVersion@SchedulerBase@details@Concurrency@@AAEKXZ 10015bac f   libconcrt:SchedulerBase.obj
 0001:00014bde       ?VirtualProcessorActive@SchedulerBase@details@Concurrency@@QAE_N_N@Z 10015bde f   libconcrt:SchedulerBase.obj
 0001:00014c8d       ?VirtualProcessorIdle@SchedulerBase@details@Concurrency@@QAEX_N@Z 10015c8d f   libconcrt:SchedulerBase.obj
 0001:00014cec       ?Wipe@?$Hash@II@details@Concurrency@@QAEXXZ 10015cec f i libconcrt:SchedulerBase.obj
 0001:00014cec       ?Wipe@?$Hash@PAV_TaskCollection@details@Concurrency@@PAV123@@details@Concurrency@@QAEXXZ 10015cec f i libconcrt:ContextBase.obj
 0001:00014d39       ?_Assign@location@Concurrency@@QAEXABV12@@Z 10015d39 f i libconcrt:SchedulerBase.obj
 0001:00014d6e       ??0context_self_unblock@Concurrency@@QAE@XZ 10015d6e f   libconcrt:Exceptions.obj
 0001:00014d7f       ??0context_unblock_unbalanced@Concurrency@@QAE@XZ 10015d7f f   libconcrt:Exceptions.obj
 0001:00014d90       ??0improper_lock@Concurrency@@QAE@PBD@Z 10015d90 f   libconcrt:Exceptions.obj
 0001:00014dab       ??0improper_scheduler_attach@Concurrency@@QAE@XZ 10015dab f   libconcrt:Exceptions.obj
 0001:00014dbc       ??0improper_scheduler_reference@Concurrency@@QAE@XZ 10015dbc f   libconcrt:Exceptions.obj
 0001:00014dcd       ??0invalid_oversubscribe_operation@Concurrency@@QAE@XZ 10015dcd f   libconcrt:Exceptions.obj
 0001:00014dde       ??0invalid_scheduler_policy_key@Concurrency@@QAE@PBD@Z 10015dde f   libconcrt:Exceptions.obj
 0001:00014df9       ??0invalid_scheduler_policy_thread_specification@Concurrency@@QAE@XZ 10015df9 f   libconcrt:Exceptions.obj
 0001:00014e0a       ??0invalid_scheduler_policy_value@Concurrency@@QAE@PBD@Z 10015e0a f   libconcrt:Exceptions.obj
 0001:00014e25       ??0missing_wait@Concurrency@@QAE@XZ 10015e25 f   libconcrt:Exceptions.obj
 0001:00014e36       ??0nested_scheduler_missing_detach@Concurrency@@QAE@XZ 10015e36 f   libconcrt:Exceptions.obj
 0001:00014e47       ??0scheduler_resource_allocation_error@Concurrency@@QAE@J@Z 10015e47 f   libconcrt:Exceptions.obj
 0001:00014e64       ??0scheduler_worker_creation_error@Concurrency@@QAE@J@Z 10015e64 f   libconcrt:Exceptions.obj
 0001:00014e81       ??0unsupported_os@Concurrency@@QAE@XZ 10015e81 f   libconcrt:Exceptions.obj
 0001:00014e92       ??_Escheduler_worker_creation_error@Concurrency@@UAEPAXI@Z 10015e92 f i libconcrt:Exceptions.obj
 0001:00014e92       ??_Gscheduler_worker_creation_error@Concurrency@@UAEPAXI@Z 10015e92 f i libconcrt:Exceptions.obj
 0001:00014e92       ??_Gscheduler_resource_allocation_error@Concurrency@@UAEPAXI@Z 10015e92 f i libconcrt:Platform.obj
 0001:00014e92       ??_Escheduler_resource_allocation_error@Concurrency@@UAEPAXI@Z 10015e92 f i libconcrt:Platform.obj
 0001:00014ebf       ??0?$Hash@PAV_TaskCollection@details@Concurrency@@PAV123@@details@Concurrency@@QAE@H@Z 10015ebf f i libconcrt:ContextBase.obj
 0001:00014ebf       ??0?$Hash@II@details@Concurrency@@QAE@H@Z 10015ebf f i libconcrt:SchedulerBase.obj
 0001:00014efd       ??0CancellationBeaconStack@ContextBase@details@Concurrency@@QAE@XZ 10015efd f i libconcrt:ContextBase.obj
 0001:00014f16       ??0ContextBase@details@Concurrency@@QAE@PAVSchedulerBase@12@_N@Z 10015f16 f   libconcrt:ContextBase.obj
 0001:00014fe7       ??1?$StructuredWorkStealingQueue@V_UnrealizedChore@details@Concurrency@@V_CriticalNonReentrantLock@23@@details@Concurrency@@QAE@XZ 10015fe7 f i libconcrt:ContextBase.obj
 0001:00014fe7       ??1?$StructuredWorkStealingQueue@VInternalContextBase@details@Concurrency@@V_HyperNonReentrantLock@23@@details@Concurrency@@QAE@XZ 10015fe7 f i libconcrt:VirtualProcessor.obj
 0001:00014ffe       ??1?$WorkStealingQueue@V_UnrealizedChore@details@Concurrency@@V_CriticalNonReentrantLock@23@@details@Concurrency@@QAE@XZ 10015ffe f i libconcrt:ContextBase.obj
 0001:00015015       ??1CancellationBeaconStack@ContextBase@details@Concurrency@@QAE@XZ 10016015 f i libconcrt:ContextBase.obj
 0001:00015051       ??1Context@Concurrency@@MAE@XZ 10016051 f i libconcrt:ContextBase.obj
 0001:00015058       ??1ContextBase@details@Concurrency@@UAE@XZ 10016058 f i libconcrt:ContextBase.obj
 0001:00015086       ??1_Scoped_lock_read@?$SafeRWList@UListEntry@details@Concurrency@@VNoCount@CollectionTypes@23@V_ReaderWriterLock@23@@details@Concurrency@@QAE@XZ 10016086 f i libconcrt:ContextBase.obj
 0001:000150c1       ??8location@Concurrency@@QBE_NABV01@@Z 100160c1 f i libconcrt:ContextBase.obj
 0001:000150e5       ??ACancellationBeaconStack@ContextBase@details@Concurrency@@QAEPAUCancellationBeacon@123@J@Z 100160e5 f i libconcrt:ContextBase.obj
 0001:0001511b       ??_EContext@Concurrency@@MAEPAXI@Z 1001611b f i libconcrt:ContextBase.obj
 0001:0001511b       ??_GContext@Concurrency@@MAEPAXI@Z 1001611b f i libconcrt:ContextBase.obj
 0001:0001513e       ??_EContextBase@details@Concurrency@@UAEPAXI@Z 1001613e f i libconcrt:ContextBase.obj
 0001:0001513e       ??_GContextBase@details@Concurrency@@UAEPAXI@Z 1001613e f i libconcrt:ContextBase.obj
 0001:00015163       ??_GWorkQueue@details@Concurrency@@QAEPAXI@Z 10016163 f i libconcrt:ContextBase.obj
 0001:0001518f       ?Add@?$ListArray@VWorkQueue@details@Concurrency@@@details@Concurrency@@QAEHPAVWorkQueue@23@@Z 1001618f f i libconcrt:ContextBase.obj
 0001:000152f2       ?AddStealer@ContextBase@details@Concurrency@@QAEXPAV123@_N@Z 100162f2 f   libconcrt:ContextBase.obj
 0001:0001531c       ?AddTail@?$List@UListEntry@details@Concurrency@@VNoCount@CollectionTypes@23@@details@Concurrency@@QAEXPAUListEntry@23@@Z 1001631c f i libconcrt:ContextBase.obj
 0001:0001534b       ?AddTail@?$SafeRWList@UListEntry@details@Concurrency@@VNoCount@CollectionTypes@23@V_ReaderWriterLock@23@@details@Concurrency@@QAEXPAUListEntry@23@@Z 1001634b f i libconcrt:ContextBase.obj
 0001:0001537f       ?CancelCollection@ContextBase@details@Concurrency@@QAEXH@Z 1001637f f   libconcrt:ContextBase.obj
 0001:000153e6       ?CancelCollectionComplete@ContextBase@details@Concurrency@@QAE_NH@Z 100163e6 f   libconcrt:ContextBase.obj
 0001:00015416       ?CancelStealers@ContextBase@details@Concurrency@@QAEXPAV_TaskCollectionBase@23@@Z 10016416 f   libconcrt:ContextBase.obj
 0001:000154e0       ?CheckForDeletion@?$ListArray@VWorkQueue@details@Concurrency@@@details@Concurrency@@AAEXXZ 100164e0 f i libconcrt:ContextBase.obj
 0001:00015506       ?CheckForDeletionBridge@?$ListArray@VWorkQueue@details@Concurrency@@@details@Concurrency@@CAXPAV123@@Z 10016506 f i libconcrt:ContextBase.obj
 0001:00015512       ?Claim@Slot@?$Mailbox@V_UnrealizedChore@details@Concurrency@@@details@Concurrency@@QAE_NPAPAV_UnrealizedChore@34@@Z 10016512 f i libconcrt:ContextBase.obj
 0001:00015559       ?Cleanup@ContextBase@details@Concurrency@@QAEXXZ 10016559 f   libconcrt:ContextBase.obj
 0001:00015589       ?ClearAliasTable@ContextBase@details@Concurrency@@QAEXXZ 10016589 f   libconcrt:ContextBase.obj
 0001:000155ca       ?ClearContextTls@ContextBase@details@Concurrency@@AAEXXZ 100165ca f   libconcrt:ContextBase.obj
 0001:000155da       ?CreateWorkQueue@ContextBase@details@Concurrency@@QAEXXZ 100165da f   libconcrt:ContextBase.obj
 0001:00015659       ?DeleteElements@?$ListArray@VWorkQueue@details@Concurrency@@@details@Concurrency@@AAEXPAU_SINGLE_LIST_ENTRY@@@Z 10016659 f i libconcrt:ContextBase.obj
 0001:0001567b       ?Dereference@Segment@?$Mailbox@V_UnrealizedChore@details@Concurrency@@@details@Concurrency@@QAEXXZ 1001667b f i libconcrt:ContextBase.obj
 0001:00015696       ?DetachStealers@ContextBase@details@Concurrency@@QAEXXZ 10016696 f   libconcrt:ContextBase.obj
 0001:000157d8       ?EnterCriticalRegionHelper@ContextBase@details@Concurrency@@UAEHXZ 100167d8 f i libconcrt:ContextBase.obj
 0001:000157e0       ?EnterHyperCriticalRegionHelper@ContextBase@details@Concurrency@@UAEHXZ 100167e0 f i libconcrt:ContextBase.obj
 0001:000157eb       ?ExitCriticalRegionHelper@ContextBase@details@Concurrency@@UAEHXZ 100167eb f i libconcrt:ContextBase.obj
 0001:000157f3       ?ExitHyperCriticalRegionHelper@ContextBase@details@Concurrency@@UAEHXZ 100167f3 f i libconcrt:ContextBase.obj
 0001:000157fe       ?FindAndDelete@?$Hash@PAV_TaskCollection@details@Concurrency@@PAV123@@details@Concurrency@@QAE_NABQAV_TaskCollection@23@PAPAV423@@Z 100167fe f i libconcrt:ContextBase.obj
 0001:00015840       ?FlagCancellationBeacons@ContextBase@details@Concurrency@@QAEXH@Z 10016840 f   libconcrt:ContextBase.obj
 0001:00015888       ?GetCriticalRegionType@ContextBase@details@Concurrency@@UBE?AW4CriticalRegionType@3@XZ 10016888 f i libconcrt:ContextBase.obj
 0001:0001589c       ?GetId@ContextBase@details@Concurrency@@UBEIXZ 1001689c f   libconcrt:ContextBase.obj
 0001:000158a0       ?GetIndirectAlias@ContextBase@details@Concurrency@@QBEPAV_TaskCollection@23@XZ 100168a0 f   libconcrt:ContextBase.obj
 0001:000158a4       ?GetScheduleGroup@ContextBase@details@Concurrency@@QBEPAVScheduleGroupBase@23@XZ 100168a4 f   libconcrt:ContextBase.obj
 0001:000158b5       ?GetScheduleGroupId@ContextBase@details@Concurrency@@UBEIXZ 100168b5 f   libconcrt:ContextBase.obj
 0001:000158dc       ?GetAvailableNodeCount@ResourceManager@details@Concurrency@@UBEIXZ 100168dc f   libconcrt:ResourceManager.obj
 0001:000158dc       ?GetScheduleGroupSegment@ContextBase@details@Concurrency@@QBEPAVScheduleGroupSegmentBase@23@XZ 100168dc f   libconcrt:ContextBase.obj
 0001:000158e0       ?HashValue@?$Hash@PAV_TaskCollection@details@Concurrency@@PAV123@@details@Concurrency@@CAIABQAV_TaskCollection@23@H@Z 100168e0 f i libconcrt:ContextBase.obj
 0001:000158e0       ?HashValue@?$Hash@II@details@Concurrency@@CAIABIH@Z 100168e0 f i libconcrt:SchedulerBase.obj
 0001:0001590c       ?IsCanceledAtDepth@ContextBase@details@Concurrency@@AAE_NPAV_TaskCollectionBase@23@H@Z 1001690c f   libconcrt:ContextBase.obj
 0001:000159f6       ?LockedSetOwningContext@WorkQueue@details@Concurrency@@QAEXPAVContextBase@23@@Z 100169f6 f i libconcrt:ContextBase.obj
 0001:00015a19       ?NextList@?$Hash@PAV_TaskCollection@details@Concurrency@@PAV123@@details@Concurrency@@AAEPAUListNode@123@PAH@Z 10016a19 f i libconcrt:ContextBase.obj
 0001:00015a4a       ?Pop@?$WorkStealingQueue@V_UnrealizedChore@details@Concurrency@@V_CriticalNonReentrantLock@23@@details@Concurrency@@QAEPAV_UnrealizedChore@23@XZ 10016a4a f i libconcrt:ContextBase.obj
 0001:00015aa4       ?PopContextFromTls@ContextBase@details@Concurrency@@AAEPAV123@XZ 10016aa4 f   libconcrt:ContextBase.obj
 0001:00015ac2       ?PushContextToTls@ContextBase@details@Concurrency@@AAEXPAV123@@Z 10016ac2 f   libconcrt:ContextBase.obj
 0001:00015add       ?RecomputeMaximumCancellationDepth@ContextBase@details@Concurrency@@AAEXXZ 10016add f   libconcrt:ContextBase.obj
 0001:00015b66       ?ReferenceForCancellation@ContextBase@details@Concurrency@@QAEXXZ 10016b66 f   libconcrt:ContextBase.obj
 0001:00015b6b       ?ReleaseWorkQueue@ContextBase@details@Concurrency@@IAEXXZ 10016b6b f   libconcrt:ContextBase.obj
 0001:00015bc2       ?Remove@?$Hash@PAV_TaskCollection@details@Concurrency@@PAV123@@details@Concurrency@@AAEPAUListNode@123@ABQAV_TaskCollection@23@H@Z 10016bc2 f i libconcrt:ContextBase.obj
 0001:00015c0a       ?Remove@?$List@UListEntry@details@Concurrency@@VNoCount@CollectionTypes@23@@details@Concurrency@@QAEXPAUListEntry@23@@Z 10016c0a f i libconcrt:ContextBase.obj
 0001:00015c38       ?Remove@?$ListArray@VWorkQueue@details@Concurrency@@@details@Concurrency@@QAE_NPAVWorkQueue@23@H_N@Z 10016c38 f i libconcrt:ContextBase.obj
 0001:00015d35       ?Remove@?$SafeRWList@UListEntry@details@Concurrency@@VNoCount@CollectionTypes@23@V_ReaderWriterLock@23@@details@Concurrency@@QAEXPAUListEntry@23@@Z 10016d35 f i libconcrt:ContextBase.obj
 0001:00015d69       ?RemoveStealer@ContextBase@details@Concurrency@@QAEXPAV123@@Z 10016d69 f   libconcrt:ContextBase.obj
 0001:00015d7f       ?SetAsCurrentTls@ContextBase@details@Concurrency@@IAEXXZ 10016d7f f   libconcrt:ContextBase.obj
 0001:00015d8e       ?StaticDelete@Segment@?$Mailbox@V_UnrealizedChore@details@Concurrency@@@details@Concurrency@@SAXPAU1234@@Z 10016d8e f i libconcrt:ContextBase.obj
 0001:00015d8e       ?StaticDelete@Segment@?$Mailbox@VInternalContextBase@details@Concurrency@@@details@Concurrency@@SAXPAU1234@@Z 10016d8e f i libconcrt:VirtualProcessor.obj
 0001:00015dad       ?StaticExitHyperCriticalRegion@ContextBase@details@Concurrency@@SAXXZ 10016dad f   libconcrt:ContextBase.obj
 0001:00015dad       ?StaticEnterCriticalRegion@ContextBase@details@Concurrency@@SAXXZ 10016dad f   libconcrt:ContextBase.obj
 0001:00015dad       ?StaticEnterHyperCriticalRegion@ContextBase@details@Concurrency@@SAXXZ 10016dad f   libconcrt:ContextBase.obj
 0001:00015dad       ?StaticExitCriticalRegion@ContextBase@details@Concurrency@@SAXXZ 10016dad f   libconcrt:ContextBase.obj
 0001:00015db2       ?SweepAliasTable@ContextBase@details@Concurrency@@QAEXXZ 10016db2 f   libconcrt:ContextBase.obj
 0001:00015e36       ?SweepUnstructured@ContextBase@details@Concurrency@@QAEXP6A_NPAV_UnrealizedChore@23@PAX@Z12@Z 10016e36 f   libconcrt:ContextBase.obj
 0001:00015e42       ?SyncPop@?$WorkStealingQueue@V_UnrealizedChore@details@Concurrency@@V_CriticalNonReentrantLock@23@@details@Concurrency@@AAEPAV_UnrealizedChore@23@XZ 10016e42 f i libconcrt:ContextBase.obj
 0001:00015edb       ?ThrowContextEvent@ContextBase@details@Concurrency@@KAXW4ConcRT_EventType@3@EKK@Z 10016edb f   libconcrt:ContextBase.obj
 0001:00015f4e       ?TraceContextEvent@ContextBase@details@Concurrency@@IAEXW4ConcRT_EventType@3@EKK@Z 10016f4e f i libconcrt:ContextBase.obj
 0001:00015f7b       ?TryPop@?$WorkStealingQueue@V_UnrealizedChore@details@Concurrency@@V_CriticalNonReentrantLock@23@@details@Concurrency@@QAEPAV_UnrealizedChore@23@H@Z 10016f7b f i libconcrt:ContextBase.obj
 0001:00015fde       ?TryPopUnstructured@ContextBase@details@Concurrency@@QAEPAV_UnrealizedChore@23@H@Z 10016fde f   libconcrt:ContextBase.obj
 0001:00015fed       ?_SafeGetParent@_TaskCollectionBase@details@Concurrency@@IAEPAV123@XZ 10016fed f i libconcrt:ContextBase.obj
 0001:00016001       ??$atomic_compare_exchange@J@details@Concurrency@@YAJAAU?$atomic@J@std@@JJ@Z 10017001 f i libconcrt:TaskCollection.obj
 0001:00016028       ??$wait@V<lambda_cf8f1d893b3a87da856048d6f694e263>@@@condition_variable@std@@QAEXAAV?$unique_lock@Vmutex@std@@@1@V<lambda_cf8f1d893b3a87da856048d6f694e263>@@@Z 10017028 f i libconcrt:TaskCollection.obj
 0001:00016054       ??0CancellationTokenRegistration_TaskProc@details@Concurrency@@QAE@P6AXPAX@Z0H@Z 10017054 f i libconcrt:TaskCollection.obj
 0001:00016081       ??0_CancellationTokenRegistration@details@Concurrency@@QAE@J@Z 10017081 f i libconcrt:TaskCollection.obj
 0001:000160cc       ??0_Interruption_exception@details@Concurrency@@QAE@ABV012@@Z 100170cc f i libconcrt:TaskCollection.obj
 0001:000160e7       ??0_Interruption_exception@details@Concurrency@@QAE@XZ 100170e7 f i libconcrt:TaskCollection.obj
 0001:000160f8       ??0_TaskCollection@details@Concurrency@@AAE@PAV012@_N@Z 100170f8 f   libconcrt:TaskCollection.obj
 0001:000161e9       ??0missing_wait@Concurrency@@QAE@ABV01@@Z 100171e9 f i libconcrt:TaskCollection.obj
 0001:00016204       ??1?$_MallocaArrayHolder@PAVevent@Concurrency@@@details@Concurrency@@UAE@XZ 10017204 f i libconcrt:TaskCollection.obj
 0001:00016214       ??1?$lock_guard@Vmutex@std@@@std@@QAE@XZ 10017214 f i libconcrt:TaskCollection.obj
 0001:0001624d       ??1?$unique_lock@Vmutex@std@@@std@@QAE@XZ 1001724d f i libconcrt:TaskCollection.obj
 0001:0001628c       ??1TaskStack@details@Concurrency@@QAE@XZ 1001728c f   libconcrt:TaskCollection.obj
 0001:0001629c       ??1_CancellationTokenRegistration@details@Concurrency@@MAE@XZ 1001729c f i libconcrt:TaskCollection.obj
 0001:000162c1       ??1_TaskCollection@details@Concurrency@@QAE@XZ 100172c1 f   libconcrt:TaskCollection.obj
 0001:0001639f       ??1exception_ptr@std@@QAE@XZ 1001739f f i libconcrt:TaskCollection.obj
 0001:000163a7       ??_E?$_MallocaArrayHolder@PAVevent@Concurrency@@@details@Concurrency@@UAEPAXI@Z 100173a7 f i libconcrt:TaskCollection.obj
 0001:000163a7       ??_G?$_MallocaArrayHolder@PAVevent@Concurrency@@@details@Concurrency@@UAEPAXI@Z 100173a7 f i libconcrt:TaskCollection.obj
 0001:000163d3       ??_ECancellationTokenRegistration_TaskProc@details@Concurrency@@UAEPAXI@Z 100173d3 f i libconcrt:TaskCollection.obj
 0001:000163d3       ??_GCancellationTokenRegistration_TaskProc@details@Concurrency@@UAEPAXI@Z 100173d3 f i libconcrt:TaskCollection.obj
 0001:000163f5       ??_G_CancellationTokenRegistration@details@Concurrency@@MAEPAXI@Z 100173f5 f i libconcrt:TaskCollection.obj
 0001:000163f5       ??_E_CancellationTokenRegistration@details@Concurrency@@MAEPAXI@Z 100173f5 f i libconcrt:TaskCollection.obj
 0001:00016417       ??_G_RefCounter@details@Concurrency@@UAEPAXI@Z 10017417 f i libconcrt:TaskCollection.obj
 0001:00016417       ??_E_RefCounter@details@Concurrency@@UAEPAXI@Z 10017417 f i libconcrt:TaskCollection.obj
 0001:0001643a       ?AddArbitraryAlias@ContextBase@details@Concurrency@@QAEXPAV_TaskCollection@23@0@Z 1001743a f i libconcrt:TaskCollection.obj
 0001:0001645d       ?GetArbitraryAlias@ContextBase@details@Concurrency@@QAEPAV_TaskCollection@23@PAV423@@Z 1001745d f i libconcrt:TaskCollection.obj
 0001:000164c1       ?Lookup@?$Hash@II@details@Concurrency@@AAEPAUListNode@123@ABIH@Z 100174c1 f i libconcrt:SchedulerBase.obj
 0001:000164c1       ?Lookup@?$Hash@PAV_TaskCollection@details@Concurrency@@PAV123@@details@Concurrency@@AAEPAUListNode@123@ABQAV_TaskCollection@23@H@Z 100174c1 f i libconcrt:TaskCollection.obj
 0001:000164eb       ?_Abort@_TaskCollection@details@Concurrency@@AAEX_N@Z 100174eb f   libconcrt:TaskCollection.obj
 0001:0001661a       ?_AbortiveSweep@_TaskCollection@details@Concurrency@@AAEXPAX@Z 1001761a f   libconcrt:TaskCollection.obj
 0001:00016664       ?_Alias@_TaskCollection@details@Concurrency@@AAEPAV123@XZ 10017664 f   libconcrt:TaskCollection.obj
 0001:000166f0       ?_Atomic_compare_exchange_strong_4@std@@YAHPCKPAKKW4memory_order@1@2@Z 100176f0 f i libconcrt:TaskCollection.obj
 0001:0001675f       ?_Cancel@_StructuredTaskCollection@details@Concurrency@@QAEXXZ 1001775f f   libconcrt:TaskCollection.obj
 0001:000167b0       ?_Cancel@_TaskCollection@details@Concurrency@@AAEX_NPAV123@@Z 100177b0 f   libconcrt:TaskCollection.obj
 0001:00016851       ?_CancelDirectAliases@_TaskCollection@details@Concurrency@@AAEX_NPAV123@@Z 10017851 f   libconcrt:TaskCollection.obj
 0001:00016870       ?_CancelFromArbitraryThread@_TaskCollection@details@Concurrency@@AAEX_N@Z 10017870 f   libconcrt:TaskCollection.obj
 0001:00016915       ?_CancelStolenContexts@_TaskCollection@details@Concurrency@@AAEX_N0@Z 10017915 f   libconcrt:TaskCollection.obj
 0001:000169a0       ?_Cnd_broadcastX@std@@YAHPAU_Cnd_internal_imp_t@@@Z 100179a0 f i libconcrt:TaskCollection.obj
 0001:000169bf       ?_CollectionMatchPredicate@_TaskCollection@details@Concurrency@@CA_NPAV_UnrealizedChore@23@PAX@Z 100179bf f   libconcrt:TaskCollection.obj
 0001:000169d2       ?_Compare_exchange_acquire_4@std@@YAHPCKPAKK@Z 100179d2 f i libconcrt:TaskCollection.obj
 0001:000169d2       ?_Compare_exchange_release_4@std@@YAHPCKPAKK@Z 100179d2 f i libconcrt:TaskCollection.obj
 0001:000169d2       ?_Compare_exchange_relaxed_4@std@@YAHPCKPAKK@Z 100179d2 f i libconcrt:TaskCollection.obj
 0001:000169d2       ?_Compare_exchange_seq_cst_4@std@@YAHPCKPAKK@Z 100179d2 f i libconcrt:TaskCollection.obj
 0001:000169f9       ?_CountUp@_StructuredTaskCollection@details@Concurrency@@AAEXXZ 100179f9 f   libconcrt:TaskCollection.obj
 0001:00016a29       ?_DeregisterCallback@_CancellationTokenState@details@Concurrency@@QAEXPAV_CancellationTokenRegistration@23@@Z 10017a29 f i libconcrt:TaskCollection.obj
 0001:00016af2       ?_Destroy@_RefCounter@details@Concurrency@@MAEXXZ 10017af2 f i libconcrt:TaskCollection.obj
 0001:00016b0e       ?_Exec@CancellationTokenRegistration_TaskProc@details@Concurrency@@MAEXXZ 10017b0e f i libconcrt:TaskCollection.obj
 0001:00016b21       ?_FullAliasWait@_TaskCollection@details@Concurrency@@AAEXPAV123@@Z 10017b21 f   libconcrt:TaskCollection.obj
 0001:00016c0f       ?_GetStealTrackingList@_TaskCollection@details@Concurrency@@ABEPAXXZ 10017c0f f   libconcrt:TaskCollection.obj
 0001:00016c13       ?_InitOnRawMalloca@?$_MallocaArrayHolder@PAVContext@Concurrency@@@details@Concurrency@@QAEPAPAVContext@3@PAX@Z 10017c13 f i libconcrt:event.obj
 0001:00016c13       ?_InitOnRawMalloca@?$_MallocaArrayHolder@PAVevent@Concurrency@@@details@Concurrency@@QAEPAPAVevent@3@PAX@Z 10017c13 f i libconcrt:TaskCollection.obj
 0001:00016c44       ?_Initialize@_StructuredTaskCollection@details@Concurrency@@AAEXXZ 10017c44 f   libconcrt:TaskCollection.obj
 0001:00016c9a       ?_Initialize@_TaskCollection@details@Concurrency@@AAEXXZ 10017c9a f   libconcrt:TaskCollection.obj
 0001:00016ccf       ?_Invoke@_CancellationTokenRegistration@details@Concurrency@@AAEXXZ 10017ccf f i libconcrt:TaskCollection.obj
 0001:00016d56       ?_IsDirectAlias@_TaskCollection@details@Concurrency@@ABE_NXZ 10017d56 f   libconcrt:TaskCollection.obj
 0001:00016d69       ?_IsIndirectAlias@_TaskCollection@details@Concurrency@@ABE_NXZ 10017d69 f   libconcrt:TaskCollection.obj
 0001:00016d7c       ?_IsMarkedForAbnormalExit@_TaskCollection@details@Concurrency@@QBE_NXZ 10017d7c f   libconcrt:TaskCollection.obj
 0001:00016d8a       ?_IsStaleAlias@_TaskCollection@details@Concurrency@@ABE_NXZ 10017d8a f   libconcrt:TaskCollection.obj
 0001:00016d93       ?_IsValid@_CancellationTokenState@details@Concurrency@@SA_NPAV123@@Z 10017d93 f i libconcrt:TaskCollection.obj
 0001:00016dab       ?_Memory_order_upper_bound@std@@YA?AW4memory_order@1@W421@0@Z 10017dab f i libconcrt:TaskCollection.obj
 0001:00016dd0       ?_NotifyCompletedChoreAndFree@_TaskCollection@details@Concurrency@@AAEXPAV_UnrealizedChore@23@@Z 10017dd0 f   libconcrt:TaskCollection.obj
 0001:00016e21       ?_OriginalCollection@_TaskCollection@details@Concurrency@@QBEPAV123@XZ 10017e21 f   libconcrt:TaskCollection.obj
 0001:00016e25       ?_RegisterCallback@_CancellationTokenState@details@Concurrency@@QAEPAV_CancellationTokenRegistration@23@P6AXPAX@Z0H@Z 10017e25 f i libconcrt:TaskCollection.obj
 0001:00016e64       ?_RegisterCallback@_CancellationTokenState@details@Concurrency@@QAEXPAV_CancellationTokenRegistration@23@@Z 10017e64 f i libconcrt:TaskCollection.obj
 0001:00016ed6       ?_Release@_RefCounter@details@Concurrency@@QAEJXZ 10017ed6 f i libconcrt:TaskCollection.obj
 0001:00016efc       ?_ReleaseAlias@_TaskCollection@details@Concurrency@@AAEXXZ 10017efc f   libconcrt:TaskCollection.obj
 0001:00016f36       ?_Reset@_TaskCollection@details@Concurrency@@AAEXPAV123@@Z 10017f36 f   libconcrt:TaskCollection.obj
 0001:00017033       ?_SetCancelState@_TaskCollection@details@Concurrency@@AAE_NJ@Z 10018033 f   libconcrt:TaskCollection.obj
 0001:0001706d       ?_SweepAbortedChore@_TaskCollection@details@Concurrency@@CA_NPAV_UnrealizedChore@23@PAX@Z 1001806d f   libconcrt:TaskCollection.obj
 0001:00017086       ?_TaskCleanup@_TaskCollection@details@Concurrency@@AAE_N_N@Z 10018086 f   libconcrt:TaskCollection.obj
 0001:000170da       ?push_back@TokenRegistrationContainer@_CancellationTokenState@details@Concurrency@@QAEXPAV_CancellationTokenRegistration@34@@Z 100180da f i libconcrt:TaskCollection.obj
 0001:00017118       ?remove@TokenRegistrationContainer@_CancellationTokenState@details@Concurrency@@QAEXPAV_CancellationTokenRegistration@34@@Z 10018118 f i libconcrt:TaskCollection.obj
 0001:0001715c       ??0SchedulerPolicy@Concurrency@@QAA@IZZ 1001815c f   libconcrt:SchedulerPolicyBase.obj
 0001:0001717c       ??0SchedulerPolicy@Concurrency@@QAE@ABV01@@Z 1001817c f   libconcrt:SchedulerPolicyBase.obj
 0001:000171a2       ??0invalid_scheduler_policy_key@Concurrency@@QAE@ABV01@@Z 100181a2 f i libconcrt:SchedulerPolicyBase.obj
 0001:000171bd       ??0invalid_scheduler_policy_thread_specification@Concurrency@@QAE@ABV01@@Z 100181bd f i libconcrt:SchedulerPolicyBase.obj
 0001:000171d8       ??0invalid_scheduler_policy_value@Concurrency@@QAE@ABV01@@Z 100181d8 f i libconcrt:SchedulerPolicyBase.obj
 0001:000171f3       ??1SchedulerPolicy@Concurrency@@QAE@XZ 100181f3 f   libconcrt:SchedulerPolicyBase.obj
 0001:000171ff       ??4SchedulerPolicy@Concurrency@@QAEAAV01@ABV01@@Z 100181ff f   libconcrt:SchedulerPolicyBase.obj
 0001:0001721d       ?GetPolicyValue@SchedulerPolicy@Concurrency@@QBEIW4PolicyElementKey@2@@Z 1001821d f   libconcrt:SchedulerPolicyBase.obj
 0001:00017255       ?_AreConcurrencyLimitsValid@SchedulerPolicy@Concurrency@@CA_NII@Z 10018255 f   libconcrt:SchedulerPolicyBase.obj
 0001:00017273       ?_Initialize@SchedulerPolicy@Concurrency@@AAEXIPAPAD@Z 10018273 f   libconcrt:SchedulerPolicyBase.obj
 0001:0001735e       ?_ResolvePolicyValues@SchedulerPolicy@Concurrency@@AAEXXZ 1001835e f   libconcrt:SchedulerPolicyBase.obj
 0001:000173a6       ?_StringFromPolicyKey@SchedulerPolicy@Concurrency@@CAPADI@Z 100183a6 f   libconcrt:SchedulerPolicyBase.obj
 0001:000173bd       ?_ValidPolicyValue@SchedulerPolicy@Concurrency@@CA_NW4PolicyElementKey@2@I@Z 100183bd f   libconcrt:SchedulerPolicyBase.obj
 0001:0001749d       ?_ValidateConcRTPolicy@SchedulerPolicy@Concurrency@@QBEXXZ 1001849d f   libconcrt:SchedulerPolicyBase.obj
 0001:000174d9       ??0ExecutionResource@details@Concurrency@@QAE@PAVSchedulerProxy@12@PAUSchedulerNode@12@I@Z 100184d9 f   libconcrt:ExecutionResource.obj
 0001:0001753b       ??0ExecutionResource@details@Concurrency@@QAE@PAVSchedulerProxy@12@PAV012@@Z 1001853b f   libconcrt:ExecutionResource.obj
 0001:0001758f       ?CurrentSubscriptionLevel@ExecutionResource@details@Concurrency@@UBEIXZ 1001858f f   libconcrt:ExecutionResource.obj
 0001:000175a1       ?DecrementUseCounts@ExecutionResource@details@Concurrency@@QAEXXZ 100185a1 f   libconcrt:ExecutionResource.obj
 0001:0001760d       ?GetNodeId@ExecutionResource@details@Concurrency@@UBEIXZ 1001860d f i libconcrt:ExecutionResource.obj
 0001:00017611       ?IncrementUseCounts@ExecutionResource@details@Concurrency@@QAEXXZ 10018611 f   libconcrt:ExecutionResource.obj
 0001:000176de       ?Remove@ExecutionResource@details@Concurrency@@UAEXPAUIScheduler@3@@Z 100186de f   libconcrt:ExecutionResource.obj
 0001:0001773f       ?ResetCurrent@ExecutionResource@details@Concurrency@@QAEXXZ 1001873f f   libconcrt:ExecutionResource.obj
 0001:0001775b       ?SetAsCurrent@ExecutionResource@details@Concurrency@@QAEXXZ 1001875b f   libconcrt:ExecutionResource.obj
 0001:0001777e       ??$sign@I@details@Concurrency@@YAII@Z 1001877e f i libconcrt:HillClimbing.obj
 0001:00017796       ??$sign@N@details@Concurrency@@YANN@Z 10018796 f i libconcrt:HillClimbing.obj
 0001:000177d0       ??0HillClimbing@details@Concurrency@@QAE@IIPAVSchedulerProxy@12@@Z 100187d0 f   libconcrt:HillClimbing.obj
 0001:0001785f       ?Add@MeasuredHistory@HillClimbing@details@Concurrency@@QAEXNI@Z 1001885f f   libconcrt:HillClimbing.obj
 0001:00017882       ?CalculateThroughput@HillClimbing@details@Concurrency@@AAENIIII@Z 10018882 f   libconcrt:HillClimbing.obj
 0001:000178bf       ?CalculateThroughputSlope@HillClimbing@details@Concurrency@@AAENHH@Z 100188bf f   libconcrt:HillClimbing.obj
 0001:0001797d       ?CoefficientOfVariationMean@MeasuredHistory@HillClimbing@details@Concurrency@@QAENXZ 1001897d f   libconcrt:HillClimbing.obj
 0001:000179b6       ?EstablishControlSetting@HillClimbing@details@Concurrency@@AAEXI@Z 100189b6 f   libconcrt:HillClimbing.obj
 0001:000179fb       ?FlushHistories@HillClimbing@details@Concurrency@@AAEXXZ 100189fb f   libconcrt:HillClimbing.obj
 0001:00017a41       ?GetHistory@HillClimbing@details@Concurrency@@AAEPAVMeasuredHistory@123@I@Z 10018a41 f   libconcrt:HillClimbing.obj
 0001:00017a6c       ?GetRandomMove@HillClimbing@details@Concurrency@@AAEHXZ 10018a6c f   libconcrt:HillClimbing.obj
 0001:00017a85       ?IsStableHistory@HillClimbing@details@Concurrency@@AAE_NPAVMeasuredHistory@123@@Z 10018a85 f   libconcrt:HillClimbing.obj
 0001:00017ab5       ?Mean@MeasuredHistory@HillClimbing@details@Concurrency@@QAENXZ 10018ab5 f   libconcrt:HillClimbing.obj
 0001:00017ad7       ?RecommendControlSetting@HillClimbing@details@Concurrency@@AAEII@Z 10018ad7 f   libconcrt:HillClimbing.obj
 0001:00017ba9       ?Update@HillClimbing@details@Concurrency@@QAEIIIII@Z 10018ba9 f   libconcrt:HillClimbing.obj
 0001:00017d6b       ?Variance@MeasuredHistory@HillClimbing@details@Concurrency@@QAENXZ 10018d6b f   libconcrt:HillClimbing.obj
 0001:00017db9       ??0SchedulerProxy@details@Concurrency@@QAE@PAUIScheduler@2@PAVResourceManager@12@ABVSchedulerPolicy@2@@Z 10018db9 f   libconcrt:SchedulerProxy.obj
 0001:00018013       ??1SchedulerProxy@details@Concurrency@@IAE@XZ 10019013 f   libconcrt:SchedulerProxy.obj
 0001:00018072       ?AddCore@SchedulerProxy@details@Concurrency@@QAEXPAUSchedulerNode@23@I_N@Z 10019072 f   libconcrt:SchedulerProxy.obj
 0001:00018144       ?AddExecutionResource@SchedulerProxy@details@Concurrency@@QAEXPAVExecutionResource@23@@Z 10019144 f   libconcrt:SchedulerProxy.obj
 0001:0001818d       ?AddTail@?$List@VExecutionResource@details@Concurrency@@VCount@CollectionTypes@23@@details@Concurrency@@QAEXPAVExecutionResource@23@@Z 1001918d f i libconcrt:SchedulerProxy.obj
 0001:000181c6       ?AddThreadSubscription@SchedulerProxy@details@Concurrency@@QAEXPAVExecutionResource@23@@Z 100191c6 f   libconcrt:SchedulerProxy.obj
 0001:000181d5       ?AddVirtualProcessorRoots@SchedulerProxy@details@Concurrency@@QAEXPAPAUIVirtualProcessorRoot@3@I@Z 100191d5 f   libconcrt:SchedulerProxy.obj
 0001:00018281       ?AdjustAllocationIncrease@SchedulerProxy@details@Concurrency@@QBEII@Z 10019281 f   libconcrt:SchedulerProxy.obj
 0001:000182f1       ?BindContext@SchedulerProxy@details@Concurrency@@UAEXPAUIExecutionContext@3@@Z 100192f1 f   libconcrt:SchedulerProxy.obj
 0001:0001834d       ?Cleanup@SchedulerProxy@details@Concurrency@@IAEXXZ 1001934d f   libconcrt:SchedulerProxy.obj
 0001:0001841b       ?CreateExternalThreadResource@SchedulerProxy@details@Concurrency@@QAEPAVExecutionResource@23@PAUSchedulerNode@23@I@Z 1001941b f   libconcrt:SchedulerProxy.obj
 0001:00018462       ?CreateOversubscriber@SchedulerProxy@details@Concurrency@@UAEPAUIVirtualProcessorRoot@3@PAUIExecutionResource@3@@Z 10019462 f   libconcrt:SchedulerProxy.obj
 0001:0001851c       ?CreateVirtualProcessorRoot@SchedulerProxy@details@Concurrency@@UAEPAVVirtualProcessorRoot@23@PAUSchedulerNode@23@I@Z 1001951c f   libconcrt:SchedulerProxy.obj
 0001:00018554       ?DecrementCoreSubscription@SchedulerProxy@details@Concurrency@@QAEXPAVExecutionResource@23@@Z 10019554 f   libconcrt:SchedulerProxy.obj
 0001:0001859e       ?DecrementFixedCoreCount@SchedulerProxy@details@Concurrency@@QAEXII_N@Z 1001959e f   libconcrt:SchedulerProxy.obj
 0001:00018619       ?DeleteThis@SchedulerProxy@details@Concurrency@@MAEXXZ 10019619 f i libconcrt:SchedulerProxy.obj
 0001:00018634       ?DestroyExecutionResource@SchedulerProxy@details@Concurrency@@QAEXPAVExecutionResource@23@@Z 10019634 f   libconcrt:SchedulerProxy.obj
 0001:000186b9       ?DestroyVirtualProcessorRoot@SchedulerProxy@details@Concurrency@@QAEXPAVVirtualProcessorRoot@23@@Z 100196b9 f   libconcrt:SchedulerProxy.obj
 0001:00018742       ?FinalShutdown@SchedulerProxy@details@Concurrency@@UAEXXZ 10019742 f   libconcrt:SchedulerProxy.obj
 0001:0001875e       ?GetCurrentThreadExecutionResource@SchedulerProxy@details@Concurrency@@QAEPAVExecutionResource@23@XZ 1001975e f   libconcrt:SchedulerProxy.obj
 0001:0001877b       ?GetNewThreadProxy@SchedulerProxy@details@Concurrency@@UAEPAUIThreadProxy@3@PAUIExecutionContext@3@@Z 1001977b f   libconcrt:SchedulerProxy.obj
 0001:000187c8       ?GetResourceForNewSubscription@SchedulerProxy@details@Concurrency@@QAEPAVExecutionResource@23@PAV423@@Z 100197c8 f   libconcrt:SchedulerProxy.obj
 0001:00018816       ?GrantAllocation@SchedulerProxy@details@Concurrency@@QAEPAVExecutionResource@23@I_N0@Z 10019816 f   libconcrt:SchedulerProxy.obj
 0001:00018af5       ?IncrementCoreSubscription@SchedulerProxy@details@Concurrency@@QAEXPAVExecutionResource@23@@Z 10019af5 f   libconcrt:SchedulerProxy.obj
 0001:00018b43       ?IncrementFixedCoreCount@SchedulerProxy@details@Concurrency@@QAEXII_N@Z 10019b43 f   libconcrt:SchedulerProxy.obj
 0001:00018bcb       ?ReferenceCurrentThreadExecutionResource@SchedulerProxy@details@Concurrency@@QAEPAVExecutionResource@23@XZ 10019bcb f   libconcrt:SchedulerProxy.obj
 0001:00018c76       ?Remove@?$List@VExecutionResource@details@Concurrency@@VCount@CollectionTypes@23@@details@Concurrency@@QAEXPAVExecutionResource@23@@Z 10019c76 f i libconcrt:SchedulerProxy.obj
 0001:00018cac       ?RemoveCore@SchedulerProxy@details@Concurrency@@QAEXPAUSchedulerNode@23@I@Z 10019cac f   libconcrt:SchedulerProxy.obj
 0001:00018d96       ?RemoveThreadSubscription@SchedulerProxy@details@Concurrency@@QAEXPAVExecutionResource@23@@Z 10019d96 f   libconcrt:SchedulerProxy.obj
 0001:00018dc2       ?RequestInitialVirtualProcessors@SchedulerProxy@details@Concurrency@@UAEPAUIExecutionResource@3@_N@Z 10019dc2 f   libconcrt:SchedulerProxy.obj
 0001:00018dd5       ?SendCoreNotification@SchedulerProxy@details@Concurrency@@QAEXPAUSchedulerCore@23@_N@Z 10019dd5 f   libconcrt:SchedulerProxy.obj
 0001:00018eb9       ?Shutdown@SchedulerProxy@details@Concurrency@@UAEXXZ 10019eb9 f   libconcrt:SchedulerProxy.obj
 0001:00018ec3       ?SubscribeCurrentThread@SchedulerProxy@details@Concurrency@@UAEPAUIExecutionResource@3@XZ 10019ec3 f   libconcrt:SchedulerProxy.obj
 0001:00018ecd       ?ToggleBorrowedState@SchedulerProxy@details@Concurrency@@QAEXPAUSchedulerNode@23@I@Z 10019ecd f   libconcrt:SchedulerProxy.obj
 0001:00018f00       ?UnbindContext@SchedulerProxy@details@Concurrency@@UAEXPAUIExecutionContext@3@@Z 10019f00 f   libconcrt:SchedulerProxy.obj
 0001:00018f4a       ?Initialize@WinRT@details@Concurrency@@SAXXZ 10019f4a f   libconcrt:WinRTWrapper.obj
 0001:00018ffb       ?RoInitialize@WinRT@details@Concurrency@@SAJW4RO_INIT_TYPE@@@Z 10019ffb f   libconcrt:WinRTWrapper.obj
 0001:0001901c       ?RoUninitialize@WinRT@details@Concurrency@@SAXXZ 1001a01c f   libconcrt:WinRTWrapper.obj
 0001:00019036       ??0?$ThreadProxyFactory@VFreeThreadProxy@details@Concurrency@@@details@Concurrency@@IAE@PAVThreadProxyFactoryManager@12@@Z 1001a036 f i libconcrt:ThreadProxyFactoryManager.obj
 0001:00019071       ??0FreeThreadProxy@details@Concurrency@@QAE@PAUIThreadProxyFactory@12@I@Z 1001a071 f i libconcrt:ThreadProxyFactoryManager.obj
 0001:000190a8       ??0FreeThreadProxyFactory@details@Concurrency@@IAE@PAVThreadProxyFactoryManager@12@@Z 1001a0a8 f i libconcrt:ThreadProxyFactoryManager.obj
 0001:000190d4       ??0ThreadProxyFactoryManager@details@Concurrency@@QAE@XZ 1001a0d4 f   libconcrt:ThreadProxyFactoryManager.obj
 0001:00019108       ??1ThreadProxyFactoryManager@details@Concurrency@@QAE@XZ 1001a108 f   libconcrt:ThreadProxyFactoryManager.obj
 0001:0001917f       ??_G?$ThreadProxyFactory@VFreeThreadProxy@details@Concurrency@@@details@Concurrency@@UAEPAXI@Z 1001a17f f i libconcrt:ThreadProxyFactoryManager.obj
 0001:0001917f       ??_E?$ThreadProxyFactory@VFreeThreadProxy@details@Concurrency@@@details@Concurrency@@UAEPAXI@Z 1001a17f f i libconcrt:ThreadProxyFactoryManager.obj
 0001:000191a2       ??_GFreeThreadProxy@details@Concurrency@@UAEPAXI@Z 1001a1a2 f i libconcrt:ThreadProxyFactoryManager.obj
 0001:000191a2       ??_EFreeThreadProxy@details@Concurrency@@UAEPAXI@Z 1001a1a2 f i libconcrt:ThreadProxyFactoryManager.obj
 0001:000191ca       ??_EFreeThreadProxyFactory@details@Concurrency@@UAEPAXI@Z 1001a1ca f i libconcrt:ThreadProxyFactoryManager.obj
 0001:000191ca       ??_GFreeThreadProxyFactory@details@Concurrency@@UAEPAXI@Z 1001a1ca f i libconcrt:ThreadProxyFactoryManager.obj
 0001:000191ed       ??_GIThreadProxyFactory@details@Concurrency@@UAEPAXI@Z 1001a1ed f i libconcrt:ThreadProxyFactoryManager.obj
 0001:000191ed       ??_EIThreadProxyFactory@details@Concurrency@@UAEPAXI@Z 1001a1ed f i libconcrt:ThreadProxyFactoryManager.obj
 0001:00019210       ?Create@FreeThreadProxyFactory@details@Concurrency@@EAEPAVFreeThreadProxy@23@I@Z 1001a210 f i libconcrt:ThreadProxyFactoryManager.obj
 0001:00019245       ?CreateFactory@FreeThreadProxyFactory@details@Concurrency@@SAPAV123@PAVThreadProxyFactoryManager@23@@Z 1001a245 f i libconcrt:ThreadProxyFactoryManager.obj
 0001:0001926f       ?GetExecutionResourceTls@?$ThreadProxyFactory@VFreeThreadProxy@details@Concurrency@@@details@Concurrency@@UAEKXZ 1001a26f f i libconcrt:ThreadProxyFactoryManager.obj
 0001:00019273       ?GetFreeThreadProxyFactory@ThreadProxyFactoryManager@details@Concurrency@@QAEPAVFreeThreadProxyFactory@23@XZ 1001a273 f   libconcrt:ThreadProxyFactoryManager.obj
 0001:000192bb       ?Prepare@?$ThreadProxyFactory@VFreeThreadProxy@details@Concurrency@@@details@Concurrency@@MAEXPAVFreeThreadProxy@23@H@Z 1001a2bb f i libconcrt:ThreadProxyFactoryManager.obj
 0001:000192d3       ?ReclaimProxy@?$ThreadProxyFactory@VFreeThreadProxy@details@Concurrency@@@details@Concurrency@@UAEXPAUIThreadProxy@3@@Z 1001a2d3 f i libconcrt:ThreadProxyFactoryManager.obj
 0001:00019335       ?ReclaimProxy@FreeThreadProxyFactory@details@Concurrency@@UAEXPAUIThreadProxy@3@@Z 1001a335 f i libconcrt:ThreadProxyFactoryManager.obj
 0001:000193d8       ?Reference@FreeThreadProxyFactory@details@Concurrency@@UAEJXZ 1001a3d8 f i libconcrt:ThreadProxyFactoryManager.obj
 0001:000193e2       ?Release@FreeThreadProxyFactory@details@Concurrency@@UAEJXZ 1001a3e2 f i libconcrt:ThreadProxyFactoryManager.obj
 0001:0001940e       ?RequestProxy@?$ThreadProxyFactory@VFreeThreadProxy@details@Concurrency@@@details@Concurrency@@UAEPAUIThreadProxy@3@IH@Z 1001a40e f i libconcrt:ThreadProxyFactoryManager.obj
 0001:00019490       ?Retire@FreeThreadProxyFactory@details@Concurrency@@EAEXPAVFreeThreadProxy@23@@Z 1001a490 f i libconcrt:ThreadProxyFactoryManager.obj
 0001:0001949f       ?RetireThreadProxies@?$ThreadProxyFactory@VFreeThreadProxy@details@Concurrency@@@details@Concurrency@@QAEXXZ 1001a49f f i libconcrt:ThreadProxyFactoryManager.obj
 0001:0001950c       ?ShutdownFactory@FreeThreadProxyFactory@details@Concurrency@@UAEXXZ 1001a50c f i libconcrt:ThreadProxyFactoryManager.obj
 0001:0001952c       ?StaticInitialize@?$ThreadProxyFactory@VFreeThreadProxy@details@Concurrency@@@details@Concurrency@@KAXXZ 1001a52c f i libconcrt:ThreadProxyFactoryManager.obj
 0001:00019543       ?YieldToSystem@FreeThreadProxy@details@Concurrency@@UAEXXZ 1001a543 f i libconcrt:ThreadProxyFactoryManager.obj
 0001:00019548       ??0Etw@details@Concurrency@@AAE@XZ 1001a548 f   libconcrt:Trace.obj
 0001:00019614       ?ControlCallback@details@Concurrency@@YGKW4WMIDPREQUESTCODE@@PAXPAK1@Z 1001a614 f   libconcrt:Trace.obj
 0001:000196db       ?GetEnableFlags@Etw@details@Concurrency@@QAEK_K@Z 1001a6db f   libconcrt:Trace.obj
 0001:00019717       ?GetEnableLevel@Etw@details@Concurrency@@QAEE_K@Z 1001a717 f   libconcrt:Trace.obj
 0001:00019753       ?GetLoggerHandle@Etw@details@Concurrency@@QAE_KPAX@Z 1001a753 f   libconcrt:Trace.obj
 0001:0001978f       ?RegisterGuids@Etw@details@Concurrency@@QAEKP6GKW4WMIDPREQUESTCODE@@PAXPAK1@ZPBU_GUID@@KPAU_TRACE_GUID_REGISTRATION@@PA_K@Z 1001a78f f   libconcrt:Trace.obj
 0001:000197d2       ?Trace@Etw@details@Concurrency@@QAEK_KPAU_EVENT_TRACE_HEADER@@@Z 1001a7d2 f   libconcrt:Trace.obj
 0001:0001980a       ?UnregisterGuids@Etw@details@Concurrency@@QAEK_K@Z 1001a80a f   libconcrt:Trace.obj
 0001:0001983f       ?_RegisterConcRTEventTracing@details@Concurrency@@YAXXZ 1001a83f f   libconcrt:Trace.obj
 0001:000198ae       ?_UnregisterConcRTEventTracing@details@Concurrency@@YAXXZ 1001a8ae f   libconcrt:Trace.obj
 0001:000198f1       ??0?$StructuredWorkStealingQueue@V_UnrealizedChore@details@Concurrency@@V_CriticalNonReentrantLock@23@@details@Concurrency@@QAE@PAV_CriticalNonReentrantLock@12@@Z 1001a8f1 f i libconcrt:WorkQueue.obj
 0001:000198f1       ??0?$StructuredWorkStealingQueue@VInternalContextBase@details@Concurrency@@V_HyperNonReentrantLock@23@@details@Concurrency@@QAE@PAV_HyperNonReentrantLock@12@@Z 1001a8f1 f i libconcrt:VirtualProcessor.obj
 0001:00019961       ??0Slot@?$Mailbox@VInternalContextBase@details@Concurrency@@@details@Concurrency@@QAE@XZ 1001a961 f i libconcrt:VirtualProcessor.obj
 0001:0001996b       ??0VirtualProcessor@details@Concurrency@@QAE@XZ 1001a96b f   libconcrt:VirtualProcessor.obj
 0001:000199cd       ??1Segment@?$Mailbox@V_UnrealizedChore@details@Concurrency@@@details@Concurrency@@QAE@XZ 1001a9cd f i libconcrt:ContextBase.obj
 0001:000199cd       ??1Segment@?$Mailbox@VInternalContextBase@details@Concurrency@@@details@Concurrency@@QAE@XZ 1001a9cd f i libconcrt:VirtualProcessor.obj
 0001:000199e4       ??1VirtualProcessor@details@Concurrency@@UAE@XZ 1001a9e4 f   libconcrt:VirtualProcessor.obj
 0001:00019a46       ??_GVirtualProcessor@details@Concurrency@@UAEPAXI@Z 1001aa46 f i libconcrt:VirtualProcessor.obj
 0001:00019a46       ??_EVirtualProcessor@details@Concurrency@@UAEPAXI@Z 1001aa46 f i libconcrt:VirtualProcessor.obj
 0001:00019a6b       ?AcknowledgedAffinityMessage@SchedulerBase@details@Concurrency@@QAE_NI@Z 1001aa6b f i libconcrt:VirtualProcessor.obj
 0001:00019aa2       ?Affinitize@VirtualProcessor@details@Concurrency@@MAEXPAVInternalContextBase@23@@Z 1001aaa2 f   libconcrt:VirtualProcessor.obj
 0001:00019aea       ?CheckAffinityNotification@VirtualProcessor@details@Concurrency@@QAE_NXZ 1001aaea f   libconcrt:VirtualProcessor.obj
 0001:00019b08       ?CheckForDeletion@?$ListArray@VVirtualProcessor@details@Concurrency@@@details@Concurrency@@AAEXXZ 1001ab08 f i libconcrt:VirtualProcessor.obj
 0001:00019b2e       ?CheckForDeletionBridge@?$ListArray@VVirtualProcessor@details@Concurrency@@@details@Concurrency@@CAXPAV123@@Z 1001ab2e f i libconcrt:VirtualProcessor.obj
 0001:00019b3a       ?Claim@Slot@?$Mailbox@VInternalContextBase@details@Concurrency@@@details@Concurrency@@QAE_NPAPAVInternalContextBase@34@@Z 1001ab3a f i libconcrt:VirtualProcessor.obj
 0001:00019b81       ?ClaimExclusiveOwnership@VirtualProcessor@details@Concurrency@@QAE_NAAVClaimTicket@123@K_N@Z 1001ab81 f   libconcrt:VirtualProcessor.obj
 0001:00019c16       ?ClearQuickCacheSlot@SchedulerBase@details@Concurrency@@QAEXI@Z 1001ac16 f i libconcrt:VirtualProcessor.obj
 0001:00019c3b       ?Deactivate@VirtualProcessor@details@Concurrency@@QAE_NPAUIExecutionContext@3@@Z 1001ac3b f   libconcrt:VirtualProcessor.obj
 0001:00019c5c       ?DeleteElements@?$ListArray@VVirtualProcessor@details@Concurrency@@@details@Concurrency@@AAEXPAU_SINGLE_LIST_ENTRY@@@Z 1001ac5c f i libconcrt:VirtualProcessor.obj
 0001:00019c7d       ?Dereference@Segment@?$Mailbox@VInternalContextBase@details@Concurrency@@@details@Concurrency@@QAEXXZ 1001ac7d f i libconcrt:VirtualProcessor.obj
 0001:00019c98       ?EnsureAllTasksVisible@VirtualProcessor@details@Concurrency@@QAEXPAUIExecutionContext@3@@Z 1001ac98 f   libconcrt:VirtualProcessor.obj
 0001:00019cb9       ?ExerciseClaim@VirtualProcessor@details@Concurrency@@AAE_NW4AvailabilityType@123@PAVScheduleGroupSegmentBase@23@PAVInternalContextBase@23@@Z 1001acb9 f   libconcrt:VirtualProcessor.obj
 0001:00019d48       ?ExerciseWith@ClaimTicket@VirtualProcessor@details@Concurrency@@QAE_NPAVInternalContextBase@34@@Z 1001ad48 f   libconcrt:VirtualProcessor.obj
 0001:00019d73       ?GetCurrentSubAllocator@VirtualProcessor@details@Concurrency@@QAEPAVSubAllocator@23@XZ 1001ad73 f   libconcrt:VirtualProcessor.obj
 0001:00019d8c       ?GetResourceMaskId@SchedulerBase@details@Concurrency@@QAEII@Z 1001ad8c f i libconcrt:VirtualProcessor.obj
 0001:00019dac       ?Initialize@VirtualProcessor@details@Concurrency@@MAEXPAVSchedulingNode@23@PAUIVirtualProcessorRoot@3@@Z 1001adac f   libconcrt:VirtualProcessor.obj
 0001:00019f24       ?InterlockedClear@ReferenceCountedQuickBitSet@details@Concurrency@@QAEII@Z 1001af24 f i libconcrt:VirtualProcessor.obj
 0001:00019f64       ?InterlockedSet@ReferenceCountedQuickBitSet@details@Concurrency@@QAEII@Z 1001af64 f i libconcrt:VirtualProcessor.obj
 0001:00019faa       ?MakeAvailable@VirtualProcessor@details@Concurrency@@IAEXW4AvailabilityType@123@_N@Z 1001afaa f   libconcrt:VirtualProcessor.obj
 0001:0001a01a       ?MarkForRetirement@VirtualProcessor@details@Concurrency@@AAEXXZ 1001b01a f   libconcrt:VirtualProcessor.obj
 0001:0001a07a       ?Oversubscribe@VirtualProcessor@details@Concurrency@@EAEPAV123@XZ 1001b07a f   libconcrt:VirtualProcessor.obj
 0001:0001a0ac       ?Pop@?$StructuredWorkStealingQueue@VInternalContextBase@details@Concurrency@@V_HyperNonReentrantLock@23@@details@Concurrency@@QAEPAVInternalContextBase@23@XZ 1001b0ac f i libconcrt:VirtualProcessor.obj
 0001:0001a0fa       ?Remove@?$ListArray@VVirtualProcessor@details@Concurrency@@@details@Concurrency@@QAE_NPAVVirtualProcessor@23@H_N@Z 1001b0fa f i libconcrt:VirtualProcessor.obj
 0001:0001a1fc       ?Retire@VirtualProcessor@details@Concurrency@@MAEXXZ 1001b1fc f   libconcrt:VirtualProcessor.obj
 0001:0001a35c       ?SafePoint@VirtualProcessor@details@Concurrency@@QAE_NXZ 1001b35c f   libconcrt:VirtualProcessor.obj
 0001:0001a370       ?SaveRetiredVirtualProcessorStatistics@SchedulerBase@details@Concurrency@@QAEXPAVVirtualProcessor@23@@Z 1001b370 f i libconcrt:VirtualProcessor.obj
 0001:0001a3aa       ?SpinUntilClear@QuickBitSet@details@Concurrency@@QBEXI@Z 1001b3aa f i libconcrt:VirtualProcessor.obj
 0001:0001a3f4       ?SpinUntilSet@QuickBitSet@details@Concurrency@@QBEXI@Z 1001b3f4 f i libconcrt:VirtualProcessor.obj
 0001:0001a43e       ?StartupWorkerContext@VirtualProcessor@details@Concurrency@@EAE_NPAVScheduleGroupSegmentBase@23@PAVInternalContextBase@23@@Z 1001b43e f   libconcrt:VirtualProcessor.obj
 0001:0001a4dd       ?ThrowVirtualProcessorEvent@VirtualProcessor@details@Concurrency@@CAXW4ConcRT_EventType@3@EKK@Z 1001b4dd f   libconcrt:VirtualProcessor.obj
 0001:0001a550       ?ToInternalContext@VirtualProcessor@details@Concurrency@@MAEPAVInternalContextBase@23@PAUIExecutionContext@3@@Z 1001b550 f   libconcrt:VirtualProcessor.obj
 0001:0001a55a       ?TraceVirtualProcessorEvent@VirtualProcessor@details@Concurrency@@AAEXW4ConcRT_EventType@3@EKK@Z 1001b55a f i libconcrt:VirtualProcessor.obj
 0001:0001a587       ?UpdateWorkState@VirtualProcessor@details@Concurrency@@QAEX_N0@Z 1001b587 f   libconcrt:VirtualProcessor.obj
 0001:0001a5e7       ?Wipe@QuickBitSet@details@Concurrency@@QAEXXZ 1001b5e7 f i libconcrt:VirtualProcessor.obj
 0001:0001a604       ??0SchedulingNode@details@Concurrency@@QAE@ABVQuickBitSet@12@KPAVSchedulingRing@12@@Z 1001b604 f   libconcrt:SchedulingNode.obj
 0001:0001a681       ??1?$ListArray@VVirtualProcessor@details@Concurrency@@@details@Concurrency@@QAE@XZ 1001b681 f i libconcrt:SchedulingNode.obj
 0001:0001a6f8       ??1SchedulingNode@details@Concurrency@@QAE@XZ 1001b6f8 f   libconcrt:SchedulingNode.obj
 0001:0001a721       ?Add@?$ListArray@VVirtualProcessor@details@Concurrency@@@details@Concurrency@@QAEHPAVVirtualProcessor@23@@Z 1001b721 f i libconcrt:SchedulingNode.obj
 0001:0001a884       ?AddVirtualProcessor@SchedulingNode@details@Concurrency@@QAEPAVVirtualProcessor@23@PAUIVirtualProcessorRoot@3@_N@Z 1001b884 f   libconcrt:SchedulingNode.obj
 0001:0001a98b       ?DeferToAffineSearchers@Slot@?$Mailbox@VInternalContextBase@details@Concurrency@@@details@Concurrency@@QBE_NXZ 1001b98b f i libconcrt:SchedulingNode.obj
 0001:0001a98b       ?DeferToAffineSearchers@Slot@?$Mailbox@V_UnrealizedChore@details@Concurrency@@@details@Concurrency@@QBE_NXZ 1001b98b f i libconcrt:WorkQueue.obj
 0001:0001a9e1       ?FindMatchingVirtualProcessor@SchedulingNode@details@Concurrency@@QAEPAVVirtualProcessor@23@PAUIVirtualProcessorRoot@3@@Z 1001b9e1 f   libconcrt:SchedulingNode.obj
 0001:0001aa20       ?FindVirtualProcessorByLocation@SchedulingNode@details@Concurrency@@QAEPAVVirtualProcessor@23@PBVlocation@3@@Z 1001ba20 f   libconcrt:SchedulingNode.obj
 0001:0001aa7d       ?FoundAvailableVirtualProcessor@SchedulingNode@details@Concurrency@@AAE_NAAVClaimTicket@VirtualProcessor@23@Vlocation@3@K@Z 1001ba7d f   libconcrt:SchedulingNode.obj
 0001:0001aaed       ?GetLocation@SchedulingNode@details@Concurrency@@QAE?AVlocation@3@XZ 1001baed f   libconcrt:SchedulingNode.obj
 0001:0001ab20       ?Steal@?$StructuredWorkStealingQueue@VInternalContextBase@details@Concurrency@@V_HyperNonReentrantLock@23@@details@Concurrency@@QAEPAVInternalContextBase@23@_N@Z 1001bb20 f i libconcrt:SchedulingNode.obj
 0001:0001ab63       ?UnlockedSteal@?$StructuredWorkStealingQueue@VInternalContextBase@details@Concurrency@@V_HyperNonReentrantLock@23@@details@Concurrency@@QAEPAVInternalContextBase@23@_N@Z 1001bb63 f i libconcrt:SchedulingNode.obj
 0001:0001abe1       ??0AllocatorBucket@details@Concurrency@@QAE@XZ 1001bbe1 f   libconcrt:SubAllocator.obj
 0001:0001abf6       ??1AllocatorBucket@details@Concurrency@@QAE@XZ 1001bbf6 f   libconcrt:SubAllocator.obj
 0001:0001ac4a       ?Alloc@AllocatorBucket@details@Concurrency@@QAEPATAllocationEntry@23@XZ 1001bc4a f   libconcrt:SubAllocator.obj
 0001:0001ac63       ?Alloc@SubAllocator@details@Concurrency@@QAEPAXI@Z 1001bc63 f   libconcrt:SubAllocator.obj
 0001:0001acb3       ?Free@AllocatorBucket@details@Concurrency@@QAE_NPATAllocationEntry@23@@Z 1001bcb3 f   libconcrt:SubAllocator.obj
 0001:0001acdd       ?Free@SubAllocator@details@Concurrency@@QAEXPAX@Z 1001bcdd f   libconcrt:SubAllocator.obj
 0001:0001ad14       ?GetBucketIndex@SubAllocator@details@Concurrency@@SAHI@Z 1001bd14 f   libconcrt:SubAllocator.obj
 0001:0001ad69       ?StaticAlloc@SubAllocator@details@Concurrency@@SAPAXI@Z 1001bd69 f   libconcrt:SubAllocator.obj
 0001:0001ada2       ??0InternalContextBase@details@Concurrency@@QAE@PAVSchedulerBase@12@@Z 1001bda2 f   libconcrt:InternalContextBase.obj
 0001:0001ae1b       ??0context_self_unblock@Concurrency@@QAE@ABV01@@Z 1001be1b f i libconcrt:InternalContextBase.obj
 0001:0001ae36       ??0context_unblock_unbalanced@Concurrency@@QAE@ABV01@@Z 1001be36 f i libconcrt:InternalContextBase.obj
 0001:0001ae51       ??0invalid_oversubscribe_operation@Concurrency@@QAE@ABV01@@Z 1001be51 f i libconcrt:InternalContextBase.obj
 0001:0001ae6c       ??0nested_scheduler_missing_detach@Concurrency@@QAE@ABV01@@Z 1001be6c f i libconcrt:InternalContextBase.obj
 0001:0001ae87       ??1InternalContextBase@details@Concurrency@@UAE@XZ 1001be87 f   libconcrt:InternalContextBase.obj
 0001:0001aed5       ??1ScopedCriticalRegion@ContextBase@details@Concurrency@@QAE@XZ 1001bed5 f i libconcrt:InternalContextBase.obj
 0001:0001af0d       ??_EInternalContextBase@details@Concurrency@@W3AEPAXI@Z 1001bf0d f i libconcrt:InternalContextBase.obj
 0001:0001af15       ??_GInternalContextBase@details@Concurrency@@UAEPAXI@Z 1001bf15 f i libconcrt:InternalContextBase.obj
 0001:0001af15       ??_EInternalContextBase@details@Concurrency@@UAEPAXI@Z 1001bf15 f i libconcrt:InternalContextBase.obj
 0001:0001af3a       ?AddToRunnables@InternalContextBase@details@Concurrency@@MAEXVlocation@3@@Z 1001bf3a f   libconcrt:InternalContextBase.obj
 0001:0001b0c7       ?Alloc@InternalContextBase@details@Concurrency@@UAEPAXI@Z 1001c0c7 f   libconcrt:InternalContextBase.obj
 0001:0001b11b       ?Block@InternalContextBase@details@Concurrency@@UAEXXZ 1001c11b f   libconcrt:InternalContextBase.obj
 0001:0001b255       ?Cancel@InternalContextBase@details@Concurrency@@MAEXXZ 1001c255 f   libconcrt:InternalContextBase.obj
 0001:0001b2c9       ?Cleanup@InternalContextBase@details@Concurrency@@IAEXXZ 1001c2c9 f   libconcrt:InternalContextBase.obj
 0001:0001b2e1       ?CleanupDispatchedContextOnCancel@InternalContextBase@details@Concurrency@@IAEXXZ 1001c2e1 f   libconcrt:InternalContextBase.obj
 0001:0001b2fc       ?Dispatch@InternalContextBase@details@Concurrency@@UAEXPAUDispatchState@3@@Z 1001c2fc f   libconcrt:InternalContextBase.obj
 0001:0001b491       ?ExecuteChoreInline@InternalContextBase@details@Concurrency@@IAEXPAVWorkItem@23@@Z 1001c491 f   libconcrt:InternalContextBase.obj
 0001:0001b4ce       ?ExecutedAssociatedChore@InternalContextBase@details@Concurrency@@IAE_NXZ 1001c4ce f   libconcrt:InternalContextBase.obj
 0001:0001b541       ?FindWorkForBlockingOrNesting@InternalContextBase@details@Concurrency@@AAEPAV123@AA_N0@Z 1001c541 f   libconcrt:InternalContextBase.obj
 0001:0001b670       ?Free@InternalContextBase@details@Concurrency@@UAEXPAX@Z 1001c670 f   libconcrt:InternalContextBase.obj
 0001:0001b69c       ?GetAndResetOversubscribedVProc@InternalContextBase@details@Concurrency@@QAEPAVVirtualProcessor@23@PAV423@@Z 1001c69c f   libconcrt:InternalContextBase.obj
 0001:0001b6ca       ?GetId@InternalContextBase@details@Concurrency@@UBEIXZ 1001c6ca f   libconcrt:InternalContextBase.obj
 0001:0001b6ce       ?GetId@InternalContextBase@details@Concurrency@@W3BEIXZ 1001c6ce f i libconcrt:InternalContextBase.obj
 0001:0001b6d6       ?GetProxy@InternalContextBase@details@Concurrency@@UAEPAUIThreadProxy@3@XZ 1001c6d6 f   libconcrt:InternalContextBase.obj
 0001:0001b6dd       ?GetScheduler@InternalContextBase@details@Concurrency@@UAEPAUIScheduler@3@XZ 1001c6dd f   libconcrt:InternalContextBase.obj
 0001:0001b6f5       ?GetVirtualProcessorId@InternalContextBase@details@Concurrency@@UBEIXZ 1001c6f5 f   libconcrt:InternalContextBase.obj
 0001:0001b724       ?GrowAndPush@?$StructuredWorkStealingQueue@VInternalContextBase@details@Concurrency@@V_HyperNonReentrantLock@23@@details@Concurrency@@AAEXPAVInternalContextBase@23@VSlot@?$Mailbox@VInternalContextBase@details@Concurrency@@@23@@Z 1001c724 f i libconcrt:InternalContextBase.obj
 0001:0001b89c       ?IsSynchronouslyBlocked@InternalContextBase@details@Concurrency@@UBE_NXZ 1001c89c f i libconcrt:InternalContextBase.obj
 0001:0001b8a8       ?IsVirtualProcessorRetired@InternalContextBase@details@Concurrency@@IAE_NXZ 1001c8a8 f   libconcrt:InternalContextBase.obj
 0001:0001b906       ?LeaveScheduler@InternalContextBase@details@Concurrency@@AAEXXZ 1001c906 f   libconcrt:InternalContextBase.obj
 0001:0001ba0a       ?Oversubscribe@InternalContextBase@details@Concurrency@@UAEX_N@Z 1001ca0a f   libconcrt:InternalContextBase.obj
 0001:0001ba91       ?PrepareForUse@InternalContextBase@details@Concurrency@@QAEXPAVScheduleGroupSegmentBase@23@PAU_Chore@23@_N@Z 1001ca91 f   libconcrt:InternalContextBase.obj
 0001:0001baea       ?PrepareToRun@InternalContextBase@details@Concurrency@@MAEXPAVVirtualProcessor@23@@Z 1001caea f i libconcrt:InternalContextBase.obj
 0001:0001bb01       ?Push@?$StructuredWorkStealingQueue@VInternalContextBase@details@Concurrency@@V_HyperNonReentrantLock@23@@details@Concurrency@@QAEXPAVInternalContextBase@23@@Z 1001cb01 f i libconcrt:InternalContextBase.obj
 0001:0001bb42       ?ReclaimVirtualProcessor@InternalContextBase@details@Concurrency@@IAEXXZ 1001cb42 f   libconcrt:InternalContextBase.obj
 0001:0001bbac       ?RejoinScheduler@InternalContextBase@details@Concurrency@@AAEXXZ 1001cbac f   libconcrt:InternalContextBase.obj
 0001:0001bbcb       ?RemoveFromUse@InternalContextBase@details@Concurrency@@QAEXXZ 1001cbcb f   libconcrt:InternalContextBase.obj
 0001:0001bbee       ?SearchForWork@VirtualProcessor@details@Concurrency@@QAE_NPAVWorkItem@23@PAVScheduleGroupSegmentBase@23@_N@Z 1001cbee f i libconcrt:InternalContextBase.obj
 0001:0001bc15       ?SetProxy@InternalContextBase@details@Concurrency@@UAEXPAUIThreadProxy@3@@Z 1001cc15 f   libconcrt:InternalContextBase.obj
 0001:0001bc4a       ?SpinUntilBlocked@InternalContextBase@details@Concurrency@@IAEXXZ 1001cc4a f   libconcrt:InternalContextBase.obj
 0001:0001bc77       ?SpinUntilValueEquals@details@Concurrency@@YAXPCJJ@Z 1001cc77 f i libconcrt:InternalContextBase.obj
 0001:0001bca6       ?SpinYield@InternalContextBase@details@Concurrency@@UAEXXZ 1001cca6 f   libconcrt:InternalContextBase.obj
 0001:0001bd61       ?SwapScheduleGroupSegment@InternalContextBase@details@Concurrency@@QAEXPAVScheduleGroupSegmentBase@23@_N@Z 1001cd61 f   libconcrt:InternalContextBase.obj
 0001:0001bdac       ?SwitchOut@InternalContextBase@details@Concurrency@@IAE_NW4ReasonForSwitch@123@@Z 1001cdac f   libconcrt:InternalContextBase.obj
 0001:0001becb       ?SwitchTo@InternalContextBase@details@Concurrency@@IAEXPAV123@W4ReasonForSwitch@123@@Z 1001cecb f   libconcrt:InternalContextBase.obj
 0001:0001c004       ?Unblock@InternalContextBase@details@Concurrency@@UAEXXZ 1001d004 f   libconcrt:InternalContextBase.obj
 0001:0001c0c3       ?WaitForWork@InternalContextBase@details@Concurrency@@IAEXXZ 1001d0c3 f   libconcrt:InternalContextBase.obj
 0001:0001c1bf       ?WorkWasFound@InternalContextBase@details@Concurrency@@IAE_NPAVWorkItem@23@@Z 1001d1bf f   libconcrt:InternalContextBase.obj
 0001:0001c21b       ?Yield@InternalContextBase@details@Concurrency@@UAEXXZ 1001d21b f   libconcrt:InternalContextBase.obj
 0001:0001c39f       ??$_InternalDeleteHelper@VVirtualProcessor@details@Concurrency@@@details@Concurrency@@YAXPAVVirtualProcessor@01@@Z 1001d39f f i libconcrt:VirtualProcessor.obj
 0001:0001c39f       ??$_InternalDeleteHelper@VScheduleGroupSegmentBase@details@Concurrency@@@details@Concurrency@@YAXPAVScheduleGroupSegmentBase@01@@Z 1001d39f f i libconcrt:SchedulingRing.obj
 0001:0001c3c0       ??0SchedulingRing@details@Concurrency@@QAE@PAVSchedulerBase@12@H@Z 1001d3c0 f   libconcrt:SchedulingRing.obj
 0001:0001c449       ??1?$ListArray@VScheduleGroupSegmentBase@details@Concurrency@@@details@Concurrency@@QAE@XZ 1001d449 f i libconcrt:SchedulingRing.obj
 0001:0001c4c0       ??1SchedulingRing@details@Concurrency@@QAE@XZ 1001d4c0 f   libconcrt:SchedulingRing.obj
 0001:0001c4d8       ?Activate@SchedulingRing@details@Concurrency@@QAEXXZ 1001d4d8 f   libconcrt:SchedulingRing.obj
 0001:0001c4e4       ?CheckForDeletion@?$ListArray@VScheduleGroupSegmentBase@details@Concurrency@@@details@Concurrency@@AAEXXZ 1001d4e4 f i libconcrt:SchedulingRing.obj
 0001:0001c50a       ?CheckForDeletionBridge@?$ListArray@VScheduleGroupSegmentBase@details@Concurrency@@@details@Concurrency@@CAXPAV123@@Z 1001d50a f i libconcrt:SchedulingRing.obj
 0001:0001c516       ?DeleteElements@?$ListArray@VScheduleGroupSegmentBase@details@Concurrency@@@details@Concurrency@@AAEXPAU_SINGLE_LIST_ENTRY@@@Z 1001d516 f i libconcrt:SchedulingRing.obj
 0001:0001c537       ?Remove@?$ListArray@VScheduleGroupSegmentBase@details@Concurrency@@@details@Concurrency@@QAE_NPAVScheduleGroupSegmentBase@23@H_N@Z 1001d537 f i libconcrt:SchedulingRing.obj
 0001:0001c639       ?RemoveScheduleGroupSegment@SchedulingRing@details@Concurrency@@AAEXPAVScheduleGroupSegmentBase@23@@Z 1001d639 f   libconcrt:SchedulingRing.obj
 0001:0001c662       ??0?$ListArray@VScheduleGroupBase@details@Concurrency@@@details@Concurrency@@QAE@PAVSchedulerBase@12@HH@Z 1001d662 f i libconcrt:SchedulerBase.obj
 0001:0001c662       ??0?$ListArray@VScheduleGroupSegmentBase@details@Concurrency@@@details@Concurrency@@QAE@PAVSchedulerBase@12@HH@Z 1001d662 f i libconcrt:SchedulingRing.obj
 0001:0001c662       ??0?$ListArray@VVirtualProcessor@details@Concurrency@@@details@Concurrency@@QAE@PAVSchedulerBase@12@HH@Z 1001d662 f i libconcrt:SchedulingNode.obj
 0001:0001c662       ??0?$ListArray@U?$ListArrayInlineLink@VWorkQueue@details@Concurrency@@@details@Concurrency@@@details@Concurrency@@QAE@PAVSchedulerBase@12@HH@Z 1001d662 f i libconcrt:ScheduleGroupBase.obj
 0001:0001c662       ??0?$ListArray@VWorkQueue@details@Concurrency@@@details@Concurrency@@QAE@PAVSchedulerBase@12@HH@Z 1001d662 f i libconcrt:ScheduleGroupBase.obj
 0001:0001c662       ??0?$ListArray@VExternalStatistics@details@Concurrency@@@details@Concurrency@@QAE@PAVSchedulerBase@12@HH@Z 1001d662 f i libconcrt:SchedulerBase.obj
 0001:0001c75b       ??0?$Mailbox@V_UnrealizedChore@details@Concurrency@@@details@Concurrency@@QAE@PAVSchedulerBase@12@ABVQuickBitSet@12@_NI@Z 1001d75b f i libconcrt:ScheduleGroupBase.obj
 0001:0001c7d2       ??0ScheduleGroupBase@details@Concurrency@@QAE@PAVSchedulerBase@12@PAVlocation@2@@Z 1001d7d2 f   libconcrt:ScheduleGroupBase.obj
 0001:0001c82b       ??0ScheduleGroupSegmentBase@details@Concurrency@@IAE@PAVScheduleGroupBase@12@PAVSchedulingRing@12@PAVlocation@2@@Z 1001d82b f   libconcrt:ScheduleGroupBase.obj
 0001:0001c8eb       ??0Segment@?$Mailbox@V_UnrealizedChore@details@Concurrency@@@details@Concurrency@@QAE@PAVSchedulerBase@23@ABVQuickBitSet@23@II@Z 1001d8eb f i libconcrt:ScheduleGroupBase.obj
 0001:0001c957       ??1?$ListArray@U?$ListArrayInlineLink@VWorkQueue@details@Concurrency@@@details@Concurrency@@@details@Concurrency@@QAE@XZ 1001d957 f i libconcrt:ScheduleGroupBase.obj
 0001:0001c9d1       ??1?$ListArray@VWorkQueue@details@Concurrency@@@details@Concurrency@@QAE@XZ 1001d9d1 f i libconcrt:ScheduleGroupBase.obj
 0001:0001ca4d       ??1?$Mailbox@V_UnrealizedChore@details@Concurrency@@@details@Concurrency@@QAE@XZ 1001da4d f i libconcrt:ScheduleGroupBase.obj
 0001:0001cab3       ??1ScheduleGroupSegmentBase@details@Concurrency@@UAE@XZ 1001dab3 f   libconcrt:ScheduleGroupBase.obj
 0001:0001cb01       ??4QuickBitSet@details@Concurrency@@QAEAAV012@$$QAV012@@Z 1001db01 f i libconcrt:ScheduleGroupBase.obj
 0001:0001cb2b       ??A?$ListArray@VExternalStatistics@details@Concurrency@@@details@Concurrency@@QBEPAVExternalStatistics@12@H@Z 1001db2b f i libconcrt:SchedulerBase.obj
 0001:0001cb2b       ??A?$ListArray@U?$ListArrayInlineLink@VWorkQueue@details@Concurrency@@@details@Concurrency@@@details@Concurrency@@QBEPAU?$ListArrayInlineLink@VWorkQueue@details@Concurrency@@@12@H@Z 1001db2b f i libconcrt:ScheduleGroupBase.obj
 0001:0001cb2b       ??A?$ListArray@VVirtualProcessor@details@Concurrency@@@details@Concurrency@@QBEPAVVirtualProcessor@12@H@Z 1001db2b f i libconcrt:SchedulerBase.obj
 0001:0001cb2b       ??A?$ListArray@VWorkQueue@details@Concurrency@@@details@Concurrency@@QBEPAVWorkQueue@12@H@Z 1001db2b f i libconcrt:ScheduleGroupBase.obj
 0001:0001cb2b       ??A?$ListArray@VScheduleGroupSegmentBase@details@Concurrency@@@details@Concurrency@@QBEPAVScheduleGroupSegmentBase@12@H@Z 1001db2b f i libconcrt:SchedulerBase.obj
 0001:0001cb73       ??_GCacheLocalScheduleGroup@details@Concurrency@@UAEPAXI@Z 1001db73 f i libconcrt:SchedulerBase.obj
 0001:0001cb73       ??_EScheduleGroupBase@details@Concurrency@@UAEPAXI@Z 1001db73 f i libconcrt:ScheduleGroupBase.obj
 0001:0001cb73       ??_GScheduleGroupBase@details@Concurrency@@UAEPAXI@Z 1001db73 f i libconcrt:ScheduleGroupBase.obj
 0001:0001cb73       ??_ECacheLocalScheduleGroup@details@Concurrency@@UAEPAXI@Z 1001db73 f i libconcrt:SchedulerBase.obj
 0001:0001cb96       ??_GScheduleGroupSegmentBase@details@Concurrency@@UAEPAXI@Z 1001db96 f i libconcrt:ScheduleGroupBase.obj
 0001:0001cb96       ??_EScheduleGroupSegmentBase@details@Concurrency@@UAEPAXI@Z 1001db96 f i libconcrt:ScheduleGroupBase.obj
 0001:0001cbbb       ?Add@?$ListArray@U?$ListArrayInlineLink@VWorkQueue@details@Concurrency@@@details@Concurrency@@@details@Concurrency@@QAEHPAU?$ListArrayInlineLink@VWorkQueue@details@Concurrency@@@23@@Z 1001dbbb f i libconcrt:ScheduleGroupBase.obj
 0001:0001cd1d       ?Add@?$ListArray@VExternalStatistics@details@Concurrency@@@details@Concurrency@@QAEHPAVExternalStatistics@23@@Z 1001dd1d f i libconcrt:ScheduleGroupBase.obj
 0001:0001ce7f       ?Add@?$ListArray@VScheduleGroupSegmentBase@details@Concurrency@@@details@Concurrency@@QAEHPAVScheduleGroupSegmentBase@23@@Z 1001de7f f i libconcrt:ScheduleGroupBase.obj
 0001:0001cfe5       ?AddRunnableContext@ScheduleGroupSegmentBase@details@Concurrency@@IAEXPAVInternalContextBase@23@Vlocation@3@@Z 1001dfe5 f   libconcrt:ScheduleGroupBase.obj
 0001:0001d0c9       ?CheckForDeletion@?$ListArray@U?$ListArrayInlineLink@VWorkQueue@details@Concurrency@@@details@Concurrency@@@details@Concurrency@@AAEXXZ 1001e0c9 f i libconcrt:ScheduleGroupBase.obj
 0001:0001d0ef       ?CheckForDeletionBridge@?$ListArray@U?$ListArrayInlineLink@VWorkQueue@details@Concurrency@@@details@Concurrency@@@details@Concurrency@@CAXPAV123@@Z 1001e0ef f i libconcrt:ScheduleGroupBase.obj
 0001:0001d0fb       ?ClearQuickCacheSlotIf@SchedulerBase@details@Concurrency@@QAEXIPAVScheduleGroupSegmentBase@23@@Z 1001e0fb f i libconcrt:ScheduleGroupBase.obj
 0001:0001d120       ?CreateSegment@ScheduleGroupBase@details@Concurrency@@IAEPAVScheduleGroupSegmentBase@23@PAVlocation@3@PAVSchedulingRing@23@@Z 1001e120 f   libconcrt:ScheduleGroupBase.obj
 0001:0001d1cf       ?DeleteElements@?$ListArray@U?$ListArrayInlineLink@VWorkQueue@details@Concurrency@@@details@Concurrency@@@details@Concurrency@@AAEXPAU_SINGLE_LIST_ENTRY@@@Z 1001e1cf f i libconcrt:ScheduleGroupBase.obj
 0001:0001d1f0       ?DemandInitialize@?$Mailbox@V_UnrealizedChore@details@Concurrency@@@details@Concurrency@@AAEXXZ 1001e1f0 f i libconcrt:ScheduleGroupBase.obj
 0001:0001d266       ?Dequeue@?$Mailbox@V_UnrealizedChore@details@Concurrency@@@details@Concurrency@@QAE_NPAPAV_UnrealizedChore@23@@Z 1001e266 f i libconcrt:ScheduleGroupBase.obj
 0001:0001d32a       ?Dequeue@?$SafeSQueue@VRealizedChore@details@Concurrency@@V_HyperNonReentrantLock@23@@details@Concurrency@@QAEPAVRealizedChore@23@XZ 1001e32a f i libconcrt:ScheduleGroupBase.obj
 0001:0001d35e       ?DetachActiveWorkQueue@ScheduleGroupSegmentBase@details@Concurrency@@IAEXPAVWorkQueue@23@@Z 1001e35e f   libconcrt:ScheduleGroupBase.obj
 0001:0001d39d       ?Enqueue@?$SafeSQueue@VRealizedChore@details@Concurrency@@V_HyperNonReentrantLock@23@@details@Concurrency@@QAEXPAVRealizedChore@23@@Z 1001e39d f i libconcrt:ScheduleGroupBase.obj
 0001:0001d3d8       ?FindSegment@ScheduleGroupBase@details@Concurrency@@MAEPAVScheduleGroupSegmentBase@23@PAVlocation@3@PAVSchedulingRing@23@@Z 1001e3d8 f   libconcrt:ScheduleGroupBase.obj
 0001:0001d42e       ?GetDetachedWorkQueue@ScheduleGroupSegmentBase@details@Concurrency@@IAEPAVWorkQueue@23@XZ 1001e42e f   libconcrt:ScheduleGroupBase.obj
 0001:0001d495       ?GetInternalContext@ScheduleGroupSegmentBase@details@Concurrency@@IAEPAVInternalContextBase@23@PAU_Chore@23@_N@Z 1001e495 f   libconcrt:ScheduleGroupBase.obj
 0001:0001d4c8       ?GetRealizedChore@ScheduleGroupSegmentBase@details@Concurrency@@IAEPAVRealizedChore@23@XZ 1001e4c8 f   libconcrt:ScheduleGroupBase.obj
 0001:0001d4d8       ?Grow@?$Mailbox@V_UnrealizedChore@details@Concurrency@@@details@Concurrency@@AAEPAUSegment@123@PAU4123@@Z 1001e4d8 f i libconcrt:ScheduleGroupBase.obj
 0001:0001d522       ?HasRealizedChores@ScheduleGroupSegmentBase@details@Concurrency@@IBE_NXZ 1001e522 f   libconcrt:ScheduleGroupBase.obj
 0001:0001d52a       ?HasUnrealizedChores@ScheduleGroupSegmentBase@details@Concurrency@@IAE_NXZ 1001e52a f   libconcrt:ScheduleGroupBase.obj
 0001:0001d536       ?Initialize@?$Mailbox@V_UnrealizedChore@details@Concurrency@@@details@Concurrency@@QAEXABVQuickBitSet@23@@Z 1001e536 f i libconcrt:ScheduleGroupBase.obj
 0001:0001d55f       ?Initialize@ScheduleGroupBase@details@Concurrency@@QAEXPAVlocation@3@@Z 1001e55f f   libconcrt:ScheduleGroupBase.obj
 0001:0001d572       ?Initialize@ScheduleGroupSegmentBase@details@Concurrency@@IAEXPAVScheduleGroupBase@23@PAVSchedulingRing@23@PAVlocation@3@@Z 1001e572 f   libconcrt:ScheduleGroupBase.obj
 0001:0001d5f6       ?IsEmpty@WorkQueue@details@Concurrency@@QBE_NXZ 1001e5f6 f i libconcrt:ScheduleGroupBase.obj
 0001:0001d60c       ?LocateMailboxSegment@?$Mailbox@V_UnrealizedChore@details@Concurrency@@@details@Concurrency@@AAEPAUSegment@123@I_N@Z 1001e60c f i libconcrt:ScheduleGroupBase.obj
 0001:0001d656       ?LocateSegment@ScheduleGroupBase@details@Concurrency@@UAEPAVScheduleGroupSegmentBase@23@PAVlocation@3@_N@Z 1001e656 f   libconcrt:ScheduleGroupBase.obj
 0001:0001d739       ?LocateUnrealizedChores@ScheduleGroupSegmentBase@details@Concurrency@@IAEPAVWorkQueue@23@XZ 1001e739 f   libconcrt:ScheduleGroupBase.obj
 0001:0001d792       ?MarkDetachment@?$WorkStealingQueue@V_UnrealizedChore@details@Concurrency@@V_CriticalNonReentrantLock@23@@details@Concurrency@@QAEXXZ 1001e792 f i libconcrt:ScheduleGroupBase.obj
 0001:0001d7c5       ?RedetachQueue@ScheduleGroupSegmentBase@details@Concurrency@@QAEXPAVWorkQueue@23@@Z 1001e7c5 f   libconcrt:ScheduleGroupBase.obj
 0001:0001d7de       ?ReleaseInternalContext@ScheduleGroupSegmentBase@details@Concurrency@@IAEXPAVInternalContextBase@23@@Z 1001e7de f   libconcrt:ScheduleGroupBase.obj
 0001:0001d804       ?Remove@?$ListArray@U?$ListArrayInlineLink@VWorkQueue@details@Concurrency@@@details@Concurrency@@@details@Concurrency@@QAE_NPAU?$ListArrayInlineLink@VWorkQueue@details@Concurrency@@@23@H_N@Z 1001e804 f i libconcrt:ScheduleGroupBase.obj
 0001:0001d901       ?Remove@ScheduleGroupSegmentBase@details@Concurrency@@IAEXXZ 1001e901 f   libconcrt:ScheduleGroupBase.obj
 0001:0001d924       ?RemoveSegments@ScheduleGroupBase@details@Concurrency@@MAEXXZ 1001e924 f   libconcrt:ScheduleGroupBase.obj
 0001:0001d963       ?RetireDetachedQueue@ScheduleGroupSegmentBase@details@Concurrency@@QAEXPAVWorkQueue@23@@Z 1001e963 f   libconcrt:ScheduleGroupBase.obj
 0001:0001d98a       ?SafelyDeleteDetachedWorkQueue@ScheduleGroupSegmentBase@details@Concurrency@@IAE_NPAVWorkQueue@23@@Z 1001e98a f   libconcrt:ScheduleGroupBase.obj
 0001:0001d9cc       ?ScheduleTask@ScheduleGroupBase@details@Concurrency@@QAEXP6AXPAX@Z0AAVlocation@3@@Z 1001e9cc f   libconcrt:ScheduleGroupBase.obj
 0001:0001d9fb       ?ScheduleTask@ScheduleGroupBase@details@Concurrency@@UAEXP6AXPAX@Z0@Z 1001e9fb f   libconcrt:ScheduleGroupBase.obj
 0001:0001da22       ?ScheduleTask@ScheduleGroupSegmentBase@details@Concurrency@@QAEXP6AXPAX@Z0@Z 1001ea22 f   libconcrt:ScheduleGroupBase.obj
 0001:0001db56       ?SetDeletionReferences@Segment@?$Mailbox@V_UnrealizedChore@details@Concurrency@@@details@Concurrency@@QAEXI@Z 1001eb56 f i libconcrt:ScheduleGroupBase.obj
 0001:0001db7c       ?StealUnrealizedChore@ScheduleGroupSegmentBase@details@Concurrency@@IAEPAV_UnrealizedChore@23@_N@Z 1001eb7c f   libconcrt:ScheduleGroupBase.obj
 0001:0001dd2d       ??IQuickBitSet@details@Concurrency@@QBE?AV012@ABV012@@Z 1001ed2d f i libconcrt:CacheLocalScheduleGroup.obj
 0001:0001dd7f       ?Enqueue@?$Mailbox@V_UnrealizedChore@details@Concurrency@@@details@Concurrency@@QAE?AVSlot@123@PAV_UnrealizedChore@23@@Z 1001ed7f f i libconcrt:CacheLocalScheduleGroup.obj
 0001:0001ddd0       ?Enqueue@?$SafeSQueue@VInternalContextBase@details@Concurrency@@V_HyperNonReentrantLock@23@@details@Concurrency@@QAEXPAVInternalContextBase@23@@Z 1001edd0 f i libconcrt:CacheLocalScheduleGroup.obj
 0001:0001de0e       ?InterlockedSet@QuickBitSet@details@Concurrency@@QAEXABV123@@Z 1001ee0e f i libconcrt:CacheLocalScheduleGroup.obj
 0001:0001de46       ?MailChore@CacheLocalScheduleGroup@details@Concurrency@@UAE?AVSlot@?$Mailbox@V_UnrealizedChore@details@Concurrency@@@23@PAV_UnrealizedChore@23@PAVlocation@3@PAPAVScheduleGroupSegmentBase@23@@Z 1001ee46 f   libconcrt:CacheLocalScheduleGroup.obj
 0001:0001de7d       ?MailChore@CacheLocalScheduleGroupSegment@details@Concurrency@@QAE?AVSlot@?$Mailbox@V_UnrealizedChore@details@Concurrency@@@23@PAV_UnrealizedChore@23@@Z 1001ee7d f   libconcrt:CacheLocalScheduleGroup.obj
 0001:0001de95       ?NotifyAffinitizedWork@CacheLocalScheduleGroupSegment@details@Concurrency@@UAEXXZ 1001ee95 f   libconcrt:CacheLocalScheduleGroup.obj
 0001:0001dec8       ?PostAffinityMessage@SchedulerBase@details@Concurrency@@QAEXABVQuickBitSet@23@@Z 1001eec8 f i libconcrt:CacheLocalScheduleGroup.obj
 0001:0001df08       ?SetQuickCacheSlot@SchedulerBase@details@Concurrency@@QAEXIPAVScheduleGroupSegmentBase@23@@Z 1001ef08 f i libconcrt:CacheLocalScheduleGroup.obj
 0001:0001df2e       ?AddToRunnablesCollection@FairScheduleGroupSegment@details@Concurrency@@EAEXPAVInternalContextBase@23@@Z 1001ef2e f   libconcrt:FairScheduleGroup.obj
 0001:0001df2e       ?AddToRunnablesCollection@CacheLocalScheduleGroupSegment@details@Concurrency@@EAEXPAVInternalContextBase@23@@Z 1001ef2e f   libconcrt:CacheLocalScheduleGroup.obj
 0001:0001df3d       ?FindSegment@FairScheduleGroup@details@Concurrency@@MAEPAVScheduleGroupSegmentBase@23@PAVlocation@3@PAVSchedulingRing@23@@Z 1001ef3d f   libconcrt:FairScheduleGroup.obj
 0001:0001df6e       ?LocateSegment@FairScheduleGroup@details@Concurrency@@UAEPAVScheduleGroupSegmentBase@23@PAVlocation@3@_N@Z 1001ef6e f   libconcrt:FairScheduleGroup.obj
 0001:0001dfd9       ??0ExternalContextBase@details@Concurrency@@QAE@PAVSchedulerBase@12@_N@Z 1001efd9 f   libconcrt:ExternalContextBase.obj
 0001:0001e072       ??1ExternalContextBase@details@Concurrency@@UAE@XZ 1001f072 f   libconcrt:ExternalContextBase.obj
 0001:0001e0b9       ??_GExternalContextBase@details@Concurrency@@UAEPAXI@Z 1001f0b9 f i libconcrt:ExternalContextBase.obj
 0001:0001e0b9       ??_EExternalContextBase@details@Concurrency@@UAEPAXI@Z 1001f0b9 f i libconcrt:ExternalContextBase.obj
 0001:0001e0de       ?Alloc@ExternalContextBase@details@Concurrency@@UAEPAXI@Z 1001f0de f   libconcrt:ExternalContextBase.obj
 0001:0001e0ff       ?Block@ExternalContextBase@details@Concurrency@@UAEXXZ 1001f0ff f   libconcrt:ExternalContextBase.obj
 0001:0001e148       ?Cleanup@ExternalContextBase@details@Concurrency@@AAEXXZ 1001f148 f   libconcrt:ExternalContextBase.obj
 0001:0001e1a0       ?Free@ExternalContextBase@details@Concurrency@@UAEXPAX@Z 1001f1a0 f   libconcrt:ExternalContextBase.obj
 0001:0001e1c5       ?GetCurrentSubAllocator@ExternalContextBase@details@Concurrency@@QAEPAVSubAllocator@23@XZ 1001f1c5 f i libconcrt:ExternalContextBase.obj
 0001:0001e1e7       ?GetVirtualProcessorId@ExternalContextBase@details@Concurrency@@UBEIXZ 1001f1e7 f i libconcrt:ExternalContextBase.obj
 0001:0001e1eb       ?ImplicitDetachHandler@ExternalContextBase@details@Concurrency@@CGXPAU_TP_CALLBACK_INSTANCE@@PAXPAU_TP_WAIT@@K@Z 1001f1eb f   libconcrt:ExternalContextBase.obj
 0001:0001e20d       ?ImplicitDetachHandlerXP@ExternalContextBase@details@Concurrency@@CGXPAXE@Z 1001f20d f   libconcrt:ExternalContextBase.obj
 0001:0001e230       ?IsSynchronouslyBlocked@ExternalContextBase@details@Concurrency@@UBE_NXZ 1001f230 f i libconcrt:ExternalContextBase.obj
 0001:0001e23c       ?Oversubscribe@ExternalContextBase@details@Concurrency@@UAEX_N@Z 1001f23c f   libconcrt:ExternalContextBase.obj
 0001:0001e275       ?PrepareForUse@ExternalContextBase@details@Concurrency@@QAEX_N@Z 1001f275 f   libconcrt:ExternalContextBase.obj
 0001:0001e33c       ?RemoveFromUse@ExternalContextBase@details@Concurrency@@QAEXXZ 1001f33c f   libconcrt:ExternalContextBase.obj
 0001:0001e35e       ?SpinYield@ExternalContextBase@details@Concurrency@@UAEXXZ 1001f35e f i libconcrt:ExternalContextBase.obj
 0001:0001e375       ?Unblock@ExternalContextBase@details@Concurrency@@UAEXXZ 1001f375 f   libconcrt:ExternalContextBase.obj
 0001:0001e3f7       ?Yield@ExternalContextBase@details@Concurrency@@UAEXXZ 1001f3f7 f   libconcrt:ExternalContextBase.obj
 0001:0001e426       ??0ThreadInternalContext@details@Concurrency@@QAE@PAVSchedulerBase@12@@Z 1001f426 f i libconcrt:ThreadScheduler.obj
 0001:0001e44e       ??0ThreadScheduler@details@Concurrency@@QAE@ABVSchedulerPolicy@2@@Z 1001f44e f   libconcrt:ThreadScheduler.obj
 0001:0001e481       ??1ThreadScheduler@details@Concurrency@@UAE@XZ 1001f481 f   libconcrt:ThreadScheduler.obj
 0001:0001e495       ??_EThreadInternalContext@details@Concurrency@@W3AEPAXI@Z 1001f495 f i libconcrt:ThreadScheduler.obj
 0001:0001e49d       ??_EThreadScheduler@details@Concurrency@@W7AEPAXI@Z 1001f49d f i libconcrt:ThreadScheduler.obj
 0001:0001e4a5       ??_GThreadInternalContext@details@Concurrency@@UAEPAXI@Z 1001f4a5 f i libconcrt:ThreadScheduler.obj
 0001:0001e4a5       ??_EThreadInternalContext@details@Concurrency@@UAEPAXI@Z 1001f4a5 f i libconcrt:ThreadScheduler.obj
 0001:0001e4d7       ??_GThreadScheduler@details@Concurrency@@UAEPAXI@Z 1001f4d7 f i libconcrt:ThreadScheduler.obj
 0001:0001e4d7       ??_EThreadScheduler@details@Concurrency@@UAEPAXI@Z 1001f4d7 f i libconcrt:ThreadScheduler.obj
 0001:0001e4fc       ?AddVirtualProcessors@ThreadScheduler@details@Concurrency@@UAEXPAPAUIVirtualProcessorRoot@3@I@Z 1001f4fc f i libconcrt:ThreadScheduler.obj
 0001:0001e508       ?Create@ThreadScheduler@details@Concurrency@@SAPAV123@ABVSchedulerPolicy@3@@Z 1001f508 f   libconcrt:ThreadScheduler.obj
 0001:0001e53b       ?CreateInternalContext@ThreadScheduler@details@Concurrency@@MAEPAVInternalContextBase@23@XZ 1001f53b f   libconcrt:ThreadScheduler.obj
 0001:0001e579       ?CreateVirtualProcessor@ThreadScheduler@details@Concurrency@@UAEPAVVirtualProcessor@23@PAVSchedulingNode@23@PAUIVirtualProcessorRoot@3@@Z 1001f579 f   libconcrt:ThreadScheduler.obj
 0001:0001e5b1       ?GetIScheduler@ThreadScheduler@details@Concurrency@@UAEPAUIScheduler@3@XZ 1001f5b1 f i libconcrt:ThreadScheduler.obj
 0001:0001e5b5       ?GetId@ThreadScheduler@details@Concurrency@@UBEIXZ 1001f5b5 f i libconcrt:ThreadScheduler.obj
 0001:0001e5cd       ?GetPolicy@ThreadScheduler@details@Concurrency@@UBE?AVSchedulerPolicy@3@XZ 1001f5cd f i libconcrt:ThreadScheduler.obj
 0001:0001e5e9       ?GetPolicy@ThreadScheduler@details@Concurrency@@W7BE?AVSchedulerPolicy@3@XZ 1001f5e9 f i libconcrt:ThreadScheduler.obj
 0001:0001e5f1       ?RemoveVirtualProcessors@ThreadScheduler@details@Concurrency@@UAEXPAPAUIVirtualProcessorRoot@3@I@Z 1001f5f1 f i libconcrt:ThreadScheduler.obj
 0001:0001e5fd       ?Statistics@ThreadScheduler@details@Concurrency@@UAEXPAI00@Z 1001f5fd f i libconcrt:ThreadScheduler.obj
 0001:0001e609       ?OneShotStaticConstruction@UMSThreadScheduler@details@Concurrency@@SAXXZ 1001f609 f   libconcrt:UMSThreadScheduler.obj
 0001:0001e64f       ?OneShotStaticDestruction@UMSThreadScheduler@details@Concurrency@@SAXXZ 1001f64f f   libconcrt:UMSThreadScheduler.obj
 0001:0001e663       ??0exception_ptr@std@@QAE@ABV01@@Z 1001f663 f i libconcrt:TaskCollectionBase.obj
 0001:0001e67b       ?_Current_exception@exception_ptr@std@@SA?AV12@XZ 1001f67b f i libconcrt:TaskCollectionBase.obj
 0001:0001e695       ?_FinishCancelState@_TaskCollectionBase@details@Concurrency@@IAEXI@Z 1001f695 f   libconcrt:TaskCollectionBase.obj
 0001:0001e6bb       ?_GetTokenState@_TaskCollectionBase@details@Concurrency@@QAEPAV_CancellationTokenState@23@PAPAV_CancellationTokenRegistration@23@@Z 1001f6bb f   libconcrt:TaskCollectionBase.obj
 0001:0001e6e3       ?_MarkCancellation@_TaskCollectionBase@details@Concurrency@@IAE_NXZ 1001f6e3 f   libconcrt:TaskCollectionBase.obj
 0001:0001e70b       ?_RaisedException@_TaskCollectionBase@details@Concurrency@@IAEXXZ 1001f70b f   libconcrt:TaskCollectionBase.obj
 0001:0001e769       ?_RethrowException@_TaskCollectionBase@details@Concurrency@@IAEXXZ 1001f769 f   libconcrt:TaskCollectionBase.obj
 0001:0001e7d3       ?_RethrowException@exception_ptr@std@@QBEXXZ 1001f7d3 f i libconcrt:TaskCollectionBase.obj
 0001:0001e7da       ?current_exception@std@@YA?AVexception_ptr@1@XZ 1001f7da f i libconcrt:TaskCollectionBase.obj
 0001:0001e7eb       ?rethrow_exception@std@@YAXVexception_ptr@1@@Z 1001f7eb f i libconcrt:TaskCollectionBase.obj
 0001:0001e804       ??0?$WorkStealingQueue@V_UnrealizedChore@details@Concurrency@@V_CriticalNonReentrantLock@23@@details@Concurrency@@QAE@PAV_CriticalNonReentrantLock@12@@Z 1001f804 f i libconcrt:WorkQueue.obj
 0001:0001e86d       ??0WorkQueue@details@Concurrency@@QAE@XZ 1001f86d f   libconcrt:WorkQueue.obj
 0001:0001e8b7       ?RedetachFromScheduleGroupAtSafePoint@WorkQueue@details@Concurrency@@QAEXPAVScheduleGroupSegmentBase@23@@Z 1001f8b7 f   libconcrt:WorkQueue.obj
 0001:0001e8db       ?Reinitialize@WorkQueue@details@Concurrency@@AAEXXZ 1001f8db f   libconcrt:WorkQueue.obj
 0001:0001e915       ?RetireAtSafePoint@WorkQueue@details@Concurrency@@QAEXPAVScheduleGroupSegmentBase@23@@Z 1001f915 f   libconcrt:WorkQueue.obj
 0001:0001e939       ?StaticRedetachFromScheduleGroup@WorkQueue@details@Concurrency@@CAXPAV123@@Z 1001f939 f   libconcrt:WorkQueue.obj
 0001:0001e94a       ?StaticRetire@WorkQueue@details@Concurrency@@CAXPAV123@@Z 1001f94a f   libconcrt:WorkQueue.obj
 0001:0001e95b       ?Steal@WorkQueue@details@Concurrency@@QAEPAV_UnrealizedChore@23@_N@Z 1001f95b f   libconcrt:WorkQueue.obj
 0001:0001e99e       ?Sweep@?$WorkStealingQueue@V_UnrealizedChore@details@Concurrency@@V_CriticalNonReentrantLock@23@@details@Concurrency@@QAEXP6A_NPAV_UnrealizedChore@23@PAX@Z12@Z 1001f99e f i libconcrt:WorkQueue.obj
 0001:0001ea50       ?SweepUnstructured@WorkQueue@details@Concurrency@@QAEXP6A_NPAV_UnrealizedChore@23@PAX@Z12@Z 1001fa50 f   libconcrt:WorkQueue.obj
 0001:0001ea5c       ?TryToSteal@WorkQueue@details@Concurrency@@QAEPAV_UnrealizedChore@23@_NAA_N@Z 1001fa5c f   libconcrt:WorkQueue.obj
 0001:0001eac2       ?UnlockedSteal@?$StructuredWorkStealingQueue@V_UnrealizedChore@details@Concurrency@@V_CriticalNonReentrantLock@23@@details@Concurrency@@QAEPAV_UnrealizedChore@23@_N@Z 1001fac2 f i libconcrt:WorkQueue.obj
 0001:0001eb40       ?UnlockedSteal@?$WorkStealingQueue@V_UnrealizedChore@details@Concurrency@@V_CriticalNonReentrantLock@23@@details@Concurrency@@QAEPAV_UnrealizedChore@23@_N0@Z 1001fb40 f i libconcrt:WorkQueue.obj
 0001:0001ebce       ?UnlockedSteal@WorkQueue@details@Concurrency@@AAEPAV_UnrealizedChore@23@_N@Z 1001fbce f   libconcrt:WorkQueue.obj
 0001:0001ec91       ?_CancelViaToken@_UnrealizedChore@details@Concurrency@@CAXPAVContextBase@23@@Z 1001fc91 f   libconcrt:Chores.obj
 0001:0001ecb8       ?_InternalFree@_UnrealizedChore@details@Concurrency@@CAXPAV123@@Z 1001fcb8 f   libconcrt:Chores.obj
 0001:0001ecd5       ?_PrepareSteal@_UnrealizedChore@details@Concurrency@@QAEXPAVContextBase@23@@Z 1001fcd5 f   libconcrt:Chores.obj
 0001:0001eced       ?_PrepareStealStructured@_UnrealizedChore@details@Concurrency@@AAEXPAVContextBase@23@@Z 1001fced f   libconcrt:Chores.obj
 0001:0001ed25       ?_PrepareStealUnstructured@_UnrealizedChore@details@Concurrency@@AAEXPAVContextBase@23@@Z 1001fd25 f   libconcrt:Chores.obj
 0001:0001ed91       ?_SetDetached@_UnrealizedChore@details@Concurrency@@QAEX_N@Z 1001fd91 f   libconcrt:Chores.obj
 0001:0001ed9e       ?_StructuredChoreWrapper@_UnrealizedChore@details@Concurrency@@CAXPAV123@@Z 1001fd9e f   libconcrt:Chores.obj
 0001:0001eee8       ??0VirtualProcessorRoot@details@Concurrency@@QAE@PAVSchedulerProxy@12@PAUSchedulerNode@12@I@Z 1001fee8 f   libconcrt:VirtualProcessorRoot.obj
 0001:0001ef34       ??_GVirtualProcessorRoot@details@Concurrency@@UAEPAXI@Z 1001ff34 f i libconcrt:VirtualProcessorRoot.obj
 0001:0001ef34       ??_EVirtualProcessorRoot@details@Concurrency@@UAEPAXI@Z 1001ff34 f i libconcrt:VirtualProcessorRoot.obj
 0001:0001ef5e       ?CurrentSubscriptionLevel@VirtualProcessorRoot@details@Concurrency@@UBEIXZ 1001ff5e f i libconcrt:VirtualProcessorRoot.obj
 0001:0001ef66       ?GetExecutionResourceId@VirtualProcessorRoot@details@Concurrency@@UBEIXZ 1001ff66 f i libconcrt:VirtualProcessorRoot.obj
 0001:0001ef6a       ?GetId@VirtualProcessorRoot@details@Concurrency@@UBEIXZ 1001ff6a f i libconcrt:VirtualProcessorRoot.obj
 0001:0001ef6e       ?GetNodeId@VirtualProcessorRoot@details@Concurrency@@UBEIXZ 1001ff6e f i libconcrt:VirtualProcessorRoot.obj
 0001:0001ef6e       ?GetExecutionResourceId@ExecutionResource@details@Concurrency@@UBEIXZ 1001ff6e f i libconcrt:ExecutionResource.obj
 0001:0001ef72       ?Remove@VirtualProcessorRoot@details@Concurrency@@UAEXPAUIScheduler@3@@Z 1001ff72 f   libconcrt:VirtualProcessorRoot.obj
 0001:0001efcc       ?ResetSubscriptionLevel@VirtualProcessorRoot@details@Concurrency@@QAEXXZ 1001ffcc f   libconcrt:VirtualProcessorRoot.obj
 0001:0001efe4       ?Subscribe@VirtualProcessorRoot@details@Concurrency@@QAEXXZ 1001ffe4 f   libconcrt:VirtualProcessorRoot.obj
 0001:0001eff1       ?Unsubscribe@VirtualProcessorRoot@details@Concurrency@@QAEXXZ 1001fff1 f   libconcrt:VirtualProcessorRoot.obj
 0001:0001effe       ??0FreeVirtualProcessorRoot@details@Concurrency@@QAE@PAVSchedulerProxy@12@PAUSchedulerNode@12@I@Z 1001fffe f   libconcrt:FreeVirtualProcessorRoot.obj
 0001:0001f033       ??8HardwareAffinity@details@Concurrency@@QAE_NABU012@@Z 10020033 f i libconcrt:FreeVirtualProcessorRoot.obj
 0001:0001f054       ??_GFreeVirtualProcessorRoot@details@Concurrency@@UAEPAXI@Z 10020054 f i libconcrt:FreeVirtualProcessorRoot.obj
 0001:0001f054       ??_EFreeVirtualProcessorRoot@details@Concurrency@@UAEPAXI@Z 10020054 f i libconcrt:FreeVirtualProcessorRoot.obj
 0001:0001f07e       ?AcquireActivatedContext@VirtualProcessorRoot@details@Concurrency@@QAEPAUIExecutionContext@3@XZ 1002007e f i libconcrt:FreeVirtualProcessorRoot.obj
 0001:0001f0af       ?Activate@FreeVirtualProcessorRoot@details@Concurrency@@UAEXPAUIExecutionContext@3@@Z 100200af f   libconcrt:FreeVirtualProcessorRoot.obj
 0001:0001f171       ?Affinitize@FreeVirtualProcessorRoot@details@Concurrency@@QAEXPAVFreeThreadProxy@23@@Z 10020171 f   libconcrt:FreeVirtualProcessorRoot.obj
 0001:0001f1d9       ?Deactivate@FreeVirtualProcessorRoot@details@Concurrency@@UAE_NPAUIExecutionContext@3@@Z 100201d9 f   libconcrt:FreeVirtualProcessorRoot.obj
 0001:0001f27d       ?DeleteThis@FreeVirtualProcessorRoot@details@Concurrency@@UAEXXZ 1002027d f   libconcrt:FreeVirtualProcessorRoot.obj
 0001:0001f2ca       ?EnsureAllTasksVisible@FreeVirtualProcessorRoot@details@Concurrency@@UAEXPAUIExecutionContext@3@@Z 100202ca f   libconcrt:FreeVirtualProcessorRoot.obj
 0001:0001f34b       ?ResetOnIdle@FreeVirtualProcessorRoot@details@Concurrency@@QAEXW4SwitchingProxyState@3@@Z 1002034b f   libconcrt:FreeVirtualProcessorRoot.obj
 0001:0001f3b6       ?SetAffinity@FreeThreadProxy@details@Concurrency@@QAEXUHardwareAffinity@23@@Z 100203b6 f i libconcrt:FreeVirtualProcessorRoot.obj
 0001:0001f3ec       ?SpinUntilIdle@FreeVirtualProcessorRoot@details@Concurrency@@IAEXXZ 100203ec f i libconcrt:FreeVirtualProcessorRoot.obj
 0001:0001f41c       ?AssociateExecutionContext@FreeThreadProxy@details@Concurrency@@QAEXPAUIExecutionContext@3@@Z 1002041c f   libconcrt:FreeThreadProxy.obj
 0001:0001f43e       ?Dispatch@FreeThreadProxy@details@Concurrency@@EAEXXZ 1002043e f   libconcrt:FreeThreadProxy.obj
 0001:0001f4df       ?ReturnIdleProxy@FreeThreadProxy@details@Concurrency@@QAEXXZ 100204df f   libconcrt:FreeThreadProxy.obj
 0001:0001f4fc       ?SwitchOut@FreeThreadProxy@details@Concurrency@@UAEXW4SwitchingProxyState@3@@Z 100204fc f   libconcrt:FreeThreadProxy.obj
 0001:0001f553       ?SwitchTo@FreeThreadProxy@details@Concurrency@@UAEXPAUIExecutionContext@3@W4SwitchingProxyState@3@@Z 10020553 f   libconcrt:FreeThreadProxy.obj
 0001:0001f608       ??0ThreadProxy@details@Concurrency@@QAE@PAUIThreadProxyFactory@12@I@Z 10020608 f   libconcrt:ThreadProxy.obj
 0001:0001f6dd       ??0scheduler_worker_creation_error@Concurrency@@QAE@ABV01@@Z 100206dd f i libconcrt:ThreadProxy.obj
 0001:0001f6f8       ??1ThreadProxy@details@Concurrency@@UAE@XZ 100206f8 f   libconcrt:ThreadProxy.obj
 0001:0001f75a       ??_GThreadProxy@details@Concurrency@@UAEPAXI@Z 1002075a f i libconcrt:ThreadProxy.obj
 0001:0001f75a       ??_EThreadProxy@details@Concurrency@@UAEPAXI@Z 1002075a f i libconcrt:ThreadProxy.obj
 0001:0001f77c       ?Cancel@ThreadProxy@details@Concurrency@@QAEXXZ 1002077c f   libconcrt:ThreadProxy.obj
 0001:0001f78d       ?GetId@ThreadProxy@details@Concurrency@@UBEIXZ 1002078d f   libconcrt:ThreadProxy.obj
 0001:0001f791       ?ResumeExecution@ThreadProxy@details@Concurrency@@QAEXXZ 10020791 f   libconcrt:ThreadProxy.obj
 0001:0001f79b       ?SetPriority@ThreadProxy@details@Concurrency@@QAEXH@Z 1002079b f   libconcrt:ThreadProxy.obj
 0001:0001f7b3       ?SpinUntilBlocked@ThreadProxy@details@Concurrency@@QAEXXZ 100207b3 f   libconcrt:ThreadProxy.obj
 0001:0001f7e0       ?SuspendExecution@ThreadProxy@details@Concurrency@@QAEXXZ 100207e0 f   libconcrt:ThreadProxy.obj
 0001:0001f7fc       ?ThreadProxyMain@ThreadProxy@details@Concurrency@@CGKPAX@Z 100207fc f   libconcrt:ThreadProxy.obj
 0001:0001f84a       ??0location@Concurrency@@QAE@W4_Type@01@IIPAX@Z 1002084a f   libconcrt:location.obj
 0001:0001f86f       ?ContainsResourceId@SchedulingNode@details@Concurrency@@QAE_NI@Z 1002086f f i libconcrt:location.obj
 0001:0001f89a       ?_FastNodeIntersects@location@Concurrency@@QBE_NABV12@@Z 1002089a f   libconcrt:location.obj
 0001:0001f8e5       ?_FastVPIntersects@location@Concurrency@@QBE_NABV12@@Z 100208e5 f   libconcrt:location.obj
 0001:0001f931       ??0WorkItem@details@Concurrency@@QAE@PAVInternalContextBase@12@@Z 10020931 f   libconcrt:SearchAlgorithms.obj
 0001:0001f957       ?AcquireQuickCacheSlot@SchedulerBase@details@Concurrency@@QAEPAVScheduleGroupSegmentBase@23@I@Z 10020957 f i libconcrt:SearchAlgorithms.obj
 0001:0001f975       ?ActualGetQuickCacheSlot@SchedulerBase@details@Concurrency@@AAEPAVScheduleGroupSegmentBase@23@I@Z 10020975 f i libconcrt:SearchAlgorithms.obj
 0001:0001f9a8       ?Bind@WorkItem@details@Concurrency@@QAEPAVInternalContextBase@23@XZ 100209a8 f   libconcrt:SearchAlgorithms.obj
 0001:0001f9f5       ?BindTo@WorkItem@details@Concurrency@@QAEXPAVInternalContextBase@23@@Z 100209f5 f   libconcrt:SearchAlgorithms.obj
 0001:0001fa2f       ?CheckPriorityList@WorkSearchContext@details@Concurrency@@AAE_N_K@Z 10020a2f f i libconcrt:SearchAlgorithms.obj
 0001:0001fa67       ?GetLocalRunnable@WorkSearchContext@details@Concurrency@@AAE_NPAVWorkItem@23@PAVVirtualProcessor@23@_N@Z 10020a67 f   libconcrt:SearchAlgorithms.obj
 0001:0001fb00       ?GetNextSchedulingNode@SchedulerBase@details@Concurrency@@QAEPAVSchedulingNode@23@PAHH@Z 10020b00 f i libconcrt:SearchAlgorithms.obj
 0001:0001fb4f       ?GetPseudoRRAffineScheduleGroupSegment@SchedulingRing@details@Concurrency@@QAEPAVScheduleGroupSegmentBase@23@PAH@Z 10020b4f f i libconcrt:SearchAlgorithms.obj
 0001:0001fb8a       ?GetPseudoRRNonAffineScheduleGroupSegment@SchedulingRing@details@Concurrency@@QAEPAVScheduleGroupSegmentBase@23@PAH@Z 10020b8a f i libconcrt:SearchAlgorithms.obj
 0001:0001fbc8       ?GetRealizedChore@WorkSearchContext@details@Concurrency@@AAE_NPAVWorkItem@23@PAVScheduleGroupSegmentBase@23@_N@Z 10020bc8 f   libconcrt:SearchAlgorithms.obj
 0001:0001fc1a       ?GetRealizedChoreWithinGroup@WorkSearchContext@details@Concurrency@@AAE_NPAVWorkItem@23@PAVScheduleGroupSegmentBase@23@_NW4SearchAffinity@123@2@Z 10020c1a f   libconcrt:SearchAlgorithms.obj
 0001:0001fc9b       ?GetRunnableContext@WorkSearchContext@details@Concurrency@@AAE_NPAVWorkItem@23@PAVScheduleGroupSegmentBase@23@@Z 10020c9b f   libconcrt:SearchAlgorithms.obj
 0001:0001fcd9       ?GetRunnableContextWithinGroup@WorkSearchContext@details@Concurrency@@AAE_NPAVWorkItem@23@PAVScheduleGroupSegmentBase@23@W4SearchAffinity@123@_N@Z 10020cd9 f   libconcrt:SearchAlgorithms.obj
 0001:0001fd54       ?GetUnrealizedChore@WorkSearchContext@details@Concurrency@@AAE_NPAVWorkItem@23@PAVScheduleGroupSegmentBase@23@_N2@Z 10020d54 f   libconcrt:SearchAlgorithms.obj
 0001:0001fda9       ?GetUnrealizedChoreWithinGroup@WorkSearchContext@details@Concurrency@@AAE_NPAVWorkItem@23@PAVScheduleGroupSegmentBase@23@_NW4SearchAffinity@123@2@Z 10020da9 f   libconcrt:SearchAlgorithms.obj
 0001:0001fe39       ?Invoke@WorkItem@details@Concurrency@@QAEXXZ 10020e39 f   libconcrt:SearchAlgorithms.obj
 0001:0001fe7b       ?PeriodicScan@SchedulerBase@details@Concurrency@@QAEX_K@Z 10020e7b f i libconcrt:SearchAlgorithms.obj
 0001:0001feb6       ?PreSearch@WorkSearchContext@details@Concurrency@@AAE_NPAVWorkItem@23@@Z 10020eb6 f   libconcrt:SearchAlgorithms.obj
 0001:0001fef3       ?QuickSearch@WorkSearchContext@details@Concurrency@@AAE_NPAVScheduleGroupSegmentBase@23@PAVWorkItem@23@_NK@Z 10020ef3 f   libconcrt:SearchAlgorithms.obj
 0001:0001ff60       ?QuickSearchYield@WorkSearchContext@details@Concurrency@@AAE_NPAVScheduleGroupSegmentBase@23@PAVWorkItem@23@_NK@Z 10020f60 f   libconcrt:SearchAlgorithms.obj
 0001:0001ffce       ?Reset@WorkSearchContext@details@Concurrency@@QAEXPAVVirtualProcessor@23@W4Algorithm@123@@Z 10020fce f   libconcrt:SearchAlgorithms.obj
 0001:00020028       ?ResolveToken@WorkItem@details@Concurrency@@QAE_NXZ 10021028 f   libconcrt:SearchAlgorithms.obj
 0001:000200a8       ?SearchCacheLocal@WorkSearchContext@details@Concurrency@@AAE_NPAVWorkItem@23@PAVScheduleGroupSegmentBase@23@_NK@Z 100210a8 f   libconcrt:SearchAlgorithms.obj
 0001:00020374       ?SearchCacheLocalYield@WorkSearchContext@details@Concurrency@@AAE_NPAVWorkItem@23@PAVScheduleGroupSegmentBase@23@_NK@Z 10021374 f   libconcrt:SearchAlgorithms.obj
 0001:000205f7       ?SearchCacheLocal_Realized@WorkSearchContext@details@Concurrency@@AAE_NPAVWorkItem@23@PAVSchedulingRing@23@PAVScheduleGroupSegmentBase@23@_NW4SearchAffinity@123@K3@Z 100215f7 f   libconcrt:SearchAlgorithms.obj
 0001:000206f4       ?SearchCacheLocal_Runnables@WorkSearchContext@details@Concurrency@@AAE_NPAVWorkItem@23@PAVSchedulingRing@23@PAVScheduleGroupSegmentBase@23@_NW4SearchAffinity@123@K3@Z 100216f4 f   libconcrt:SearchAlgorithms.obj
 0001:000207ff       ?SearchCacheLocal_Unrealized@WorkSearchContext@details@Concurrency@@AAE_NPAVWorkItem@23@PAVSchedulingRing@23@PAVScheduleGroupSegmentBase@23@_NW4SearchAffinity@123@K3@Z 100217ff f   libconcrt:SearchAlgorithms.obj
 0001:000208ff       ?SearchFair@WorkSearchContext@details@Concurrency@@AAE_NPAVWorkItem@23@PAVScheduleGroupSegmentBase@23@_NK@Z 100218ff f   libconcrt:SearchAlgorithms.obj
 0001:00020a14       ?SearchFairYield@WorkSearchContext@details@Concurrency@@AAE_NPAVWorkItem@23@PAVScheduleGroupSegmentBase@23@_NK@Z 10021a14 f   libconcrt:SearchAlgorithms.obj
 0001:00020b24       ?SearchFair_Realized@WorkSearchContext@details@Concurrency@@AAE_NPAVWorkItem@23@PAVSchedulingRing@23@_N@Z 10021b24 f   libconcrt:SearchAlgorithms.obj
 0001:00020bba       ?SearchFair_Runnables@WorkSearchContext@details@Concurrency@@AAE_NPAVWorkItem@23@PAVSchedulingRing@23@@Z 10021bba f   libconcrt:SearchAlgorithms.obj
 0001:00020c3c       ?SearchFair_Unrealized@WorkSearchContext@details@Concurrency@@AAE_NPAVWorkItem@23@PAVSchedulingRing@23@_N@Z 10021c3c f   libconcrt:SearchAlgorithms.obj
 0001:00020cd6       ?ServiceMark@ScheduleGroupSegmentBase@details@Concurrency@@QAEX_K@Z 10021cd6 f i libconcrt:SearchAlgorithms.obj
 0001:00020cfc       ?ServiceMark@VirtualProcessor@details@Concurrency@@QAEX_K@Z 10021cfc f i libconcrt:SearchAlgorithms.obj
 0001:00020d22       ?SkipSegmentSearch@WorkSearchContext@details@Concurrency@@AAE_NPAVScheduleGroupSegmentBase@23@0W4SearchAffinity@123@_N@Z 10021d22 f   libconcrt:SearchAlgorithms.obj
 0001:00020dae       ?StealForeignLocalRunnable@WorkSearchContext@details@Concurrency@@AAE_NPAVWorkItem@23@PAVSchedulingNode@23@@Z 10021dae f   libconcrt:SearchAlgorithms.obj
 0001:00020df2       ?StealLocalRunnable@WorkSearchContext@details@Concurrency@@AAE_NPAVWorkItem@23@PAVSchedulingNode@23@PAVVirtualProcessor@23@@Z 10021df2 f   libconcrt:SearchAlgorithms.obj
 0001:00020e63       ?StealLocalRunnableContext@VirtualProcessor@details@Concurrency@@AAEPAVInternalContextBase@23@XZ 10021e63 f i libconcrt:SearchAlgorithms.obj
 0001:00020e7a       ?TransferReferences@WorkItem@details@Concurrency@@QAEXPAVInternalContextBase@23@@Z 10021e7a f   libconcrt:SearchAlgorithms.obj
 0001:00020ecf       ?Invoke@RealizedChore@details@Concurrency@@QAEXXZ 10021ecf f   libconcrt:RealizedChore.obj
 0001:00020ee2       ??0ThreadVirtualProcessor@details@Concurrency@@QAE@PAVSchedulingNode@12@PAUIVirtualProcessorRoot@2@@Z 10021ee2 f   libconcrt:ThreadVirtualProcessor.obj
 0001:00020f19       ??_GThreadVirtualProcessor@details@Concurrency@@UAEPAXI@Z 10021f19 f i libconcrt:ThreadVirtualProcessor.obj
 0001:00020f19       ??_EThreadVirtualProcessor@details@Concurrency@@UAEPAXI@Z 10021f19 f i libconcrt:ThreadVirtualProcessor.obj
 0001:00020f44       ___DestructExceptionObject 10021f44 f   libvcruntime:frame.obj
 0001:00020fd8       ??0bad_exception@std@@QAE@ABV01@@Z 10021fd8 f i libvcruntime:frame.obj
 0001:00020ff3       ??0bad_exception@std@@QAE@XZ 10021ff3 f i libvcruntime:frame.obj
 0001:00021824       ?_CallMemberFunction1@@YGXQAX00@Z 10022824 f i libvcruntime:frame.obj
 0001:00021824       ?_CallMemberFunction2@@YGXQAX00H@Z 10022824 f i libvcruntime:frame.obj
 0001:00021824       ?_CallMemberFunction0@@YGXQAX0@Z 10022824 f i libvcruntime:frame.obj
 0001:0002182b       ___AdjustPointer           1002282b f   libvcruntime:frame.obj
 0001:00021850       ___BuildCatchObject        10022850 f   libvcruntime:frame.obj
 0001:000218df       ___BuildCatchObjectHelper  100228df f   libvcruntime:frame.obj
 0001:00021a0d       ___FrameUnwindFilter       10022a0d f   libvcruntime:frame.obj
 0001:00021a52       ___FrameUnwindToState      10022a52 f   libvcruntime:frame.obj
 0001:00021b1a       ___InternalCxxFrameHandler 10022b1a f   libvcruntime:frame.obj
 0001:00021c16       ___TypeMatch               10022c16 f   libvcruntime:frame.obj
 0001:00021ca4       ___current_exception       10022ca4 f   libvcruntime:frame.obj
 0001:00021cad       ___processing_throw        10022cad f   libvcruntime:frame.obj
 0001:00021cb6       ___std_terminate           10022cb6 f   libvcruntime:frame.obj
 0001:00021cbb       ___uncaught_exception      10022cbb f   libvcruntime:frame.obj
 0001:00021cd0       _memmove                   10022cd0 f   libvcruntime:memmove.obj
 0001:00022244       __get_purecall_handler     10023244 f   libvcruntime:purevirt.obj
 0001:00022263       __purecall                 10023263 f   libvcruntime:purevirt.obj
 0001:0002227e       ___std_exception_copy      1002327e f   libvcruntime:std_exception.obj
 0001:000222e1       ___std_exception_destroy   100232e1 f   libvcruntime:std_exception.obj
 0001:00022300       __CxxThrowException@8      10023300 f   libvcruntime:throw.obj
 0001:0002236e       ?_CallCatchBlock2@@YAPAXPAUEHRegistrationNode@@PBU_s_FuncInfo@@PAXHK@Z 1002336e f   libvcruntime:trnsctrl.obj
 0001:000223ce       ?_CallSETranslator@@YAHPAUEHExceptionRecord@@PAUEHRegistrationNode@@PAX2PBU_s_FuncInfo@@H1@Z 100233ce f   libvcruntime:trnsctrl.obj
 0001:000224ab       ?_GetRangeOfTrysToCheck@@YAPBU_s_TryBlockMapEntry@@PBU_s_FuncInfo@@HHPAI1@Z 100234ab f   libvcruntime:trnsctrl.obj
 0001:00022523       ?_JumpToContinuation@@YGXPAXPAUEHRegistrationNode@@@Z 10023523 f   libvcruntime:trnsctrl.obj
 0001:00022555       ?_UnwindNestedFrames@@YGXPAUEHRegistrationNode@@PAUEHExceptionRecord@@@Z 10023555 f   libvcruntime:trnsctrl.obj
 0001:000225aa       __CatchGuardHandler        100235aa f   libvcruntime:trnsctrl.obj
 0001:000225db       __CreateFrameInfo          100235db f   libvcruntime:trnsctrl.obj
 0001:000225ff       __FindAndUnlinkFrame       100235ff f   libvcruntime:trnsctrl.obj
 0001:00022649       __IsExceptionObjectToBeDestroyed 10023649 f   libvcruntime:trnsctrl.obj
 0001:0002266f       __TranslatorGuardHandler   1002366f f   libvcruntime:trnsctrl.obj
 0001:0002270e       ___CxxFrameHandler3        1002370e f   libvcruntime:trnsctrl.obj
 0001:00022750       _memcpy                    10023750 f   libvcruntime:memcpy.obj
 0001:00022cc4       ??$__crt_fast_encode_pointer@P6GXPAU_RTL_CONDITION_VARIABLE@@@Z@@YAP6GXPAU_RTL_CONDITION_VARIABLE@@@ZQ6GX0@Z@Z 10023cc4 f i LIBCMT:thread_safe_statics.obj
 0001:00022cc4       ??$__crt_fast_encode_pointer@PAP6AXXZ@@YAPAP6AXXZQAP6AXXZ@Z 10023cc4 f i LIBCMT:utility.obj
 0001:00022cc4       ??$__crt_fast_encode_pointer@P6GHPAU_RTL_CONDITION_VARIABLE@@PAU_RTL_CRITICAL_SECTION@@K@Z@@YAP6GHPAU_RTL_CONDITION_VARIABLE@@PAU_RTL_CRITICAL_SECTION@@K@ZQ6GH01K@Z@Z 10023cc4 f i LIBCMT:thread_safe_statics.obj
 0001:00022cc4       ??$__crt_fast_encode_pointer@PAX@@YAPAXQAX@Z 10023cc4 f i libvcruntime:winapi_downlevel.obj
 0001:00022e02       ___vcrt_FlsAlloc           10023e02 f   libvcruntime:winapi_downlevel.obj
 0001:00022e3c       ___vcrt_FlsFree            10023e3c f   libvcruntime:winapi_downlevel.obj
 0001:00022e76       ___vcrt_FlsGetValue        10023e76 f   libvcruntime:winapi_downlevel.obj
 0001:00022eb0       ___vcrt_FlsSetValue        10023eb0 f   libvcruntime:winapi_downlevel.obj
 0001:00022eed       ___vcrt_InitializeCriticalSectionEx 10023eed f   libvcruntime:winapi_downlevel.obj
 0001:00022f33       ___vcrt_initialize_winapi_thunks 10023f33 f   libvcruntime:winapi_downlevel.obj
 0001:00022f6d       ___vcrt_uninitialize_winapi_thunks 10023f6d f   libvcruntime:winapi_downlevel.obj
 0001:00022f9f       ___vcrt_initialize         10023f9f f   libvcruntime:initialization.obj
 0001:00022fc8       ___vcrt_thread_attach      10023fc8 f   libvcruntime:initialization.obj
 0001:00022fd3       ___vcrt_thread_detach      10023fd3 f   libvcruntime:initialization.obj
 0001:00022fde       ___vcrt_uninitialize       10023fde f   libvcruntime:initialization.obj
 0001:00022ffd       ___vcrt_uninitialize_critical 10023ffd f   libvcruntime:initialization.obj
 0001:00023050       __except_handler4          10024050 f   libvcruntime:_chandler4_.obj
 0001:000231c0       _memset                    100241c0 f   libvcruntime:memset.obj
 0001:0002331a       ___std_type_info_compare   1002431a f   libvcruntime:std_type_info.obj
 0001:00023356       ___std_type_info_destroy_list 10024356 f   libvcruntime:std_type_info.obj
 0001:00023379       ??0__non_rtti_object@std@@QAE@ABV01@@Z 10024379 f i libvcruntime:rtti.obj
 0001:00023394       ??0bad_cast@std@@QAE@ABV01@@Z 10024394 f i libvcruntime:rtti.obj
 0001:000233af       ??0bad_typeid@std@@QAE@ABV01@@Z 100243af f i libvcruntime:rtti.obj
 0001:000237d2       ?__construct_from_string_literal@__non_rtti_object@std@@SA?AV12@QBD@Z 100247d2 f i libvcruntime:rtti.obj
 0001:000237ee       ?__construct_from_string_literal@bad_cast@std@@SA?AV12@QBD@Z 100247ee f i libvcruntime:rtti.obj
 0001:0002380a       ___RTDynamicCast           1002480a f   libvcruntime:rtti.obj
 0001:000238ec       _unexpected                100248ec f   libvcruntime:unexpected.obj
 0001:00023908       ___vcrt_freefls@4          10024908 f   libvcruntime:per_thread_data.obj
 0001:00023924       ___vcrt_freeptd            10024924 f   libvcruntime:per_thread_data.obj
 0001:0002395a       ___vcrt_getptd             1002495a f   libvcruntime:per_thread_data.obj
 0001:00023968       ___vcrt_getptd_noexit      10024968 f   libvcruntime:per_thread_data.obj
 0001:000239fa       ___vcrt_initialize_ptd     100249fa f   libvcruntime:per_thread_data.obj
 0001:00023a2d       ___vcrt_uninitialize_ptd   10024a2d f   libvcruntime:per_thread_data.obj
 0001:00023a50       __CallSettingFrame@12      10024a50 f   libvcruntime:lowhelpr.obj
 0001:00023a77       __NLG_Return               10024a77     libvcruntime:lowhelpr.obj
 0001:00023a9c       ___vcrt_initialize_pure_virtual_call_handler 10024a9c f   libvcruntime:purevirt_data.obj
 0001:00023ab9       ___vcrt_initialize_locks   10024ab9 f   libvcruntime:locks.obj
 0001:00023af5       ___vcrt_uninitialize_locks 10024af5 f   libvcruntime:locks.obj
 0001:00023b30       __local_unwind4            10024b30 f   libvcruntime:_exsup4_.obj
 0001:00023c06       __seh_longjmp_unwind4@4    10024c06 f   libvcruntime:_exsup4_.obj
 0001:00023c2e       @_EH4_CallFilterFunc@8     10024c2e f   libvcruntime:_exsup4_.obj
 0001:00023c45       @_EH4_TransferToHandler@8  10024c45 f   libvcruntime:_exsup4_.obj
 0001:00023c5e       @_EH4_GlobalUnwind2@8      10024c5e f   libvcruntime:_exsup4_.obj
 0001:00023c77       @_EH4_LocalUnwind@16       10024c77 f   libvcruntime:_exsup4_.obj
 0001:00023c90       __global_unwind2           10024c90 f   libvcruntime:_exsup_.obj
 0001:00023cf5       __local_unwind2            10024cf5 f   libvcruntime:_exsup_.obj
 0001:00023d79       __abnormal_termination     10024d79 f   libvcruntime:_exsup_.obj
 0001:00023d9c       __NLG_Notify1              10024d9c f   libvcruntime:_exsup_.obj
 0001:00023da5       __NLG_Notify               10024da5 f   libvcruntime:_exsup_.obj
 0001:00023dbc       __NLG_Dispatch2            10024dbc     libvcruntime:_exsup_.obj
 0001:00023dbc       __NLG_Dispatch             10024dbc     libvcruntime:_exsup_.obj
 0001:00023dc4       __NLG_Call                 10024dc4 f   libvcruntime:_exsup_.obj
 0001:00023dc6       __NLG_Return2              10024dc6     libvcruntime:_exsup_.obj
 0001:00024137       ??$count@D@formatting_buffer@__crt_stdio_output@@QBEIXZ 10025137 f i libucrt:output.obj
 0001:0002414f       ??$ensure_buffer_is_big_enough@D@formatting_buffer@__crt_stdio_output@@QAE_NI@Z 1002514f f i libucrt:output.obj
 0001:000241d5       ??$is_wide_character_specifier@D@__crt_stdio_output@@YA_N_KDW4length_modifier@0@@Z 100251d5 f i libucrt:output.obj
 0001:00024215       ??$scratch_data@D@formatting_buffer@__crt_stdio_output@@QAEPADXZ 10025215 f i libucrt:output.obj
 0001:00024233       ??$type_case_integer_parse_into_buffer@I@?$output_processor@DV?$string_output_adapter@D@__crt_stdio_output@@V?$standard_base@DV?$string_output_adapter@D@__crt_stdio_output@@@2@@__crt_stdio_output@@AAEXII_N@Z 10025233 f i libucrt:output.obj
 0001:00024233       ??$type_case_integer_parse_into_buffer@I@?$output_processor@DV?$string_output_adapter@D@__crt_stdio_output@@V?$format_validation_base@DV?$string_output_adapter@D@__crt_stdio_output@@@2@@__crt_stdio_output@@AAEXII_N@Z 10025233 f i libucrt:output.obj
 0001:000242a8       ??$type_case_integer_parse_into_buffer@_K@?$output_processor@DV?$string_output_adapter@D@__crt_stdio_output@@V?$format_validation_base@DV?$string_output_adapter@D@__crt_stdio_output@@@2@@__crt_stdio_output@@AAEX_KI_N@Z 100252a8 f i libucrt:output.obj
 0001:000242a8       ??$type_case_integer_parse_into_buffer@_K@?$output_processor@DV?$string_output_adapter@D@__crt_stdio_output@@V?$standard_base@DV?$string_output_adapter@D@__crt_stdio_output@@@2@@__crt_stdio_output@@AAEX_KI_N@Z 100252a8 f i libucrt:output.obj
 0001:00024330       ??$write_multiple_characters@V?$string_output_adapter@D@__crt_stdio_output@@D@__crt_stdio_output@@YAXABV?$string_output_adapter@D@0@DHQAH@Z 10025330 f i libucrt:output.obj
 0001:0002435c       ??0?$common_data@D@__crt_stdio_output@@IAE@XZ 1002535c f i libucrt:output.obj
 0001:000243a3       ??0?$output_adapter_data@DV?$string_output_adapter@D@__crt_stdio_output@@@__crt_stdio_output@@IAE@ABV?$string_output_adapter@D@1@_KQBDQAU__crt_locale_pointers@@QAD@Z 100253a3 f i libucrt:output.obj
 0001:000243df       ??0?$output_processor@DV?$string_output_adapter@D@__crt_stdio_output@@V?$standard_base@DV?$string_output_adapter@D@__crt_stdio_output@@@2@@__crt_stdio_output@@QAE@ABV?$string_output_adapter@D@1@_KQBDQAU__crt_locale_pointers@@QAD@Z 100253df f i libucrt:output.obj
 0001:000243df       ??0?$output_processor@DV?$string_output_adapter@D@__crt_stdio_output@@V?$format_validation_base@DV?$string_output_adapter@D@__crt_stdio_output@@@2@@__crt_stdio_output@@QAE@ABV?$string_output_adapter@D@1@_KQBDQAU__crt_locale_pointers@@QAD@Z 100253df f i libucrt:output.obj
 0001:00024414       ??0_LocaleUpdate@@QAE@QAU__crt_locale_pointers@@@Z 10025414 f i libucrt:output.obj
 0001:00024497       ??1formatting_buffer@__crt_stdio_output@@QAE@XZ 10025497 f i libucrt:output.obj
 0001:000244b1       ??4?$__crt_unique_heap_ptr@DU__crt_internal_free_policy@@@@QAEAAV0@$$QAV0@@Z 100254b1 f i libucrt:output.obj
 0001:000244d5       ?crop_zeroes@__crt_stdio_output@@YAXPADQAU__crt_locale_pointers@@@Z 100254d5 f i libucrt:output.obj
 0001:0002452c       ?find_next_state@?$output_processor@DV?$string_output_adapter@D@__crt_stdio_output@@V?$format_validation_base@DV?$string_output_adapter@D@__crt_stdio_output@@@2@@__crt_stdio_output@@ABE?AW4state@2@DW432@@Z 1002552c f i libucrt:output.obj
 0001:00024561       ?find_next_state@?$output_processor@DV?$string_output_adapter@D@__crt_stdio_output@@V?$standard_base@DV?$string_output_adapter@D@__crt_stdio_output@@@2@@__crt_stdio_output@@ABE?AW4state@2@DW432@@Z 10025561 f i libucrt:output.obj
 0001:00024593       ?force_decimal_point@__crt_stdio_output@@YAXPADQAU__crt_locale_pointers@@@Z 10025593 f i libucrt:output.obj
 0001:000245ef       ?parse_int_from_format_string@?$output_processor@DV?$string_output_adapter@D@__crt_stdio_output@@V?$format_validation_base@DV?$string_output_adapter@D@__crt_stdio_output@@@2@@__crt_stdio_output@@AAE_NQAH@Z 100255ef f i libucrt:output.obj
 0001:000245ef       ?parse_int_from_format_string@?$output_processor@DV?$string_output_adapter@D@__crt_stdio_output@@V?$standard_base@DV?$string_output_adapter@D@__crt_stdio_output@@@2@@__crt_stdio_output@@AAE_NQAH@Z 100255ef f i libucrt:output.obj
 0001:0002464b       ?process@?$output_processor@DV?$string_output_adapter@D@__crt_stdio_output@@V?$format_validation_base@DV?$string_output_adapter@D@__crt_stdio_output@@@2@@__crt_stdio_output@@QAEHXZ 1002564b f i libucrt:output.obj
 0001:00024773       ?process@?$output_processor@DV?$string_output_adapter@D@__crt_stdio_output@@V?$standard_base@DV?$string_output_adapter@D@__crt_stdio_output@@@2@@__crt_stdio_output@@QAEHXZ 10025773 f i libucrt:output.obj
 0001:0002488f       ?state_case_flag@?$output_processor@DV?$string_output_adapter@D@__crt_stdio_output@@V?$standard_base@DV?$string_output_adapter@D@__crt_stdio_output@@@2@@__crt_stdio_output@@AAE_NXZ 1002588f f i libucrt:output.obj
 0001:0002488f       ?state_case_flag@?$output_processor@DV?$string_output_adapter@D@__crt_stdio_output@@V?$format_validation_base@DV?$string_output_adapter@D@__crt_stdio_output@@@2@@__crt_stdio_output@@AAE_NXZ 1002588f f i libucrt:output.obj
 0001:000248cc       ?state_case_normal@?$output_processor@DV?$string_output_adapter@D@__crt_stdio_output@@V?$standard_base@DV?$string_output_adapter@D@__crt_stdio_output@@@2@@__crt_stdio_output@@AAE_NXZ 100258cc f i libucrt:output.obj
 0001:000248cc       ?state_case_normal@?$output_processor@DV?$string_output_adapter@D@__crt_stdio_output@@V?$format_validation_base@DV?$string_output_adapter@D@__crt_stdio_output@@@2@@__crt_stdio_output@@AAE_NXZ 100258cc f i libucrt:output.obj
 0001:000248eb       ?state_case_normal_common@?$output_processor@DV?$string_output_adapter@D@__crt_stdio_output@@V?$standard_base@DV?$string_output_adapter@D@__crt_stdio_output@@@2@@__crt_stdio_output@@AAE_NXZ 100258eb f i libucrt:output.obj
 0001:000248eb       ?state_case_normal_common@?$output_processor@DV?$string_output_adapter@D@__crt_stdio_output@@V?$format_validation_base@DV?$string_output_adapter@D@__crt_stdio_output@@@2@@__crt_stdio_output@@AAE_NXZ 100258eb f i libucrt:output.obj
 0001:00024915       ?state_case_normal_tchar@?$output_processor@DV?$string_output_adapter@D@__crt_stdio_output@@V?$standard_base@DV?$string_output_adapter@D@__crt_stdio_output@@@2@@__crt_stdio_output@@AAE_ND@Z 10025915 f i libucrt:output.obj
 0001:00024915       ?state_case_normal_tchar@?$output_processor@DV?$string_output_adapter@D@__crt_stdio_output@@V?$format_validation_base@DV?$string_output_adapter@D@__crt_stdio_output@@@2@@__crt_stdio_output@@AAE_ND@Z 10025915 f i libucrt:output.obj
 0001:00024976       ?state_case_precision@?$output_processor@DV?$string_output_adapter@D@__crt_stdio_output@@V?$standard_base@DV?$string_output_adapter@D@__crt_stdio_output@@@2@@__crt_stdio_output@@AAE_NXZ 10025976 f i libucrt:output.obj
 0001:00024976       ?state_case_precision@?$output_processor@DV?$string_output_adapter@D@__crt_stdio_output@@V?$format_validation_base@DV?$string_output_adapter@D@__crt_stdio_output@@@2@@__crt_stdio_output@@AAE_NXZ 10025976 f i libucrt:output.obj
 0001:0002499e       ?state_case_size@?$output_processor@DV?$string_output_adapter@D@__crt_stdio_output@@V?$format_validation_base@DV?$string_output_adapter@D@__crt_stdio_output@@@2@@__crt_stdio_output@@AAE_NXZ 1002599e f i libucrt:output.obj
 0001:0002499e       ?state_case_size@?$output_processor@DV?$string_output_adapter@D@__crt_stdio_output@@V?$standard_base@DV?$string_output_adapter@D@__crt_stdio_output@@@2@@__crt_stdio_output@@AAE_NXZ 1002599e f i libucrt:output.obj
 0001:00024b07       ?state_case_type@?$output_processor@DV?$string_output_adapter@D@__crt_stdio_output@@V?$format_validation_base@DV?$string_output_adapter@D@__crt_stdio_output@@@2@@__crt_stdio_output@@AAE_NXZ 10025b07 f i libucrt:output.obj
 0001:00024b07       ?state_case_type@?$output_processor@DV?$string_output_adapter@D@__crt_stdio_output@@V?$standard_base@DV?$string_output_adapter@D@__crt_stdio_output@@@2@@__crt_stdio_output@@AAE_NXZ 10025b07 f i libucrt:output.obj
 0001:00024d36       ?state_case_width@?$output_processor@DV?$string_output_adapter@D@__crt_stdio_output@@V?$standard_base@DV?$string_output_adapter@D@__crt_stdio_output@@@2@@__crt_stdio_output@@AAE_NXZ 10025d36 f i libucrt:output.obj
 0001:00024d36       ?state_case_width@?$output_processor@DV?$string_output_adapter@D@__crt_stdio_output@@V?$format_validation_base@DV?$string_output_adapter@D@__crt_stdio_output@@@2@@__crt_stdio_output@@AAE_NXZ 10025d36 f i libucrt:output.obj
 0001:00024d61       ?to_integer_size@__crt_stdio_output@@YAIW4length_modifier@1@@Z 10025d61 f i libucrt:output.obj
 0001:00024dbd       ?type_case_Z@?$output_processor@DV?$string_output_adapter@D@__crt_stdio_output@@V?$standard_base@DV?$string_output_adapter@D@__crt_stdio_output@@@2@@__crt_stdio_output@@AAE_NXZ 10025dbd f i libucrt:output.obj
 0001:00024dbd       ?type_case_Z@?$output_processor@DV?$string_output_adapter@D@__crt_stdio_output@@V?$format_validation_base@DV?$string_output_adapter@D@__crt_stdio_output@@@2@@__crt_stdio_output@@AAE_NXZ 10025dbd f i libucrt:output.obj
 0001:00024e20       ?type_case_a@?$output_processor@DV?$string_output_adapter@D@__crt_stdio_output@@V?$standard_base@DV?$string_output_adapter@D@__crt_stdio_output@@@2@@__crt_stdio_output@@AAE_NXZ 10025e20 f i libucrt:output.obj
 0001:00024e20       ?type_case_a@?$output_processor@DV?$string_output_adapter@D@__crt_stdio_output@@V?$format_validation_base@DV?$string_output_adapter@D@__crt_stdio_output@@@2@@__crt_stdio_output@@AAE_NXZ 10025e20 f i libucrt:output.obj
 0001:00024f7a       ?type_case_c_tchar@?$output_processor@DV?$string_output_adapter@D@__crt_stdio_output@@V?$format_validation_base@DV?$string_output_adapter@D@__crt_stdio_output@@@2@@__crt_stdio_output@@AAE_ND@Z 10025f7a f i libucrt:output.obj
 0001:00024f7a       ?type_case_c_tchar@?$output_processor@DV?$string_output_adapter@D@__crt_stdio_output@@V?$standard_base@DV?$string_output_adapter@D@__crt_stdio_output@@@2@@__crt_stdio_output@@AAE_ND@Z 10025f7a f i libucrt:output.obj
 0001:0002500a       ?type_case_integer@?$output_processor@DV?$string_output_adapter@D@__crt_stdio_output@@V?$format_validation_base@DV?$string_output_adapter@D@__crt_stdio_output@@@2@@__crt_stdio_output@@AAE_NI_N@Z 1002600a f i libucrt:output.obj
 0001:0002500a       ?type_case_integer@?$output_processor@DV?$string_output_adapter@D@__crt_stdio_output@@V?$standard_base@DV?$string_output_adapter@D@__crt_stdio_output@@@2@@__crt_stdio_output@@AAE_NI_N@Z 1002600a f i libucrt:output.obj
 0001:00025154       ?type_case_n@?$output_processor@DV?$string_output_adapter@D@__crt_stdio_output@@V?$standard_base@DV?$string_output_adapter@D@__crt_stdio_output@@@2@@__crt_stdio_output@@AAE_NXZ 10026154 f i libucrt:output.obj
 0001:00025154       ?type_case_n@?$output_processor@DV?$string_output_adapter@D@__crt_stdio_output@@V?$format_validation_base@DV?$string_output_adapter@D@__crt_stdio_output@@@2@@__crt_stdio_output@@AAE_NXZ 10026154 f i libucrt:output.obj
 0001:000251c8       ?type_case_o@?$output_processor@DV?$string_output_adapter@D@__crt_stdio_output@@V?$standard_base@DV?$string_output_adapter@D@__crt_stdio_output@@@2@@__crt_stdio_output@@AAE_NXZ 100261c8 f i libucrt:output.obj
 0001:000251c8       ?type_case_o@?$output_processor@DV?$string_output_adapter@D@__crt_stdio_output@@V?$format_validation_base@DV?$string_output_adapter@D@__crt_stdio_output@@@2@@__crt_stdio_output@@AAE_NXZ 100261c8 f i libucrt:output.obj
 0001:000251e7       ?type_case_p@?$output_processor@DV?$string_output_adapter@D@__crt_stdio_output@@V?$standard_base@DV?$string_output_adapter@D@__crt_stdio_output@@@2@@__crt_stdio_output@@AAE_NXZ 100261e7 f i libucrt:output.obj
 0001:000251e7       ?type_case_p@?$output_processor@DV?$string_output_adapter@D@__crt_stdio_output@@V?$format_validation_base@DV?$string_output_adapter@D@__crt_stdio_output@@@2@@__crt_stdio_output@@AAE_NXZ 100261e7 f i libucrt:output.obj
 0001:000251ff       ?type_case_s@?$output_processor@DV?$string_output_adapter@D@__crt_stdio_output@@V?$standard_base@DV?$string_output_adapter@D@__crt_stdio_output@@@2@@__crt_stdio_output@@AAE_NXZ 100261ff f i libucrt:output.obj
 0001:000251ff       ?type_case_s@?$output_processor@DV?$string_output_adapter@D@__crt_stdio_output@@V?$format_validation_base@DV?$string_output_adapter@D@__crt_stdio_output@@@2@@__crt_stdio_output@@AAE_NXZ 100261ff f i libucrt:output.obj
 0001:00025272       ?validate@?$string_output_adapter@D@__crt_stdio_output@@QBE_NXZ 10026272 f i libucrt:output.obj
 0001:00025272       ?validate@?$c_string_character_source@D@__crt_strtox@@QBE_NXZ 10026272 f i libucrt:atox.obj
 0001:0002528d       ?validate_and_update_state_at_end_of_format_string@?$format_validation_base@DV?$string_output_adapter@D@__crt_stdio_output@@@__crt_stdio_output@@IBE_NXZ 1002628d f i libucrt:output.obj
 0001:000252af       ?write_character@?$string_output_adapter@D@__crt_stdio_output@@QBE_NDQAH@Z 100262af f i libucrt:output.obj
 0001:000252f1       ?write_stored_string_tchar@?$output_processor@DV?$string_output_adapter@D@__crt_stdio_output@@V?$format_validation_base@DV?$string_output_adapter@D@__crt_stdio_output@@@2@@__crt_stdio_output@@AAE_ND@Z 100262f1 f i libucrt:output.obj
 0001:000252f1       ?write_stored_string_tchar@?$output_processor@DV?$string_output_adapter@D@__crt_stdio_output@@V?$standard_base@DV?$string_output_adapter@D@__crt_stdio_output@@@2@@__crt_stdio_output@@AAE_ND@Z 100262f1 f i libucrt:output.obj
 0001:00025398       ?write_string@?$string_output_adapter@D@__crt_stdio_output@@QBEXQBDHQAH1@Z 10026398 f i libucrt:output.obj
 0001:0002542b       ___stdio_common_vsprintf   1002642b f   libucrt:output.obj
 0001:0002544f       ___stdio_common_vsprintf_s 1002644f f   libucrt:output.obj
 0001:00025473       ?initialize@?$dual_state_global@PAU__crt_locale_data@@@__crt_state_management@@QAEXQAU__crt_locale_data@@@Z 10026473 f i libucrt:initialization.obj
 0001:00025473       ?initialize@?$dual_state_global@P6AXPB_W00II@Z@__crt_state_management@@QAEXQ6AXPB_W00II@Z@Z 10026473 f i libucrt:invalid_parameter.obj
 0001:00025473       ?initialize@?$dual_state_global@P6AHI@Z@__crt_state_management@@QAEXQ6AHI@Z@Z 10026473 f i libucrt:new_handler.obj
 0001:00025473       ?initialize@?$dual_state_global@P6AXH@Z@__crt_state_management@@QAEXQ6AXH@Z@Z 10026473 f i libucrt:signal.obj
 0001:00025473       ?initialize@?$dual_state_global@PAPAD@__crt_state_management@@QAEXQAPAD@Z 10026473 f i libucrt:environment_initialization.obj
 0001:00025473       ?initialize@?$dual_state_global@P6AHPAU_exception@@@Z@__crt_state_management@@QAEXQ6AHPAU_exception@@@Z@Z 10026473 f i libucrt:matherr.obj
 0001:000254a4       ___acrt_call_reportfault   100264a4 f   libucrt:invalid_parameter.obj
 0001:000255df       ___acrt_initialize_invalid_parameter_handler 100265df f   libucrt:invalid_parameter.obj
 0001:000255f3       __invalid_parameter        100265f3 f   libucrt:invalid_parameter.obj
 0001:0002566e       __invalid_parameter_noinfo 1002666e f   libucrt:invalid_parameter.obj
 0001:0002567e       __invalid_parameter_noinfo_noreturn 1002667e f   libucrt:invalid_parameter.obj
 0001:0002569b       __invoke_watson            1002669b f   libucrt:invalid_parameter.obj
 0001:000256ce       ??$is_overflow_condition@K@__crt_strtox@@YA_NIK@Z 100266ce f i libucrt:atox.obj
 0001:00025701       ??$parse_integer@KV?$c_string_character_source@D@__crt_strtox@@@__crt_strtox@@YAKQAU__crt_locale_pointers@@V?$c_string_character_source@D@0@H_N@Z 10026701 f i libucrt:atox.obj
 0001:00025929       ?unget@?$c_string_character_source@D@__crt_strtox@@QAEXD@Z 10026929 f i libucrt:atox.obj
 0001:00025951       __chvalidchk_l             10026951 f i libucrt:atox.obj
 0001:0002597b       __ischartype_l             1002697b f i libucrt:atox.obj
 0001:000259ae       _atoi                      100269ae f   libucrt:atox.obj
 0001:000259d8       _rand                      100269d8 f   libucrt:rand.obj
 0001:000259f9       _terminate                 100269f9 f   libucrt:terminate.obj
 0001:00025a35       __calloc_base              10026a35 f   libucrt:calloc_base.obj
 0001:00025a92       __free_base                10026a92 f   libucrt:free_base.obj
 0001:00025acc       _abort                     10026acc f   libucrt:abort.obj
 0001:00025b0f       ___acrt_initialize_stdio   10026b0f f   libucrt:_file.obj
 0001:00025bd7       ___acrt_iob_func           10026bd7 f   libucrt:_file.obj
 0001:00025be7       ___acrt_uninitialize_stdio 10026be7 f   libucrt:_file.obj
 0001:00025c33       __lock_file                10026c33 f   libucrt:_file.obj
 0001:00025c47       __unlock_file              10026c47 f   libucrt:_file.obj
 0001:00025cd8       ??Rthread_parameter_free_policy@?A0xe57bf005@@QAEXQAU__acrt_thread_parameter@@@Z 10026cd8 f i libucrt:thread.obj
 0001:00025daf       __beginthreadex            10026daf f   libucrt:thread.obj
 0001:00025e34       __endthreadex              10026e34 f   libucrt:thread.obj
 0001:00025e42       ___acrt_initialize_locks   10026e42 f   libucrt:locks.obj
 0001:00025e83       ___acrt_lock               10026e83 f   libucrt:locks.obj
 0001:00025e9a       ___acrt_uninitialize_locks 10026e9a f   libucrt:locks.obj
 0001:00025ecb       ___acrt_unlock             10026ecb f   libucrt:locks.obj
 0001:00025ee2       ___acrt_initialize_new_handler 10026ee2 f   libucrt:new_handler.obj
 0001:00025ef6       __callnewh                 10026ef6 f   libucrt:new_handler.obj
 0001:00025f3a       __query_new_handler        10026f3a f   libucrt:new_handler.obj
 0001:00025f8c       _malloc                    10026f8c f   libucrt:malloc.obj
 0001:00025f97       _free                      10026f97 f   libucrt:free.obj
 0001:00025f9c       __seh_filter_dll           10026f9c f   libucrt:exception_filter.obj
 0001:00025fbc       __seh_filter_exe           10026fbc f   libucrt:exception_filter.obj
 0001:0002634a       ___acrt_initialize_thread_local_exit_callback 1002734a f   libucrt:exit.obj
 0001:00026359       __cexit                    10027359 f   libucrt:exit.obj
 0001:00026368       __exit                     10027368 f   libucrt:exit.obj
 0001:0002637e       __is_c_termination_complete 1002737e f   libucrt:exit.obj
 0001:0002661d       ___acrt_allocate_buffer_for_argv 1002761d f   libucrt:argv_parsing.obj
 0001:00026672       __configure_narrow_argv    10027672 f   libucrt:argv_parsing.obj
 0001:000267d6       ??$uninitialize@A6AXAAPAPA_W@Z@?$dual_state_global@PAPA_W@__crt_state_management@@QAEXA6AXAAPAPA_W@Z@Z 100277d6 f i libucrt:environment_initialization.obj
 0001:000267d6       ??$uninitialize@A6AXAAPAPAD@Z@?$dual_state_global@PAPAD@__crt_state_management@@QAEXA6AXAAPAPAD@Z@Z 100277d6 f i libucrt:environment_initialization.obj
 0001:0002684c       ___dcrt_uninitialize_environments_nolock 1002784c f   libucrt:environment_initialization.obj
 0001:00026883       __initialize_narrow_environment 10027883 f   libucrt:environment_initialization.obj
 0001:00026888       ??$?RV<lambda_800076c951b434888f4765a74a194fcc>@@AAV<lambda_4e60a939b0d047cfe11ddc22648dfba9>@@V<lambda_6dbb1268764f43b569ce7b67e331d33a>@@@?$__crt_seh_guarded_call@H@@QAEH$$QAV<lambda_800076c951b434888f4765a74a194fcc>@@AAV<lambda_4e60a939b0d047cfe11ddc22648dfba9>@@$$QAV<lambda_6dbb1268764f43b569ce7b67e331d33a>@@@Z 10027888 f i libucrt:onexit.obj
 0001:000268d9       ??$?RV<lambda_995298e7d72eb4c2aab26c0585b3abe5>@@AAV<lambda_275893d493268fdec8709772e3fcec0e>@@V<lambda_293819299cbf9a7022e18b56a874bb5c>@@@?$__crt_seh_guarded_call@H@@QAEH$$QAV<lambda_995298e7d72eb4c2aab26c0585b3abe5>@@AAV<lambda_275893d493268fdec8709772e3fcec0e>@@$$QAV<lambda_293819299cbf9a7022e18b56a874bb5c>@@@Z 100278d9 f i libucrt:onexit.obj
 0001:0002692a       ??$__acrt_lock_and_call@V<lambda_275893d493268fdec8709772e3fcec0e>@@@@YAHW4__acrt_lock_id@@$$QAV<lambda_275893d493268fdec8709772e3fcec0e>@@@Z 1002792a f i libucrt:onexit.obj
 0001:00026952       ??$__acrt_lock_and_call@V<lambda_4e60a939b0d047cfe11ddc22648dfba9>@@@@YAHW4__acrt_lock_id@@$$QAV<lambda_4e60a939b0d047cfe11ddc22648dfba9>@@@Z 10027952 f i libucrt:onexit.obj
 0001:0002697a       ??$__crt_fast_encode_pointer@P6AHXZ@@YAP6AHXZQ6AHXZ@Z 1002797a f i libucrt:onexit.obj
 0001:00026bfa       __crt_atexit               10027bfa f   libucrt:onexit.obj
 0001:00026c10       __execute_onexit_table     10027c10 f   libucrt:onexit.obj
 0001:00026c2d       __initialize_onexit_table  10027c2d f   libucrt:onexit.obj
 0001:00026c6a       __register_onexit_function 10027c6a f   libucrt:onexit.obj
 0001:00026d7f       ___acrt_initialize         10027d7f f   libucrt:initialization.obj
 0001:00026d91       ___acrt_thread_attach      10027d91 f   libucrt:initialization.obj
 0001:00026d9c       ___acrt_thread_detach      10027d9c f   libucrt:initialization.obj
 0001:00026da4       ___acrt_uninitialize       10027da4 f   libucrt:initialization.obj
 0001:00026db6       ___acrt_uninitialize_critical 10027db6 f   libucrt:initialization.obj
 0001:00026dc8       __initterm                 10027dc8 f   libucrt:initterm.obj
 0001:00026e24       __initterm_e               10027e24 f   libucrt:initterm.obj
 0001:00026e69       ___acrt_stdio_flush_nolock 10027e69 f   libucrt:fflush.obj
 0001:00026ecf       __fflush_nolock            10027ecf f   libucrt:fflush.obj
 0001:00026f16       __flushall                 10027f16 f   libucrt:fflush.obj
 0001:00027000       _exp                       10028000 f   libucrt:87ctran.obj
 0001:0002703c       __CIexp                    1002803c f   libucrt:87ctran.obj
 0001:00027077       __exp_default              10028077 f   libucrt:87ctran.obj
 0001:00027081       __CIexp_default            10028081 f   libucrt:87ctran.obj
 0001:00027090       __CIsqrt                   10028090 f   libucrt:sqrt.obj
 0001:000270a4       _sqrt                      100280a4     libucrt:sqrt.obj
 0001:0002714a       _strcpy_s                  1002814a f   libucrt:strcpy_s.obj
 0001:000271a4       __malloc_base              100281a4 f   libucrt:malloc_base.obj
 0001:000271f2       __isdigit_l                100281f2 f i libucrt:_ctype.obj
 0001:0002722a       _isdigit                   1002822a f i libucrt:_ctype.obj
 0001:000273be       __tolower_l                100283be f   libucrt:tolower_toupper.obj
 0001:000273d8       _tolower                   100283d8 f   libucrt:tolower_toupper.obj
 0001:00027408       ___acrt_errno_from_os_error 10028408 f   libucrt:errno.obj
 0001:0002744b       ___acrt_errno_map_os_error 1002844b f   libucrt:errno.obj
 0001:0002746e       ___doserrno                1002846e f   libucrt:errno.obj
 0001:00027481       __errno                    10028481 f   libucrt:errno.obj
 0001:00027494       ??$make_c_string_character_source@D$$T@__crt_strtox@@YA?AV?$c_string_character_source@D@0@QBD$$T@Z 10028494 f i libucrt:atox.obj
 0001:00027494       ??$make_c_string_character_source@DPAPAD@__crt_strtox@@YA?AV?$c_string_character_source@D@0@QBDQAPAD@Z 10028494 f i libucrt:strtox.obj
 0001:000274af       _strtol                    100284af f   libucrt:strtox.obj
 0001:000274db       __mbtowc_l                 100284db f   libucrt:mbtowc.obj
 0001:000275d5       _mbtowc                    100285d5 f   libucrt:mbtowc.obj
 0001:000275ef       __wctomb_s_l               100285ef f   libucrt:wctomb.obj
 0001:00027710       _wctomb_s                  10028710 f   libucrt:wctomb.obj
 0001:0002772d       _strnlen                   1002872d f   libucrt:strnlen.obj
 0001:00027854       _wcsnlen                   10028854 f   libucrt:strnlen.obj
 0001:00027a0b       ??$?RV<lambda_3518db117f0e7cdb002338c5d3c47b6c>@@AAV<lambda_b2ea41f6bbb362cd97d94c6828d90b61>@@V<lambda_abdedf541bb04549bc734292b4a045d4>@@@?$__crt_seh_guarded_call@X@@QAEX$$QAV<lambda_3518db117f0e7cdb002338c5d3c47b6c>@@AAV<lambda_b2ea41f6bbb362cd97d94c6828d90b61>@@$$QAV<lambda_abdedf541bb04549bc734292b4a045d4>@@@Z 10028a0b f i libucrt:per_thread_data.obj
 0001:00027a5b       ??$?RV<lambda_51b6e8b1eb166f2a3faf91f424b38130>@@AAV<lambda_6250bd4b2a391816dd638c3bf72b0bcb>@@V<lambda_0b5a4a3e68152e1d9b943535f5f47bed>@@@?$__crt_seh_guarded_call@X@@QAEX$$QAV<lambda_51b6e8b1eb166f2a3faf91f424b38130>@@AAV<lambda_6250bd4b2a391816dd638c3bf72b0bcb>@@$$QAV<lambda_0b5a4a3e68152e1d9b943535f5f47bed>@@@Z 10028a5b f i libucrt:per_thread_data.obj
 0001:00027abc       ??$?RV<lambda_5b71d36f03204c0beab531769a5b5694>@@AAV<lambda_be2b3da3f62db62e9dad5dc70221a656>@@V<lambda_8f9ce462984622f9bf76b59e2aaaf805>@@@?$__crt_seh_guarded_call@X@@QAEX$$QAV<lambda_5b71d36f03204c0beab531769a5b5694>@@AAV<lambda_be2b3da3f62db62e9dad5dc70221a656>@@$$QAV<lambda_8f9ce462984622f9bf76b59e2aaaf805>@@@Z 10028abc f i libucrt:per_thread_data.obj
 0001:00027b07       ??$?RV<lambda_9df27f884b057bc3edfc946cb5b7cf47>@@AAV<lambda_e69574bed617af4e071282c136b37893>@@V<lambda_cc0d902bcbbeb830f749456577db4721>@@@?$__crt_seh_guarded_call@X@@QAEX$$QAV<lambda_9df27f884b057bc3edfc946cb5b7cf47>@@AAV<lambda_e69574bed617af4e071282c136b37893>@@$$QAV<lambda_cc0d902bcbbeb830f749456577db4721>@@@Z 10028b07 f i libucrt:per_thread_data.obj
 0001:00027b4f       ??$__acrt_lock_and_call@V<lambda_6250bd4b2a391816dd638c3bf72b0bcb>@@@@YAXW4__acrt_lock_id@@$$QAV<lambda_6250bd4b2a391816dd638c3bf72b0bcb>@@@Z 10028b4f f i libucrt:per_thread_data.obj
 0001:00027b77       ??$__acrt_lock_and_call@V<lambda_b2ea41f6bbb362cd97d94c6828d90b61>@@@@YAXW4__acrt_lock_id@@$$QAV<lambda_b2ea41f6bbb362cd97d94c6828d90b61>@@@Z 10028b77 f i libucrt:per_thread_data.obj
 0001:00027b9f       ??$__acrt_lock_and_call@V<lambda_be2b3da3f62db62e9dad5dc70221a656>@@@@YAXW4__acrt_lock_id@@$$QAV<lambda_be2b3da3f62db62e9dad5dc70221a656>@@@Z 10028b9f f i libucrt:per_thread_data.obj
 0001:00027bc7       ??$__acrt_lock_and_call@V<lambda_e69574bed617af4e071282c136b37893>@@@@YAXW4__acrt_lock_id@@$$QAV<lambda_e69574bed617af4e071282c136b37893>@@@Z 10028bc7 f i libucrt:per_thread_data.obj
 0001:00027d7d       ___acrt_freeptd            10028d7d f   libucrt:per_thread_data.obj
 0001:00027da9       ___acrt_getptd             10028da9 f   libucrt:per_thread_data.obj
 0001:00027e2d       ___acrt_getptd_noexit      10028e2d f   libucrt:per_thread_data.obj
 0001:00027eb2       ___acrt_initialize_ptd     10028eb2 f   libucrt:per_thread_data.obj
 0001:00027ede       ___acrt_uninitialize_ptd   10028ede f   libucrt:per_thread_data.obj
 0001:00027ef8       ___acrt_update_locale_info 10028ef8 f   libucrt:locale_update.obj
 0001:00027f25       ___acrt_update_multibyte_info 10028f25 f   libucrt:locale_update.obj
 0001:00027f52       ?__acrt_fp_classify@@YA?AW4__acrt_fp_class@@ABN@Z 10028f52 f i libucrt:cvt.obj
 0001:00027fbe       ?__acrt_fp_is_negative@@YA_NABN@Z 10028fbe f i libucrt:cvt.obj
 0001:0002881d       ___acrt_fp_format          1002981d f   libucrt:cvt.obj
 0001:00028967       __fileno                   10029967 f   libucrt:fileno.obj
 0001:0002898d       __get_printf_count_output  1002998d f   libucrt:printf_count_output.obj
 0001:000289a2       ___acrt_set_locale_changed 100299a2 f   libucrt:wsetlocale.obj
 0001:000289ad       ___acrt_uninitialize_locale 100299ad f   libucrt:wsetlocale.obj
 0001:00028b6b       ___acrt_initialize_lowio   10029b6b f   libucrt:ioinit.obj
 0001:00028bc1       ___acrt_uninitialize_lowio 10029bc1 f   libucrt:ioinit.obj
 0001:00028bed       ___pctype_func             10029bed f   libucrt:ctype.obj
 0001:00028c13       __isctype_l                10029c13 f   libucrt:isctype.obj
 0001:00028ce5       __query_new_mode           10029ce5 f   libucrt:new_mode.obj
 0001:00028ceb       ___acrt_initialize_heap    10029ceb f   libucrt:heap_handle.obj
 0001:00028cfc       ___acrt_uninitialize_heap  10029cfc f   libucrt:heap_handle.obj
 0001:00028d06       ??$?RV<lambda_a048d3beccc847880fc8490e18b82769>@@AAV<lambda_ec61778202f4f5fc7e7711acc23c3bca>@@V<lambda_f7496a158712204296dd6628a163878e>@@@?$__crt_seh_guarded_call@P6AXH@Z@@QAEP6AXH@Z$$QAV<lambda_a048d3beccc847880fc8490e18b82769>@@AAV<lambda_ec61778202f4f5fc7e7711acc23c3bca>@@$$QAV<lambda_f7496a158712204296dd6628a163878e>@@@Z 10029d06 f i libucrt:signal.obj
 0001:00028d60       ??$__acrt_lock_and_call@V<lambda_ec61778202f4f5fc7e7711acc23c3bca>@@@@YAP6AXH@ZW4__acrt_lock_id@@$$QAV<lambda_ec61778202f4f5fc7e7711acc23c3bca>@@@Z 10029d60 f i libucrt:signal.obj
 0001:00028df2       ___acrt_get_sigabrt_handler 10029df2 f   libucrt:signal.obj
 0001:00028e09       ___acrt_initialize_signal_handlers 10029e09 f   libucrt:signal.obj
 0001:00028e44       ___fpecode                 10029e44 f   libucrt:signal.obj
 0001:00028e4d       _raise                     10029e4d f   libucrt:signal.obj
 0001:0002916c       ___acrt_FlsAlloc@4         1002a16c f   libucrt:winapi_thunks.obj
 0001:000291c2       ___acrt_FlsFree@4          1002a1c2 f   libucrt:winapi_thunks.obj
 0001:00029218       ___acrt_FlsGetValue@4      1002a218 f   libucrt:winapi_thunks.obj
 0001:0002926e       ___acrt_FlsSetValue@8      1002a26e f   libucrt:winapi_thunks.obj
 0001:000292c7       ___acrt_InitializeCriticalSectionEx@12 1002a2c7 f   libucrt:winapi_thunks.obj
 0001:00029329       ___acrt_LCMapStringEx@36   1002a329 f   libucrt:winapi_thunks.obj
 0001:000293b1       ___acrt_LocaleNameToLCID@8 1002a3b1 f   libucrt:winapi_thunks.obj
 0001:0002940d       ___acrt_RoInitialize@4     1002a40d f   libucrt:winapi_thunks.obj
 0001:0002945f       ___acrt_RoUninitialize@0   1002a45f f   libucrt:winapi_thunks.obj
 0001:000294a8       ___acrt_initialize_winapi_thunks 1002a4a8 f   libucrt:winapi_thunks.obj
 0001:000294ce       ___acrt_is_packaged_app    1002a4ce f   libucrt:winapi_thunks.obj
 0001:00029555       ___acrt_uninitialize_winapi_thunks 1002a555 f   libucrt:winapi_thunks.obj
 0001:0002958b       __fcloseall                1002a58b f   libucrt:closeall.obj
 0001:0002962b       ___acrt_stdio_free_buffer_nolock 1002a62b f   libucrt:_freebuf.obj
 0001:00029a2b       ??1?$argument_list@D@?A0xb0e4b824@@QAE@XZ 1002aa2b f i libucrt:argv_wildcards.obj
 0001:00029a50       ?append@?$argument_list@D@?A0xb0e4b824@@QAEHQAD@Z 1002aa50 f i libucrt:argv_wildcards.obj
 0001:00029a85       ?expand_if_necessary@?$argument_list@D@?A0xb0e4b824@@AAEHXZ 1002aa85 f i libucrt:argv_wildcards.obj
 0001:00029b0c       ___acrt_expand_narrow_argv_wildcards 1002ab0c f   libucrt:argv_wildcards.obj
 0001:00029b17       ??$?RV<lambda_978dc153c237d78434369da87b74ff60>@@AAV<lambda_ad1ced32f4ac17aa236e5ef05d6b3b7c>@@V<lambda_4a8533e2866a575feecb8298ce776b0d>@@@?$__crt_seh_guarded_call@X@@QAEX$$QAV<lambda_978dc153c237d78434369da87b74ff60>@@AAV<lambda_ad1ced32f4ac17aa236e5ef05d6b3b7c>@@$$QAV<lambda_4a8533e2866a575feecb8298ce776b0d>@@@Z 1002ab17 f i libucrt:mbctype.obj
 0001:00029b5a       ??$__acrt_lock_and_call@V<lambda_ad1ced32f4ac17aa236e5ef05d6b3b7c>@@@@YAXW4__acrt_lock_id@@$$QAV<lambda_ad1ced32f4ac17aa236e5ef05d6b3b7c>@@@Z 1002ab5a f i libucrt:mbctype.obj
 0001:00029ff1       ___acrt_initialize_multibyte 1002aff1 f   libucrt:mbctype.obj
 0001:0002a00f       ___acrt_update_thread_multibyte_data 1002b00f f   libucrt:mbctype.obj
 0001:0002a0b1       __setmbcp_nolock           1002b0b1 f   libucrt:mbctype.obj
 0001:0002a37c       __ismbblead                1002b37c f   libucrt:ismbbyte.obj
 0001:0002a394       ___acrt_initialize_command_line 1002b394 f   libucrt:argv_data.obj
 0001:0002a3ad       ?SweepWaitNode@SingleWaitBlock@details@Concurrency@@UAE_NXZ 1002b3ad f   libconcrt:event.obj
 0001:0002a3ad       ___acrt_uninitialize_command_line 1002b3ad f   libucrt:argv_data.obj
 0001:0002a3ad       ?AllowGeneralFetchOfReservedContexts@SchedulerBase@details@Concurrency@@MAE_NXZ 1002b3ad f   libconcrt:SchedulerBase.obj
 0001:0002a3e7       ___dcrt_get_narrow_environment_from_os 1002b3e7 f   libucrt:get_environment_from_os.obj
 0001:0002a46a       __recalloc                 1002b46a f   libucrt:recalloc.obj
 0001:0002a475       __recalloc_base            1002b475 f   libucrt:recalloc.obj
 0001:0002a4e2       ___acrt_execute_initializers 1002b4e2 f   libucrt:shared_initialization.obj
 0001:0002a565       ___acrt_execute_uninitializers 1002b565 f   libucrt:shared_initialization.obj
 0001:0002a5b2       ___acrt_has_user_matherr   1002b5b2 f   libucrt:matherr.obj
 0001:0002a5cb       ___acrt_initialize_user_matherr 1002b5cb f   libucrt:matherr.obj
 0001:0002a5df       ___acrt_invoke_user_matherr 1002b5df f   libucrt:matherr.obj
 0001:0002a628       ??$?RV<lambda_61cee617f5178ae960314fd4d05640a0>@@AAV<lambda_6978c1fb23f02e42e1d9e99668cc68aa>@@V<lambda_9cd88cf8ad10232537feb2133f08c833>@@@?$__crt_seh_guarded_call@H@@QAEH$$QAV<lambda_61cee617f5178ae960314fd4d05640a0>@@AAV<lambda_6978c1fb23f02e42e1d9e99668cc68aa>@@$$QAV<lambda_9cd88cf8ad10232537feb2133f08c833>@@@Z 1002b628 f i libucrt:commit.obj
 0001:0002a6c0       ??$__acrt_lowio_lock_fh_and_call@V<lambda_6978c1fb23f02e42e1d9e99668cc68aa>@@@@YAHH$$QAV<lambda_6978c1fb23f02e42e1d9e99668cc68aa>@@@Z 1002b6c0 f i libucrt:commit.obj
 0001:0002a6e8       __commit                   1002b6e8 f   libucrt:commit.obj
 0001:0002ace7       __write                    1002bce7 f   libucrt:write.obj
 0001:0002add2       __write_nolock             1002bdd2 f   libucrt:write.obj
 0001:0002afde       ___acrt_initialize_sse2    1002bfde f   libucrt:mathfcns.obj
 0001:0002aff0       __CIexp_pentium4           1002bff0 f   libucrt:exp_pentium4.obj
 0001:0002b008       __exp_pentium4             1002c008     libucrt:exp_pentium4.obj
 0001:0002b2c1       __fFEXP                    1002c2c1     libucrt:87tran.obj
 0001:0002b318       __rtinfpopse               1002c318     libucrt:87tran.obj
 0001:0002b31a       __rtinfnpopse              1002c31a     libucrt:87tran.obj
 0001:0002b32a       __fFLN                     1002c32a     libucrt:87tran.obj
 0001:0002b3df       __rtinfpop                 1002c3df     libucrt:87tran.obj
 0001:0002b3e1       __rtinfnpop                1002c3e1     libucrt:87tran.obj
 0001:0002b3fe       __ffexpm1                  1002c3fe     libucrt:87tran.obj
 0001:0002b4b0       __cintrindisp2             1002c4b0 f   libucrt:87cdisp.obj
 0001:0002b4f4       __cintrindisp1             1002c4f4 f   libucrt:87cdisp.obj
 0001:0002b537       __ctrandisp2               1002c537 f   libucrt:87cdisp.obj
 0001:0002b6c6       __ctrandisp1               1002c6c6 f   libucrt:87cdisp.obj
 0001:0002b6f9       __fload                    1002c6f9 f   libucrt:87cdisp.obj
 0001:0002b740       __trandisp1                1002c740 f   libucrt:87disp.obj
 0001:0002b7a7       __trandisp2                1002c7a7 f   libucrt:87disp.obj
 0001:0002b833       __rttospopde               1002c833     libucrt:87disp.obj
 0001:0002b838       __rttospop                 1002c838     libucrt:87disp.obj
 0001:0002b83a       __rtnospop                 1002c83a     libucrt:87disp.obj
 0001:0002b83c       __rttosnpop                1002c83c     libucrt:87disp.obj
 0001:0002b83d       __rtnospopde               1002c83d     libucrt:87disp.obj
 0001:0002b844       __rtzeropop                1002c844     libucrt:87disp.obj
 0001:0002b846       __rtzeronpop               1002c846     libucrt:87disp.obj
 0001:0002b84b       __rtzerospop               1002c84b     libucrt:87disp.obj
 0001:0002b858       __rtonepop                 1002c858     libucrt:87disp.obj
 0001:0002b85a       __rtonenpop                1002c85a     libucrt:87disp.obj
 0001:0002b85f       __tosnan1                  1002c85f     libucrt:87disp.obj
 0001:0002b88a       __nosnan2                  1002c88a     libucrt:87disp.obj
 0001:0002b88c       __tosnan2                  1002c88c     libucrt:87disp.obj
 0001:0002b8b4       __nan2                     1002c8b4     libucrt:87disp.obj
 0001:0002b8f3       __rtindfpop                1002c8f3     libucrt:87disp.obj
 0001:0002b8f5       __rtindfnpop               1002c8f5     libucrt:87disp.obj
 0001:0002b906       __rttosnpopde              1002c906     libucrt:87disp.obj
 0001:0002b910       __rtatan2inf               1002c910     libucrt:87disp.obj
 0001:0002b92d       __rtchsifneg               1002c92d     libucrt:87disp.obj
 0001:0002b940       __startTwoArgErrorHandling 1002c940 f   libucrt:genexcep.obj
 0001:0002b957       __startOneArgErrorHandling 1002c957 f   libucrt:genexcep.obj
 0001:0002b9a0       __twoToTOS                 1002c9a0 f   libucrt:common.obj
 0001:0002b9b5       __load_CW                  1002c9b5 f   libucrt:common.obj
 0001:0002b9cc       __convertTOStoQNaN         1002c9cc f   libucrt:common.obj
 0001:0002b9e5       __fload_withFB             1002c9e5 f   libucrt:common.obj
 0001:0002ba28       __checkTOS_withFB          1002ca28 f   libucrt:common.obj
 0001:0002ba3e       __fast_exit                1002ca3e f   libucrt:common.obj
 0001:0002ba4b       __math_exit                1002ca4b f   libucrt:common.obj
 0001:0002ba75       __check_overflow_exit      1002ca75 f   libucrt:common.obj
 0001:0002ba89       __check_range_exit         1002ca89 f   libucrt:common.obj
 0001:0002bb2c       __isleadbyte_l             1002cb2c f i libucrt:_wctype.obj
 0001:0002bd82       ___acrt_LCMapStringA       1002cd82 f   libucrt:lcmapstringa.obj
 0001:0002bdcd       __freea_crt                1002cdcd f i libucrt:lcmapstringa.obj
 0001:0002bded       ___acrt_add_locale_ref     1002cded f   libucrt:locale_refcounting.obj
 0001:0002be6a       ___acrt_free_locale        1002ce6a f   libucrt:locale_refcounting.obj
 0001:0002bfb4       ___acrt_locale_add_lc_time_reference 1002cfb4 f   libucrt:locale_refcounting.obj
 0001:0002bfdd       ___acrt_locale_free_lc_time_if_unreferenced 1002cfdd f   libucrt:locale_refcounting.obj
 0001:0002c00d       ___acrt_locale_release_lc_time_reference 1002d00d f   libucrt:locale_refcounting.obj
 0001:0002c036       ___acrt_release_locale_ref 1002d036 f   libucrt:locale_refcounting.obj
 0001:0002c0b7       ___acrt_update_thread_locale_data 1002d0b7 f   libucrt:locale_refcounting.obj
 0001:0002c12e       __updatetlocinfoEx_nolock  1002d12e f   libucrt:locale_refcounting.obj
 0001:0002c17e       ___acrt_fp_strflt_to_string 1002d17e f   libucrt:_fptostr.obj
 0001:0002c23a       ??0scoped_fp_state_reset@?A0x48fbfdd4@@QAE@XZ 1002d23a f i libucrt:cfout.obj
 0001:0002c270       ?divide@__crt_strtox@@YA_KAAUbig_integer@1@ABU21@@Z 1002d270 f i libucrt:cfout.obj
 0001:0002c71e       ___acrt_fltout             1002d71e f   libucrt:cfout.obj
 0001:0002daba       __isatty                   1002eaba f   libucrt:isatty.obj
 0001:0002db10       ___acrt_locale_free_monetary 1002eb10 f   libucrt:initmon.obj
 0001:0002dc0e       ___acrt_locale_free_numeric 1002ec0e f   libucrt:initnum.obj
 0001:0002dcb3       ___acrt_locale_free_time   1002ecb3 f   libucrt:inittime.obj
 0001:0002dd97       ___acrt_GetStringTypeA     1002ed97 f   libucrt:getstringtypea.obj
 0001:0002deb4       ___acrt_lowio_create_handle_array 1002eeb4 f   libucrt:osfinfo.obj
 0001:0002df2e       ___acrt_lowio_destroy_handle_array 1002ef2e f   libucrt:osfinfo.obj
 0001:0002df63       ___acrt_lowio_ensure_fh_exists 1002ef63 f   libucrt:osfinfo.obj
 0001:0002dffb       ___acrt_lowio_lock_fh      1002effb f   libucrt:osfinfo.obj
 0001:0002e01e       ___acrt_lowio_unlock_fh    1002f01e f   libucrt:osfinfo.obj
 0001:0002e041       __free_osfhnd              1002f041 f   libucrt:osfinfo.obj
 0001:0002e0d2       __get_osfhandle            1002f0d2 f   libucrt:osfinfo.obj
 0001:0002e1f8       ___acrt_DownlevelLocaleNameToLCID 1002f1f8 f   libucrt:lcidtoname_downlevel.obj
 0001:0002e224       __fclose_nolock            1002f224 f   libucrt:fclose.obj
 0001:0002e29a       _fclose                    1002f29a f   libucrt:fclose.obj
 0001:0002e398       __lseeki64_nolock          1002f398 f   libucrt:lseek.obj
 0001:0002e4a0       _qsort                     1002f4a0 f   libucrt:qsort.obj
 0001:0002e8eb       _strncpy_s                 1002f8eb f   libucrt:strncpy_s.obj
 0001:0002e900       _strpbrk                   1002f900 f   libucrt:strpbrk.obj
 0001:0002e940       __mbsdec                   1002f940 f   libucrt:mbsdec.obj
 0001:0002e957       __mbsdec_l                 1002f957 f   libucrt:mbsdec.obj
 0001:0002e9f3       __msize                    1002f9f3 f   libucrt:msize.obj
 0001:0002ea26       __realloc_base             1002fa26 f   libucrt:realloc_base.obj
 0001:0002ea8f       __putwch_nolock            1002fa8f f   libucrt:putwch.obj
 0001:0002ead4       ___libm_error_support      1002fad4 f   libucrt:libm_error.obj
 0001:0002ecec       __d_inttype                1002fcec f   libucrt:powhlp.obj
 0001:0002ed56       __powhlp                   1002fd56 f   libucrt:powhlp.obj
 0001:0002ee81       __87except                 1002fe81 f   libucrt:87except.obj
 0001:0002ef8c       ___strncnt                 1002ff8c f   libucrt:strncnt.obj
 0001:0002efa8       _fegetenv                  1002ffa8 f   libucrt:fegetenv.obj
 0001:0002efc5       _fesetenv                  1002ffc5 f   libucrt:fesetenv.obj
 0001:0002f00e       _feholdexcept              1003000e f   libucrt:feholdexcept.obj
 0001:0002f060       _log10                     10030060 f   libucrt:log10.obj
 0001:0002f0a0       __CIlog10                  100300a0 f   libucrt:log10.obj
 0001:0002f0db       __CIlog10_default          100300db f   libucrt:log10.obj
 0001:0002f0ef       __log10_default            100300ef     libucrt:log10.obj
 0001:0002f1b0       _ceil                      100301b0 f   libucrt:ceil_pentium4.obj
 0001:0002f1f0       __ceil_pentium4            100301f0 f   libucrt:ceil_pentium4.obj
 0001:0002f2cd       __query_app_type           100302cd f   libucrt:report_runtime_error.obj
 0001:0002f2d3       ??$?RV<lambda_123407a5e2ac06da108355a851863b7a>@@AAV<lambda_2fe9b910cf3cbf4a0ab98a02ba45b3ec>@@V<lambda_ae55bdf541ad94d75914d381c370e64d>@@@?$__crt_seh_guarded_call@H@@QAEH$$QAV<lambda_123407a5e2ac06da108355a851863b7a>@@AAV<lambda_2fe9b910cf3cbf4a0ab98a02ba45b3ec>@@$$QAV<lambda_ae55bdf541ad94d75914d381c370e64d>@@@Z 100302d3 f i libucrt:close.obj
 0001:0002f355       ??$__acrt_lowio_lock_fh_and_call@V<lambda_2fe9b910cf3cbf4a0ab98a02ba45b3ec>@@@@YAHH$$QAV<lambda_2fe9b910cf3cbf4a0ab98a02ba45b3ec>@@@Z 10030355 f i libucrt:close.obj
 0001:0002f37d       __close                    1003037d f   libucrt:close.obj
 0001:0002f3fc       __close_nolock             100303fc f   libucrt:close.obj
 0001:0002f498       ?__acrt_stdio_free_stream@@YAXV__crt_stdio_stream@@@Z 10030498 f   libucrt:stream.obj
 0001:0002f4d3       ___dcrt_lowio_initialize_console_output 100304d3 f   libucrt:initcon.obj
 0001:0002f4f2       ___dcrt_terminate_console_output 100304f2 f   libucrt:initcon.obj
 0001:0002f509       __frnd                     10030509 f   libucrt:frnd.obj
 0001:0002f51f       __fpclass                  1003051f f   libucrt:ieeemisc.obj
 0001:0002f5c3       __decomp                   100305c3 f   libucrt:util.obj
 0001:0002f697       __set_exp                  10030697 f   libucrt:util.obj
 0001:0002f6c6       __sptype                   100306c6 f   libucrt:util.obj
 0001:0002f724       __errcode                  10030724 f   libucrt:fpexcept.obj
 0001:0002f758       __except1                  10030758 f   libucrt:fpexcept.obj
 0001:0002f826       __handle_exc               10030826 f   libucrt:fpexcept.obj
 0001:0002fa06       __raise_exc                10030a06 f   libucrt:fpexcept.obj
 0001:0002fa29       __raise_exc_ex             10030a29 f   libucrt:fpexcept.obj
 0001:0002fd1a       __set_errno_from_matherr   10030d1a f   libucrt:fpexcept.obj
 0001:0002fd49       __umatherr                 10030d49 f   libucrt:fpexcept.obj
 0001:0002fdeb       __clrfp                    10030deb f   libucrt:fpctrl.obj
 0001:0002fdfe       __ctrlfp                   10030dfe f   libucrt:fpctrl.obj
 0001:0002fe2a       __set_statfp               10030e2a f   libucrt:fpctrl.obj
 0001:0002fe85       __statfp                   10030e85 f   libucrt:fpctrl.obj
 0001:0003013a       __getfpcontrolword         1003113a f   libucrt:_fenvutils.obj
 0001:0003017d       __getfpstatusword          1003117d f   libucrt:_fenvutils.obj
 0001:00030225       __setfpcontrolword         10031225 f   libucrt:_fenvutils.obj
 0001:000302a5       __setfpstatusword          100312a5 f   libucrt:_fenvutils.obj
 0001:00030325       __clearfp                  10031325 f   libucrt:ieee87.obj
 0001:00030410       __CIlog10_pentium4         10031410 f   libucrt:log10_pentium4.obj
 0001:00030428       __log10_pentium4           10031428     libucrt:log10_pentium4.obj
 0001:000306a0       __ceil_default             100316a0 f   libucrt:ceil.obj
 0001:00030760       ___ascii_strnicmp          10031760 f   libucrt:_strnicm.obj
 0001:000307c2       _IsProcessorFeaturePresent@4 100317c2 f   kernel32:KERNEL32.dll
 0001:000307c8       _RtlUnwind@16              100317c8 f   kernel32:KERNEL32.dll
 0001:000307ce       ?GetCurrentThreadId@platform@details@Concurrency@@YAJXZ 100317ce f   libcpmt:ppltasks.obj
 0001:000307d4       ??$?0AAPAUEHExceptionRecord@@_N@?$_Ref_count_obj@V__ExceptionPtr@@@std@@QAE@AAPAUEHExceptionRecord@@$$QA_N@Z 100317d4 f i libcpmt:excptptr.obj
 0001:00030820       ??$?0AAPAUEHExceptionRecord@@_N@?$_Ref_count_obj_alloc@V__ExceptionPtr@@U?$_StaticAllocator@H@@@std@@QAE@ABU?$_StaticAllocator@H@@AAPAUEHExceptionRecord@@$$QA_N@Z 10031820 f i libcpmt:excptptr.obj
 0001:0003087e       ??$_Reset@V__ExceptionPtr@@@?$_Ptr_base@V__ExceptionPtr@@@std@@QAEXABV01@@Z 1003187e f i libcpmt:excptptr.obj
 0001:0003089c       ??$allocate_shared@V__ExceptionPtr@@U?$_StaticAllocator@H@@AAPAUEHExceptionRecord@@_N@std@@YA?AV?$shared_ptr@V__ExceptionPtr@@@0@ABU?$_StaticAllocator@H@@AAPAUEHExceptionRecord@@$$QA_N@Z 1003189c f i libcpmt:excptptr.obj
 0001:000308fe       ??$make_shared@V__ExceptionPtr@@AAPAUEHExceptionRecord@@_N@std@@YA?AV?$shared_ptr@V__ExceptionPtr@@@0@AAPAUEHExceptionRecord@@$$QA_N@Z 100318fe f i libcpmt:excptptr.obj
 0001:0003094e       ??0__ExceptionPtr@@QAE@PBUEHExceptionRecord@@_N@Z 1003194e f   libcpmt:excptptr.obj
 0001:00030a68       ??1_Ref_count_base@std@@UAE@XZ 10031a68 f i libcpmt:excptptr.obj
 0001:00030a6f       ??1__ExceptionPtr@@QAE@XZ  10031a6f f   libcpmt:excptptr.obj
 0001:00030b32       ??C?$shared_ptr@V__ExceptionPtr@@@std@@QBEPAV__ExceptionPtr@@XZ 10031b32 f i libcpmt:excptptr.obj
 0001:00030b35       ??_E?$_Ref_count_obj@V__ExceptionPtr@@@std@@UAEPAXI@Z 10031b35 f i libcpmt:excptptr.obj
 0001:00030b35       ??_E?$_Ref_count_obj_alloc@V__ExceptionPtr@@U?$_StaticAllocator@H@@@std@@UAEPAXI@Z 10031b35 f i libcpmt:excptptr.obj
 0001:00030b35       ??_G?$_Ref_count_obj@V__ExceptionPtr@@@std@@UAEPAXI@Z 10031b35 f i libcpmt:excptptr.obj
 0001:00030b35       ??_G?$_Ref_count_obj_alloc@V__ExceptionPtr@@U?$_StaticAllocator@H@@@std@@UAEPAXI@Z 10031b35 f i libcpmt:excptptr.obj
 0001:00030b58       ??_G?$shared_ptr@V__ExceptionPtr@@@std@@QAEPAXI@Z 10031b58 f i libcpmt:excptptr.obj
 0001:00030b81       ??_G_Ref_count_base@std@@UAEPAXI@Z 10031b81 f i libcpmt:excptptr.obj
 0001:00030b81       ??_E_Ref_count_base@std@@UAEPAXI@Z 10031b81 f i libcpmt:excptptr.obj
 0001:00030ba4       ?_CallCopyCtor@__ExceptionPtr@@ABEXPAX0IQBU_s_CatchableType@@@Z 10031ba4 f   libcpmt:excptptr.obj
 0001:00030c37       ?_CopyException@__ExceptionPtr@@SA?AV?$shared_ptr@V__ExceptionPtr@@@std@@PBXPBU_s_ThrowInfo@@_N@Z 10031c37 f   libcpmt:excptptr.obj
 0001:00030d0c       ?_CurrentException@__ExceptionPtr@@SA?AV?$shared_ptr@V__ExceptionPtr@@@std@@XZ 10031d0c f   libcpmt:excptptr.obj
 0001:00030dab       ?_Decref@_Ref_count_base@std@@QAEXXZ 10031dab f i libcpmt:excptptr.obj
 0001:00030dd3       ?_Decwref@_Ref_count_base@std@@QAEXXZ 10031dd3 f i libcpmt:excptptr.obj
 0001:00030df4       ?_Delete_this@?$_Ref_count_obj@V__ExceptionPtr@@@std@@EAEXXZ 10031df4 f i libcpmt:excptptr.obj
 0001:00030e11       ?_Delete_this@?$_Ref_count_obj_alloc@V__ExceptionPtr@@U?$_StaticAllocator@H@@@std@@EAEXXZ 10031e11 f i libcpmt:excptptr.obj
 0001:00030e2a       ?_Destroy@?$_Ref_count_obj_alloc@V__ExceptionPtr@@U?$_StaticAllocator@H@@@std@@EAEXXZ 10031e2a f i libcpmt:excptptr.obj
 0001:00030e2a       ?_Destroy@?$_Ref_count_obj@V__ExceptionPtr@@@std@@EAEXXZ 10031e2a f i libcpmt:excptptr.obj
 0001:00030e32       ?_Get_deleter@_Ref_count_base@std@@UBEPAXABVtype_info@@@Z 10031e32 f i libcpmt:excptptr.obj
 0001:00030e37       ?_InitBadAllocException@__ExceptionPtr@@CA?AV?$shared_ptr@V__ExceptionPtr@@@std@@XZ 10031e37 f   libcpmt:excptptr.obj
 0001:00030e8a       ?_Reset0@?$_Ptr_base@V__ExceptionPtr@@@std@@QAEXPAV__ExceptionPtr@@PAV_Ref_count_base@2@@Z 10031e8a f i libcpmt:excptptr.obj
 0001:00030eac       ?_RethrowException@__ExceptionPtr@@QBEXXZ 10031eac f   libcpmt:excptptr.obj
 0001:00030fd8       ?__ExceptionPtrCopy@@YAXPAXPBX@Z 10031fd8 f   libcpmt:excptptr.obj
 0001:00030ff3       ?__ExceptionPtrCreate@@YAXPAX@Z 10031ff3 f   libcpmt:excptptr.obj
 0001:00031006       ?__ExceptionPtrCurrentException@@YAXPAX@Z 10032006 f   libcpmt:excptptr.obj
 0001:00031033       ?__ExceptionPtrDestroy@@YAXPAX@Z 10032033 f   libcpmt:excptptr.obj
 0001:00031042       ?__ExceptionPtrRethrow@@YAXPBX@Z 10032042 f   libcpmt:excptptr.obj
 0001:00031054       ?align@std@@YAPAXIIAAPAXAAI@Z 10032054 f i libcpmt:excptptr.obj
 0001:00031090       __alloca_probe_16          10032090 f   LIBCMT:alloca16.obj
 0001:000310a6       __alloca_probe_8           100320a6     LIBCMT:alloca16.obj
 0001:000310c0       __allmul                   100320c0 f   LIBCMT:llmul.obj
 0001:00031100       __aullrem                  10032100 f   LIBCMT:ullrem.obj
 0001:00031180       __ftol2_sse                10032180 f   LIBCMT:_ftol2_.obj
 0001:00031189       __ftol2_pentium4           10032189 f   LIBCMT:_ftol2_.obj
 0001:0003119c       __ftol2_sse_excpt          1003219c f   LIBCMT:_ftol2_.obj
 0001:000311c0       __ftol2                    100321c0 f   LIBCMT:_ftol2_.obj
 0001:00031240       __FindPESection            10032240 f   LIBCMT:pesect.obj
 0001:00031290       __IsNonwritableInCurrentImage 10032290 f   LIBCMT:pesect.obj
 0001:00031350       __ValidateImageBase        10032350 f   LIBCMT:pesect.obj
 0001:00031390       __SEH_prolog4_GS           10032390 f   LIBCMT:_sehprolg4gs_.obj
 0001:000313d9       __SEH_epilog4_GS           100323d9 f   LIBCMT:_sehprolg4gs_.obj
 0001:000313f0       __alldvrm                  100323f0 f   LIBCMT:lldvrm.obj
 0001:000314d0       __aullshr                  100324d0 f   LIBCMT:ullshr.obj
 0001:000314f0       __chkstk                   100324f0 f   LIBCMT:chkstk.obj
 0001:000314f0       __alloca_probe             100324f0 f   LIBCMT:chkstk.obj
 0001:00031520       __allshl                   10032520 f   LIBCMT:llshl.obj
 0001:00031540       _strrchr                   10032540 f   libvcruntime:strrchr.obj
 0001:00031680       _strchr                    10032680 f   libvcruntime:strchr.obj
 0001:000316ee       ___from_strstr_to_strchr   100326ee     libvcruntime:strchr.obj
 0001:000317b0       ?DrawPcx16ResizedBicubic@H3LoadedPcx16Resized@resized@@SAXPAUH3LoadedPcx16@h3@@0HHHHHH@Z 100327b0 f   DrawPcx16ResizedBicubic.obj
 0001:00031fb0       ?BiCubicKernel@resized@@YANN@Z 10032fb0 f   DrawPcx16ResizedBicubic.obj
 0001:00032070       ?IntToStr@Era@@YA?AV?$basic_string@DU?$char_traits@D@std@@V?$allocator@D@2@@std@@H@Z 10033070 f   era.obj
 0001:000320f0       ?tr@Era@@YAPADPBD@Z        100330f0 f   era.obj
 0001:00032100       ?ConnectEra@Era@@YAXXZ     10033100 f   era.obj
 0001:00032110       _DllMain@12                10033110 f   dllmain.obj
 0001:00032190       ?CrBanksTxt_AfterLoad@@YGHPAVLoHook@@PAUHookContext@@@Z 10033190 f   dllmain.obj
 0001:00032310       ?ShrinkToFit@CreatureBanksExtender@cbanks@@AAEXXZ 10033310 f   CreatureBanksExtender.obj
 0001:000324a0       ?Reserve@CreatureBanksExtender@cbanks@@AAEXG@Z 100334a0 f   CreatureBanksExtender.obj
 0001:00032580       ?Resize@CreatureBanksExtender@cbanks@@AAEXG@Z 10033580 f   CreatureBanksExtender.obj
 0001:000325f0       ??1CreatureBanksExtender@cbanks@@EAE@XZ 100335f0 f   CreatureBanksExtender.obj
 0001:000326d0       ?CopyDefaultData@CreatureBank@CreatureBanksExtender@cbanks@@QAEXI@Z 100336d0 f   CreatureBanksExtender.obj
 0001:000327a0       ?Size@CreatureBanksExtender@cbanks@@QBE?BIXZ 100337a0 f   CreatureBanksExtender.obj
 0001:000327b0       ?GetBanksSetupFromJson@CreatureBanksExtender@cbanks@@AAE?BHF@Z 100337b0 f   CreatureBanksExtender.obj
 0001:00032ff0       ?AfterLoadingObjectTxtProc@CreatureBanksExtender@cbanks@@EAEXPBF@Z 10033ff0 f   CreatureBanksExtender.obj
 0001:000330c0       _Name                      100340c0 f   CreatureBanksExtender.obj
 0001:00033150       ?GetCreatureBankId@CreatureBanksExtender@cbanks@@SA?BHHH@Z 10034150 f   CreatureBanksExtender.obj
 0001:00033200       ?CrBank_CombatStart@CreatureBanksExtender@cbanks@@CGHPAVHiHook@@IIIIHIIIHHH@Z 10034200 f   CreatureBanksExtender.obj
 0001:00033250       ?CrBank_BeforeCombatStart@CreatureBanksExtender@cbanks@@CGHPAVLoHook@@PAUHookContext@@@Z 10034250 f   CreatureBanksExtender.obj
 0001:00033290       ?AdvMgr_MapItem_Select_Sound@LoopSoundManager@CreatureBanksExtender@cbanks@@SGHPAVHiHook@@PAUH3AdventureManager@h3@@HHH@Z 10034290 f   CreatureBanksExtender.obj
 0001:000333b0       ?OnGameLeave@LoopSoundManager@CreatureBanksExtender@cbanks@@SGXPAUTEvent@Era@@@Z 100343b0 f   CreatureBanksExtender.obj
 0001:000333f0       ?CreatePatches@CreatureBanksExtender@cbanks@@EAEXXZ 100343f0 f   CreatureBanksExtender.obj
 0001:000334b0       ??0CreatureBanksExtender@cbanks@@AAE@XZ 100344b0 f   CreatureBanksExtender.obj
 0001:00033590       ?Get@CreatureBanksExtender@cbanks@@SAAAV12@XZ 10034590 f   CreatureBanksExtender.obj
 0001:00033610       ?CreatePatches@ShrinesExternder@shrines@@EAEXXZ 10034610 f   ShrinesExternder.obj
 0001:00033650       ?Shrine__AtGetName@ShrinesExternder@shrines@@CGHPAVLoHook@@PAUHookContext@@@Z 10034650 f   ShrinesExternder.obj
 0001:00033740       ?Game__AtShrineOfMagicIncantationSettingSpell@ShrinesExternder@shrines@@CGHPAVLoHook@@PAUHookContext@@@Z 10034740 f   ShrinesExternder.obj
 0001:00033790       ??1ShrinesExternder@shrines@@EAE@XZ 10034790 f   ShrinesExternder.obj
 0001:000337f0       ??0ShrinesExternder@shrines@@AAE@XZ 100347f0 f   ShrinesExternder.obj
 0001:000338d0       ?Get@ShrinesExternder@shrines@@SAAAV12@XZ 100348d0 f   ShrinesExternder.obj
 0001:00033950       ?Reset@H3MapItemWarehouse@warehouses@@QAEXXZ 10034950 f   WarehousesExtender.obj
 0001:000339b0       ?CreatePatches@WarehousesExtender@warehouses@@EAEXXZ 100349b0 f   WarehousesExtender.obj
 0001:00033a40       ?H3AdventureManager__GetDefaultObjectHoverHint@WarehousesExtender@warehouses@@CGHPAVLoHook@@PAUHookContext@@@Z 10034a40 f   WarehousesExtender.obj
 0001:00033a60       ?H3AdventureManager__GetDefaultObjectClickHint@WarehousesExtender@warehouses@@CGHPAVLoHook@@PAUHookContext@@@Z 10034a60 f   WarehousesExtender.obj
 0001:00033a80       ?ShowHint@warehouses@@YAHPAVLoHook@@PAUHookContext@@PBD@Z 10034a80 f   WarehousesExtender.obj
 0001:00033bd0       ?Game__NewWeekObjectIteration@WarehousesExtender@warehouses@@CGHPAVLoHook@@PAUHookContext@@@Z 10034bd0 f   WarehousesExtender.obj
 0001:00033c00       ?Game__NewGameObjectIteration@WarehousesExtender@warehouses@@CGHPAVLoHook@@PAUHookContext@@@Z 10034c00 f   WarehousesExtender.obj
 0001:00033c40       ?H3AdventureManager__ObjectVisit@WarehousesExtender@warehouses@@CGHPAVLoHook@@PAUHookContext@@@Z 10034c40 f   WarehousesExtender.obj
 0001:00033d30       ?ShowMessage@warehouses@@YAXPBUH3MapItem@h3@@HH@Z 10034d30 f   WarehousesExtender.obj
 0001:00033f70       ?AIHero_GetObjectPosWeight@WarehousesExtender@warehouses@@CGHPAVLoHook@@PAUHookContext@@@Z 10034f70 f   WarehousesExtender.obj
 0001:00034020       ??1WarehousesExtender@warehouses@@EAE@XZ 10035020 f   WarehousesExtender.obj
 0001:00034080       ??0WarehousesExtender@warehouses@@AAE@XZ 10035080 f   WarehousesExtender.obj
 0001:00034130       ?Get@WarehousesExtender@warehouses@@SAAAV12@XZ 10035130 f   WarehousesExtender.obj
 0001:000341b0       ?CreatePatches@ObjectsExtender@extender@@MAEXXZ 100351b0 f   ObjectsExtender.obj
 0001:00034230       ?H3AdventureManager__ObjectVisit_SoundPlay@ObjectsExtender@extender@@CGHPAVLoHook@@PAUHookContext@@@Z 10035230 f   ObjectsExtender.obj
 0001:00034380       ?AddObjectsToObjectGenList@ObjectsExtender@extender@@SAXPAU?$H3Vector@PAUH3RmgObjectGenerator@h3@@@h3@@@Z 10035380 f   ObjectsExtender.obj
 0001:00034540       ??MRMGObjectSetable@extender@@QBE_NABU01@@Z 10035540 f   ObjectsExtender.obj
 0001:00034570       ?CreateRmgObjectGen@extender@@YAPAUH3RmgObjectGenerator@h3@@ABURMGObjectInfo@@@Z 10035570 f   ObjectsExtender.obj
 0001:000346c0       ?H3GameMainSetup__LoadObjects@ObjectsExtender@extender@@CGXPAVHiHook@@PBUH3MainSetup@h3@@@Z 100356c0 f   ObjectsExtender.obj
 0001:00034b40       ?LoadObjectsTxt@ObjectsExtender@extender@@CGHPAVLoHook@@PAUHookContext@@@Z 10035b40 f   ObjectsExtender.obj
 0001:00034c70       ?AddLine@EditableH3TextFile@extender@@QAEXPBD@Z 10035c70 f   ObjectsExtender.obj
 0001:00034cc0       ?AfterLoadingObjectTxtProc@ObjectsExtender@extender@@MAEXPBF@Z 10035cc0 f   ObjectsExtender.obj
 0001:00034cd0       ??1ObjectsExtender@extender@@MAE@XZ 10035cd0 f   ObjectsExtender.obj
 0001:00034d30       ??0ObjectsExtender@extender@@IAE@PAVPatcherInstance@@@Z 10035d30 f   ObjectsExtender.obj
 0001:00034d80       ?Inited@GeneratedInfo@@QBEHXZ 10035d80 f   RMGObjectsEditor.obj
 0001:00034d90       ?Clear@GeneratedInfo@@QAEXPBUH3RmgRandomMapGenerator@h3@@@Z 10035d90 f   RMGObjectsEditor.obj
 0001:00034de0       ?ObjectCantBeGenerated@GeneratedInfo@@QBEHPBUH3RmgObjectGenerator@h3@@H@Z 10035de0 f   RMGObjectsEditor.obj
 0001:00034e50       ?Assign@GeneratedInfo@@QAEXPBUH3RmgRandomMapGenerator@h3@@ABV?$vector@V?$vector@URMGObjectInfo@@V?$allocator@URMGObjectInfo@@@std@@@std@@V?$allocator@V?$vector@URMGObjectInfo@@V?$allocator@URMGObjectInfo@@@std@@@std@@@2@@std@@@Z 10035e50 f   RMGObjectsEditor.obj
 0001:00035050       ?create2DArray@@YAPAHHH@Z  10036050 f   RMGObjectsEditor.obj
 0001:00035070       ?create3DArray@@YAPAHHHH@Z 10036070 f   RMGObjectsEditor.obj
 0001:000350a0       ?GetObjectName@RMGObjectInfo@@SAPBDHH@Z 100360a0 f   RMGObjectsEditor.obj
 0001:00035290       ?GetName@RMGObjectInfo@@QBEPBDXZ 10036290 f   RMGObjectsEditor.obj
 0001:000352c0       ??0RMGObjectInfo@@QAE@XZ   100362c0 f   RMGObjectsEditor.obj
 0001:000352f0       ?MakeReal@RMGObjectInfo@@QBEXXZ 100362f0 f   RMGObjectsEditor.obj
 0001:00035330       ?SetRandom@RMGObjectInfo@@QAEXXZ 10036330 f   RMGObjectsEditor.obj
 0001:000354a0       ?RestoreDefault@RMGObjectInfo@@QAEXXZ 100364a0 f   RMGObjectsEditor.obj
 0001:000354e0       ?Clamp@RMGObjectInfo@@QAEHXZ 100364e0 f   RMGObjectsEditor.obj
 0001:00035590       ?IncreaseObjectsCounters@GeneratedInfo@@QAEXPBUH3RmgObjectProperties@h3@@H@Z 10036590 f   RMGObjectsEditor.obj
 0001:000355d0       ?CreatePatches@RMGObjectsEditor@editor@@EAEXXZ 100365d0 f   RMGObjectsEditor.obj
 0001:000356c0       ?RMG__AfterMapGenerated@RMGObjectsEditor@editor@@CGXPAVHiHook@@PAUH3RmgRandomMapGenerator@h3@@@Z 100366c0 f   RMGObjectsEditor.obj
 0001:00035750       ?RMG__InitGenZones@RMGObjectsEditor@editor@@CGXPAVHiHook@@PBUH3RmgRandomMapGenerator@h3@@PBUH3RmgTemplate@5@@Z 10036750 f   RMGObjectsEditor.obj
 0001:00035780       ?RMG__RMGObject_AtPlacement@RMGObjectsEditor@editor@@CGHPAVLoHook@@PAUHookContext@@@Z 10036780 f   RMGObjectsEditor.obj
 0001:000357e0       ?RMG__ZoneGeneration__AfterObjectTypeZoneLimitCheck@RMGObjectsEditor@editor@@CGHPAVLoHook@@PAUHookContext@@@Z 100367e0 f   RMGObjectsEditor.obj
 0001:00035830       ?RMG__CreateObjectGenerators@RMGObjectsEditor@editor@@CGXPAVHiHook@@PAUH3RmgRandomMapGenerator@h3@@@Z 10036830 f   RMGObjectsEditor.obj
 0001:00035b10       ??1RMGObjectsEditor@editor@@EAE@XZ 10036b10 f   RMGObjectsEditor.obj
 0001:00035c50       ?InitLoading@RMGObjectsEditor@editor@@AAEXPBF@Z 10036c50 f   RMGObjectsEditor.obj
 0001:00035d80       ?GetObjectGeneratorsList@RMGObjectsEditor@editor@@QBEABU?$H3Vector@PAUH3RmgObjectGenerator@h3@@@h3@@XZ 10036d80 f   RMGObjectsEditor.obj
 0001:00035d90       ?InitDefaults@RMGObjectsEditor@editor@@AAEXPBF@Z 10036d90 f   RMGObjectsEditor.obj
 0001:00036150       ?SetObjectInfoAsCurrent@RMGObjectsEditor@editor@@QAEXABURMGObjectInfo@@@Z 10037150 f   RMGObjectsEditor.obj
 0001:00036180       ?MaxMapTypeLimit@RMGObjectsEditor@editor@@QBEHI@Z 10037180 f   RMGObjectsEditor.obj
 0001:000361a0       ?CurrentObjectInfo@RMGObjectsEditor@editor@@QBEABURMGObjectInfo@@HH@Z 100371a0 f   RMGObjectsEditor.obj
 0001:000361c0       ?DefaultObjectInfo@RMGObjectsEditor@editor@@QBEABURMGObjectInfo@@HH@Z 100371c0 f   RMGObjectsEditor.obj
 0001:000361e0       ??0RMGObjectsEditor@editor@@AAE@XZ 100371e0 f   RMGObjectsEditor.obj
 0001:000362f0       ?Init@RMGObjectsEditor@editor@@SAXPBF@Z 100372f0 f   RMGObjectsEditor.obj
 0001:00036390       ??0RMGObjectInfo@@QAE@HH@Z 10037390 f   RMGObjectsEditor.obj
 0001:000363c0       ?GetObjectName@RMGObjectInfo@@SAPBDPBUH3MapItem@h3@@@Z 100373c0 f   RMGObjectsEditor.obj
 0001:000363e0       ?Get@RMGObjectsEditor@editor@@SAAAV12@XZ 100373e0 f   RMGObjectsEditor.obj
 0001:00036460       ?GameStart@rmgdlg@@YGXPAVHiHook@@K@Z 10037460 f   RMG_SettingsDlg.obj
 0001:00036520       ?CreateGraphics@rmgdlg@@YAXABU?$H3Vector@PAUH3RmgObjectGenerator@h3@@@h3@@@Z 10037520 f   RMG_SettingsDlg.obj
 0001:00036660       ?CreateResizedObjectPcx@rmgdlg@@YAXXZ 10037660 f   RMG_SettingsDlg.obj
 0001:000367d0       ?NewScenarioDlg_Create@RMG_SettingsDlg@rmgdlg@@CGXPAVHiHook@@PAUH3SelectScenarioDialog@h3@@K@Z 100377d0 f   RMG_SettingsDlg.obj
 0001:00036960       ?SelectScenarioDlgRandomizeProc@rmgdlg@@YIHPAUH3Msg@h3@@@Z 10037960 f   RMG_SettingsDlg.obj
 0001:00036ae0       ?H3SelectScenarioDialog_HideRandomMapsSettings@RMG_SettingsDlg@rmgdlg@@CGHPAVLoHook@@PAUHookContext@@@Z 10037ae0 f   RMG_SettingsDlg.obj
 0001:00036b30       ?H3SelectScenarioDialog_ShowRandomMapsSettings@RMG_SettingsDlg@rmgdlg@@CGHPAVLoHook@@PAUHookContext@@@Z 10037b30 f   RMG_SettingsDlg.obj
 0001:00036b80       ?Dlg_SelectScenario_Proc@RMG_SettingsDlg@rmgdlg@@CGHPAVLoHook@@PAUHookContext@@@Z 10037b80 f   RMG_SettingsDlg.obj
 0001:00036c00       ?GetObjectPrototypesLists@rmgdlg@@YAXXZ 10037c00 f   RMG_SettingsDlg.obj
 0001:00036e00       ?FindDataInObjectGeneratorsList@rmgdlg@@YAXAAV?$vector@U?$pair@UH3ObjectAttributes@h3@@PAUH3LoadedPcx16@2@@std@@V?$allocator@U?$pair@UH3ObjectAttributes@h3@@PAUH3LoadedPcx16@2@@std@@@2@@std@@@Z 10037e00 f   RMG_SettingsDlg.obj
 0001:00036f60       ?GetObjectPrototypesByTypes@rmgdlg@@YAXAAV?$vector@U?$pair@UH3ObjectAttributes@h3@@PAUH3LoadedPcx16@2@@std@@V?$allocator@U?$pair@UH3ObjectAttributes@h3@@PAUH3LoadedPcx16@2@@std@@@2@@std@@PBHI@Z 10037f60 f   RMG_SettingsDlg.obj
 0001:00037080       ??1MiscPage@RMG_SettingsDlg@rmgdlg@@UAE@XZ 10038080 f   RMG_SettingsDlg.obj
 0001:00037090       ?SetVisible@PageHeader@ObjectsPage@RMG_SettingsDlg@rmgdlg@@QAEX_N@Z 10038090 f   RMG_SettingsDlg.obj
 0001:000370e0       ??0PageHeader@ObjectsPage@RMG_SettingsDlg@rmgdlg@@QAE@HHHHH@Z 100380e0 f   RMG_SettingsDlg.obj
 0001:000376c0       ??0RMGObject@rmgdlg@@QAE@ABUH3ObjectAttributes@h3@@PAUH3LoadedPcx16@3@@Z 100386c0 f   RMG_SettingsDlg.obj
 0001:000377a0       ?SetActivePage@RMG_SettingsDlg@rmgdlg@@AAEHPAUPage@12@@Z 100387a0 f   RMG_SettingsDlg.obj
 0001:00037880       ?OnCreate@RMG_SettingsDlg@rmgdlg@@EAEHXZ 10038880 f   RMG_SettingsDlg.obj
 0001:00037920       ?HorizontalScrollBarProc@ObjectsPage@RMG_SettingsDlg@rmgdlg@@CIXHPAUH3BaseDlg@h3@@@Z 10038920 f   RMG_SettingsDlg.obj
 0001:00037940       ?VerticalScrollBarProc@ObjectsPage@RMG_SettingsDlg@rmgdlg@@CIXHPAUH3BaseDlg@h3@@@Z 10038940 f   RMG_SettingsDlg.obj
 0001:000379a0       ?ResetSortingState@ObjectsPage@RMG_SettingsDlg@rmgdlg@@QAEXXZ 100389a0 f   RMG_SettingsDlg.obj
 0001:000379f0       ??0Page@RMG_SettingsDlg@rmgdlg@@QAE@PAUH3DlgCaptionButton@h3@@@Z 100389f0 f   RMG_SettingsDlg.obj
 0001:00037a40       ?Proc@ObjectsPage@RMG_SettingsDlg@rmgdlg@@MAEHAAUH3Msg@h3@@@Z 10038a40 f   RMG_SettingsDlg.obj
 0001:00037d70       ??1BanksPage@RMG_SettingsDlg@rmgdlg@@UAE@XZ 10038d70 f   RMG_SettingsDlg.obj
 0001:00037d80       ?ShowObjectExtendedInfo@BanksPage@RMG_SettingsDlg@rmgdlg@@UBEHPBUObjectsPanel@23@ABUH3Msg@h3@@@Z 10038d80 f   RMG_SettingsDlg.obj
 0001:00037dc0       ?ShowObjectExtendedInfo@ObjectsPage@RMG_SettingsDlg@rmgdlg@@MBEHPBUObjectsPanel@23@ABUH3Msg@h3@@@Z 10038dc0 f   RMG_SettingsDlg.obj
 0001:00037f90       ?FillObjects@ObjectsPage@RMG_SettingsDlg@rmgdlg@@MAEXH@Z 10038f90 f   RMG_SettingsDlg.obj
 0001:000380a0       ??0ObjectsPage@RMG_SettingsDlg@rmgdlg@@QAE@PAUH3DlgCaptionButton@h3@@ABV?$vector@U?$pair@UH3ObjectAttributes@h3@@PAUH3LoadedPcx16@2@@std@@V?$allocator@U?$pair@UH3ObjectAttributes@h3@@PAUH3LoadedPcx16@2@@std@@@2@@std@@H@Z 100390a0 f   RMG_SettingsDlg.obj
 0001:000384b0       ?SetDefault@ObjectsPage@RMG_SettingsDlg@rmgdlg@@MAEXXZ 100394b0 f   RMG_SettingsDlg.obj
 0001:00038520       ?SetRandom@ObjectsPage@RMG_SettingsDlg@rmgdlg@@MAEXABUH3Msg@h3@@@Z 10039520 f   RMG_SettingsDlg.obj
 0001:00038560       ?SaveData@ObjectsPage@RMG_SettingsDlg@rmgdlg@@MAEXXZ 10039560 f   RMG_SettingsDlg.obj
 0001:000385d0       ?SetVisible@ObjectsPage@RMG_SettingsDlg@rmgdlg@@MAEX_N@Z 100395d0 f   RMG_SettingsDlg.obj
 0001:000386c0       ??1RMG_SettingsDlg@rmgdlg@@EAE@XZ 100396c0 f   RMG_SettingsDlg.obj
 0001:000388c0       ?H3DlgEdit__TranslateInputKey@RMG_SettingsDlg@rmgdlg@@CGPAUH3Msg@h3@@PAVHiHook@@PAUH3InputManager@4@PAU34@@Z 100398c0 f   RMG_SettingsDlg.obj
 0001:00038910       ??1ObjectsPage@RMG_SettingsDlg@rmgdlg@@UAE@XZ 10039910 f   RMG_SettingsDlg.obj
 0001:00038bd0       ??1Page@RMG_SettingsDlg@rmgdlg@@UAE@XZ 10039bd0 f   RMG_SettingsDlg.obj
 0001:00038be0       ?PanelInfoToObjectInfo@ObjectsPanel@RMG_SettingsDlg@rmgdlg@@QAEXXZ 10039be0 f   RMG_SettingsDlg.obj
 0001:00038c60       ?ObjectInfoToPanelInfo@ObjectsPanel@RMG_SettingsDlg@rmgdlg@@QAEXXZ 10039c60 f   RMG_SettingsDlg.obj
 0001:00038d30       ?UnfocusEdits@ObjectsPanel@RMG_SettingsDlg@rmgdlg@@QAE?BHH@Z 10039d30 f   RMG_SettingsDlg.obj
 0001:00038d80       ?SetObject@ObjectsPanel@RMG_SettingsDlg@rmgdlg@@QAEXPAVRMGObject@3@@Z 10039d80 f   RMG_SettingsDlg.obj
 0001:00038df0       ?SetVisible@ObjectsPanel@RMG_SettingsDlg@rmgdlg@@QAEXH@Z 10039df0 f   RMG_SettingsDlg.obj
 0001:00038e50       ??1ObjectsPanel@RMG_SettingsDlg@rmgdlg@@UAE@XZ 10039e50 f   RMG_SettingsDlg.obj
 0001:00038ea0       ??0ObjectsPanel@RMG_SettingsDlg@rmgdlg@@QAE@HHPAUPage@12@@Z 10039ea0 f   RMG_SettingsDlg.obj
 0001:00039470       ??0BanksPage@RMG_SettingsDlg@rmgdlg@@QAE@PAUH3DlgCaptionButton@h3@@ABV?$vector@U?$pair@UH3ObjectAttributes@h3@@PAUH3LoadedPcx16@2@@std@@V?$allocator@U?$pair@UH3ObjectAttributes@h3@@PAUH3LoadedPcx16@2@@std@@@2@@std@@H@Z 1003a470 f   RMG_SettingsDlg.obj
 0001:000394a0       ?CreateHorizontalScrollBar@ObjectsPage@RMG_SettingsDlg@rmgdlg@@IAEXXZ 1003a4a0 f   RMG_SettingsDlg.obj
 0001:000395e0       ?CreateVerticalScrollBar@ObjectsPage@RMG_SettingsDlg@rmgdlg@@IAEXXZ 1003a5e0 f   RMG_SettingsDlg.obj
 0001:000396e0       ?SaveObjects@RMG_SettingsDlg@rmgdlg@@AAEHH@Z 1003a6e0 f   RMG_SettingsDlg.obj
 0001:000398d0       ?WriteIniDlgSettings@RMG_SettingsDlg@rmgdlg@@ABE?BHXZ 1003a8d0 f   RMG_SettingsDlg.obj
 0001:00039970       ?ReadIniDlgSettings@RMG_SettingsDlg@rmgdlg@@AAE?BHXZ 1003a970 f   RMG_SettingsDlg.obj
 0001:000399d0       ?OnCancel@RMG_SettingsDlg@rmgdlg@@EAEXXZ 1003a9d0 f   RMG_SettingsDlg.obj
 0001:00039a20       ?OnOK@RMG_SettingsDlg@rmgdlg@@EAEXXZ 1003aa20 f   RMG_SettingsDlg.obj
 0001:00039ae0       ?RemoveEditsFocus@RMG_SettingsDlg@rmgdlg@@ABE?BHH@Z 1003aae0 f   RMG_SettingsDlg.obj
 0001:00039bb0       ?DialogProc@RMG_SettingsDlg@rmgdlg@@EAEHAAUH3Msg@h3@@@Z 1003abb0 f   RMG_SettingsDlg.obj
 0001:00039db0       ?OnHelp@RMG_SettingsDlg@rmgdlg@@AAEXXZ 1003adb0 f   RMG_SettingsDlg.obj
 0001:00039f60       ??0RMG_SettingsDlg@rmgdlg@@QAE@HHHH@Z 1003af60 f   RMG_SettingsDlg.obj
 0001:0003aa30       _RMGObjectSupportsGeneration 1003ba30 f   RMG_SettingsDlg.obj
 0001:0003aa90       ?SortRmgObjects@sorting@rmgdlg@@YAXAAV?$vector@VRMGObject@rmgdlg@@V?$allocator@VRMGObject@rmgdlg@@@std@@@std@@W4eSorting@12@_N@Z 1003ba90 f   RMG_SettingsDlg.obj
 0001:0003aae0       ?GetObjectAttributes@RMG_SettingsDlg@rmgdlg@@SAABV?$vector@PAV?$vector@U?$pair@UH3ObjectAttributes@h3@@PAUH3LoadedPcx16@2@@std@@V?$allocator@U?$pair@UH3ObjectAttributes@h3@@PAUH3LoadedPcx16@2@@std@@@2@@std@@V?$allocator@PAV?$vector@U?$pair@UH3ObjectAttributes@h3@@PAUH3LoadedPcx16@2@@std@@V?$allocator@U?$pair@UH3ObjectAttributes@h3@@PAUH3LoadedPcx16@2@@std@@@2@@std@@@2@@std@@XZ 1003bae0 f   RMG_SettingsDlg.obj
 0001:0003aaf0       ?SetPatches@RMG_SettingsDlg@rmgdlg@@SAXPAVPatcherInstance@@@Z 1003baf0 f   RMG_SettingsDlg.obj
 0001:0003ca3c       ??__F_Static@?1???$_Immortalize@V_Generic_error_category@std@@@std@@YAAAV_Generic_error_category@0@XZ@YAXXZ 1003da3c f i libcpmt:thread0.obj
 0002:00000000       __imp__LoadLibraryA@4      1003e000     kernel32:KERNEL32.dll
 0002:00000004       __imp__GetProcAddress@8    1003e004     kernel32:KERNEL32.dll
 0002:00000008       __imp__GetModuleHandleA@4  1003e008     kernel32:KERNEL32.dll
 0002:0000000c       __imp__EnterCriticalSection@4 1003e00c     kernel32:KERNEL32.dll
 0002:00000010       __imp__LeaveCriticalSection@4 1003e010     kernel32:KERNEL32.dll
 0002:00000014       __imp__TryEnterCriticalSection@4 1003e014     kernel32:KERNEL32.dll
 0002:00000018       __imp__DeleteCriticalSection@4 1003e018     kernel32:KERNEL32.dll
 0002:0000001c       __imp__GetCurrentThreadId@0 1003e01c     kernel32:KERNEL32.dll
 0002:00000020       __imp__CloseHandle@4       1003e020     kernel32:KERNEL32.dll
 0002:00000024       __imp__DuplicateHandle@28  1003e024     kernel32:KERNEL32.dll
 0002:00000028       __imp__WaitForSingleObjectEx@12 1003e028     kernel32:KERNEL32.dll
 0002:0000002c       __imp__Sleep@4             1003e02c     kernel32:KERNEL32.dll
 0002:00000030       __imp__GetCurrentProcess@0 1003e030     kernel32:KERNEL32.dll
 0002:00000034       __imp__GetCurrentThread@0  1003e034     kernel32:KERNEL32.dll
 0002:00000038       __imp__QueryPerformanceCounter@4 1003e038     kernel32:KERNEL32.dll
 0002:0000003c       __imp__SetLastError@4      1003e03c     kernel32:KERNEL32.dll
 0002:00000040       __imp__InitializeCriticalSectionAndSpinCount@8 1003e040     kernel32:KERNEL32.dll
 0002:00000044       __imp__CreateEventW@16     1003e044     kernel32:KERNEL32.dll
 0002:00000048       __imp__TlsAlloc@0          1003e048     kernel32:KERNEL32.dll
 0002:0000004c       __imp__TlsGetValue@4       1003e04c     kernel32:KERNEL32.dll
 0002:00000050       __imp__TlsSetValue@8       1003e050     kernel32:KERNEL32.dll
 0002:00000054       __imp__TlsFree@4           1003e054     kernel32:KERNEL32.dll
 0002:00000058       __imp__GetSystemTimeAsFileTime@4 1003e058     kernel32:KERNEL32.dll
 0002:0000005c       __imp__GetTickCount@0      1003e05c     kernel32:KERNEL32.dll
 0002:00000060       __imp__GetModuleHandleW@4  1003e060     kernel32:KERNEL32.dll
 0002:00000064       __imp__WideCharToMultiByte@32 1003e064     kernel32:KERNEL32.dll
 0002:00000068       __imp__SetEvent@4          1003e068     kernel32:KERNEL32.dll
 0002:0000006c       __imp__ResetEvent@4        1003e06c     kernel32:KERNEL32.dll
 0002:00000070       __imp__IsDebuggerPresent@0 1003e070     kernel32:KERNEL32.dll
 0002:00000074       __imp__UnhandledExceptionFilter@4 1003e074     kernel32:KERNEL32.dll
 0002:00000078       __imp__SetUnhandledExceptionFilter@4 1003e078     kernel32:KERNEL32.dll
 0002:0000007c       __imp__GetStartupInfoW@4   1003e07c     kernel32:KERNEL32.dll
 0002:00000080       __imp__IsProcessorFeaturePresent@4 1003e080     kernel32:KERNEL32.dll
 0002:00000084       __imp__GetCurrentProcessId@0 1003e084     kernel32:KERNEL32.dll
 0002:00000088       __imp__InitializeSListHead@4 1003e088     kernel32:KERNEL32.dll
 0002:0000008c       __imp__TerminateProcess@8  1003e08c     kernel32:KERNEL32.dll
 0002:00000090       __imp__CreateTimerQueue@0  1003e090     kernel32:KERNEL32.dll
 0002:00000094       __imp__GetLastError@0      1003e094     kernel32:KERNEL32.dll
 0002:00000098       __imp__SignalObjectAndWait@16 1003e098     kernel32:KERNEL32.dll
 0002:0000009c       __imp__SwitchToThread@0    1003e09c     kernel32:KERNEL32.dll
 0002:000000a0       __imp__CreateThread@24     1003e0a0     kernel32:KERNEL32.dll
 0002:000000a4       __imp__SetThreadPriority@8 1003e0a4     kernel32:KERNEL32.dll
 0002:000000a8       __imp__GetThreadPriority@4 1003e0a8     kernel32:KERNEL32.dll
 0002:000000ac       __imp__GetLogicalProcessorInformation@8 1003e0ac     kernel32:KERNEL32.dll
 0002:000000b0       __imp__CreateTimerQueueTimer@28 1003e0b0     kernel32:KERNEL32.dll
 0002:000000b4       __imp__ChangeTimerQueueTimer@16 1003e0b4     kernel32:KERNEL32.dll
 0002:000000b8       __imp__DeleteTimerQueueTimer@12 1003e0b8     kernel32:KERNEL32.dll
 0002:000000bc       __imp__GetNumaHighestNodeNumber@4 1003e0bc     kernel32:KERNEL32.dll
 0002:000000c0       __imp__GetProcessAffinityMask@12 1003e0c0     kernel32:KERNEL32.dll
 0002:000000c4       __imp__SetThreadAffinityMask@8 1003e0c4     kernel32:KERNEL32.dll
 0002:000000c8       __imp__RegisterWaitForSingleObject@24 1003e0c8     kernel32:KERNEL32.dll
 0002:000000cc       __imp__UnregisterWait@4    1003e0cc     kernel32:KERNEL32.dll
 0002:000000d0       __imp__EncodePointer@4     1003e0d0     kernel32:KERNEL32.dll
 0002:000000d4       __imp__GetThreadTimes@20   1003e0d4     kernel32:KERNEL32.dll
 0002:000000d8       __imp__FreeLibrary@4       1003e0d8     kernel32:KERNEL32.dll
 0002:000000dc       __imp__FreeLibraryAndExitThread@8 1003e0dc     kernel32:KERNEL32.dll
 0002:000000e0       __imp__GetModuleFileNameW@12 1003e0e0     kernel32:KERNEL32.dll
 0002:000000e4       __imp__LoadLibraryExW@12   1003e0e4     kernel32:KERNEL32.dll
 0002:000000e8       __imp__GetVersionExW@4     1003e0e8     kernel32:KERNEL32.dll
 0002:000000ec       __imp__VirtualAlloc@16     1003e0ec     kernel32:KERNEL32.dll
 0002:000000f0       __imp__VirtualFree@12      1003e0f0     kernel32:KERNEL32.dll
 0002:000000f4       __imp__VirtualProtect@16   1003e0f4     kernel32:KERNEL32.dll
 0002:000000f8       __imp__ReleaseSemaphore@12 1003e0f8     kernel32:KERNEL32.dll
 0002:000000fc       __imp__InterlockedPopEntrySList@4 1003e0fc     kernel32:KERNEL32.dll
 0002:00000100       __imp__InterlockedPushEntrySList@8 1003e100     kernel32:KERNEL32.dll
 0002:00000104       __imp__InterlockedFlushSList@4 1003e104     kernel32:KERNEL32.dll
 0002:00000108       __imp__QueryDepthSList@4   1003e108     kernel32:KERNEL32.dll
 0002:0000010c       __imp__UnregisterWaitEx@8  1003e10c     kernel32:KERNEL32.dll
 0002:00000110       __imp__LoadLibraryW@4      1003e110     kernel32:KERNEL32.dll
 0002:00000114       __imp__RaiseException@16   1003e114     kernel32:KERNEL32.dll
 0002:00000118       __imp__RtlUnwind@16        1003e118     kernel32:KERNEL32.dll
 0002:0000011c       __imp__HeapAlloc@12        1003e11c     kernel32:KERNEL32.dll
 0002:00000120       __imp__HeapFree@12         1003e120     kernel32:KERNEL32.dll
 0002:00000124       __imp__ExitThread@4        1003e124     kernel32:KERNEL32.dll
 0002:00000128       __imp__GetModuleHandleExW@12 1003e128     kernel32:KERNEL32.dll
 0002:0000012c       __imp__ExitProcess@4       1003e12c     kernel32:KERNEL32.dll
 0002:00000130       __imp__GetModuleFileNameA@12 1003e130     kernel32:KERNEL32.dll
 0002:00000134       __imp__MultiByteToWideChar@24 1003e134     kernel32:KERNEL32.dll
 0002:00000138       __imp__GetACP@0            1003e138     kernel32:KERNEL32.dll
 0002:0000013c       __imp__GetStdHandle@4      1003e13c     kernel32:KERNEL32.dll
 0002:00000140       __imp__GetFileType@4       1003e140     kernel32:KERNEL32.dll
 0002:00000144       __imp__GetStringTypeW@16   1003e144     kernel32:KERNEL32.dll
 0002:00000148       __imp__GetProcessHeap@0    1003e148     kernel32:KERNEL32.dll
 0002:0000014c       __imp__LCMapStringW@24     1003e14c     kernel32:KERNEL32.dll
 0002:00000150       __imp__FindClose@4         1003e150     kernel32:KERNEL32.dll
 0002:00000154       __imp__FindFirstFileExA@24 1003e154     kernel32:KERNEL32.dll
 0002:00000158       __imp__FindNextFileA@8     1003e158     kernel32:KERNEL32.dll
 0002:0000015c       __imp__IsValidCodePage@4   1003e15c     kernel32:KERNEL32.dll
 0002:00000160       __imp__GetOEMCP@0          1003e160     kernel32:KERNEL32.dll
 0002:00000164       __imp__GetCPInfo@8         1003e164     kernel32:KERNEL32.dll
 0002:00000168       __imp__GetCommandLineA@0   1003e168     kernel32:KERNEL32.dll
 0002:0000016c       __imp__GetCommandLineW@0   1003e16c     kernel32:KERNEL32.dll
 0002:00000170       __imp__GetEnvironmentStringsW@0 1003e170     kernel32:KERNEL32.dll
 0002:00000174       __imp__FreeEnvironmentStringsW@4 1003e174     kernel32:KERNEL32.dll
 0002:00000178       __imp__FlushFileBuffers@4  1003e178     kernel32:KERNEL32.dll
 0002:0000017c       __imp__WriteFile@20        1003e17c     kernel32:KERNEL32.dll
 0002:00000180       __imp__GetConsoleCP@0      1003e180     kernel32:KERNEL32.dll
 0002:00000184       __imp__GetConsoleMode@8    1003e184     kernel32:KERNEL32.dll
 0002:00000188       __imp__SetStdHandle@8      1003e188     kernel32:KERNEL32.dll
 0002:0000018c       __imp__SetFilePointerEx@20 1003e18c     kernel32:KERNEL32.dll
 0002:00000190       __imp__HeapSize@12         1003e190     kernel32:KERNEL32.dll
 0002:00000194       __imp__HeapReAlloc@16      1003e194     kernel32:KERNEL32.dll
 0002:00000198       __imp__WriteConsoleW@20    1003e198     kernel32:KERNEL32.dll
 0002:0000019c       __imp__DecodePointer@4     1003e19c     kernel32:KERNEL32.dll
 0002:000001a0       __imp__CreateFileW@28      1003e1a0     kernel32:KERNEL32.dll
 0002:000001a4       \177KERNEL32_NULL_THUNK_DATA 1003e1a4     kernel32:KERNEL32.dll
 0002:000001a8       ___guard_check_icall_fptr  1003e1a8     LIBCMT:guard_support.obj
 0002:000001ac       ___xc_a                    1003e1ac     LIBCMT:initializers.obj
 0002:0000031c       ___xc_z                    1003e31c     LIBCMT:initializers.obj
 0002:00000320       ___xi_a                    1003e320     LIBCMT:initializers.obj
 0002:0000032c       ___acrt_stdio_initializer  1003e32c     libucrt:stdio_initializer.obj
 0002:00000330       ___acrt_multibyte_initializer 1003e330     libucrt:multibyte_initializer.obj
 0002:00000334       ___acrt_tran_sse2_initializer 1003e334     libucrt:sse2_initializer.obj
 0002:00000338       ___xi_z                    1003e338     LIBCMT:initializers.obj
 0002:0000033c       ___xl_a                    1003e33c     LIBCMT:tlssup.obj
 0002:00000340       ___xl_z                    1003e340     LIBCMT:tlssup.obj
 0002:00000344       ___xp_a                    1003e344     LIBCMT:initializers.obj
 0002:0000034c       ___acrt_locale_terminator  1003e34c     libucrt:locale_initializer.obj
 0002:00000350       ___dcrt_console_output_terminator 1003e350     libucrt:console_output_initializer.obj
 0002:00000354       ___acrt_stdio_terminator   1003e354     libucrt:stdio_initializer.obj
 0002:00000358       ___xp_z                    1003e358     LIBCMT:initializers.obj
 0002:0000035c       ___xt_a                    1003e35c     LIBCMT:initializers.obj
 0002:00000360       ___xt_z                    1003e360     LIBCMT:initializers.obj
 0002:00000374       ??_7exception@std@@6B@     1003e374     libcpmt:xthrow.obj
 0002:0000037c       ??_C@_0BC@EOODALEL@Unknown?5exception?$AA@ 1003e37c     libcpmt:xthrow.obj
 0002:00000394       ??_7bad_alloc@std@@6B@     1003e394     libcpmt:xthrow.obj
 0002:0000039c       ??_C@_0P@GHFPNOJB@bad?5allocation?$AA@ 1003e39c     libcpmt:xthrow.obj
 0002:000003b0       ??_7logic_error@std@@6B@   1003e3b0     libcpmt:xthrow.obj
 0002:000003bc       ??_7invalid_argument@std@@6B@ 1003e3bc     libcpmt:xthrow.obj
 0002:000003c8       ??_7length_error@std@@6B@  1003e3c8     libcpmt:xthrow.obj
 0002:000003d4       ??_7out_of_range@std@@6B@  1003e3d4     libcpmt:xthrow.obj
 0002:000003e0       ??_7runtime_error@std@@6B@ 1003e3e0     libcpmt:xthrow.obj
 0002:000003ec       ??_7stl_condition_variable_vista@details@Concurrency@@6B@ 1003e3ec     libcpmt:cond.obj
 0002:00000404       ??_7stl_condition_variable_win7@details@Concurrency@@6B@ 1003e404     libcpmt:cond.obj
 0002:0000041c       ??_7stl_condition_variable_concrt@details@Concurrency@@6B@ 1003e41c     libcpmt:cond.obj
 0002:00000468       ??_C@_0BI@NGCEHDD@device?5or?5resource?5busy?$AA@ 1003e468     libcpmt:thread0.obj
 0002:00000480       ??_C@_0BB@FCMFBGOM@invalid?5argument?$AA@ 1003e480     libcpmt:thread0.obj
 0002:00000494       ??_C@_0BA@ENLPPKBN@no?5such?5process?$AA@ 1003e494     libcpmt:thread0.obj
 0002:000004a4       ??_C@_0BC@ENOOLCNF@not?5enough?5memory?$AA@ 1003e4a4     libcpmt:thread0.obj
 0002:000004b8       ??_C@_0BI@OHIEJAAB@operation?5not?5permitted?$AA@ 1003e4b8     libcpmt:thread0.obj
 0002:000004d0       ??_C@_0BO@BJBOMOEJ@resource?5deadlock?5would?5occur?$AA@ 1003e4d0     libcpmt:thread0.obj
 0002:000004f0       ??_C@_0BP@LKNGHENJ@resource?5unavailable?5try?5again?$AA@ 1003e4f0     libcpmt:thread0.obj
 0002:00000514       ??_7error_category@std@@6B@ 1003e514     libcpmt:thread0.obj
 0002:00000530       ??_7_System_error@std@@6B@ 1003e530     libcpmt:thread0.obj
 0002:00000538       ??_C@_02LMMGGCAJ@?3?5?$AA@ 1003e538     libcpmt:thread0.obj
 0002:00000540       ??_7system_error@std@@6B@  1003e540     libcpmt:thread0.obj
 0002:0000054c       ??_7_Generic_error_category@std@@6B@ 1003e54c     libcpmt:thread0.obj
 0002:00000564       ??_C@_07DCLBNMLN@generic?$AA@ 1003e564     libcpmt:thread0.obj
 0002:00000570       ??_7stl_critical_section_vista@details@Concurrency@@6B@ 1003e570     libcpmt:mutex.obj
 0002:00000588       ??_7stl_critical_section_win7@details@Concurrency@@6B@ 1003e588     libcpmt:mutex.obj
 0002:000005a0       ??_7stl_critical_section_concrt@details@Concurrency@@6B@ 1003e5a0     libcpmt:mutex.obj
 0002:000005b4       ??_C@_1BK@MGMFAEKH@?$AAk?$AAe?$AAr?$AAn?$AAe?$AAl?$AA3?$AA2?$AA?4?$AAd?$AAl?$AAl?$AA?$AA@ 1003e5b4     libcpmt:winapisupp.obj
 0002:000005d0       ??_C@_08KNHFBNJ@FlsAlloc?$AA@ 1003e5d0     libcpmt:winapisupp.obj
 0002:000005dc       ??_C@_07PEJMOBNF@FlsFree?$AA@ 1003e5dc     libcpmt:winapisupp.obj
 0002:000005e4       ??_C@_0M@GDNOONDI@FlsGetValue?$AA@ 1003e5e4     libcpmt:winapisupp.obj
 0002:000005f0       ??_C@_0M@JCPCPOEF@FlsSetValue?$AA@ 1003e5f0     libcpmt:winapisupp.obj
 0002:000005fc       ??_C@_0BM@HCFOFFN@InitializeCriticalSectionEx?$AA@ 1003e5fc     libcpmt:winapisupp.obj
 0002:00000618       ??_C@_0BE@GPLMMCMH@InitOnceExecuteOnce?$AA@ 1003e618     libcpmt:winapisupp.obj
 0002:0000062c       ??_C@_0P@DLHPPCNH@CreateEventExW?$AA@ 1003e62c     libcpmt:winapisupp.obj
 0002:0000063c       ??_C@_0BB@MEFPJLHN@CreateSemaphoreW?$AA@ 1003e63c     libcpmt:winapisupp.obj
 0002:00000650       ??_C@_0BD@KIEEOEEH@CreateSemaphoreExW?$AA@ 1003e650     libcpmt:winapisupp.obj
 0002:00000664       ??_C@_0BG@OGFAJCKC@CreateThreadpoolTimer?$AA@ 1003e664     libcpmt:winapisupp.obj
 0002:0000067c       ??_C@_0BD@LPLEMMDI@SetThreadpoolTimer?$AA@ 1003e67c     libcpmt:winapisupp.obj
 0002:00000690       ??_C@_0CA@FMNJENH@WaitForThreadpoolTimerCallbacks?$AA@ 1003e690     libcpmt:winapisupp.obj
 0002:000006b0       ??_C@_0BF@DCFCCNOC@CloseThreadpoolTimer?$AA@ 1003e6b0     libcpmt:winapisupp.obj
 0002:000006c8       ??_C@_0BF@FLABGKKM@CreateThreadpoolWait?$AA@ 1003e6c8     libcpmt:winapisupp.obj
 0002:000006e0       ??_C@_0BC@MGCOHNA@SetThreadpoolWait?$AA@ 1003e6e0     libcpmt:winapisupp.obj
 0002:000006f4       ??_C@_0BE@OCIOMIMP@CloseThreadpoolWait?$AA@ 1003e6f4     libcpmt:winapisupp.obj
 0002:00000708       ??_C@_0BJ@LKGHFHBO@FlushProcessWriteBuffers?$AA@ 1003e708     libcpmt:winapisupp.obj
 0002:00000724       ??_C@_0BP@KALKKPMO@FreeLibraryWhenCallbackReturns?$AA@ 1003e724     libcpmt:winapisupp.obj
 0002:00000744       ??_C@_0BK@DFNBACLA@GetCurrentProcessorNumber?$AA@ 1003e744     libcpmt:winapisupp.obj
 0002:00000760       ??_C@_0BE@FKKLLFLM@CreateSymbolicLinkW?$AA@ 1003e760     libcpmt:winapisupp.obj
 0002:00000774       ??_C@_0BE@JOGNEJCI@GetCurrentPackageId?$AA@ 1003e774     libcpmt:winapisupp.obj
 0002:00000788       ??_C@_0P@CDHHOHKP@GetTickCount64?$AA@ 1003e788     libcpmt:winapisupp.obj
 0002:00000798       ??_C@_0BN@NEEHBBPO@GetFileInformationByHandleEx?$AA@ 1003e798     libcpmt:winapisupp.obj
 0002:000007b8       ??_C@_0BL@KBBHGKCM@SetFileInformationByHandle?$AA@ 1003e7b8     libcpmt:winapisupp.obj
 0002:000007d4       ??_C@_0BP@FPNJPEJC@GetSystemTimePreciseAsFileTime?$AA@ 1003e7d4     libcpmt:winapisupp.obj
 0002:000007f4       ??_C@_0BM@HLJJNPAH@InitializeConditionVariable?$AA@ 1003e7f4     libcpmt:winapisupp.obj
 0002:00000810       ??_C@_0BG@BFNILBLN@WakeConditionVariable?$AA@ 1003e810     libcpmt:winapisupp.obj
 0002:00000828       ??_C@_0BJ@PGPPEPCC@WakeAllConditionVariable?$AA@ 1003e828     libcpmt:winapisupp.obj
 0002:00000844       ??_C@_0BJ@JEBJOJFJ@SleepConditionVariableCS?$AA@ 1003e844     libcpmt:winapisupp.obj
 0002:00000860       ??_C@_0BC@MMLHEBPB@InitializeSRWLock?$AA@ 1003e860     libcpmt:winapisupp.obj
 0002:00000874       ??_C@_0BI@OMNLIJDB@AcquireSRWLockExclusive?$AA@ 1003e874     libcpmt:winapisupp.obj
 0002:0000088c       ??_C@_0BL@OGHFEMNA@TryAcquireSRWLockExclusive?$AA@ 1003e88c     libcpmt:winapisupp.obj
 0002:000008a8       ??_C@_0BI@HMIEPCNJ@ReleaseSRWLockExclusive?$AA@ 1003e8a8     libcpmt:winapisupp.obj
 0002:000008c0       ??_C@_0BK@LGACAGIC@SleepConditionVariableSRW?$AA@ 1003e8c0     libcpmt:winapisupp.obj
 0002:000008dc       ??_C@_0BF@GGPHFPJA@CreateThreadpoolWork?$AA@ 1003e8dc     libcpmt:winapisupp.obj
 0002:000008f4       ??_C@_0BF@NHDAIMMO@SubmitThreadpoolWork?$AA@ 1003e8f4     libcpmt:winapisupp.obj
 0002:0000090c       ??_C@_0BE@NPHIPNPD@CloseThreadpoolWork?$AA@ 1003e90c     libcpmt:winapisupp.obj
 0002:00000920       ??_C@_0BA@IHGNDAEB@CompareStringEx?$AA@ 1003e920     libcpmt:winapisupp.obj
 0002:00000930       ??_C@_0BA@ONOKGCMP@GetLocaleInfoEx?$AA@ 1003e930     libcpmt:winapisupp.obj
 0002:00000940       ??_C@_0O@KKBNKAPF@LCMapStringEx?$AA@ 1003e940     libcpmt:winapisupp.obj
 0002:00000950       ??_C@_0N@OHAFKDEK@invalid?5seek?$AA@ 1003e950     libcpmt:syserror.obj
 0002:00000960       ??_C@_08GLNPIFBN@io?5error?$AA@ 1003e960     libcpmt:syserror.obj
 0002:0000096c       ??_C@_0P@FLLDBIDK@is?5a?5directory?$AA@ 1003e96c     libcpmt:syserror.obj
 0002:0000097c       ??_C@_0N@IFLPBIOP@message?5size?$AA@ 1003e97c     libcpmt:syserror.obj
 0002:0000098c       ??_C@_0N@KIIEAAIO@network?5down?$AA@ 1003e98c     libcpmt:syserror.obj
 0002:0000099c       ??_C@_0O@FNPDBHEE@network?5reset?$AA@ 1003e99c     libcpmt:syserror.obj
 0002:000009ac       ??_C@_0BE@IFNCKGE@network?5unreachable?$AA@ 1003e9ac     libcpmt:syserror.obj
 0002:000009c0       ??_C@_0BA@PFFCAOFK@no?5buffer?5space?$AA@ 1003e9c0     libcpmt:syserror.obj
 0002:000009d0       ??_C@_0BB@IEPBLJHK@no?5child?5process?$AA@ 1003e9d0     libcpmt:syserror.obj
 0002:000009e4       ??_C@_07PLECNNKG@no?5link?$AA@ 1003e9e4     libcpmt:syserror.obj
 0002:000009ec       ??_C@_0BC@NJECKMKE@no?5lock?5available?$AA@ 1003e9ec     libcpmt:syserror.obj
 0002:00000a00       ??_C@_0BF@PBGGPKKE@no?5message?5available?$AA@ 1003ea00     libcpmt:syserror.obj
 0002:00000a18       ??_C@_0L@EDOLMPAK@no?5message?$AA@ 1003ea18     libcpmt:syserror.obj
 0002:00000a24       ??_C@_0BD@EAMBFIDF@no?5protocol?5option?$AA@ 1003ea24     libcpmt:syserror.obj
 0002:00000a38       ??_C@_0BD@IJDJKDEA@no?5space?5on?5device?$AA@ 1003ea38     libcpmt:syserror.obj
 0002:00000a4c       ??_C@_0BE@MKFDAFMP@no?5stream?5resources?$AA@ 1003ea4c     libcpmt:syserror.obj
 0002:00000a60       ??_C@_0BK@IMCPHCBI@no?5such?5device?5or?5address?$AA@ 1003ea60     libcpmt:syserror.obj
 0002:00000a7c       ??_C@_0P@FDINDDOK@no?5such?5device?$AA@ 1003ea7c     libcpmt:syserror.obj
 0002:00000a8c       ??_C@_0BK@NDOCBPGE@no?5such?5file?5or?5directory?$AA@ 1003ea8c     libcpmt:syserror.obj
 0002:00000aa8       ??_C@_0BA@DOCPFFJG@not?5a?5directory?$AA@ 1003eaa8     libcpmt:syserror.obj
 0002:00000ab8       ??_C@_0N@POEIPGGF@not?5a?5socket?$AA@ 1003eab8     libcpmt:syserror.obj
 0002:00000ac8       ??_C@_0N@LGAPMMPI@not?5a?5stream?$AA@ 1003eac8     libcpmt:syserror.obj
 0002:00000ad8       ??_C@_0O@GLMIBBEG@not?5connected?$AA@ 1003ead8     libcpmt:syserror.obj
 0002:00000ae8       ??_C@_0O@NHEDABJP@not?5supported?$AA@ 1003eae8     libcpmt:syserror.obj
 0002:00000af8       ??_C@_0BD@MOLBPMEA@operation?5canceled?$AA@ 1003eaf8     libcpmt:syserror.obj
 0002:00000b0c       ??_C@_0BG@KDKHOPCO@operation?5in?5progress?$AA@ 1003eb0c     libcpmt:syserror.obj
 0002:00000b24       ??_C@_0BI@LNEGIFLN@operation?5not?5supported?$AA@ 1003eb24     libcpmt:syserror.obj
 0002:00000b3c       ??_C@_0BG@OEMDKMEE@operation?5would?5block?$AA@ 1003eb3c     libcpmt:syserror.obj
 0002:00000b54       ??_C@_0L@BLPOFLNJ@owner?5dead?$AA@ 1003eb54     libcpmt:syserror.obj
 0002:00000b60       ??_C@_0BC@CIJDGCDI@permission?5denied?$AA@ 1003eb60     libcpmt:syserror.obj
 0002:00000b74       ??_C@_0P@FNPOCJBE@protocol?5error?$AA@ 1003eb74     libcpmt:syserror.obj
 0002:00000b84       ??_C@_0BH@JPPPLHJB@protocol?5not?5supported?$AA@ 1003eb84     libcpmt:syserror.obj
 0002:00000b9c       ??_C@_0BG@EICBIHDP@read?5only?5file?5system?$AA@ 1003eb9c     libcpmt:syserror.obj
 0002:00000bb4       ??_C@_0BE@GOIPJJHG@result?5out?5of?5range?$AA@ 1003ebb4     libcpmt:syserror.obj
 0002:00000bc8       ??_C@_0BG@MPLKFPAE@state?5not?5recoverable?$AA@ 1003ebc8     libcpmt:syserror.obj
 0002:00000be0       ??_C@_0P@DIIFGFCG@stream?5timeout?$AA@ 1003ebe0     libcpmt:syserror.obj
 0002:00000bf0       ??_C@_0P@IPFDMIFL@text?5file?5busy?$AA@ 1003ebf0     libcpmt:syserror.obj
 0002:00000c00       ??_C@_09KJPPMAOI@timed?5out?$AA@ 1003ec00     libcpmt:syserror.obj
 0002:00000c0c       ??_C@_0BO@HACHBEKI@too?5many?5files?5open?5in?5system?$AA@ 1003ec0c     libcpmt:syserror.obj
 0002:00000c2c       ??_C@_0BE@GHAFMPAH@too?5many?5files?5open?$AA@ 1003ec2c     libcpmt:syserror.obj
 0002:00000c40       ??_C@_0P@HCOMKFCC@too?5many?5links?$AA@ 1003ec40     libcpmt:syserror.obj
 0002:00000c50       ??_C@_0BO@EFGOJEF@too?5many?5symbolic?5link?5levels?$AA@ 1003ec50     libcpmt:syserror.obj
 0002:00000c70       ??_C@_0BA@KGKGOOJA@value?5too?5large?$AA@ 1003ec70     libcpmt:syserror.obj
 0002:00000c80       ??_C@_0BE@MIEJDDNH@wrong?5protocol?5type?$AA@ 1003ec80     libcpmt:syserror.obj
 0002:00001158       ??_C@_0BN@LKKBCCDB@address?5family?5not?5supported?$AA@ 1003f158     libcpmt:syserror.obj
 0002:00001178       ??_C@_0P@LDMLAFHI@address?5in?5use?$AA@ 1003f178     libcpmt:syserror.obj
 0002:00001188       ??_C@_0BG@DHPCNBJB@address?5not?5available?$AA@ 1003f188     libcpmt:syserror.obj
 0002:000011a0       ??_C@_0BC@DFIBIBIL@already?5connected?$AA@ 1003f1a0     libcpmt:syserror.obj
 0002:000011b4       ??_C@_0BH@CAKOHOMI@argument?5list?5too?5long?$AA@ 1003f1b4     libcpmt:syserror.obj
 0002:000011cc       ??_C@_0BH@CGIMPKIM@argument?5out?5of?5domain?$AA@ 1003f1cc     libcpmt:syserror.obj
 0002:000011e4       ??_C@_0M@KGHGGJGL@bad?5address?$AA@ 1003f1e4     libcpmt:syserror.obj
 0002:000011f0       ??_C@_0BE@MPJPGCEO@bad?5file?5descriptor?$AA@ 1003f1f0     libcpmt:syserror.obj
 0002:00001204       ??_C@_0M@PMMIEFCP@bad?5message?$AA@ 1003f204     libcpmt:syserror.obj
 0002:00001210       ??_C@_0M@KPHOFDBE@broken?5pipe?$AA@ 1003f210     libcpmt:syserror.obj
 0002:0000121c       ??_C@_0BD@MGNDDEGM@connection?5aborted?$AA@ 1003f21c     libcpmt:syserror.obj
 0002:00001230       ??_C@_0BP@KAIHPOGN@connection?5already?5in?5progress?$AA@ 1003f230     libcpmt:syserror.obj
 0002:00001250       ??_C@_0BD@PJLIIJEL@connection?5refused?$AA@ 1003f250     libcpmt:syserror.obj
 0002:00001264       ??_C@_0BB@IECNJNOI@connection?5reset?$AA@ 1003f264     libcpmt:syserror.obj
 0002:00001278       ??_C@_0BC@PPHBOELF@cross?5device?5link?$AA@ 1003f278     libcpmt:syserror.obj
 0002:0000128c       ??_C@_0BN@KDMIFEIP@destination?5address?5required?$AA@ 1003f28c     libcpmt:syserror.obj
 0002:000012ac       ??_C@_0BE@JIDOCPHM@directory?5not?5empty?$AA@ 1003f2ac     libcpmt:syserror.obj
 0002:000012c0       ??_C@_0BI@BNCLIGPB@executable?5format?5error?$AA@ 1003f2c0     libcpmt:syserror.obj
 0002:000012d8       ??_C@_0M@MIDIAGJP@file?5exists?$AA@ 1003f2d8     libcpmt:syserror.obj
 0002:000012e4       ??_C@_0P@DNAJLBJK@file?5too?5large?$AA@ 1003f2e4     libcpmt:syserror.obj
 0002:000012f4       ??_C@_0BC@EJHOMAAK@filename?5too?5long?$AA@ 1003f2f4     libcpmt:syserror.obj
 0002:00001308       ??_C@_0BH@KEFGLDAF@function?5not?5supported?$AA@ 1003f308     libcpmt:syserror.obj
 0002:00001320       ??_C@_0BB@DHFDFGDM@host?5unreachable?$AA@ 1003f320     libcpmt:syserror.obj
 0002:00001334       ??_C@_0BD@JPHBMONG@identifier?5removed?$AA@ 1003f334     libcpmt:syserror.obj
 0002:00001348       ??_C@_0BG@CDNPAGJK@illegal?5byte?5sequence?$AA@ 1003f348     libcpmt:syserror.obj
 0002:00001360       ??_C@_0CD@BNPLBMNA@inappropriate?5io?5control?5operati@ 1003f360     libcpmt:syserror.obj
 0002:00001384       ??_C@_0M@EGEKIIMP@interrupted?$AA@ 1003f384     libcpmt:syserror.obj
 0002:00001390       ??_C@_0O@BFJCFAAK@unknown?5error?$AA@ 1003f390     libcpmt:syserror.obj
 0002:000013a4       ??_7type_info@@6B@         1003f3a4     LIBCMT:std_type_info_static.obj
 0002:000013a8       __pDefaultRawDllMain       1003f3a8     LIBCMT:dll_dllmain.obj
 0002:000013a8       __pRawDllMain              1003f3a8     LIBCMT:dll_dllmain.obj
 0002:000013b0       ??_7bad_array_new_length@std@@6B@ 1003f3b0     LIBCMT:throw_bad_alloc.obj
 0002:000013b8       ??_C@_0BF@KINCDENJ@bad?5array?5new?5length?$AA@ 1003f3b8     LIBCMT:throw_bad_alloc.obj
 0002:000013dc       ??_7WaitBlock@details@Concurrency@@6B@ 1003f3dc     libconcrt:event.obj
 0002:000013f4       ??_7SingleWaitBlock@details@Concurrency@@6B@ 1003f3f4     libconcrt:event.obj
 0002:0000140c       ??_7MultiWaitBlock@details@Concurrency@@6B@ 1003f40c     libconcrt:event.obj
 0002:00001428       ??_7WaitAllBlock@details@Concurrency@@6B@ 1003f428     libconcrt:event.obj
 0002:00001444       ??_7WaitAnyBlock@details@Concurrency@@6B@ 1003f444     libconcrt:event.obj
 0002:00001460       ??_7TimedSingleWaitBlock@details@Concurrency@@6B@ 1003f460     libconcrt:event.obj
 0002:00001478       ??_7?$_MallocaArrayHolder@PAVContext@Concurrency@@@details@Concurrency@@6B@ 1003f478     libconcrt:event.obj
 0002:0000147c       ??_C@_07CAAEJHLA@pEvents?$AA@ 1003f47c     libconcrt:event.obj
 0002:00001488       ??_7improper_lock@Concurrency@@6B@ 1003f488     libconcrt:rtlocks.obj
 0002:00001490       ??_C@_0BD@BAGHDICJ@Lock?5already?5taken?$AA@ 1003f490     libconcrt:rtlocks.obj
 0002:000014a8       ??_7scheduler_resource_allocation_error@Concurrency@@6B@ 1003f4a8     libconcrt:Platform.obj
 0002:000014b0       ??_C@_0BH@CJPDKMEB@SetThreadGroupAffinity?$AA@ 1003f4b0     libconcrt:Platform.obj
 0002:000014c8       ??_C@_0BH@CINNILJO@GetThreadGroupAffinity?$AA@ 1003f4c8     libconcrt:Platform.obj
 0002:000014e0       ??_C@_0BM@JLHMEGJA@GetCurrentProcessorNumberEx?$AA@ 1003f4e0     libconcrt:Platform.obj
 0002:000014fc       ??_C@_0CB@HOJBBPPI@GetLogicalProcessorInformationEx@ 1003f4fc     libconcrt:Platform.obj
 0002:00001524       ??_7invalid_operation@Concurrency@@6B@ 1003f524     libconcrt:ResourceManager.obj
 0002:00001530       ??_7unsupported_os@Concurrency@@6B@ 1003f530     libconcrt:ResourceManager.obj
 0002:0000153c       ??_7TopologyObject@GlobalCore@details@Concurrency@@6B@ 1003f53c     libconcrt:ResourceManager.obj
 0002:00001548       ??_7TopologyObject@GlobalNode@details@Concurrency@@6B@ 1003f548     libconcrt:ResourceManager.obj
 0002:00001560       ??_7ResourceManager@details@Concurrency@@6B@ 1003f560     libconcrt:ResourceManager.obj
 0002:00001578       ??_C@_05IOMEMJEC@count?$AA@ 1003f578     libconcrt:ResourceManager.obj
 0002:00001580       ??_C@_0L@HKFDMHB@pScheduler?$AA@ 1003f580     libconcrt:ResourceManager.obj
 0002:0000158c       ??_C@_07CPCPJPKL@version?$AA@ 1003f58c     libconcrt:ResourceManager.obj
 0002:00001598       __real@0000000000000000    1003f598     libconcrt:ResourceManager.obj
 0002:000015a0       __real@3e7ad7f29abcaf48    1003f5a0     libconcrt:ResourceManager.obj
 0002:000015a8       __real@41f0000000000000    1003f5a8     libconcrt:ResourceManager.obj
 0002:000015b0       ?s_maxExternalAllocators@SchedulerBase@details@Concurrency@@0HB 1003f5b0     libconcrt:SchedulerBase.obj
 0002:000015b4       ?s_allocatorFreePoolLimit@SchedulerBase@details@Concurrency@@0HB 1003f5b4     libconcrt:SchedulerBase.obj
 0002:000015bc       ??_7improper_scheduler_attach@Concurrency@@6B@ 1003f5bc     libconcrt:SchedulerBase.obj
 0002:000015c8       ??_7improper_scheduler_reference@Concurrency@@6B@ 1003f5c8     libconcrt:SchedulerBase.obj
 0002:000015d4       ??_7ScheduleGroup@Concurrency@@6B@ 1003f5d4     libconcrt:SchedulerBase.obj
 0002:000015ec       ??_7Scheduler@Concurrency@@6B@ 1003f5ec     libconcrt:SchedulerBase.obj
 0002:00001624       ??_7_Chore@details@Concurrency@@6B@ 1003f624     libconcrt:SchedulerBase.obj
 0002:0000162c       ??_7RealizedChore@details@Concurrency@@6B@ 1003f62c     libconcrt:SchedulerBase.obj
 0002:00001634       ??_7SchedulerBase@details@Concurrency@@6B@ 1003f634     libconcrt:SchedulerBase.obj
 0002:00001698       ??_7CacheLocalScheduleGroupSegment@details@Concurrency@@6B@ 1003f698     libconcrt:SchedulerBase.obj
 0002:000016ac       ??_7CacheLocalScheduleGroup@details@Concurrency@@6B@ 1003f6ac     libconcrt:SchedulerBase.obj
 0002:000016d8       ??_7FairScheduleGroupSegment@details@Concurrency@@6B@ 1003f6d8     libconcrt:SchedulerBase.obj
 0002:000016ec       ??_7FairScheduleGroup@details@Concurrency@@6B@ 1003f6ec     libconcrt:SchedulerBase.obj
 0002:00001714       ??_C@_0M@IAPOLKMH@eventObject?$AA@ 1003f714     libconcrt:SchedulerBase.obj
 0002:00001720       ??_C@_0BI@PMOAFEOC@ppVirtualProcessorRoots?$AA@ 1003f720     libconcrt:SchedulerBase.obj
 0002:0000173c       ??_7scheduler_worker_creation_error@Concurrency@@6B@ 1003f73c     libconcrt:Exceptions.obj
 0002:00001748       ??_7context_unblock_unbalanced@Concurrency@@6B@ 1003f748     libconcrt:Exceptions.obj
 0002:00001754       ??_7context_self_unblock@Concurrency@@6B@ 1003f754     libconcrt:Exceptions.obj
 0002:00001760       ??_7missing_wait@Concurrency@@6B@ 1003f760     libconcrt:Exceptions.obj
 0002:0000176c       ??_7invalid_scheduler_policy_key@Concurrency@@6B@ 1003f76c     libconcrt:Exceptions.obj
 0002:00001778       ??_7invalid_scheduler_policy_value@Concurrency@@6B@ 1003f778     libconcrt:Exceptions.obj
 0002:00001784       ??_7invalid_scheduler_policy_thread_specification@Concurrency@@6B@ 1003f784     libconcrt:Exceptions.obj
 0002:00001790       ??_7nested_scheduler_missing_detach@Concurrency@@6B@ 1003f790     libconcrt:Exceptions.obj
 0002:0000179c       ??_7invalid_oversubscribe_operation@Concurrency@@6B@ 1003f79c     libconcrt:Exceptions.obj
 0002:000017a8       ??_7Context@Concurrency@@6B@ 1003f7a8     libconcrt:ContextBase.obj
 0002:000017c4       ??_7ContextBase@details@Concurrency@@6B@ 1003f7c4     libconcrt:ContextBase.obj
 0002:00001810       ?_Upper@?1??_Memory_order_upper_bound@std@@YA?AW4memory_order@2@W432@0@Z@4QAY05$$CBW432@A 1003f810     libconcrt:TaskCollection.obj
 0002:000018a4       ??_7_Interruption_exception@details@Concurrency@@6B@ 1003f8a4     libconcrt:TaskCollection.obj
 0002:000018b0       ??_7_RefCounter@details@Concurrency@@6B@ 1003f8b0     libconcrt:TaskCollection.obj
 0002:000018bc       ??_7_CancellationTokenRegistration@details@Concurrency@@6B@ 1003f8bc     libconcrt:TaskCollection.obj
 0002:000018cc       ??_7CancellationTokenRegistration_TaskProc@details@Concurrency@@6B@ 1003f8cc     libconcrt:TaskCollection.obj
 0002:000018dc       ??_7?$_MallocaArrayHolder@PAVevent@Concurrency@@@details@Concurrency@@6B@ 1003f8dc     libconcrt:TaskCollection.obj
 0002:000018e0       ??_C@_0O@JJAHDPNG@SchedulerKind?$AA@ 1003f8e0     libconcrt:SchedulerPolicyBase.obj
 0002:000018f0       ??_C@_0P@CGAHIHHE@MaxConcurrency?$AA@ 1003f8f0     libconcrt:SchedulerPolicyBase.obj
 0002:00001900       ??_C@_0P@BLMOAEF@MinConcurrency?$AA@ 1003f900     libconcrt:SchedulerPolicyBase.obj
 0002:00001910       ??_C@_0BN@GKPFKNNF@TargetOversubscriptionFactor?$AA@ 1003f910     libconcrt:SchedulerPolicyBase.obj
 0002:00001930       ??_C@_0BG@PCMPEOIE@LocalContextCacheSize?$AA@ 1003f930     libconcrt:SchedulerPolicyBase.obj
 0002:00001948       ??_C@_0BB@OPLJNNNB@ContextStackSize?$AA@ 1003f948     libconcrt:SchedulerPolicyBase.obj
 0002:0000195c       ??_C@_0BA@CHGPFLBM@ContextPriority?$AA@ 1003f95c     libconcrt:SchedulerPolicyBase.obj
 0002:0000196c       ??_C@_0BD@HMLGOEAM@SchedulingProtocol?$AA@ 1003f96c     libconcrt:SchedulerPolicyBase.obj
 0002:00001980       ??_C@_0BI@PEDMDBKL@DynamicProgressFeedback?$AA@ 1003f980     libconcrt:SchedulerPolicyBase.obj
 0002:00001998       ??_C@_0BE@EBKJEJDK@WinRTInitialization?$AA@ 1003f998     libconcrt:SchedulerPolicyBase.obj
 0002:000019ac       ??_C@_0BE@OJPKBKLL@MaxPolicyElementKey?$AA@ 1003f9ac     libconcrt:SchedulerPolicyBase.obj
 0002:000019c4       ??_7ExecutionResource@details@Concurrency@@6B@ 1003f9c4     libconcrt:ExecutionResource.obj
 0002:000019d8       __real@3f1a36e2eb1c432d    1003f9d8     libconcrt:HillClimbing.obj
 0002:000019e0       __real@3f70624dd2f1a9fc    1003f9e0     libconcrt:HillClimbing.obj
 0002:000019e8       __real@3fc3333333333333    1003f9e8     libconcrt:HillClimbing.obj
 0002:000019f0       __real@4024000000000000    1003f9f0     libconcrt:HillClimbing.obj
 0002:000019f8       __real@bff0000000000000    1003f9f8     libconcrt:HillClimbing.obj
 0002:00001a04       ??_7SchedulerProxy@details@Concurrency@@6B@ 1003fa04     libconcrt:SchedulerProxy.obj
 0002:00001a2c       ??_C@_08BAFMHLII@pContext?$AA@ 1003fa2c     libconcrt:SchedulerProxy.obj
 0002:00001a38       ??_C@_0BD@HOFLOOHM@pExecutionResource?$AA@ 1003fa38     libconcrt:SchedulerProxy.obj
 0002:00001a4c       ??_C@_1BI@IDAOOPDH@?$AAc?$AAo?$AAm?$AAb?$AAa?$AAs?$AAe?$AA?4?$AAd?$AAl?$AAl?$AA?$AA@ 1003fa4c     libconcrt:WinRTWrapper.obj
 0002:00001a64       ??_C@_0N@PPOMPGGK@RoInitialize?$AA@ 1003fa64     libconcrt:WinRTWrapper.obj
 0002:00001a74       ??_C@_0P@LLFHBIJD@RoUninitialize?$AA@ 1003fa74     libconcrt:WinRTWrapper.obj
 0002:00001a88       ??_7FreeThreadProxy@details@Concurrency@@6B@ 1003fa88     libconcrt:ThreadProxyFactoryManager.obj
 0002:00001aa4       ??_7IThreadProxyFactory@details@Concurrency@@6B@ 1003faa4     libconcrt:ThreadProxyFactoryManager.obj
 0002:00001abc       ?s_proxyStackSize@?$ThreadProxyFactory@VFreeThreadProxy@details@Concurrency@@@details@Concurrency@@1QBIB 1003fabc     libconcrt:ThreadProxyFactoryManager.obj
 0002:00001ad0       ??_7?$ThreadProxyFactory@VFreeThreadProxy@details@Concurrency@@@details@Concurrency@@6B@ 1003fad0     libconcrt:ThreadProxyFactoryManager.obj
 0002:00001afc       ??_7FreeThreadProxyFactory@details@Concurrency@@6B@ 1003fafc     libconcrt:ThreadProxyFactoryManager.obj
 0002:00001b24       ?ConcRT_ProviderGuid@Concurrency@@3U_GUID@@B 1003fb24     libconcrt:Trace.obj
 0002:00001b34       ?ConcRTEventGuid@Concurrency@@3U_GUID@@B 1003fb34     libconcrt:Trace.obj
 0002:00001b44       ?SchedulerEventGuid@Concurrency@@3U_GUID@@B 1003fb44     libconcrt:Trace.obj
 0002:00001b54       ?ScheduleGroupEventGuid@Concurrency@@3U_GUID@@B 1003fb54     libconcrt:Trace.obj
 0002:00001b64       ?ContextEventGuid@Concurrency@@3U_GUID@@B 1003fb64     libconcrt:Trace.obj
 0002:00001b74       ?ChoreEventGuid@Concurrency@@3U_GUID@@B 1003fb74     libconcrt:Trace.obj
 0002:00001b84       ?VirtualProcessorEventGuid@Concurrency@@3U_GUID@@B 1003fb84     libconcrt:Trace.obj
 0002:00001b94       ?LockEventGuid@Concurrency@@3U_GUID@@B 1003fb94     libconcrt:Trace.obj
 0002:00001ba4       ?ResourceManagerEventGuid@Concurrency@@3U_GUID@@B 1003fba4     libconcrt:Trace.obj
 0002:00001bb4       ?PPLParallelInvokeEventGuid@Concurrency@@3U_GUID@@B 1003fbb4     libconcrt:Trace.obj
 0002:00001bc4       ?PPLParallelForEventGuid@Concurrency@@3U_GUID@@B 1003fbc4     libconcrt:Trace.obj
 0002:00001bd4       ?PPLParallelForeachEventGuid@Concurrency@@3U_GUID@@B 1003fbd4     libconcrt:Trace.obj
 0002:00001be4       ?AgentEventGuid@Concurrency@@3U_GUID@@B 1003fbe4     libconcrt:Trace.obj
 0002:00001bf4       ??_C@_1BK@JHLNAEJL@?$AAa?$AAd?$AAv?$AAa?$AAp?$AAi?$AA3?$AA2?$AA?4?$AAd?$AAl?$AAl?$AA?$AA@ 1003fbf4     libconcrt:Trace.obj
 0002:00001c10       ??_C@_0BE@FKJMGMF@RegisterTraceGuidsW?$AA@ 1003fc10     libconcrt:Trace.obj
 0002:00001c24       ??_C@_0BF@OFMMALCC@UnregisterTraceGuids?$AA@ 1003fc24     libconcrt:Trace.obj
 0002:00001c3c       ??_C@_0L@EOLEDHLE@TraceEvent?$AA@ 1003fc3c     libconcrt:Trace.obj
 0002:00001c48       ??_C@_0BF@OFCGPMKL@GetTraceLoggerHandle?$AA@ 1003fc48     libconcrt:Trace.obj
 0002:00001c60       ??_C@_0BE@JCHMKLLJ@GetTraceEnableLevel?$AA@ 1003fc60     libconcrt:Trace.obj
 0002:00001c74       ??_C@_0BE@DNOHFPHI@GetTraceEnableFlags?$AA@ 1003fc74     libconcrt:Trace.obj
 0002:00001c8c       ??_7VirtualProcessor@details@Concurrency@@6B@ 1003fc8c     libconcrt:VirtualProcessor.obj
 0002:00001cb0       ?s_bucketSizes@SubAllocator@details@Concurrency@@0QBHB 1003fcb0     libconcrt:SubAllocator.obj
 0002:00001e30       ?GranularityShift@SubAllocator@details@Concurrency@@0HB 1003fe30     libconcrt:SubAllocator.obj
 0002:00001e34       ?MaxAllocationSize@SubAllocator@details@Concurrency@@0HB 1003fe34     libconcrt:SubAllocator.obj
 0002:00001e3c       ??_7IExecutionContext@Concurrency@@6B@ 1003fe3c     libconcrt:InternalContextBase.obj
 0002:00001e54       ??_7InternalContextBase@details@Concurrency@@6BIExecutionContext@2@@ 1003fe54     libconcrt:InternalContextBase.obj
 0002:00001e7c       ??_7InternalContextBase@details@Concurrency@@6BContextBase@12@@ 1003fe7c     libconcrt:InternalContextBase.obj
 0002:00001ec4       ??_C@_0N@FACDCNDA@pThreadProxy?$AA@ 1003fec4     libconcrt:InternalContextBase.obj
 0002:00001ed8       ??_7ScheduleGroupSegmentBase@details@Concurrency@@6B@ 1003fed8     libconcrt:ScheduleGroupBase.obj
 0002:00001eec       ??_7ScheduleGroupBase@details@Concurrency@@6B@ 1003feec     libconcrt:ScheduleGroupBase.obj
 0002:00001f14       ??_C@_04MGCDEED@proc?$AA@  1003ff14     libconcrt:ScheduleGroupBase.obj
 0002:00001f20       ??_7ExternalContextBase@details@Concurrency@@6B@ 1003ff20     libconcrt:ExternalContextBase.obj
 0002:00001f6c       ??_7IScheduler@Concurrency@@6B@ 1003ff6c     libconcrt:ThreadScheduler.obj
 0002:00001f8c       ??_7ThreadInternalContext@details@Concurrency@@6BIExecutionContext@2@@ 1003ff8c     libconcrt:ThreadScheduler.obj
 0002:00001fb4       ??_7ThreadInternalContext@details@Concurrency@@6BContextBase@12@@ 1003ffb4     libconcrt:ThreadScheduler.obj
 0002:00002000       ??_7ThreadScheduler@details@Concurrency@@6BIScheduler@2@@ 10040000     libconcrt:ThreadScheduler.obj
 0002:00002020       ??_7ThreadScheduler@details@Concurrency@@6BSchedulerBase@12@@ 10040020     libconcrt:ThreadScheduler.obj
 0002:00002084       ??_7VirtualProcessorRoot@details@Concurrency@@6B@ 10040084     libconcrt:VirtualProcessorRoot.obj
 0002:000020b0       ??_7FreeVirtualProcessorRoot@details@Concurrency@@6B@ 100400b0     libconcrt:FreeVirtualProcessorRoot.obj
 0002:000020d8       ??_C@_0M@CIMHMGAD@switchState?$AA@ 100400d8     libconcrt:FreeThreadProxy.obj
 0002:000020e8       ??_7ThreadProxy@details@Concurrency@@6B@ 100400e8     libconcrt:ThreadProxy.obj
 0002:00002104       ??_7ThreadVirtualProcessor@details@Concurrency@@6B@ 10040104     libconcrt:ThreadVirtualProcessor.obj
 0002:00002128       __pDestructExceptionObject 10040128     libvcruntime:frame.obj
 0002:00002130       ??_7bad_exception@std@@6B@ 10040130     libvcruntime:frame.obj
 0002:00002138       ??_C@_0O@DPKOEFFH@bad?5exception?$AA@ 10040138     libvcruntime:frame.obj
 0002:00002178       ??_C@_1BC@DNHGCMLG@?$AAa?$AAd?$AAv?$AAa?$AAp?$AAi?$AA3?$AA2?$AA?$AA@ 10040178     libvcruntime:winapi_downlevel.obj
 0002:0000218c       ??_C@_1DM@KHCHBNEB@?$AAa?$AAp?$AAi?$AA?9?$AAm?$AAs?$AA?9?$AAw?$AAi?$AAn?$AA?9?$AAc?$AAo?$AAr?$AAe?$AA?9?$AAf?$AAi?$AAb?$AAe?$AAr?$AAs?$AA?9?$AAl?$AA1?$AA?9?$AA1?$AA?9?$AA1?$AA?$AA@ 1004018c     libvcruntime:winapi_downlevel.obj
 0002:000021c8       ??_C@_1DK@LPPGFMPP@?$AAa?$AAp?$AAi?$AA?9?$AAm?$AAs?$AA?9?$AAw?$AAi?$AAn?$AA?9?$AAc?$AAo?$AAr?$AAe?$AA?9?$AAs?$AAy?$AAn?$AAc?$AAh?$AA?9?$AAl?$AA1?$AA?9?$AA2?$AA?9?$AA0?$AA?$AA@ 100401c8     libvcruntime:winapi_downlevel.obj
 0002:00002204       ??_C@_1BC@GDMECMAK@?$AAk?$AAe?$AAr?$AAn?$AAe?$AAl?$AA3?$AA2?$AA?$AA@ 10040204     libvcruntime:winapi_downlevel.obj
 0002:00002244       ??_7bad_cast@std@@6B@      10040244     libvcruntime:rtti.obj
 0002:00002250       ??_7bad_typeid@std@@6B@    10040250     libvcruntime:rtti.obj
 0002:0000225c       ??_7__non_rtti_object@std@@6B@ 1004025c     libvcruntime:rtti.obj
 0002:00002264       ??_C@_0CB@CGKGGDFI@Access?5violation?5?9?5no?5RTTI?5data?$CB@ 10040264     libvcruntime:rtti.obj
 0002:00002288       ??_C@_0BC@JNJNLHBP@Bad?5dynamic_cast?$CB?$AA@ 10040288     libvcruntime:rtti.obj
 0002:00002430       ??_C@_08EHJDFFNH@__based?$CI?$AA@ 10040430     libvcruntime:undname.obj
 0002:0000243c       ??_C@_07KOLFKCDI@__cdecl?$AA@ 1004043c     libvcruntime:undname.obj
 0002:00002444       ??_C@_08GHMPAG@__pascal?$AA@ 10040444     libvcruntime:undname.obj
 0002:00002450       ??_C@_09IFJBGAPI@__stdcall?$AA@ 10040450     libvcruntime:undname.obj
 0002:0000245c       ??_C@_0L@NPHFGOKO@__thiscall?$AA@ 1004045c     libvcruntime:undname.obj
 0002:00002468       ??_C@_0L@JMKHOMEK@__fastcall?$AA@ 10040468     libvcruntime:undname.obj
 0002:00002474       ??_C@_0N@BCKKPABJ@__vectorcall?$AA@ 10040474     libvcruntime:undname.obj
 0002:00002484       ??_C@_09HIJEGCPM@__clrcall?$AA@ 10040484     libvcruntime:undname.obj
 0002:00002490       ??_C@_06GHPCKEAG@__eabi?$AA@ 10040490     libvcruntime:undname.obj
 0002:00002498       ??_C@_07JOMMBBKO@__ptr64?$AA@ 10040498     libvcruntime:undname.obj
 0002:000024a0       ??_C@_0L@PILCLIHE@__restrict?$AA@ 100404a0     libvcruntime:undname.obj
 0002:000024ac       ??_C@_0M@GFIIJFMG@__unaligned?$AA@ 100404ac     libvcruntime:undname.obj
 0002:000024b8       ??_C@_09DHDLOLLB@restrict?$CI?$AA@ 100404b8     libvcruntime:undname.obj
 0002:000024c2       ??_C@_00CNPNBAHC@?$AA@     100404c2     libvcruntime:undname.obj
 0002:000024c4       ??_C@_04NIHEBCM@?5new?$AA@ 100404c4     libvcruntime:undname.obj
 0002:000024cc       ??_C@_07FPCDHGMM@?5delete?$AA@ 100404cc     libvcruntime:undname.obj
 0002:000024d4       ??_C@_01NEMOKFLO@?$DN?$AA@ 100404d4     libvcruntime:undname.obj
 0002:000024d8       ??_C@_02GPIOPFAK@?$DO?$DO?$AA@ 100404d8     libvcruntime:undname.obj
 0002:000024dc       ??_C@_02FODMEDOG@?$DM?$DM?$AA@ 100404dc     libvcruntime:undname.obj
 0002:000024e0       ??_C@_01DCLJPIOD@?$CB?$AA@ 100404e0     libvcruntime:undname.obj
 0002:000024e4       ??_C@_02EGOFBIJA@?$DN?$DN?$AA@ 100404e4     libvcruntime:undname.obj
 0002:000024e8       ??_C@_02FDNJECIE@?$CB?$DN?$AA@ 100404e8     libvcruntime:undname.obj
 0002:000024ec       ??_C@_02GPECMEKF@?$FL?$FN?$AA@ 100404ec     libvcruntime:undname.obj
 0002:000024f0       ??_C@_08LHJFAFGD@operator?$AA@ 100404f0     libvcruntime:undname.obj
 0002:000024fc       ??_C@_02HBOOOICD@?9?$DO?$AA@ 100404fc     libvcruntime:undname.obj
 0002:00002500       ??_C@_01NBENCBCI@?$CK?$AA@ 10040500     libvcruntime:undname.obj
 0002:00002504       ??_C@_02ECNGHCIF@?$CL?$CL?$AA@ 10040504     libvcruntime:undname.obj
 0002:00002508       ??_C@_02BAABKJLB@?9?9?$AA@ 10040508     libvcruntime:undname.obj
 0002:0000250c       ??_C@_01JOAMLHOP@?9?$AA@   1004050c     libvcruntime:undname.obj
 0002:00002510       ??_C@_01MIFGBAGJ@?$CL?$AA@ 10040510     libvcruntime:undname.obj
 0002:00002514       ??_C@_01HNPIGOCE@?$CG?$AA@ 10040514     libvcruntime:undname.obj
 0002:00002518       ??_C@_03MNHNFDLC@?9?$DO?$CK?$AA@ 10040518     libvcruntime:undname.obj
 0002:0000251c       ??_C@_01KMDKNFGN@?1?$AA@   1004051c     libvcruntime:undname.obj
 0002:00002520       ??_C@_01FGNFDNOH@?$CF?$AA@ 10040520     libvcruntime:undname.obj
 0002:00002524       ??_C@_01MNNFJEPP@?$DM?$AA@ 10040524     libvcruntime:undname.obj
 0002:00002528       ??_C@_02EHCHHCKH@?$DM?$DN?$AA@ 10040528     libvcruntime:undname.obj
 0002:0000252c       ??_C@_01PPODPGHN@?$DO?$AA@ 1004052c     libvcruntime:undname.obj
 0002:00002530       ??_C@_02EEKDKGMJ@?$DO?$DN?$AA@ 10040530     libvcruntime:undname.obj
 0002:00002534       ??_C@_01IHBHIGKO@?0?$AA@   10040534     libvcruntime:undname.obj
 0002:00002538       ??_C@_02HCKGKOFO@?$CI?$CJ?$AA@ 10040538     libvcruntime:undname.obj
 0002:0000253c       ??_C@_01PJKLJHI@?$HO?$AA@  1004053c     libvcruntime:undname.obj
 0002:00002540       ??_C@_01JKBOJNNK@?$FO?$AA@ 10040540     libvcruntime:undname.obj
 0002:00002544       ??_C@_01DNKMNLPK@?$HM?$AA@ 10040544     libvcruntime:undname.obj
 0002:00002548       ??_C@_02PPKAJPJL@?$CG?$CG?$AA@ 10040548     libvcruntime:undname.obj
 0002:0000254c       ??_C@_02NONPIBCD@?$HM?$HM?$AA@ 1004054c     libvcruntime:undname.obj
 0002:00002550       ??_C@_02FPIMKNGF@?$CK?$DN?$AA@ 10040550     libvcruntime:undname.obj
 0002:00002554       ??_C@_02FOEOMHFC@?$CL?$DN?$AA@ 10040554     libvcruntime:undname.obj
 0002:00002558       ??_C@_02FKMDLLOA@?9?$DN?$AA@ 10040558     libvcruntime:undname.obj
 0002:0000255c       ??_C@_02FJEHGPIO@?1?$DN?$AA@ 1004055c     libvcruntime:undname.obj
 0002:00002560       ??_C@_02FENAOKFI@?$CF?$DN?$AA@ 10040560     libvcruntime:undname.obj
 0002:00002564       ??_C@_03IKFCCPFF@?$DO?$DO?$DN?$AA@ 10040564     libvcruntime:undname.obj
 0002:00002568       ??_C@_03CDNPDDLA@?$DM?$DM?$DN?$AA@ 10040568     libvcruntime:undname.obj
 0002:0000256c       ??_C@_02FGJGFEAB@?$CG?$DN?$AA@ 1004056c     libvcruntime:undname.obj
 0002:00002570       ??_C@_02DHLNPPGH@?$HM?$DN?$AA@ 10040570     libvcruntime:undname.obj
 0002:00002574       ??_C@_02MHEGNOJ@?$FO?$DN?$AA@ 10040574     libvcruntime:undname.obj
 0002:00002578       ??_C@_09IFPLHPGF@?$GAvftable?8?$AA@ 10040578     libvcruntime:undname.obj
 0002:00002584       ??_C@_09BLBHBJP@?$GAvbtable?8?$AA@ 10040584     libvcruntime:undname.obj
 0002:00002590       ??_C@_07FEEIOKP@?$GAvcall?8?$AA@ 10040590     libvcruntime:undname.obj
 0002:00002598       ??_C@_08LLFFHHDJ@?$GAtypeof?8?$AA@ 10040598     libvcruntime:undname.obj
 0002:000025a4       ??_C@_0BF@KDPPACIK@?$GAlocal?5static?5guard?8?$AA@ 100405a4     libvcruntime:undname.obj
 0002:000025bc       ??_C@_08OBABFOLI@?$GAstring?8?$AA@ 100405bc     libvcruntime:undname.obj
 0002:000025c8       ??_C@_0BD@JDLKDPAB@?$GAvbase?5destructor?8?$AA@ 100405c8     libvcruntime:undname.obj
 0002:000025dc       ??_C@_0BN@DEGPLNFK@?$GAvector?5deleting?5destructor?8?$AA@ 100405dc     libvcruntime:undname.obj
 0002:000025fc       ??_C@_0BO@OBMKPJIG@?$GAdefault?5constructor?5closure?8?$AA@ 100405fc     libvcruntime:undname.obj
 0002:0000261c       ??_C@_0BN@IMDCHIKM@?$GAscalar?5deleting?5destructor?8?$AA@ 1004061c     libvcruntime:undname.obj
 0002:0000263c       ??_C@_0BO@PFGOCPJJ@?$GAvector?5constructor?5iterator?8?$AA@ 1004063c     libvcruntime:undname.obj
 0002:0000265c       ??_C@_0BN@LFPFMEDL@?$GAvector?5destructor?5iterator?8?$AA@ 1004065c     libvcruntime:undname.obj
 0002:0000267c       ??_C@_0CE@IKBNEHA@?$GAvector?5vbase?5constructor?5iterat@ 1004067c     libvcruntime:undname.obj
 0002:000026a0       ??_C@_0BL@NILFHHPC@?$GAvirtual?5displacement?5map?8?$AA@ 100406a0     libvcruntime:undname.obj
 0002:000026bc       ??_C@_0CB@JONCMFFK@?$GAeh?5vector?5constructor?5iterator?8@ 100406bc     libvcruntime:undname.obj
 0002:000026e0       ??_C@_0CA@GCEOPDGL@?$GAeh?5vector?5destructor?5iterator?8?$AA@ 100406e0     libvcruntime:undname.obj
 0002:00002700       ??_C@_0CH@OOJPLCPH@?$GAeh?5vector?5vbase?5constructor?5ite@ 10040700     libvcruntime:undname.obj
 0002:00002728       ??_C@_0BL@LLKPOHJI@?$GAcopy?5constructor?5closure?8?$AA@ 10040728     libvcruntime:undname.obj
 0002:00002744       ??_C@_0BA@KBCDOMBN@?$GAudt?5returning?8?$AA@ 10040744     libvcruntime:undname.obj
 0002:00002754       ??_C@_03KLGMFNMG@?$GAEH?$AA@ 10040754     libvcruntime:undname.obj
 0002:00002758       ??_C@_05KHLCHHI@?$GARTTI?$AA@ 10040758     libvcruntime:undname.obj
 0002:00002760       ??_C@_0BA@KKLDJDLB@?$GAlocal?5vftable?8?$AA@ 10040760     libvcruntime:undname.obj
 0002:00002770       ??_C@_0CE@IIHCMGGL@?$GAlocal?5vftable?5constructor?5closu@ 10040770     libvcruntime:undname.obj
 0002:00002794       ??_C@_06FHBGPFGH@?5new?$FL?$FN?$AA@ 10040794     libvcruntime:undname.obj
 0002:0000279c       ??_C@_09LBNFPBCA@?5delete?$FL?$FN?$AA@ 1004079c     libvcruntime:undname.obj
 0002:000027a8       ??_C@_0P@HJKNJFNN@?$GAomni?5callsig?8?$AA@ 100407a8     libvcruntime:undname.obj
 0002:000027b8       ??_C@_0BL@CNOONJFP@?$GAplacement?5delete?5closure?8?$AA@ 100407b8     libvcruntime:undname.obj
 0002:000027d4       ??_C@_0BN@CKNJLHMB@?$GAplacement?5delete?$FL?$FN?5closure?8?$AA@ 100407d4     libvcruntime:undname.obj
 0002:000027f4       ??_C@_0CG@CFDHKGGD@?$GAmanaged?5vector?5constructor?5iter@ 100407f4     libvcruntime:undname.obj
 0002:0000281c       ??_C@_0CF@IMGKMJNO@?$GAmanaged?5vector?5destructor?5itera@ 1004081c     libvcruntime:undname.obj
 0002:00002844       ??_C@_0CG@HLDDJMAG@?$GAeh?5vector?5copy?5constructor?5iter@ 10040844     libvcruntime:undname.obj
 0002:0000286c       ??_C@_0CM@FCBBDIGB@?$GAeh?5vector?5vbase?5copy?5constructo@ 1004086c     libvcruntime:undname.obj
 0002:00002898       ??_C@_0BL@CLIPGLGB@?$GAdynamic?5initializer?5for?5?8?$AA@ 10040898     libvcruntime:undname.obj
 0002:000028b4       ??_C@_0CB@PDBIFEP@?$GAdynamic?5atexit?5destructor?5for?5?8@ 100408b4     libvcruntime:undname.obj
 0002:000028d8       ??_C@_0CD@CGAJBKEJ@?$GAvector?5copy?5constructor?5iterato@ 100408d8     libvcruntime:undname.obj
 0002:000028fc       ??_C@_0CJ@GJELGAMM@?$GAvector?5vbase?5copy?5constructor?5i@ 100408fc     libvcruntime:undname.obj
 0002:00002928       ??_C@_0CL@FGIJHLCE@?$GAmanaged?5vector?5copy?5constructor@ 10040928     libvcruntime:undname.obj
 0002:00002954       ??_C@_0BM@PMGGMLDN@?$GAlocal?5static?5thread?5guard?8?$AA@ 10040954     libvcruntime:undname.obj
 0002:00002970       ??_C@_0N@BDNMDMOL@operator?5?$CC?$CC?5?$AA@ 10040970     libvcruntime:undname.obj
 0002:00002980       ??_C@_0BC@DAFEJGAK@?5Type?5Descriptor?8?$AA@ 10040980     libvcruntime:undname.obj
 0002:00002994       ??_C@_0BM@LDKODKLH@?5Base?5Class?5Descriptor?5at?5?$CI?$AA@ 10040994     libvcruntime:undname.obj
 0002:000029b0       ??_C@_0BD@LGICGFMM@?5Base?5Class?5Array?8?$AA@ 100409b0     libvcruntime:undname.obj
 0002:000029c4       ??_C@_0BN@MECKDCOJ@?5Class?5Hierarchy?5Descriptor?8?$AA@ 100409c4     libvcruntime:undname.obj
 0002:000029e4       ??_C@_0BK@CFCOFLF@?5Complete?5Object?5Locator?8?$AA@ 100409e4     libvcruntime:undname.obj
 0002:00002a00       _standard_lookup_table     10040a00     libucrt:output.obj
 0002:00002a60       _format_validation_lookup_table 10040a60     libucrt:output.obj
 0002:00002abc       ??_C@_06OJHGLDPL@?$CInull?$CJ?$AA@ 10040abc     libucrt:output.obj
 0002:00002ac4       ??_C@_1O@CEDCILHN@?$AA?$CI?$AAn?$AAu?$AAl?$AAl?$AA?$CJ?$AA?$AA@ 10040ac4     libucrt:output.obj
 0002:00002ad8       ___acrt_exception_action_table 10040ad8     libucrt:exception_filter.obj
 0002:00002b68       ___acrt_signal_action_table_count 10040b68     libucrt:exception_filter.obj
 0002:00002b6c       ___acrt_signal_action_first_fpe_index 10040b6c     libucrt:exception_filter.obj
 0002:00002b70       ___acrt_signal_action_fpe_count 10040b70     libucrt:exception_filter.obj
 0002:00002b74       ??_C@_1BI@BGOHAHKC@?$AAm?$AAs?$AAc?$AAo?$AAr?$AAe?$AAe?$AA?4?$AAd?$AAl?$AAl?$AA?$AA@ 10040b74     libucrt:exit.obj
 0002:00002b8c       ??_C@_0P@MIGLKIOC@CorExitProcess?$AA@ 10040b8c     libucrt:exit.obj
 0002:00002d90       ??_C@_03OEIAHPBN@INF?$AA@  10040d90     libucrt:cvt.obj
 0002:00002d94       ??_C@_03OJHLLCGB@inf?$AA@  10040d94     libucrt:cvt.obj
 0002:00002d98       ??_C@_03LKNCIKJB@NAN?$AA@  10040d98     libucrt:cvt.obj
 0002:00002d9c       ??_C@_03LHCJEHON@nan?$AA@  10040d9c     libucrt:cvt.obj
 0002:00002da0       ??_C@_09OFJJIMPC@NAN?$CISNAN?$CJ?$AA@ 10040da0     libucrt:cvt.obj
 0002:00002dac       ??_C@_09IPFBKMDL@nan?$CIsnan?$CJ?$AA@ 10040dac     libucrt:cvt.obj
 0002:00002db8       ??_C@_08IKHNHAJ@NAN?$CIIND?$CJ?$AA@ 10040db8     libucrt:cvt.obj
 0002:00002dc4       ??_C@_08OFCDMILK@nan?$CIind?$CJ?$AA@ 10040dc4     libucrt:cvt.obj
 0002:00002dd0       ??_C@_05KLBDPFGC@e?$CL000?$AA@ 10040dd0     libucrt:cvt.obj
 0002:00002dd8       ??_C@_03KOEHGMDN@Sun?$AA@  10040dd8     libucrt:nlsdata.obj
 0002:00002ddc       ??_C@_03PDAGKDH@Mon?$AA@   10040ddc     libucrt:nlsdata.obj
 0002:00002de0       ??_C@_03NAGEINEP@Tue?$AA@  10040de0     libucrt:nlsdata.obj
 0002:00002de4       ??_C@_03MHOMLAJA@Wed?$AA@  10040de4     libucrt:nlsdata.obj
 0002:00002de8       ??_C@_03IOFIKPDN@Thu?$AA@  10040de8     libucrt:nlsdata.obj
 0002:00002dec       ??_C@_03IDIOELNC@Fri?$AA@  10040dec     libucrt:nlsdata.obj
 0002:00002df0       ??_C@_03FEFJNEK@Sat?$AA@   10040df0     libucrt:nlsdata.obj
 0002:00002df4       ??_C@_06OOPIFAJ@Sunday?$AA@ 10040df4     libucrt:nlsdata.obj
 0002:00002dfc       ??_C@_06JLEDEDGH@Monday?$AA@ 10040dfc     libucrt:nlsdata.obj
 0002:00002e04       ??_C@_07BAAGCFCM@Tuesday?$AA@ 10040e04     libucrt:nlsdata.obj
 0002:00002e0c       ??_C@_09DLIGFAKA@Wednesday?$AA@ 10040e0c     libucrt:nlsdata.obj
 0002:00002e18       ??_C@_08HACCIKIA@Thursday?$AA@ 10040e18     libucrt:nlsdata.obj
 0002:00002e24       ??_C@_06JECMNKMI@Friday?$AA@ 10040e24     libucrt:nlsdata.obj
 0002:00002e2c       ??_C@_08INBOOONO@Saturday?$AA@ 10040e2c     libucrt:nlsdata.obj
 0002:00002e38       ??_C@_03JIHJHPIE@Jan?$AA@  10040e38     libucrt:nlsdata.obj
 0002:00002e3c       ??_C@_03HJBDCHOM@Feb?$AA@  10040e3c     libucrt:nlsdata.obj
 0002:00002e40       ??_C@_03ODNJBKGA@Mar?$AA@  10040e40     libucrt:nlsdata.obj
 0002:00002e44       ??_C@_03LEOLGMJP@Apr?$AA@  10040e44     libucrt:nlsdata.obj
 0002:00002e48       ??_C@_03CNMDKL@May?$AA@    10040e48     libucrt:nlsdata.obj
 0002:00002e4c       ??_C@_03IDFGHECI@Jun?$AA@  10040e4c     libucrt:nlsdata.obj
 0002:00002e50       ??_C@_03LBGABGKK@Jul?$AA@  10040e50     libucrt:nlsdata.obj
 0002:00002e54       ??_C@_03IFJFEIGA@Aug?$AA@  10040e54     libucrt:nlsdata.obj
 0002:00002e58       ??_C@_03GGCAPAJC@Sep?$AA@  10040e58     libucrt:nlsdata.obj
 0002:00002e5c       ??_C@_03BMAOKBAD@Oct?$AA@  10040e5c     libucrt:nlsdata.obj
 0002:00002e60       ??_C@_03JPJOFNIA@Nov?$AA@  10040e60     libucrt:nlsdata.obj
 0002:00002e64       ??_C@_03MKABNOCG@Dec?$AA@  10040e64     libucrt:nlsdata.obj
 0002:00002e68       ??_C@_07CGJPFGJA@January?$AA@ 10040e68     libucrt:nlsdata.obj
 0002:00002e70       ??_C@_08GNJGEPFN@February?$AA@ 10040e70     libucrt:nlsdata.obj
 0002:00002e7c       ??_C@_05HPCKOFNC@March?$AA@ 10040e7c     libucrt:nlsdata.obj
 0002:00002e84       ??_C@_05DMJDNLEJ@April?$AA@ 10040e84     libucrt:nlsdata.obj
 0002:00002e8c       ??_C@_04CNLMGBGM@June?$AA@ 10040e8c     libucrt:nlsdata.obj
 0002:00002e94       ??_C@_04MIEPOIFP@July?$AA@ 10040e94     libucrt:nlsdata.obj
 0002:00002e9c       ??_C@_06LBBHFDDG@August?$AA@ 10040e9c     libucrt:nlsdata.obj
 0002:00002ea4       ??_C@_09BHHEALKD@September?$AA@ 10040ea4     libucrt:nlsdata.obj
 0002:00002eb0       ??_C@_07JJNFCEND@October?$AA@ 10040eb0     libucrt:nlsdata.obj
 0002:00002eb8       ??_C@_08HCHEGEOA@November?$AA@ 10040eb8     libucrt:nlsdata.obj
 0002:00002ec4       ??_C@_08EDHMEBNP@December?$AA@ 10040ec4     libucrt:nlsdata.obj
 0002:00002ed0       ??_C@_02DEDBPAFC@AM?$AA@   10040ed0     libucrt:nlsdata.obj
 0002:00002ed4       ??_C@_02CJNFDJBF@PM?$AA@   10040ed4     libucrt:nlsdata.obj
 0002:00002ed8       ??_C@_08BPBNCDIB@MM?1dd?1yy?$AA@ 10040ed8     libucrt:nlsdata.obj
 0002:00002ee4       ??_C@_0BE@CKGJFCPC@dddd?0?5MMMM?5dd?0?5yyyy?$AA@ 10040ee4     libucrt:nlsdata.obj
 0002:00002ef8       ??_C@_08JCCMCCIL@HH?3mm?3ss?$AA@ 10040ef8     libucrt:nlsdata.obj
 0002:00002f04       ??_C@_17MBGCMIPB@?$AAS?$AAu?$AAn?$AA?$AA@ 10040f04     libucrt:nlsdata.obj
 0002:00002f0c       ??_C@_17KBOMKBF@?$AAM?$AAo?$AAn?$AA?$AA@ 10040f0c     libucrt:nlsdata.obj
 0002:00002f14       ??_C@_17BMKGEGOJ@?$AAT?$AAu?$AAe?$AA?$AA@ 10040f14     libucrt:nlsdata.obj
 0002:00002f1c       ??_C@_17CJEDCEPE@?$AAW?$AAe?$AAd?$AA?$AA@ 10040f1c     libucrt:nlsdata.obj
 0002:00002f24       ??_C@_17PDPHAADD@?$AAT?$AAh?$AAu?$AA?$AA@ 10040f24     libucrt:nlsdata.obj
 0002:00002f2c       ??_C@_17HFOLPPLP@?$AAF?$AAr?$AAi?$AA?$AA@ 10040f2c     libucrt:nlsdata.obj
 0002:00002f34       ??_C@_17GGIBDPIH@?$AAS?$AAa?$AAt?$AA?$AA@ 10040f34     libucrt:nlsdata.obj
 0002:00002f3c       ??_C@_1O@IHNHDHPB@?$AAS?$AAu?$AAn?$AAd?$AAa?$AAy?$AA?$AA@ 10040f3c     libucrt:nlsdata.obj
 0002:00002f4c       ??_C@_1O@MMNBFLIA@?$AAM?$AAo?$AAn?$AAd?$AAa?$AAy?$AA?$AA@ 10040f4c     libucrt:nlsdata.obj
 0002:00002f5c       ??_C@_1BA@ENFBFFEK@?$AAT?$AAu?$AAe?$AAs?$AAd?$AAa?$AAy?$AA?$AA@ 10040f5c     libucrt:nlsdata.obj
 0002:00002f6c       ??_C@_1BE@EBOGMDOH@?$AAW?$AAe?$AAd?$AAn?$AAe?$AAs?$AAd?$AAa?$AAy?$AA?$AA@ 10040f6c     libucrt:nlsdata.obj
 0002:00002f80       ??_C@_1BC@HHMNLIHE@?$AAT?$AAh?$AAu?$AAr?$AAs?$AAd?$AAa?$AAy?$AA?$AA@ 10040f80     libucrt:nlsdata.obj
 0002:00002f94       ??_C@_1O@PDICJHAG@?$AAF?$AAr?$AAi?$AAd?$AAa?$AAy?$AA?$AA@ 10040f94     libucrt:nlsdata.obj
 0002:00002fa4       ??_C@_1BC@ENMNNPAJ@?$AAS?$AAa?$AAt?$AAu?$AAr?$AAd?$AAa?$AAy?$AA?$AA@ 10040fa4     libucrt:nlsdata.obj
 0002:00002fb8       ??_C@_17DKNBKCHM@?$AAJ?$AAa?$AAn?$AA?$AA@ 10040fb8     libucrt:nlsdata.obj
 0002:00002fc0       ??_C@_17LMDJEKJN@?$AAF?$AAe?$AAb?$AA?$AA@ 10040fc0     libucrt:nlsdata.obj
 0002:00002fc8       ??_C@_17CKNLEDEC@?$AAM?$AAa?$AAr?$AA?$AA@ 10040fc8     libucrt:nlsdata.obj
 0002:00002fd0       ??_C@_17LFPOIHDD@?$AAA?$AAp?$AAr?$AA?$AA@ 10040fd0     libucrt:nlsdata.obj
 0002:00002fd8       ??_C@_17PNNKMEED@?$AAM?$AAa?$AAy?$AA?$AA@ 10040fd8     libucrt:nlsdata.obj
 0002:00002fe0       ??_C@_17KCJGOCPB@?$AAJ?$AAu?$AAn?$AA?$AA@ 10040fe0     libucrt:nlsdata.obj
 0002:00002fe8       ??_C@_17IJPCKHK@?$AAJ?$AAu?$AAl?$AA?$AA@ 10040fe8     libucrt:nlsdata.obj
 0002:00002ff0       ??_C@_17ICPELBCN@?$AAA?$AAu?$AAg?$AA?$AA@ 10040ff0     libucrt:nlsdata.obj
 0002:00002ff8       ??_C@_17HCHCOKMG@?$AAS?$AAe?$AAp?$AA?$AA@ 10040ff8     libucrt:nlsdata.obj
 0002:00003000       ??_C@_17FNLKOI@?$AAO?$AAc?$AAt?$AA?$AA@ 10041000     libucrt:nlsdata.obj
 0002:00003008       ??_C@_17BBDMLCIG@?$AAN?$AAo?$AAv?$AA?$AA@ 10041008     libucrt:nlsdata.obj
 0002:00003010       ??_C@_17EGKACKIF@?$AAD?$AAe?$AAc?$AA?$AA@ 10041010     libucrt:nlsdata.obj
 0002:00003018       ??_C@_1BA@EFMEIEBA@?$AAJ?$AAa?$AAn?$AAu?$AAa?$AAr?$AAy?$AA?$AA@ 10041018     libucrt:nlsdata.obj
 0002:00003028       ??_C@_1BC@JGDDFFAM@?$AAF?$AAe?$AAb?$AAr?$AAu?$AAa?$AAr?$AAy?$AA?$AA@ 10041028     libucrt:nlsdata.obj
 0002:0000303c       ??_C@_1M@IKEENEDF@?$AAM?$AAa?$AAr?$AAc?$AAh?$AA?$AA@ 1004103c     libucrt:nlsdata.obj
 0002:00003048       ??_C@_1M@GJNLMHFD@?$AAA?$AAp?$AAr?$AAi?$AAl?$AA?$AA@ 10041048     libucrt:nlsdata.obj
 0002:00003054       ??_C@_19EPFLPGAP@?$AAJ?$AAu?$AAn?$AAe?$AA?$AA@ 10041054     libucrt:nlsdata.obj
 0002:00003060       ??_C@_19BIFMLPCD@?$AAJ?$AAu?$AAl?$AAy?$AA?$AA@ 10041060     libucrt:nlsdata.obj
 0002:0000306c       ??_C@_1O@PAHLKOAC@?$AAA?$AAu?$AAg?$AAu?$AAs?$AAt?$AA?$AA@ 1004106c     libucrt:nlsdata.obj
 0002:0000307c       ??_C@_1BE@DKAAMBJL@?$AAS?$AAe?$AAp?$AAt?$AAe?$AAm?$AAb?$AAe?$AAr?$AA?$AA@ 1004107c     libucrt:nlsdata.obj
 0002:00003090       ??_C@_1BA@EPANDLNG@?$AAO?$AAc?$AAt?$AAo?$AAb?$AAe?$AAr?$AA?$AA@ 10041090     libucrt:nlsdata.obj
 0002:000030a0       ??_C@_1BC@BGLIFPF@?$AAN?$AAo?$AAv?$AAe?$AAm?$AAb?$AAe?$AAr?$AA?$AA@ 100410a0     libucrt:nlsdata.obj
 0002:000030b4       ??_C@_1BC@FEMKIFH@?$AAD?$AAe?$AAc?$AAe?$AAm?$AAb?$AAe?$AAr?$AA?$AA@ 100410b4     libucrt:nlsdata.obj
 0002:000030c8       ??_C@_15ODEHAHHF@?$AAA?$AAM?$AA?$AA@ 100410c8     libucrt:nlsdata.obj
 0002:000030d0       ??_C@_15CLMNNGEL@?$AAP?$AAM?$AA?$AA@ 100410d0     libucrt:nlsdata.obj
 0002:000030d8       ??_C@_1BC@IEBCMHCM@?$AAM?$AAM?$AA?1?$AAd?$AAd?$AA?1?$AAy?$AAy?$AA?$AA@ 100410d8     libucrt:nlsdata.obj
 0002:000030ec       ??_C@_1CI@KNAKOEBC@?$AAd?$AAd?$AAd?$AAd?$AA?0?$AA?5?$AAM?$AAM?$AAM?$AAM?$AA?5?$AAd?$AAd?$AA?0?$AA?5?$AAy?$AAy?$AAy?$AAy?$AA?$AA@ 100410ec     libucrt:nlsdata.obj
 0002:00003114       ??_C@_1BC@GDGBMEMK@?$AAH?$AAH?$AA?3?$AAm?$AAm?$AA?3?$AAs?$AAs?$AA?$AA@ 10041114     libucrt:nlsdata.obj
 0002:00003128       ??_C@_1M@BMHNFIME@?$AAe?$AAn?$AA?9?$AAU?$AAS?$AA?$AA@ 10041128     libucrt:nlsdata.obj
 0002:00003138       ___lc_time_c               10041138     libucrt:nlsdata.obj
 0002:000032a0       ___newctype                100412a0     libucrt:ctype.obj
 0002:000035a0       ___newclmap                100415a0     libucrt:ctype.obj
 0002:00003720       ___newcumap                10041720     libucrt:ctype.obj
 0002:000038f0       ??_C@_1EG@CNNIPFIM@?$AAa?$AAp?$AAi?$AA?9?$AAm?$AAs?$AA?9?$AAw?$AAi?$AAn?$AA?9?$AAa?$AAp?$AAp?$AAm?$AAo?$AAd?$AAe?$AAl?$AA?9?$AAr?$AAu?$AAn?$AAt?$AAi?$AAm?$AAe?$AA?9?$AAl?$AA1?$AA?9?$AA1@ 100418f0     libucrt:winapi_thunks.obj
 0002:00003938       ??_C@_1EA@JGEFHKEI@?$AAa?$AAp?$AAi?$AA?9?$AAm?$AAs?$AA?9?$AAw?$AAi?$AAn?$AA?9?$AAc?$AAo?$AAr?$AAe?$AA?9?$AAd?$AAa?$AAt?$AAe?$AAt?$AAi?$AAm?$AAe?$AA?9?$AAl?$AA1?$AA?9?$AA1?$AA?9?$AA1?$AA?$AA@ 10041938     libucrt:winapi_thunks.obj
 0002:00003978       ??_C@_1DI@GCIAAENM@?$AAa?$AAp?$AAi?$AA?9?$AAm?$AAs?$AA?9?$AAw?$AAi?$AAn?$AA?9?$AAc?$AAo?$AAr?$AAe?$AA?9?$AAf?$AAi?$AAl?$AAe?$AA?9?$AAl?$AA2?$AA?9?$AA1?$AA?9?$AA1?$AA?$AA@ 10041978     libucrt:winapi_thunks.obj
 0002:000039b0       ??_C@_1EI@MPIAOHOC@?$AAa?$AAp?$AAi?$AA?9?$AAm?$AAs?$AA?9?$AAw?$AAi?$AAn?$AA?9?$AAc?$AAo?$AAr?$AAe?$AA?9?$AAl?$AAo?$AAc?$AAa?$AAl?$AAi?$AAz?$AAa?$AAt?$AAi?$AAo?$AAn?$AA?9?$AAl?$AA1?$AA?9@ 100419b0     libucrt:winapi_thunks.obj
 0002:000039f8       ??_C@_1FK@FPHCKFIE@?$AAa?$AAp?$AAi?$AA?9?$AAm?$AAs?$AA?9?$AAw?$AAi?$AAn?$AA?9?$AAc?$AAo?$AAr?$AAe?$AA?9?$AAl?$AAo?$AAc?$AAa?$AAl?$AAi?$AAz?$AAa?$AAt?$AAi?$AAo?$AAn?$AA?9?$AAo?$AAb?$AAs@ 100419f8     libucrt:winapi_thunks.obj
 0002:00003a58       ??_C@_1EM@DILCGIIO@?$AAa?$AAp?$AAi?$AA?9?$AAm?$AAs?$AA?9?$AAw?$AAi?$AAn?$AA?9?$AAc?$AAo?$AAr?$AAe?$AA?9?$AAp?$AAr?$AAo?$AAc?$AAe?$AAs?$AAs?$AAt?$AAh?$AAr?$AAe?$AAa?$AAd?$AAs?$AA?9?$AAl@ 10041a58     libucrt:winapi_thunks.obj
 0002:00003aa4       ??_C@_1DM@LNCGDDPN@?$AAa?$AAp?$AAi?$AA?9?$AAm?$AAs?$AA?9?$AAw?$AAi?$AAn?$AA?9?$AAc?$AAo?$AAr?$AAe?$AA?9?$AAs?$AAt?$AAr?$AAi?$AAn?$AAg?$AA?9?$AAl?$AA1?$AA?9?$AA1?$AA?9?$AA0?$AA?$AA@ 10041aa4     libucrt:winapi_thunks.obj
 0002:00003ae0       ??_C@_1DO@FPAPJEMD@?$AAa?$AAp?$AAi?$AA?9?$AAm?$AAs?$AA?9?$AAw?$AAi?$AAn?$AA?9?$AAc?$AAo?$AAr?$AAe?$AA?9?$AAs?$AAy?$AAs?$AAi?$AAn?$AAf?$AAo?$AA?9?$AAl?$AA1?$AA?9?$AA2?$AA?9?$AA1?$AA?$AA@ 10041ae0     libucrt:winapi_thunks.obj
 0002:00003b20       ??_C@_1DK@NDHNAHIO@?$AAa?$AAp?$AAi?$AA?9?$AAm?$AAs?$AA?9?$AAw?$AAi?$AAn?$AA?9?$AAc?$AAo?$AAr?$AAe?$AA?9?$AAw?$AAi?$AAn?$AAr?$AAt?$AA?9?$AAl?$AA1?$AA?9?$AA1?$AA?9?$AA0?$AA?$AA@ 10041b20     libucrt:winapi_thunks.obj
 0002:00003b5c       ??_C@_1DM@KGHDGBCM@?$AAa?$AAp?$AAi?$AA?9?$AAm?$AAs?$AA?9?$AAw?$AAi?$AAn?$AA?9?$AAc?$AAo?$AAr?$AAe?$AA?9?$AAx?$AAs?$AAt?$AAa?$AAt?$AAe?$AA?9?$AAl?$AA2?$AA?9?$AA1?$AA?9?$AA0?$AA?$AA@ 10041b5c     libucrt:winapi_thunks.obj
 0002:00003b98       ??_C@_1EO@IJIOEFOH@?$AAa?$AAp?$AAi?$AA?9?$AAm?$AAs?$AA?9?$AAw?$AAi?$AAn?$AA?9?$AAr?$AAt?$AAc?$AAo?$AAr?$AAe?$AA?9?$AAn?$AAt?$AAu?$AAs?$AAe?$AAr?$AA?9?$AAw?$AAi?$AAn?$AAd?$AAo?$AAw?$AA?9@ 10041b98     libucrt:winapi_thunks.obj
 0002:00003be8       ??_C@_1FG@HHGEKANL@?$AAa?$AAp?$AAi?$AA?9?$AAm?$AAs?$AA?9?$AAw?$AAi?$AAn?$AA?9?$AAs?$AAe?$AAc?$AAu?$AAr?$AAi?$AAt?$AAy?$AA?9?$AAs?$AAy?$AAs?$AAt?$AAe?$AAm?$AAf?$AAu?$AAn?$AAc?$AAt?$AAi@ 10041be8     libucrt:winapi_thunks.obj
 0002:00003c40       ??_C@_1FG@NCKKOLKO@?$AAe?$AAx?$AAt?$AA?9?$AAm?$AAs?$AA?9?$AAw?$AAi?$AAn?$AA?9?$AAk?$AAe?$AAr?$AAn?$AAe?$AAl?$AA3?$AA2?$AA?9?$AAp?$AAa?$AAc?$AAk?$AAa?$AAg?$AAe?$AA?9?$AAc?$AAu?$AAr?$AAr@ 10041c40     libucrt:winapi_thunks.obj
 0002:00003c98       ??_C@_1EG@DBIOJECG@?$AAe?$AAx?$AAt?$AA?9?$AAm?$AAs?$AA?9?$AAw?$AAi?$AAn?$AA?9?$AAn?$AAt?$AAu?$AAs?$AAe?$AAr?$AA?9?$AAd?$AAi?$AAa?$AAl?$AAo?$AAg?$AAb?$AAo?$AAx?$AA?9?$AAl?$AA1?$AA?9?$AA1@ 10041c98     libucrt:winapi_thunks.obj
 0002:00003ce0       ??_C@_1EO@FIHMJCLF@?$AAe?$AAx?$AAt?$AA?9?$AAm?$AAs?$AA?9?$AAw?$AAi?$AAn?$AA?9?$AAn?$AAt?$AAu?$AAs?$AAe?$AAr?$AA?9?$AAw?$AAi?$AAn?$AAd?$AAo?$AAw?$AAs?$AAt?$AAa?$AAt?$AAi?$AAo?$AAn?$AA?9@ 10041ce0     libucrt:winapi_thunks.obj
 0002:00003d30       ??_C@_1O@BCCLBEOE@?$AAu?$AAs?$AAe?$AAr?$AA3?$AA2?$AA?$AA@ 10041d30     libucrt:winapi_thunks.obj
 0002:00003d80       ??_C@_0BB@HBDEELFH@LocaleNameToLCID?$AA@ 10041d80     libucrt:winapi_thunks.obj
 0002:00003dac       ??_C@_1M@HPNHIDJI@?$AAj?$AAa?$AA?9?$AAJ?$AAP?$AA?$AA@ 10041dac     libucrt:mbctype.obj
 0002:00003db8       ??_C@_1M@BIBDDEMK@?$AAz?$AAh?$AA?9?$AAC?$AAN?$AA?$AA@ 10041db8     libucrt:mbctype.obj
 0002:00003dc4       ??_C@_1M@JLOOOEGK@?$AAk?$AAo?$AA?9?$AAK?$AAR?$AA?$AA@ 10041dc4     libucrt:mbctype.obj
 0002:00003dd0       ??_C@_1M@CLNBBOPM@?$AAz?$AAh?$AA?9?$AAT?$AAW?$AA?$AA@ 10041dd0     libucrt:mbctype.obj
 0002:00003ee0       __infinity                 10041ee0     libucrt:87tran.obj
 0002:00003eea       __minfinity                10041eea     libucrt:87tran.obj
 0002:00003ef4       __logemax                  10041ef4     libucrt:87tran.obj
 0002:00003f1a       __OP_EXPjmptab             10041f1a     libucrt:87tran.obj
 0002:00003f70       __indefinite               10041f70     libucrt:87disp.obj
 0002:00003f7a       __piby2                    10041f7a     libucrt:87disp.obj
 0002:00003f84       __piby4                    10041f84     libucrt:87disp.obj
 0002:00003fb8       __DEFAULT_CW_in_mem        10041fb8     libucrt:common.obj
 0002:00003fba       __pi_by_2_to_61            10041fba     libucrt:common.obj
 0002:00003ff8       ?large_power_data@?1??multiply_by_power_of_ten@__crt_strtox@@YA_NAAUbig_integer@2@I@Z@4QBIB 10041ff8     libucrt:cfout.obj
 0002:00004900       ?large_power_indices@?1??multiply_by_power_of_ten@__crt_strtox@@YA_NAAUbig_integer@2@I@Z@4QBUunpack_index@?1??12@YA_N0I@Z@B 10042900     libucrt:cfout.obj
 0002:00004998       ?small_powers_of_ten@?6??multiply_by_power_of_ten@__crt_strtox@@YA_NAAUbig_integer@2@I@Z@4QBIB 10042998     libucrt:cfout.obj
 0002:000049bc       ??_C@_01GBGANLPD@0?$AA@    100429bc     libucrt:cfout.obj
 0002:000049c0       ??_C@_05DNEBIAHO@1?$CDINF?$AA@ 100429c0     libucrt:cfout.obj
 0002:000049c8       ??_C@_06IMKFLFPG@1?$CDQNAN?$AA@ 100429c8     libucrt:cfout.obj
 0002:000049d0       ??_C@_06PGGFOGJG@1?$CDSNAN?$AA@ 100429d0     libucrt:cfout.obj
 0002:000049d8       ??_C@_05PHHOCPM@1?$CDIND?$AA@ 100429d8     libucrt:cfout.obj
 0002:000049e0       ??_C@_15PJPFLCCM@?$AAu?$AAk?$AA?$AA@ 100429e0     libucrt:get_qualified_locale.obj
 0002:00005108       ??_C@_15EMKDOKLE@?$AAa?$AAr?$AA?$AA@ 10043108     libucrt:lcidtoname_downlevel.obj
 0002:00005110       ??_C@_15KNPADPLH@?$AAb?$AAg?$AA?$AA@ 10043110     libucrt:lcidtoname_downlevel.obj
 0002:00005118       ??_C@_15EDMHLDMO@?$AAc?$AAa?$AA?$AA@ 10043118     libucrt:lcidtoname_downlevel.obj
 0002:00005120       ??_C@_1O@BPEAJADD@?$AAz?$AAh?$AA?9?$AAC?$AAH?$AAS?$AA?$AA@ 10043120     libucrt:lcidtoname_downlevel.obj
 0002:00005130       ??_C@_15LJNHCMNK@?$AAc?$AAs?$AA?$AA@ 10043130     libucrt:lcidtoname_downlevel.obj
 0002:00005138       ??_C@_15FOMCIDHG@?$AAd?$AAa?$AA?$AA@ 10043138     libucrt:lcidtoname_downlevel.obj
 0002:00005140       ??_C@_15NBKABECB@?$AAd?$AAe?$AA?$AA@ 10043140     libucrt:lcidtoname_downlevel.obj
 0002:00005148       ??_C@_15GHPEIIAO@?$AAe?$AAl?$AA?$AA@ 10043148     libucrt:lcidtoname_downlevel.obj
 0002:00005150       ??_C@_15MNPNEAIF@?$AAe?$AAn?$AA?$AA@ 10043150     libucrt:lcidtoname_downlevel.obj
 0002:00005158       ??_C@_15GPIOMPMH@?$AAe?$AAs?$AA?$AA@ 10043158     libucrt:lcidtoname_downlevel.obj
 0002:00005160       ??_C@_15NGLOAKJC@?$AAf?$AAi?$AA?$AA@ 10043160     libucrt:lcidtoname_downlevel.obj
 0002:00005168       ??_C@_15FBKGNKAM@?$AAf?$AAr?$AA?$AA@ 10043168     libucrt:lcidtoname_downlevel.obj
 0002:00005170       ??_C@_15KGGCNEFK@?$AAh?$AAe?$AA?$AA@ 10043170     libucrt:lcidtoname_downlevel.obj
 0002:00005178       ??_C@_15PGHLIDMF@?$AAh?$AAu?$AA?$AA@ 10043178     libucrt:lcidtoname_downlevel.obj
 0002:00005180       ??_C@_15BIEMAPLM@?$AAi?$AAs?$AA?$AA@ 10043180     libucrt:lcidtoname_downlevel.obj
 0002:00005188       ??_C@_15IFJLDHAF@?$AAi?$AAt?$AA?$AA@ 10043188     libucrt:lcidtoname_downlevel.obj
 0002:00005190       ??_C@_15GEMIOCAG@?$AAj?$AAa?$AA?$AA@ 10043190     libucrt:lcidtoname_downlevel.obj
 0002:00005198       ??_C@_15EPELEGJA@?$AAk?$AAo?$AA?$AA@ 10043198     libucrt:lcidtoname_downlevel.obj
 0002:000051a0       ??_C@_15NDDHIMN@?$AAn?$AAl?$AA?$AA@ 100431a0     libucrt:lcidtoname_downlevel.obj
 0002:000051a8       ??_C@_15BPIGNHCD@?$AAn?$AAo?$AA?$AA@ 100431a8     libucrt:lcidtoname_downlevel.obj
 0002:000051b0       ??_C@_15DEOPBLCG@?$AAp?$AAl?$AA?$AA@ 100431b0     libucrt:lcidtoname_downlevel.obj
 0002:000051b8       ??_C@_15KBECGEFG@?$AAp?$AAt?$AA?$AA@ 100431b8     libucrt:lcidtoname_downlevel.obj
 0002:000051c0       ??_C@_15GLJCBFMD@?$AAr?$AAo?$AA?$AA@ 100431c0     libucrt:lcidtoname_downlevel.obj
 0002:000051c8       ??_C@_15FEDGKCDI@?$AAr?$AAu?$AA?$AA@ 100431c8     libucrt:lcidtoname_downlevel.obj
 0002:000051d0       ??_C@_15GLKMLLHM@?$AAh?$AAr?$AA?$AA@ 100431d0     libucrt:lcidtoname_downlevel.obj
 0002:000051d8       ??_C@_15CPKMFBDB@?$AAs?$AAk?$AA?$AA@ 100431d8     libucrt:lcidtoname_downlevel.obj
 0002:000051e0       ??_C@_15BAAIOGMK@?$AAs?$AAq?$AA?$AA@ 100431e0     libucrt:lcidtoname_downlevel.obj
 0002:000051e8       ??_C@_15INNPNOHD@?$AAs?$AAv?$AA?$AA@ 100431e8     libucrt:lcidtoname_downlevel.obj
 0002:000051f0       ??_C@_15CABMMOGH@?$AAt?$AAh?$AA?$AA@ 100431f0     libucrt:lcidtoname_downlevel.obj
 0002:000051f8       ??_C@_15BPLIHJJM@?$AAt?$AAr?$AA?$AA@ 100431f8     libucrt:lcidtoname_downlevel.obj
 0002:00005200       ??_C@_15NEOEKKDJ@?$AAu?$AAr?$AA?$AA@ 10043200     libucrt:lcidtoname_downlevel.obj
 0002:00005208       ??_C@_15NFICGAJK@?$AAi?$AAd?$AA?$AA@ 10043208     libucrt:lcidtoname_downlevel.obj
 0002:00005210       ??_C@_15HPJPHDM@?$AAb?$AAe?$AA?$AA@ 10043210     libucrt:lcidtoname_downlevel.obj
 0002:00005218       ??_C@_15LCHLGJII@?$AAs?$AAl?$AA?$AA@ 10043218     libucrt:lcidtoname_downlevel.obj
 0002:00005220       ??_C@_15PCFJPHHO@?$AAe?$AAt?$AA?$AA@ 10043220     libucrt:lcidtoname_downlevel.obj
 0002:00005228       ??_C@_15HPFPGODN@?$AAl?$AAv?$AA?$AA@ 10043228     libucrt:lcidtoname_downlevel.obj
 0002:00005230       ??_C@_15NFFGKGLG@?$AAl?$AAt?$AA?$AA@ 10043230     libucrt:lcidtoname_downlevel.obj
 0002:00005238       ??_C@_15BDAKCCHN@?$AAf?$AAa?$AA?$AA@ 10043238     libucrt:lcidtoname_downlevel.obj
 0002:00005240       ??_C@_15NFGIAIAJ@?$AAv?$AAi?$AA?$AA@ 10043240     libucrt:lcidtoname_downlevel.obj
 0002:00005248       ??_C@_15LMKNDMHN@?$AAh?$AAy?$AA?$AA@ 10043248     libucrt:lcidtoname_downlevel.obj
 0002:00005250       ??_C@_15IJBHMCFL@?$AAa?$AAz?$AA?$AA@ 10043250     libucrt:lcidtoname_downlevel.obj
 0002:00005258       ??_C@_15EKOFJABL@?$AAe?$AAu?$AA?$AA@ 10043258     libucrt:lcidtoname_downlevel.obj
 0002:00005260       ??_C@_15BGHADCNK@?$AAm?$AAk?$AA?$AA@ 10043260     libucrt:lcidtoname_downlevel.obj
 0002:00005268       ??_C@_15JDNICKHM@?$AAa?$AAf?$AA?$AA@ 10043268     libucrt:lcidtoname_downlevel.obj
 0002:00005270       ??_C@_15KPJEDBKD@?$AAk?$AAa?$AA?$AA@ 10043270     libucrt:lcidtoname_downlevel.obj
 0002:00005278       ??_C@_15PDNFFFEO@?$AAf?$AAo?$AA?$AA@ 10043278     libucrt:lcidtoname_downlevel.obj
 0002:00005280       ??_C@_15OMLEGLOC@?$AAh?$AAi?$AA?$AA@ 10043280     libucrt:lcidtoname_downlevel.obj
 0002:00005288       ??_C@_15IDNNENKK@?$AAm?$AAs?$AA?$AA@ 10043288     libucrt:lcidtoname_downlevel.obj
 0002:00005290       ??_C@_15MACJNBMH@?$AAk?$AAk?$AA?$AA@ 10043290     libucrt:lcidtoname_downlevel.obj
 0002:00005298       ??_C@_15DKDJEOND@?$AAk?$AAy?$AA?$AA@ 10043298     libucrt:lcidtoname_downlevel.obj
 0002:000052a0       ??_C@_15DFGDLJBG@?$AAs?$AAw?$AA?$AA@ 100432a0     libucrt:lcidtoname_downlevel.obj
 0002:000052a8       ??_C@_15BBFAICNG@?$AAu?$AAz?$AA?$AA@ 100432a8     libucrt:lcidtoname_downlevel.obj
 0002:000052b0       ??_C@_15DKNDCGEA@?$AAt?$AAt?$AA?$AA@ 100432b0     libucrt:lcidtoname_downlevel.obj
 0002:000052b8       ??_C@_15MGIFMDPL@?$AAp?$AAa?$AA?$AA@ 100432b8     libucrt:lcidtoname_downlevel.obj
 0002:000052c0       ??_C@_15HCNDBBA@?$AAg?$AAu?$AA?$AA@ 100432c0     libucrt:lcidtoname_downlevel.obj
 0002:000052c8       ??_C@_15FNBEIBON@?$AAt?$AAa?$AA?$AA@ 100432c8     libucrt:lcidtoname_downlevel.obj
 0002:000052d0       ??_C@_15NCHGBGLK@?$AAt?$AAe?$AA?$AA@ 100432d0     libucrt:lcidtoname_downlevel.obj
 0002:000052d8       ??_C@_15PHPHCBPF@?$AAk?$AAn?$AA?$AA@ 100432d8     libucrt:lcidtoname_downlevel.obj
 0002:000052e0       ??_C@_15DLGBCKMP@?$AAm?$AAr?$AA?$AA@ 100432e0     libucrt:lcidtoname_downlevel.obj
 0002:000052e8       ??_C@_15EABBLBFF@?$AAs?$AAa?$AA?$AA@ 100432e8     libucrt:lcidtoname_downlevel.obj
 0002:000052f0       ??_C@_15CBKOMCOI@?$AAm?$AAn?$AA?$AA@ 100432f0     libucrt:lcidtoname_downlevel.obj
 0002:000052f8       ??_C@_15CKDMCJAF@?$AAg?$AAl?$AA?$AA@ 100432f8     libucrt:lcidtoname_downlevel.obj
 0002:00005300       ??_C@_17CNJFBPG@?$AAk?$AAo?$AAk?$AA?$AA@ 10043300     libucrt:lcidtoname_downlevel.obj
 0002:00005308       ??_C@_17FFBJICPL@?$AAs?$AAy?$AAr?$AA?$AA@ 10043308     libucrt:lcidtoname_downlevel.obj
 0002:00005310       ??_C@_17KPNDCPAF@?$AAd?$AAi?$AAv?$AA?$AA@ 10043310     libucrt:lcidtoname_downlevel.obj
 0002:00005318       ??_C@_11LOCGONAA@?$AA?$AA@ 10043318     libucrt:lcidtoname_downlevel.obj
 0002:0000531c       ??_C@_1M@OKAHONE@?$AAa?$AAr?$AA?9?$AAS?$AAA?$AA?$AA@ 1004331c     libucrt:lcidtoname_downlevel.obj
 0002:00005328       ??_C@_1M@FFFIGIGK@?$AAb?$AAg?$AA?9?$AAB?$AAG?$AA?$AA@ 10043328     libucrt:lcidtoname_downlevel.obj
 0002:00005334       ??_C@_1M@BJNKEDC@?$AAc?$AAa?$AA?9?$AAE?$AAS?$AA?$AA@ 10043334     libucrt:lcidtoname_downlevel.obj
 0002:00005340       ??_C@_1M@IJJHFJHA@?$AAc?$AAs?$AA?9?$AAC?$AAZ?$AA?$AA@ 10043340     libucrt:lcidtoname_downlevel.obj
 0002:0000534c       ??_C@_1M@CLPEOBGI@?$AAd?$AAa?$AA?9?$AAD?$AAK?$AA?$AA@ 1004334c     libucrt:lcidtoname_downlevel.obj
 0002:00005358       ??_C@_1M@MCMADGCB@?$AAd?$AAe?$AA?9?$AAD?$AAE?$AA?$AA@ 10043358     libucrt:lcidtoname_downlevel.obj
 0002:00005364       ??_C@_1M@OOCKEMAM@?$AAe?$AAl?$AA?9?$AAG?$AAR?$AA?$AA@ 10043364     libucrt:lcidtoname_downlevel.obj
 0002:00005370       ??_C@_1M@DDNJFGID@?$AAf?$AAi?$AA?9?$AAF?$AAI?$AA?$AA@ 10043370     libucrt:lcidtoname_downlevel.obj
 0002:0000537c       ??_C@_1M@GLIPPMAC@?$AAf?$AAr?$AA?9?$AAF?$AAR?$AA?$AA@ 1004337c     libucrt:lcidtoname_downlevel.obj
 0002:00005388       ??_C@_1M@GFMCHPE@?$AAh?$AAe?$AA?9?$AAI?$AAL?$AA?$AA@ 10043388     libucrt:lcidtoname_downlevel.obj
 0002:00005394       ??_C@_1M@MHLPGNKM@?$AAh?$AAu?$AA?9?$AAH?$AAU?$AA?$AA@ 10043394     libucrt:lcidtoname_downlevel.obj
 0002:000053a0       ??_C@_1M@LPDDNNPN@?$AAi?$AAs?$AA?9?$AAI?$AAS?$AA?$AA@ 100433a0     libucrt:lcidtoname_downlevel.obj
 0002:000053ac       ??_C@_1M@MADIPODN@?$AAi?$AAt?$AA?9?$AAI?$AAT?$AA?$AA@ 100433ac     libucrt:lcidtoname_downlevel.obj
 0002:000053b8       ??_C@_1M@IHBJJGG@?$AAn?$AAl?$AA?9?$AAN?$AAL?$AA?$AA@ 100433b8     libucrt:lcidtoname_downlevel.obj
 0002:000053c4       ??_C@_1M@EANAGDL@?$AAn?$AAb?$AA?9?$AAN?$AAO?$AA?$AA@ 100433c4     libucrt:lcidtoname_downlevel.obj
 0002:000053d0       ??_C@_1M@NEIEMEGP@?$AAp?$AAl?$AA?9?$AAP?$AAL?$AA?$AA@ 100433d0     libucrt:lcidtoname_downlevel.obj
 0002:000053dc       ??_C@_1M@BOCFIGEP@?$AAp?$AAt?$AA?9?$AAB?$AAR?$AA?$AA@ 100433dc     libucrt:lcidtoname_downlevel.obj
 0002:000053e8       ??_C@_1M@IMPFOPBG@?$AAr?$AAo?$AA?9?$AAR?$AAO?$AA?$AA@ 100433e8     libucrt:lcidtoname_downlevel.obj
 0002:000053f4       ??_C@_1M@IDNNEJMM@?$AAr?$AAu?$AA?9?$AAR?$AAU?$AA?$AA@ 100433f4     libucrt:lcidtoname_downlevel.obj
 0002:00005400       ??_C@_1M@LILEEOGM@?$AAh?$AAr?$AA?9?$AAH?$AAR?$AA?$AA@ 10043400     libucrt:lcidtoname_downlevel.obj
 0002:0000540c       ??_C@_1M@FKIFEHPB@?$AAs?$AAk?$AA?9?$AAS?$AAK?$AA?$AA@ 1004340c     libucrt:lcidtoname_downlevel.obj
 0002:00005418       ??_C@_1M@LJMAMNPJ@?$AAs?$AAq?$AA?9?$AAA?$AAL?$AA?$AA@ 10043418     libucrt:lcidtoname_downlevel.obj
 0002:00005424       ??_C@_1M@GIAKDKJK@?$AAs?$AAv?$AA?9?$AAS?$AAE?$AA?$AA@ 10043424     libucrt:lcidtoname_downlevel.obj
 0002:00005430       ??_C@_1M@MKJKIKCL@?$AAt?$AAh?$AA?9?$AAT?$AAH?$AA?$AA@ 10043430     libucrt:lcidtoname_downlevel.obj
 0002:0000543c       ??_C@_1M@MFLCCMPB@?$AAt?$AAr?$AA?9?$AAT?$AAR?$AA?$AA@ 1004343c     libucrt:lcidtoname_downlevel.obj
 0002:00005448       ??_C@_1M@OIJHDKJN@?$AAu?$AAr?$AA?9?$AAP?$AAK?$AA?$AA@ 10043448     libucrt:lcidtoname_downlevel.obj
 0002:00005454       ??_C@_1M@LHIPCIEK@?$AAi?$AAd?$AA?9?$AAI?$AAD?$AA?$AA@ 10043454     libucrt:lcidtoname_downlevel.obj
 0002:00005460       ??_C@_1M@MFMOBGI@?$AAu?$AAk?$AA?9?$AAU?$AAA?$AA?$AA@ 10043460     libucrt:lcidtoname_downlevel.obj
 0002:0000546c       ??_C@_1M@OBGLJIPL@?$AAb?$AAe?$AA?9?$AAB?$AAY?$AA?$AA@ 1004346c     libucrt:lcidtoname_downlevel.obj
 0002:00005478       ??_C@_1M@BCFAJEAD@?$AAs?$AAl?$AA?9?$AAS?$AAI?$AA?$AA@ 10043478     libucrt:lcidtoname_downlevel.obj
 0002:00005484       ??_C@_1M@FKFFEDDN@?$AAe?$AAt?$AA?9?$AAE?$AAE?$AA?$AA@ 10043484     libucrt:lcidtoname_downlevel.obj
 0002:00005490       ??_C@_1M@KGKKAACI@?$AAl?$AAv?$AA?9?$AAL?$AAV?$AA?$AA@ 10043490     libucrt:lcidtoname_downlevel.obj
 0002:0000549c       ??_C@_1M@IFGBIJO@?$AAl?$AAt?$AA?9?$AAL?$AAT?$AA?$AA@ 1004349c     libucrt:lcidtoname_downlevel.obj
 0002:000054a8       ??_C@_1M@FGEAHEDM@?$AAf?$AAa?$AA?9?$AAI?$AAR?$AA?$AA@ 100434a8     libucrt:lcidtoname_downlevel.obj
 0002:000054b4       ??_C@_1M@KBMAIBFN@?$AAv?$AAi?$AA?9?$AAV?$AAN?$AA?$AA@ 100434b4     libucrt:lcidtoname_downlevel.obj
 0002:000054c0       ??_C@_1M@GPCBKDJK@?$AAh?$AAy?$AA?9?$AAA?$AAM?$AA?$AA@ 100434c0     libucrt:lcidtoname_downlevel.obj
 0002:000054cc       ??_C@_1BG@BECMDDJB@?$AAa?$AAz?$AA?9?$AAA?$AAZ?$AA?9?$AAL?$AAa?$AAt?$AAn?$AA?$AA@ 100434cc     libucrt:lcidtoname_downlevel.obj
 0002:000054e4       ??_C@_1M@MAOFCAEA@?$AAe?$AAu?$AA?9?$AAE?$AAS?$AA?$AA@ 100434e4     libucrt:lcidtoname_downlevel.obj
 0002:000054f0       ??_C@_1M@IGHABKPI@?$AAm?$AAk?$AA?9?$AAM?$AAK?$AA?$AA@ 100434f0     libucrt:lcidtoname_downlevel.obj
 0002:000054fc       ??_C@_1M@IAIGNEJG@?$AAt?$AAn?$AA?9?$AAZ?$AAA?$AA?$AA@ 100434fc     libucrt:lcidtoname_downlevel.obj
 0002:00005508       ??_C@_1M@IIJCOJFA@?$AAx?$AAh?$AA?9?$AAZ?$AAA?$AA?$AA@ 10043508     libucrt:lcidtoname_downlevel.obj
 0002:00005514       ??_C@_1M@LGPJHNJH@?$AAz?$AAu?$AA?9?$AAZ?$AAA?$AA?$AA@ 10043514     libucrt:lcidtoname_downlevel.obj
 0002:00005520       ??_C@_1M@HOKAOIO@?$AAa?$AAf?$AA?9?$AAZ?$AAA?$AA?$AA@ 10043520     libucrt:lcidtoname_downlevel.obj
 0002:0000552c       ??_C@_1M@DPCLHLIE@?$AAk?$AAa?$AA?9?$AAG?$AAE?$AA?$AA@ 1004352c     libucrt:lcidtoname_downlevel.obj
 0002:00005538       ??_C@_1M@BLKMHJBI@?$AAf?$AAo?$AA?9?$AAF?$AAO?$AA?$AA@ 10043538     libucrt:lcidtoname_downlevel.obj
 0002:00005544       ??_C@_1M@LGGJAPPB@?$AAh?$AAi?$AA?9?$AAI?$AAN?$AA?$AA@ 10043544     libucrt:lcidtoname_downlevel.obj
 0002:00005550       ??_C@_1M@FIKPIHFE@?$AAm?$AAt?$AA?9?$AAM?$AAT?$AA?$AA@ 10043550     libucrt:lcidtoname_downlevel.obj
 0002:0000555c       ??_C@_1M@HEGGPBFA@?$AAs?$AAe?$AA?9?$AAN?$AAO?$AA?$AA@ 1004355c     libucrt:lcidtoname_downlevel.obj
 0002:00005568       ??_C@_1M@EIBJEEPA@?$AAm?$AAs?$AA?9?$AAM?$AAY?$AA?$AA@ 10043568     libucrt:lcidtoname_downlevel.obj
 0002:00005574       ??_C@_1M@FHLBGMPP@?$AAk?$AAk?$AA?9?$AAK?$AAZ?$AA?$AA@ 10043574     libucrt:lcidtoname_downlevel.obj
 0002:00005580       ??_C@_1M@NGJJLCGI@?$AAk?$AAy?$AA?9?$AAK?$AAG?$AA?$AA@ 10043580     libucrt:lcidtoname_downlevel.obj
 0002:0000558c       ??_C@_1M@GIENNBFC@?$AAs?$AAw?$AA?9?$AAK?$AAE?$AA?$AA@ 1004358c     libucrt:lcidtoname_downlevel.obj
 0002:00005598       ??_C@_1BG@NDGMJIMJ@?$AAu?$AAz?$AA?9?$AAU?$AAZ?$AA?9?$AAL?$AAa?$AAt?$AAn?$AA?$AA@ 10043598     libucrt:lcidtoname_downlevel.obj
 0002:000055b0       ??_C@_1M@IDCCIHBC@?$AAt?$AAt?$AA?9?$AAR?$AAU?$AA?$AA@ 100435b0     libucrt:lcidtoname_downlevel.obj
 0002:000055bc       ??_C@_1M@LOICPMOJ@?$AAb?$AAn?$AA?9?$AAI?$AAN?$AA?$AA@ 100435bc     libucrt:lcidtoname_downlevel.obj
 0002:000055c8       ??_C@_1M@KPKKNEAH@?$AAp?$AAa?$AA?9?$AAI?$AAN?$AA?$AA@ 100435c8     libucrt:lcidtoname_downlevel.obj
 0002:000055d4       ??_C@_1M@PJGPPBOG@?$AAg?$AAu?$AA?9?$AAI?$AAN?$AA?$AA@ 100435d4     libucrt:lcidtoname_downlevel.obj
 0002:000055e0       ??_C@_1M@KMKMOPHI@?$AAt?$AAa?$AA?9?$AAI?$AAN?$AA?$AA@ 100435e0     libucrt:lcidtoname_downlevel.obj
 0002:000055ec       ??_C@_1M@KFEHEPAC@?$AAt?$AAe?$AA?9?$AAI?$AAN?$AA?$AA@ 100435ec     libucrt:lcidtoname_downlevel.obj
 0002:000055f8       ??_C@_1M@CDCLMGHI@?$AAk?$AAn?$AA?9?$AAI?$AAN?$AA?$AA@ 100435f8     libucrt:lcidtoname_downlevel.obj
 0002:00005604       ??_C@_1M@MIODLDKF@?$AAm?$AAl?$AA?9?$AAI?$AAN?$AA?$AA@ 10043604     libucrt:lcidtoname_downlevel.obj
 0002:00005610       ??_C@_1M@PBIEACPO@?$AAm?$AAr?$AA?9?$AAI?$AAN?$AA?$AA@ 10043610     libucrt:lcidtoname_downlevel.obj
 0002:0000561c       ??_C@_1M@NIDEAGPH@?$AAs?$AAa?$AA?9?$AAI?$AAN?$AA?$AA@ 1004361c     libucrt:lcidtoname_downlevel.obj
 0002:00005628       ??_C@_1M@FHIHCBIO@?$AAm?$AAn?$AA?9?$AAM?$AAN?$AA?$AA@ 10043628     libucrt:lcidtoname_downlevel.obj
 0002:00005634       ??_C@_1M@JAIJPENP@?$AAc?$AAy?$AA?9?$AAG?$AAB?$AA?$AA@ 10043634     libucrt:lcidtoname_downlevel.obj
 0002:00005640       ??_C@_1M@PHGFBEPN@?$AAg?$AAl?$AA?9?$AAE?$AAS?$AA?$AA@ 10043640     libucrt:lcidtoname_downlevel.obj
 0002:0000564c       ??_C@_1O@KPIPDNCP@?$AAk?$AAo?$AAk?$AA?9?$AAI?$AAN?$AA?$AA@ 1004364c     libucrt:lcidtoname_downlevel.obj
 0002:0000565c       ??_C@_1O@KNHJLDJA@?$AAs?$AAy?$AAr?$AA?9?$AAS?$AAY?$AA?$AA@ 1004365c     libucrt:lcidtoname_downlevel.obj
 0002:0000566c       ??_C@_1O@MKEKBLAH@?$AAd?$AAi?$AAv?$AA?9?$AAM?$AAV?$AA?$AA@ 1004366c     libucrt:lcidtoname_downlevel.obj
 0002:0000567c       ??_C@_1O@OHDCKDDF@?$AAq?$AAu?$AAz?$AA?9?$AAB?$AAO?$AA?$AA@ 1004367c     libucrt:lcidtoname_downlevel.obj
 0002:0000568c       ??_C@_1M@LEPJNLFD@?$AAn?$AAs?$AA?9?$AAZ?$AAA?$AA?$AA@ 1004368c     libucrt:lcidtoname_downlevel.obj
 0002:00005698       ??_C@_1M@OMLEIIJB@?$AAm?$AAi?$AA?9?$AAN?$AAZ?$AA?$AA@ 10043698     libucrt:lcidtoname_downlevel.obj
 0002:000056a4       ??_C@_1M@PMPEAILG@?$AAa?$AAr?$AA?9?$AAI?$AAQ?$AA?$AA@ 100436a4     libucrt:lcidtoname_downlevel.obj
 0002:000056b0       ??_C@_1M@CNKPNOEE@?$AAd?$AAe?$AA?9?$AAC?$AAH?$AA?$AA@ 100436b0     libucrt:lcidtoname_downlevel.obj
 0002:000056bc       ??_C@_1M@LKMGMLKO@?$AAe?$AAn?$AA?9?$AAG?$AAB?$AA?$AA@ 100436bc     libucrt:lcidtoname_downlevel.obj
 0002:000056c8       ??_C@_1M@PGKJFFGL@?$AAe?$AAs?$AA?9?$AAM?$AAX?$AA?$AA@ 100436c8     libucrt:lcidtoname_downlevel.obj
 0002:000056d4       ??_C@_1M@DNNANBDC@?$AAf?$AAr?$AA?9?$AAB?$AAE?$AA?$AA@ 100436d4     libucrt:lcidtoname_downlevel.obj
 0002:000056e0       ??_C@_1M@HLGMDFHM@?$AAi?$AAt?$AA?9?$AAC?$AAH?$AA?$AA@ 100436e0     libucrt:lcidtoname_downlevel.obj
 0002:000056ec       ??_C@_1M@CLLBGJH@?$AAn?$AAl?$AA?9?$AAB?$AAE?$AA?$AA@ 100436ec     libucrt:lcidtoname_downlevel.obj
 0002:000056f8       ??_C@_1M@BODBOGLF@?$AAn?$AAn?$AA?9?$AAN?$AAO?$AA?$AA@ 100436f8     libucrt:lcidtoname_downlevel.obj
 0002:00005704       ??_C@_1M@HFFAHKAD@?$AAp?$AAt?$AA?9?$AAP?$AAT?$AA?$AA@ 10043704     libucrt:lcidtoname_downlevel.obj
 0002:00005710       ??_C@_1BG@LNOAKHIE@?$AAs?$AAr?$AA?9?$AAS?$AAP?$AA?9?$AAL?$AAa?$AAt?$AAn?$AA?$AA@ 10043710     libucrt:lcidtoname_downlevel.obj
 0002:00005728       ??_C@_1M@HBMHBGAK@?$AAs?$AAv?$AA?9?$AAF?$AAI?$AA?$AA@ 10043728     libucrt:lcidtoname_downlevel.obj
 0002:00005734       ??_C@_1BG@DGCJGJBE@?$AAa?$AAz?$AA?9?$AAA?$AAZ?$AA?9?$AAC?$AAy?$AAr?$AAl?$AA?$AA@ 10043734     libucrt:lcidtoname_downlevel.obj
 0002:0000574c       ??_C@_1M@KEJDAAHB@?$AAs?$AAe?$AA?9?$AAS?$AAE?$AA?$AA@ 1004374c     libucrt:lcidtoname_downlevel.obj
 0002:00005758       ??_C@_1M@HEIBJJAD@?$AAm?$AAs?$AA?9?$AAB?$AAN?$AA?$AA@ 10043758     libucrt:lcidtoname_downlevel.obj
 0002:00005764       ??_C@_1BG@PBGJMCEM@?$AAu?$AAz?$AA?9?$AAU?$AAZ?$AA?9?$AAC?$AAy?$AAr?$AAl?$AA?$AA@ 10043764     libucrt:lcidtoname_downlevel.obj
 0002:0000577c       ??_C@_1O@LAOBCMDF@?$AAq?$AAu?$AAz?$AA?9?$AAE?$AAC?$AA?$AA@ 1004377c     libucrt:lcidtoname_downlevel.obj
 0002:0000578c       ??_C@_1M@POEEMAIO@?$AAa?$AAr?$AA?9?$AAE?$AAG?$AA?$AA@ 1004378c     libucrt:lcidtoname_downlevel.obj
 0002:00005798       ??_C@_1M@EFAKDEDL@?$AAz?$AAh?$AA?9?$AAH?$AAK?$AA?$AA@ 10043798     libucrt:lcidtoname_downlevel.obj
 0002:000057a4       ??_C@_1M@HKKIJHGI@?$AAd?$AAe?$AA?9?$AAA?$AAT?$AA?$AA@ 100437a4     libucrt:lcidtoname_downlevel.obj
 0002:000057b0       ??_C@_1M@KBFBEHJF@?$AAe?$AAn?$AA?9?$AAA?$AAU?$AA?$AA@ 100437b0     libucrt:lcidtoname_downlevel.obj
 0002:000057bc       ??_C@_1M@MNPLFAAH@?$AAe?$AAs?$AA?9?$AAE?$AAS?$AA?$AA@ 100437bc     libucrt:lcidtoname_downlevel.obj
 0002:000057c8       ??_C@_1M@HJOOJFMA@?$AAf?$AAr?$AA?9?$AAC?$AAA?$AA?$AA@ 100437c8     libucrt:lcidtoname_downlevel.obj
 0002:000057d4       ??_C@_1BG@JPOFPNAB@?$AAs?$AAr?$AA?9?$AAS?$AAP?$AA?9?$AAC?$AAy?$AAr?$AAl?$AA?$AA@ 100437d4     libucrt:lcidtoname_downlevel.obj
 0002:000057ec       ??_C@_1M@LNFOCMOB@?$AAs?$AAe?$AA?9?$AAF?$AAI?$AA?$AA@ 100437ec     libucrt:lcidtoname_downlevel.obj
 0002:000057f8       ??_C@_1O@MGJBOAMB@?$AAq?$AAu?$AAz?$AA?9?$AAP?$AAE?$AA?$AA@ 100437f8     libucrt:lcidtoname_downlevel.obj
 0002:00005808       ??_C@_1M@GJINLBOK@?$AAa?$AAr?$AA?9?$AAL?$AAY?$AA?$AA@ 10043808     libucrt:lcidtoname_downlevel.obj
 0002:00005814       ??_C@_1M@GGMNHJNL@?$AAz?$AAh?$AA?9?$AAS?$AAG?$AA?$AA@ 10043814     libucrt:lcidtoname_downlevel.obj
 0002:00005820       ??_C@_1M@HOIKODND@?$AAd?$AAe?$AA?9?$AAL?$AAU?$AA?$AA@ 10043820     libucrt:lcidtoname_downlevel.obj
 0002:0000582c       ??_C@_1M@DDOCCGFG@?$AAe?$AAn?$AA?9?$AAC?$AAA?$AA?$AA@ 1004382c     libucrt:lcidtoname_downlevel.obj
 0002:00005838       ??_C@_1M@BNOEMJLF@?$AAe?$AAs?$AA?9?$AAG?$AAT?$AA?$AA@ 10043838     libucrt:lcidtoname_downlevel.obj
 0002:00005844       ??_C@_1M@EOGNKEK@?$AAf?$AAr?$AA?9?$AAC?$AAH?$AA?$AA@ 10043844     libucrt:lcidtoname_downlevel.obj
 0002:00005850       ??_C@_1M@FLIDJFHL@?$AAh?$AAr?$AA?9?$AAB?$AAA?$AA?$AA@ 10043850     libucrt:lcidtoname_downlevel.obj
 0002:0000585c       ??_C@_1O@FMCELNAJ@?$AAs?$AAm?$AAj?$AA?9?$AAN?$AAO?$AA?$AA@ 1004385c     libucrt:lcidtoname_downlevel.obj
 0002:0000586c       ??_C@_1M@JHGLJMGJ@?$AAa?$AAr?$AA?9?$AAD?$AAZ?$AA?$AA@ 1004386c     libucrt:lcidtoname_downlevel.obj
 0002:00005878       ??_C@_1M@JKKFDCNP@?$AAz?$AAh?$AA?9?$AAM?$AAO?$AA?$AA@ 10043878     libucrt:lcidtoname_downlevel.obj
 0002:00005884       ??_C@_1M@GEEFALPE@?$AAd?$AAe?$AA?9?$AAL?$AAI?$AA?$AA@ 10043884     libucrt:lcidtoname_downlevel.obj
 0002:00005890       ??_C@_1M@IGEOFBG@?$AAe?$AAn?$AA?9?$AAN?$AAZ?$AA?$AA@ 10043890     libucrt:lcidtoname_downlevel.obj
 0002:0000589c       ??_C@_1M@KDBONEHP@?$AAe?$AAs?$AA?9?$AAC?$AAR?$AA?$AA@ 1004389c     libucrt:lcidtoname_downlevel.obj
 0002:000058a8       ??_C@_1M@FHMDOHNN@?$AAf?$AAr?$AA?9?$AAL?$AAU?$AA?$AA@ 100438a8     libucrt:lcidtoname_downlevel.obj
 0002:000058b4       ??_C@_1BG@NFKKMAFG@?$AAb?$AAs?$AA?9?$AAB?$AAA?$AA?9?$AAL?$AAa?$AAt?$AAn?$AA?$AA@ 100438b4     libucrt:lcidtoname_downlevel.obj
 0002:000058cc       ??_C@_1O@IMNBEMCI@?$AAs?$AAm?$AAj?$AA?9?$AAS?$AAE?$AA?$AA@ 100438cc     libucrt:lcidtoname_downlevel.obj
 0002:000058dc       ??_C@_1M@DHHMBNDP@?$AAa?$AAr?$AA?9?$AAM?$AAA?$AA?$AA@ 100438dc     libucrt:lcidtoname_downlevel.obj
 0002:000058e8       ??_C@_1M@BNBLJCGH@?$AAe?$AAn?$AA?9?$AAI?$AAE?$AA?$AA@ 100438e8     libucrt:lcidtoname_downlevel.obj
 0002:000058f4       ??_C@_1M@GEPAFMDL@?$AAe?$AAs?$AA?9?$AAP?$AAA?$AA?$AA@ 100438f4     libucrt:lcidtoname_downlevel.obj
 0002:00005900       ??_C@_1M@OJONDMDL@?$AAf?$AAr?$AA?9?$AAM?$AAC?$AA?$AA@ 10043900     libucrt:lcidtoname_downlevel.obj
 0002:0000590c       ??_C@_1BG@OBCNFJB@?$AAs?$AAr?$AA?9?$AAB?$AAA?$AA?9?$AAL?$AAa?$AAt?$AAn?$AA?$AA@ 1004390c     libucrt:lcidtoname_downlevel.obj
 0002:00005924       ??_C@_1O@KEMEEGPO@?$AAs?$AAm?$AAa?$AA?9?$AAN?$AAO?$AA?$AA@ 10043924     libucrt:lcidtoname_downlevel.obj
 0002:00005934       ??_C@_1M@ELMGFODK@?$AAa?$AAr?$AA?9?$AAT?$AAN?$AA?$AA@ 10043934     libucrt:lcidtoname_downlevel.obj
 0002:00005940       ??_C@_1M@BHDLHFAF@?$AAe?$AAn?$AA?9?$AAZ?$AAA?$AA?$AA@ 10043940     libucrt:lcidtoname_downlevel.obj
 0002:0000594c       ??_C@_1M@BMGIGLIF@?$AAe?$AAs?$AA?9?$AAD?$AAO?$AA?$AA@ 1004394c     libucrt:lcidtoname_downlevel.obj
 0002:00005958       ??_C@_1BG@CMBHIPBE@?$AAs?$AAr?$AA?9?$AAB?$AAA?$AA?9?$AAC?$AAy?$AAr?$AAl?$AA?$AA@ 10043958     libucrt:lcidtoname_downlevel.obj
 0002:00005970       ??_C@_1O@HEDBLHNP@?$AAs?$AAm?$AAa?$AA?9?$AAS?$AAE?$AA?$AA@ 10043970     libucrt:lcidtoname_downlevel.obj
 0002:00005980       ??_C@_1M@DAGCADIM@?$AAa?$AAr?$AA?9?$AAO?$AAM?$AA?$AA@ 10043980     libucrt:lcidtoname_downlevel.obj
 0002:0000598c       ??_C@_1M@FODLMICG@?$AAe?$AAn?$AA?9?$AAJ?$AAM?$AA?$AA@ 1004398c     libucrt:lcidtoname_downlevel.obj
 0002:00005998       ??_C@_1M@DNMLCIHB@?$AAe?$AAs?$AA?9?$AAV?$AAE?$AA?$AA@ 10043998     libucrt:lcidtoname_downlevel.obj
 0002:000059a4       ??_C@_1O@EOKHMKJK@?$AAs?$AAm?$AAs?$AA?9?$AAF?$AAI?$AA?$AA@ 100439a4     libucrt:lcidtoname_downlevel.obj
 0002:000059b4       ??_C@_1M@CAFJMKOF@?$AAa?$AAr?$AA?9?$AAY?$AAE?$AA?$AA@ 100439b4     libucrt:lcidtoname_downlevel.obj
 0002:000059c0       ??_C@_1M@CBFHIJLI@?$AAe?$AAn?$AA?9?$AAC?$AAB?$AA?$AA@ 100439c0     libucrt:lcidtoname_downlevel.obj
 0002:000059cc       ??_C@_1M@BGNFLDN@?$AAe?$AAs?$AA?9?$AAC?$AAO?$AA?$AA@ 100439cc     libucrt:lcidtoname_downlevel.obj
 0002:000059d8       ??_C@_1O@JMPHMAMC@?$AAs?$AAm?$AAn?$AA?9?$AAF?$AAI?$AA?$AA@ 100439d8     libucrt:lcidtoname_downlevel.obj
 0002:000059e8       ??_C@_1M@JLANABKE@?$AAa?$AAr?$AA?9?$AAS?$AAY?$AA?$AA@ 100439e8     libucrt:lcidtoname_downlevel.obj
 0002:000059f4       ??_C@_1M@HPKGCFGN@?$AAe?$AAn?$AA?9?$AAB?$AAZ?$AA?$AA@ 100439f4     libucrt:lcidtoname_downlevel.obj
 0002:00005a00       ??_C@_1M@OLJCMLGM@?$AAe?$AAs?$AA?9?$AAP?$AAE?$AA?$AA@ 10043a00     libucrt:lcidtoname_downlevel.obj
 0002:00005a0c       ??_C@_1M@MKKGFKLE@?$AAa?$AAr?$AA?9?$AAJ?$AAO?$AA?$AA@ 10043a0c     libucrt:lcidtoname_downlevel.obj
 0002:00005a18       ??_C@_1M@EKPGLDNI@?$AAe?$AAn?$AA?9?$AAT?$AAT?$AA?$AA@ 10043a18     libucrt:lcidtoname_downlevel.obj
 0002:00005a24       ??_C@_1M@OONGHFHE@?$AAe?$AAs?$AA?9?$AAA?$AAR?$AA?$AA@ 10043a24     libucrt:lcidtoname_downlevel.obj
 0002:00005a30       ??_C@_1M@OOJFGBHE@?$AAa?$AAr?$AA?9?$AAL?$AAB?$AA?$AA@ 10043a30     libucrt:lcidtoname_downlevel.obj
 0002:00005a3c       ??_C@_1M@GCEJHNEG@?$AAe?$AAn?$AA?9?$AAZ?$AAW?$AA?$AA@ 10043a3c     libucrt:lcidtoname_downlevel.obj
 0002:00005a48       ??_C@_1M@JNOCAHJI@?$AAe?$AAs?$AA?9?$AAE?$AAC?$AA?$AA@ 10043a48     libucrt:lcidtoname_downlevel.obj
 0002:00005a54       ??_C@_1M@JEFHPGGB@?$AAa?$AAr?$AA?9?$AAK?$AAW?$AA?$AA@ 10043a54     libucrt:lcidtoname_downlevel.obj
 0002:00005a60       ??_C@_1M@MLKIBJOJ@?$AAe?$AAn?$AA?9?$AAP?$AAH?$AA?$AA@ 10043a60     libucrt:lcidtoname_downlevel.obj
 0002:00005a6c       ??_C@_1M@BDNIPEND@?$AAe?$AAs?$AA?9?$AAC?$AAL?$AA?$AA@ 10043a6c     libucrt:lcidtoname_downlevel.obj
 0002:00005a78       ??_C@_1M@MPNMEKBD@?$AAa?$AAr?$AA?9?$AAA?$AAE?$AA?$AA@ 10043a78     libucrt:lcidtoname_downlevel.obj
 0002:00005a84       ??_C@_1M@KBJALCPI@?$AAe?$AAs?$AA?9?$AAU?$AAY?$AA?$AA@ 10043a84     libucrt:lcidtoname_downlevel.obj
 0002:00005a90       ??_C@_1M@LLCCOAGA@?$AAa?$AAr?$AA?9?$AAB?$AAH?$AA?$AA@ 10043a90     libucrt:lcidtoname_downlevel.obj
 0002:00005a9c       ??_C@_1M@PBFNCDEL@?$AAe?$AAs?$AA?9?$AAP?$AAY?$AA?$AA@ 10043a9c     libucrt:lcidtoname_downlevel.obj
 0002:00005aa8       ??_C@_1M@EDGINPNP@?$AAa?$AAr?$AA?9?$AAQ?$AAA?$AA?$AA@ 10043aa8     libucrt:lcidtoname_downlevel.obj
 0002:00005ab4       ??_C@_1M@MKDBIIJI@?$AAe?$AAs?$AA?9?$AAB?$AAO?$AA?$AA@ 10043ab4     libucrt:lcidtoname_downlevel.obj
 0002:00005ac0       ??_C@_1M@CPKKEBLD@?$AAe?$AAs?$AA?9?$AAS?$AAV?$AA?$AA@ 10043ac0     libucrt:lcidtoname_downlevel.obj
 0002:00005acc       ??_C@_1M@NDBGMMJL@?$AAe?$AAs?$AA?9?$AAH?$AAN?$AA?$AA@ 10043acc     libucrt:lcidtoname_downlevel.obj
 0002:00005ad8       ??_C@_1M@JIJIBHDP@?$AAe?$AAs?$AA?9?$AAN?$AAI?$AA?$AA@ 10043ad8     libucrt:lcidtoname_downlevel.obj
 0002:00005ae4       ??_C@_1M@CGFMKEEK@?$AAe?$AAs?$AA?9?$AAP?$AAR?$AA?$AA@ 10043ae4     libucrt:lcidtoname_downlevel.obj
 0002:00005af0       ??_C@_1O@ICJHKIIK@?$AAz?$AAh?$AA?9?$AAC?$AAH?$AAT?$AA?$AA@ 10043af0     libucrt:lcidtoname_downlevel.obj
 0002:00005b00       ??_C@_15CLNEJCE@?$AAs?$AAr?$AA?$AA@ 10043b00     libucrt:lcidtoname_downlevel.obj
 0002:00006228       ??_C@_1M@KAHEKEIG@?$AAa?$AAf?$AA?9?$AAz?$AAa?$AA?$AA@ 10044228     libucrt:lcidtoname_downlevel.obj
 0002:00006234       ??_C@_1M@GIECOABL@?$AAa?$AAr?$AA?9?$AAa?$AAe?$AA?$AA@ 10044234     libucrt:lcidtoname_downlevel.obj
 0002:00006240       ??_C@_1M@BMLMEKGI@?$AAa?$AAr?$AA?9?$AAb?$AAh?$AA?$AA@ 10044240     libucrt:lcidtoname_downlevel.obj
 0002:0000624c       ??_C@_1M@DAPFDGGB@?$AAa?$AAr?$AA?9?$AAd?$AAz?$AA?$AA@ 1004424c     libucrt:lcidtoname_downlevel.obj
 0002:00006258       ??_C@_1M@FJNKGKIG@?$AAa?$AAr?$AA?9?$AAe?$AAg?$AA?$AA@ 10044258     libucrt:lcidtoname_downlevel.obj
 0002:00006264       ??_C@_1M@FLGKKCLO@?$AAa?$AAr?$AA?9?$AAi?$AAq?$AA?$AA@ 10044264     libucrt:lcidtoname_downlevel.obj
 0002:00006270       ??_C@_1M@GNDIPALM@?$AAa?$AAr?$AA?9?$AAj?$AAo?$AA?$AA@ 10044270     libucrt:lcidtoname_downlevel.obj
 0002:0000627c       ??_C@_1M@DDMJFMGJ@?$AAa?$AAr?$AA?9?$AAk?$AAw?$AA?$AA@ 1004427c     libucrt:lcidtoname_downlevel.obj
 0002:00006288       ??_C@_1M@EJALMLHM@?$AAa?$AAr?$AA?9?$AAl?$AAb?$AA?$AA@ 10044288     libucrt:lcidtoname_downlevel.obj
 0002:00006294       ??_C@_1M@MOBDBLOC@?$AAa?$AAr?$AA?9?$AAl?$AAy?$AA?$AA@ 10044294     libucrt:lcidtoname_downlevel.obj
 0002:000062a0       ??_C@_1M@JAOCLHDH@?$AAa?$AAr?$AA?9?$AAm?$AAa?$AA?$AA@ 100442a0     libucrt:lcidtoname_downlevel.obj
 0002:000062ac       ??_C@_1M@JHPMKJIE@?$AAa?$AAr?$AA?9?$AAo?$AAm?$AA?$AA@ 100442ac     libucrt:lcidtoname_downlevel.obj
 0002:000062b8       ??_C@_1M@OEPGHFNH@?$AAa?$AAr?$AA?9?$AAq?$AAa?$AA?$AA@ 100442b8     libucrt:lcidtoname_downlevel.obj
 0002:000062c4       ??_C@_1M@KJDONENM@?$AAa?$AAr?$AA?9?$AAs?$AAa?$AA?$AA@ 100442c4     libucrt:lcidtoname_downlevel.obj
 0002:000062d0       ??_C@_1M@DMJDKLKM@?$AAa?$AAr?$AA?9?$AAs?$AAy?$AA?$AA@ 100442d0     libucrt:lcidtoname_downlevel.obj
 0002:000062dc       ??_C@_1M@OMFIPEDC@?$AAa?$AAr?$AA?9?$AAt?$AAn?$AA?$AA@ 100442dc     libucrt:lcidtoname_downlevel.obj
 0002:000062e8       ??_C@_1M@IHMHGAON@?$AAa?$AAr?$AA?9?$AAy?$AAe?$AA?$AA@ 100442e8     libucrt:lcidtoname_downlevel.obj
 0002:000062f4       ??_C@_1BG@KDCPGJGB@?$AAa?$AAz?$AA?9?$AAa?$AAz?$AA?9?$AAc?$AAy?$AAr?$AAl?$AA?$AA@ 100442f4     libucrt:lcidtoname_downlevel.obj
 0002:0000630c       ??_C@_1BG@IBCKDDOE@?$AAa?$AAz?$AA?9?$AAa?$AAz?$AA?9?$AAl?$AAa?$AAt?$AAn?$AA?$AA@ 1004430c     libucrt:lcidtoname_downlevel.obj
 0002:00006324       ??_C@_1M@EGPFDCPD@?$AAb?$AAe?$AA?9?$AAb?$AAy?$AA?$AA@ 10044324     libucrt:lcidtoname_downlevel.obj
 0002:00006330       ??_C@_1M@PCMGMCGC@?$AAb?$AAg?$AA?9?$AAb?$AAg?$AA?$AA@ 10044330     libucrt:lcidtoname_downlevel.obj
 0002:0000633c       ??_C@_1M@BJBMFGOB@?$AAb?$AAn?$AA?9?$AAi?$AAn?$AA?$AA@ 1004433c     libucrt:lcidtoname_downlevel.obj
 0002:00006348       ??_C@_1BG@EAKMMACD@?$AAb?$AAs?$AA?9?$AAb?$AAa?$AA?9?$AAl?$AAa?$AAt?$AAn?$AA?$AA@ 10044348     libucrt:lcidtoname_downlevel.obj
 0002:00006360       ??_C@_1M@KGADAODK@?$AAc?$AAa?$AA?9?$AAe?$AAs?$AA?$AA@ 10044360     libucrt:lcidtoname_downlevel.obj
 0002:0000636c       ??_C@_1M@COAJPDHI@?$AAc?$AAs?$AA?9?$AAc?$AAz?$AA?$AA@ 1004436c     libucrt:lcidtoname_downlevel.obj
 0002:00006378       ??_C@_1M@DHBHFONH@?$AAc?$AAy?$AA?9?$AAg?$AAb?$AA?$AA@ 10044378     libucrt:lcidtoname_downlevel.obj
 0002:00006384       ??_C@_1M@IMGKELGA@?$AAd?$AAa?$AA?9?$AAd?$AAk?$AA?$AA@ 10044384     libucrt:lcidtoname_downlevel.obj
 0002:00006390       ??_C@_1M@NNDGDNGA@?$AAd?$AAe?$AA?9?$AAa?$AAt?$AA?$AA@ 10044390     libucrt:lcidtoname_downlevel.obj
 0002:0000639c       ??_C@_1M@IKDBHEEM@?$AAd?$AAe?$AA?9?$AAc?$AAh?$AA?$AA@ 1004439c     libucrt:lcidtoname_downlevel.obj
 0002:000063a8       ??_C@_1M@GFFOJMCJ@?$AAd?$AAe?$AA?9?$AAd?$AAe?$AA?$AA@ 100443a8     libucrt:lcidtoname_downlevel.obj
 0002:000063b4       ??_C@_1M@MDNLKBPM@?$AAd?$AAe?$AA?9?$AAl?$AAi?$AA?$AA@ 100443b4     libucrt:lcidtoname_downlevel.obj
 0002:000063c0       ??_C@_1M@NJBEEJNL@?$AAd?$AAe?$AA?9?$AAl?$AAu?$AA?$AA@ 100443c0     libucrt:lcidtoname_downlevel.obj
 0002:000063cc       ??_C@_1O@GNNELBAP@?$AAd?$AAi?$AAv?$AA?9?$AAm?$AAv?$AA?$AA@ 100443cc     libucrt:lcidtoname_downlevel.obj
 0002:000063dc       ??_C@_1M@EJLEOGAE@?$AAe?$AAl?$AA?9?$AAg?$AAr?$AA?$AA@ 100443dc     libucrt:lcidtoname_downlevel.obj
 0002:000063e8       ??_C@_1M@GMPONJN@?$AAe?$AAn?$AA?9?$AAa?$AAu?$AA?$AA@ 100443e8     libucrt:lcidtoname_downlevel.obj
 0002:000063f4       ??_C@_1M@NIDIIPGF@?$AAe?$AAn?$AA?9?$AAb?$AAz?$AA?$AA@ 100443f4     libucrt:lcidtoname_downlevel.obj
 0002:00006400       ??_C@_1M@JEHMIMFO@?$AAe?$AAn?$AA?9?$AAc?$AAa?$AA?$AA@ 10044400     libucrt:lcidtoname_downlevel.obj
 0002:0000640c       ??_C@_1M@IGMJCDLA@?$AAe?$AAn?$AA?9?$AAc?$AAb?$AA?$AA@ 1004440c     libucrt:lcidtoname_downlevel.obj
 0002:00006418       ??_C@_1M@BNFIGBKG@?$AAe?$AAn?$AA?9?$AAg?$AAb?$AA?$AA@ 10044418     libucrt:lcidtoname_downlevel.obj
 0002:00006424       ??_C@_1M@LKIFDIGP@?$AAe?$AAn?$AA?9?$AAi?$AAe?$AA?$AA@ 10044424     libucrt:lcidtoname_downlevel.obj
 0002:00006430       ??_C@_1M@PJKFGCCO@?$AAe?$AAn?$AA?9?$AAj?$AAm?$AA?$AA@ 10044430     libucrt:lcidtoname_downlevel.obj
 0002:0000643c       ??_C@_1M@KPPKEPBO@?$AAe?$AAn?$AA?9?$AAn?$AAz?$AA?$AA@ 1004443c     libucrt:lcidtoname_downlevel.obj
 0002:00006448       ??_C@_1M@GMDGLDOB@?$AAe?$AAn?$AA?9?$AAp?$AAh?$AA?$AA@ 10044448     libucrt:lcidtoname_downlevel.obj
 0002:00006454       ??_C@_1M@ONGIBJNA@?$AAe?$AAn?$AA?9?$AAt?$AAt?$AA?$AA@ 10044454     libucrt:lcidtoname_downlevel.obj
 0002:00006460       ??_C@_1M@LLODPCMM@?$AAe?$AAn?$AA?9?$AAu?$AAs?$AA?$AA@ 10044460     libucrt:lcidtoname_downlevel.obj
 0002:0000646c       ??_C@_1M@LAKFNPAN@?$AAe?$AAn?$AA?9?$AAz?$AAa?$AA?$AA@ 1004446c     libucrt:lcidtoname_downlevel.obj
 0002:00006478       ??_C@_1M@MFNHNHEO@?$AAe?$AAn?$AA?9?$AAz?$AAw?$AA?$AA@ 10044478     libucrt:lcidtoname_downlevel.obj
 0002:00006484       ??_C@_1M@EJEINPHM@?$AAe?$AAs?$AA?9?$AAa?$AAr?$AA?$AA@ 10044484     libucrt:lcidtoname_downlevel.obj
 0002:00006490       ??_C@_1M@GNKPCCJA@?$AAe?$AAs?$AA?9?$AAb?$AAo?$AA?$AA@ 10044490     libucrt:lcidtoname_downlevel.obj
 0002:0000649c       ??_C@_1M@LEEGFONL@?$AAe?$AAs?$AA?9?$AAc?$AAl?$AA?$AA@ 1004449c     libucrt:lcidtoname_downlevel.obj
 0002:000064a8       ??_C@_1M@KGPDPBDF@?$AAe?$AAs?$AA?9?$AAc?$AAo?$AA?$AA@ 100444a8     libucrt:lcidtoname_downlevel.obj
 0002:000064b4       ??_C@_1M@EIAHOHH@?$AAe?$AAs?$AA?9?$AAc?$AAr?$AA?$AA@ 100444b4     libucrt:lcidtoname_downlevel.obj
 0002:000064c0       ??_C@_1M@LLPGMBIN@?$AAe?$AAs?$AA?9?$AAd?$AAo?$AA?$AA@ 100444c0     libucrt:lcidtoname_downlevel.obj
 0002:000064cc       ??_C@_1M@DKHMKNJA@?$AAe?$AAs?$AA?9?$AAe?$AAc?$AA?$AA@ 100444cc     libucrt:lcidtoname_downlevel.obj
 0002:000064d8       ??_C@_1M@GKGFPKAP@?$AAe?$AAs?$AA?9?$AAe?$AAs?$AA?$AA@ 100444d8     libucrt:lcidtoname_downlevel.obj
 0002:000064e4       ??_C@_1M@LKHKGDLN@?$AAe?$AAs?$AA?9?$AAg?$AAt?$AA?$AA@ 100444e4     libucrt:lcidtoname_downlevel.obj
 0002:000064f0       ??_C@_1M@HEIIGGJD@?$AAe?$AAs?$AA?9?$AAh?$AAn?$AA?$AA@ 100444f0     libucrt:lcidtoname_downlevel.obj
 0002:000064fc       ??_C@_1M@FBDHPPGD@?$AAe?$AAs?$AA?9?$AAm?$AAx?$AA?$AA@ 100444fc     libucrt:lcidtoname_downlevel.obj
 0002:00006508       ??_C@_1M@DPAGLNDH@?$AAe?$AAs?$AA?9?$AAn?$AAi?$AA?$AA@ 10044508     libucrt:lcidtoname_downlevel.obj
 0002:00006514       ??_C@_1M@MDGOPGDD@?$AAe?$AAs?$AA?9?$AAp?$AAa?$AA?$AA@ 10044514     libucrt:lcidtoname_downlevel.obj
 0002:00006520       ??_C@_1M@EMAMGBGE@?$AAe?$AAs?$AA?9?$AAp?$AAe?$AA?$AA@ 10044520     libucrt:lcidtoname_downlevel.obj
 0002:0000652c       ??_C@_1M@IBMCAOEC@?$AAe?$AAs?$AA?9?$AAp?$AAr?$AA?$AA@ 1004452c     libucrt:lcidtoname_downlevel.obj
 0002:00006538       ??_C@_1M@FGMDIJED@?$AAe?$AAs?$AA?9?$AAp?$AAy?$AA?$AA@ 10044538     libucrt:lcidtoname_downlevel.obj
 0002:00006544       ??_C@_1M@IIDEOLLL@?$AAe?$AAs?$AA?9?$AAs?$AAv?$AA?$AA@ 10044544     libucrt:lcidtoname_downlevel.obj
 0002:00006550       ??_C@_1M@GAOBIPA@?$AAe?$AAs?$AA?9?$AAu?$AAy?$AA?$AA@ 10044550     libucrt:lcidtoname_downlevel.obj
 0002:0000655c       ??_C@_1M@JKFFICHJ@?$AAe?$AAs?$AA?9?$AAv?$AAe?$AA?$AA@ 1004455c     libucrt:lcidtoname_downlevel.obj
 0002:00006568       ??_C@_1M@PNMLOJDF@?$AAe?$AAt?$AA?9?$AAe?$AAe?$AA?$AA@ 10044568     libucrt:lcidtoname_downlevel.obj
 0002:00006574       ??_C@_1M@GHHLIKEI@?$AAe?$AAu?$AA?9?$AAe?$AAs?$AA?$AA@ 10044574     libucrt:lcidtoname_downlevel.obj
 0002:00006580       ??_C@_1M@PBNONODE@?$AAf?$AAa?$AA?9?$AAi?$AAr?$AA?$AA@ 10044580     libucrt:lcidtoname_downlevel.obj
 0002:0000658c       ??_C@_1M@JEEHPMIL@?$AAf?$AAi?$AA?9?$AAf?$AAi?$AA?$AA@ 1004458c     libucrt:lcidtoname_downlevel.obj
 0002:00006598       ??_C@_1M@LMDCNDBA@?$AAf?$AAo?$AA?9?$AAf?$AAo?$AA?$AA@ 10044598     libucrt:lcidtoname_downlevel.obj
 0002:000065a4       ??_C@_1M@JKEOHLDK@?$AAf?$AAr?$AA?9?$AAb?$AAe?$AA?$AA@ 100445a4     libucrt:lcidtoname_downlevel.obj
 0002:000065b0       ??_C@_1M@NOHADPMI@?$AAf?$AAr?$AA?9?$AAc?$AAa?$AA?$AA@ 100445b0     libucrt:lcidtoname_downlevel.obj
 0002:000065bc       ??_C@_1M@KDHIHAEC@?$AAf?$AAr?$AA?9?$AAc?$AAh?$AA?$AA@ 100445bc     libucrt:lcidtoname_downlevel.obj
 0002:000065c8       ??_C@_1M@MMBBFGAK@?$AAf?$AAr?$AA?9?$AAf?$AAr?$AA?$AA@ 100445c8     libucrt:lcidtoname_downlevel.obj
 0002:000065d4       ??_C@_1M@PAFNENNF@?$AAf?$AAr?$AA?9?$AAl?$AAu?$AA?$AA@ 100445d4     libucrt:lcidtoname_downlevel.obj
 0002:000065e0       ??_C@_1M@EOHDJGDD@?$AAf?$AAr?$AA?9?$AAm?$AAc?$AA?$AA@ 100445e0     libucrt:lcidtoname_downlevel.obj
 0002:000065ec       ??_C@_1M@FAPLLOPF@?$AAg?$AAl?$AA?9?$AAe?$AAs?$AA?$AA@ 100445ec     libucrt:lcidtoname_downlevel.obj
 0002:000065f8       ??_C@_1M@FOPBFLOO@?$AAg?$AAu?$AA?9?$AAi?$AAn?$AA?$AA@ 100445f8     libucrt:lcidtoname_downlevel.obj
 0002:00006604       ??_C@_1M@KBMCINPM@?$AAh?$AAe?$AA?9?$AAi?$AAl?$AA?$AA@ 10044604     libucrt:lcidtoname_downlevel.obj
 0002:00006610       ??_C@_1M@BBPHKFPJ@?$AAh?$AAi?$AA?9?$AAi?$AAn?$AA?$AA@ 10044610     libucrt:lcidtoname_downlevel.obj
 0002:0000661c       ??_C@_1M@PMBNDPHD@?$AAh?$AAr?$AA?9?$AAb?$AAa?$AA?$AA@ 1004461c     libucrt:lcidtoname_downlevel.obj
 0002:00006628       ??_C@_1M@BPCKOEGE@?$AAh?$AAr?$AA?9?$AAh?$AAr?$AA?$AA@ 10044628     libucrt:lcidtoname_downlevel.obj
 0002:00006634       ??_C@_1M@GACBMHKE@?$AAh?$AAu?$AA?9?$AAh?$AAu?$AA?$AA@ 10044634     libucrt:lcidtoname_downlevel.obj
 0002:00006640       ??_C@_1M@MILPAJJC@?$AAh?$AAy?$AA?9?$AAa?$AAm?$AA?$AA@ 10044640     libucrt:lcidtoname_downlevel.obj
 0002:0000664c       ??_C@_1M@BABBICEC@?$AAi?$AAd?$AA?9?$AAi?$AAd?$AA?$AA@ 1004464c     libucrt:lcidtoname_downlevel.obj
 0002:00006658       ??_C@_1M@BIKNHHPF@?$AAi?$AAs?$AA?9?$AAi?$AAs?$AA?$AA@ 10044658     libucrt:lcidtoname_downlevel.obj
 0002:00006664       ??_C@_1M@NMPCJPHE@?$AAi?$AAt?$AA?9?$AAc?$AAh?$AA?$AA@ 10044664     libucrt:lcidtoname_downlevel.obj
 0002:00006670       ??_C@_1M@GHKGFEDF@?$AAi?$AAt?$AA?9?$AAi?$AAt?$AA?$AA@ 10044670     libucrt:lcidtoname_downlevel.obj
 0002:0000667c       ??_C@_1M@NIEJCJJA@?$AAj?$AAa?$AA?9?$AAj?$AAp?$AA?$AA@ 1004467c     libucrt:lcidtoname_downlevel.obj
 0002:00006688       ??_C@_1M@JILFNBIM@?$AAk?$AAa?$AA?9?$AAg?$AAe?$AA?$AA@ 10044688     libucrt:lcidtoname_downlevel.obj
 0002:00006694       ??_C@_1M@PACPMGPH@?$AAk?$AAk?$AA?9?$AAk?$AAz?$AA?$AA@ 10044694     libucrt:lcidtoname_downlevel.obj
 0002:000066a0       ??_C@_1M@IELFGMHA@?$AAk?$AAn?$AA?9?$AAi?$AAn?$AA?$AA@ 100446a0     libucrt:lcidtoname_downlevel.obj
 0002:000066ac       ??_C@_1O@IBBJHCH@?$AAk?$AAo?$AAk?$AA?9?$AAi?$AAn?$AA?$AA@ 100446ac     libucrt:lcidtoname_downlevel.obj
 0002:000066bc       ??_C@_1M@DMHAEOGC@?$AAk?$AAo?$AA?9?$AAk?$AAr?$AA?$AA@ 100446bc     libucrt:lcidtoname_downlevel.obj
 0002:000066c8       ??_C@_1M@HBAHBIGA@?$AAk?$AAy?$AA?9?$AAk?$AAg?$AA?$AA@ 100446c8     libucrt:lcidtoname_downlevel.obj
 0002:000066d4       ??_C@_1M@KPMILCJG@?$AAl?$AAt?$AA?9?$AAl?$AAt?$AA?$AA@ 100446d4     libucrt:lcidtoname_downlevel.obj
 0002:000066e0       ??_C@_1M@BDEKKCA@?$AAl?$AAv?$AA?9?$AAl?$AAv?$AA?$AA@ 100446e0     libucrt:lcidtoname_downlevel.obj
 0002:000066ec       ??_C@_1M@ELCKCCJJ@?$AAm?$AAi?$AA?9?$AAn?$AAz?$AA?$AA@ 100446ec     libucrt:lcidtoname_downlevel.obj
 0002:000066f8       ??_C@_1M@CBOOLAPA@?$AAm?$AAk?$AA?9?$AAm?$AAk?$AA?$AA@ 100446f8     libucrt:lcidtoname_downlevel.obj
 0002:00006704       ??_C@_1M@GPHNBJKN@?$AAm?$AAl?$AA?9?$AAi?$AAn?$AA?$AA@ 10044704     libucrt:lcidtoname_downlevel.obj
 0002:00006710       ??_C@_1M@PABJILIG@?$AAm?$AAn?$AA?9?$AAm?$AAn?$AA?$AA@ 10044710     libucrt:lcidtoname_downlevel.obj
 0002:0000671c       ??_C@_1M@FGBKKIPG@?$AAm?$AAr?$AA?9?$AAi?$AAn?$AA?$AA@ 1004471c     libucrt:lcidtoname_downlevel.obj
 0002:00006728       ??_C@_1M@NDBPDDAL@?$AAm?$AAs?$AA?9?$AAb?$AAn?$AA?$AA@ 10044728     libucrt:lcidtoname_downlevel.obj
 0002:00006734       ??_C@_1M@OPIHOOPI@?$AAm?$AAs?$AA?9?$AAm?$AAy?$AA?$AA@ 10044734     libucrt:lcidtoname_downlevel.obj
 0002:00006740       ??_C@_1M@PPDBCNFM@?$AAm?$AAt?$AA?9?$AAm?$AAt?$AA?$AA@ 10044740     libucrt:lcidtoname_downlevel.obj
 0002:0000674c       ??_C@_1M@KDJDKMDD@?$AAn?$AAb?$AA?9?$AAn?$AAo?$AA?$AA@ 1004474c     libucrt:lcidtoname_downlevel.obj
 0002:00006758       ??_C@_1M@KFCFLMJP@?$AAn?$AAl?$AA?9?$AAb?$AAe?$AA?$AA@ 10044758     libucrt:lcidtoname_downlevel.obj
 0002:00006764       ??_C@_1M@KPOPDDGO@?$AAn?$AAl?$AA?9?$AAn?$AAl?$AA?$AA@ 10044764     libucrt:lcidtoname_downlevel.obj
 0002:00006770       ??_C@_1M@LJKPEMLN@?$AAn?$AAn?$AA?9?$AAn?$AAo?$AA?$AA@ 10044770     libucrt:lcidtoname_downlevel.obj
 0002:0000677c       ??_C@_1M@BDGHHBFL@?$AAn?$AAs?$AA?9?$AAz?$AAa?$AA?$AA@ 1004477c     libucrt:lcidtoname_downlevel.obj
 0002:00006788       ??_C@_1M@IDEHOAP@?$AAp?$AAa?$AA?9?$AAi?$AAn?$AA?$AA@ 10044788     libucrt:lcidtoname_downlevel.obj
 0002:00006794       ??_C@_1M@HDBKGOGH@?$AAp?$AAl?$AA?9?$AAp?$AAl?$AA?$AA@ 10044794     libucrt:lcidtoname_downlevel.obj
 0002:000067a0       ??_C@_1M@LJLLCMEH@?$AAp?$AAt?$AA?9?$AAb?$AAr?$AA?$AA@ 100447a0     libucrt:lcidtoname_downlevel.obj
 0002:000067ac       ??_C@_1M@NCMONAAL@?$AAp?$AAt?$AA?9?$AAp?$AAt?$AA?$AA@ 100447ac     libucrt:lcidtoname_downlevel.obj
 0002:000067b8       ??_C@_1O@EAKMAJDN@?$AAq?$AAu?$AAz?$AA?9?$AAb?$AAo?$AA?$AA@ 100447b8     libucrt:lcidtoname_downlevel.obj
 0002:000067c8       ??_C@_1O@BHHPIGDN@?$AAq?$AAu?$AAz?$AA?9?$AAe?$AAc?$AA?$AA@ 100447c8     libucrt:lcidtoname_downlevel.obj
 0002:000067d8       ??_C@_1O@GBAPEKMJ@?$AAq?$AAu?$AAz?$AA?9?$AAp?$AAe?$AA?$AA@ 100447d8     libucrt:lcidtoname_downlevel.obj
 0002:000067e8       ??_C@_1M@CLGLEFBO@?$AAr?$AAo?$AA?9?$AAr?$AAo?$AA?$AA@ 100447e8     libucrt:lcidtoname_downlevel.obj
 0002:000067f4       ??_C@_1M@CEEDODME@?$AAr?$AAu?$AA?9?$AAr?$AAu?$AA?$AA@ 100447f4     libucrt:lcidtoname_downlevel.obj
 0002:00006800       ??_C@_1M@HPKKKMPP@?$AAs?$AAa?$AA?9?$AAi?$AAn?$AA?$AA@ 10044800     libucrt:lcidtoname_downlevel.obj
 0002:0000680c       ??_C@_1M@BKMAIGOJ@?$AAs?$AAe?$AA?9?$AAf?$AAi?$AA?$AA@ 1004480c     libucrt:lcidtoname_downlevel.obj
 0002:00006818       ??_C@_1M@NDPIFLFI@?$AAs?$AAe?$AA?9?$AAn?$AAo?$AA?$AA@ 10044818     libucrt:lcidtoname_downlevel.obj
 0002:00006824       ??_C@_1M@DANKKHJ@?$AAs?$AAe?$AA?9?$AAs?$AAe?$AA?$AA@ 10044824     libucrt:lcidtoname_downlevel.obj
 0002:00006830       ??_C@_1M@PNBLONPJ@?$AAs?$AAk?$AA?9?$AAs?$AAk?$AA?$AA@ 10044830     libucrt:lcidtoname_downlevel.obj
 0002:0000683c       ??_C@_1M@LFMODOAL@?$AAs?$AAl?$AA?9?$AAs?$AAi?$AA?$AA@ 1004483c     libucrt:lcidtoname_downlevel.obj
 0002:00006848       ??_C@_1O@DFKOMPG@?$AAs?$AAm?$AAa?$AA?9?$AAn?$AAo?$AA?$AA@ 10044848     libucrt:lcidtoname_downlevel.obj
 0002:00006858       ??_C@_1O@NDKPBNNH@?$AAs?$AAm?$AAa?$AA?9?$AAs?$AAe?$AA?$AA@ 10044858     libucrt:lcidtoname_downlevel.obj
 0002:00006868       ??_C@_1O@PLLKBHAB@?$AAs?$AAm?$AAj?$AA?9?$AAn?$AAo?$AA?$AA@ 10044868     libucrt:lcidtoname_downlevel.obj
 0002:00006878       ??_C@_1O@CLEPOGCA@?$AAs?$AAm?$AAj?$AA?9?$AAs?$AAe?$AA?$AA@ 10044878     libucrt:lcidtoname_downlevel.obj
 0002:00006888       ??_C@_1O@DLGJGKMK@?$AAs?$AAm?$AAn?$AA?9?$AAf?$AAi?$AA?$AA@ 10044888     libucrt:lcidtoname_downlevel.obj
 0002:00006898       ??_C@_1O@OJDJGAJC@?$AAs?$AAm?$AAs?$AA?9?$AAf?$AAi?$AA?$AA@ 10044898     libucrt:lcidtoname_downlevel.obj
 0002:000068a8       ??_C@_1M@BOFOGHPB@?$AAs?$AAq?$AA?9?$AAa?$AAl?$AA?$AA@ 100448a8     libucrt:lcidtoname_downlevel.obj
 0002:000068b4       ??_C@_1BG@LJBBIPGB@?$AAs?$AAr?$AA?9?$AAb?$AAa?$AA?9?$AAc?$AAy?$AAr?$AAl?$AA?$AA@ 100448b4     libucrt:lcidtoname_downlevel.obj
 0002:000068cc       ??_C@_1BG@JLBENFOE@?$AAs?$AAr?$AA?9?$AAb?$AAa?$AA?9?$AAl?$AAa?$AAt?$AAn?$AA?$AA@ 100448cc     libucrt:lcidtoname_downlevel.obj
 0002:000068e4       ??_C@_1BG@KODPNHE@?$AAs?$AAr?$AA?9?$AAs?$AAp?$AA?9?$AAc?$AAy?$AAr?$AAl?$AA?$AA@ 100448e4     libucrt:lcidtoname_downlevel.obj
 0002:000068fc       ??_C@_1BG@CIOGKHPB@?$AAs?$AAr?$AA?9?$AAs?$AAp?$AA?9?$AAl?$AAa?$AAt?$AAn?$AA?$AA@ 100448fc     libucrt:lcidtoname_downlevel.obj
 0002:00006914       ??_C@_1M@NGFJLMAC@?$AAs?$AAv?$AA?9?$AAf?$AAi?$AA?$AA@ 10044914     libucrt:lcidtoname_downlevel.obj
 0002:00006920       ??_C@_1M@MPJEJAJC@?$AAs?$AAv?$AA?9?$AAs?$AAe?$AA?$AA@ 10044920     libucrt:lcidtoname_downlevel.obj
 0002:0000692c       ??_C@_1M@MPNDHLFK@?$AAs?$AAw?$AA?9?$AAk?$AAe?$AA?$AA@ 1004492c     libucrt:lcidtoname_downlevel.obj
 0002:00006938       ??_C@_1O@KOHBJJI@?$AAs?$AAy?$AAr?$AA?9?$AAs?$AAy?$AA?$AA@ 10044938     libucrt:lcidtoname_downlevel.obj
 0002:00006948       ??_C@_1M@LDCEFHA@?$AAt?$AAa?$AA?9?$AAi?$AAn?$AA?$AA@ 10044948     libucrt:lcidtoname_downlevel.obj
 0002:00006954       ??_C@_1M@CNJOFAK@?$AAt?$AAe?$AA?9?$AAi?$AAn?$AA?$AA@ 10044954     libucrt:lcidtoname_downlevel.obj
 0002:00006960       ??_C@_1M@GNAECACD@?$AAt?$AAh?$AA?9?$AAt?$AAh?$AA?$AA@ 10044960     libucrt:lcidtoname_downlevel.obj
 0002:0000696c       ??_C@_1M@CHBIHOJO@?$AAt?$AAn?$AA?9?$AAz?$AAa?$AA?$AA@ 1004496c     libucrt:lcidtoname_downlevel.obj
 0002:00006978       ??_C@_1M@GCCMIGPJ@?$AAt?$AAr?$AA?9?$AAt?$AAr?$AA?$AA@ 10044978     libucrt:lcidtoname_downlevel.obj
 0002:00006984       ??_C@_1M@CELMCNBK@?$AAt?$AAt?$AA?9?$AAr?$AAu?$AA?$AA@ 10044984     libucrt:lcidtoname_downlevel.obj
 0002:00006990       ??_C@_1M@KLMCELGA@?$AAu?$AAk?$AA?9?$AAu?$AAa?$AA?$AA@ 10044990     libucrt:lcidtoname_downlevel.obj
 0002:0000699c       ??_C@_1M@EPAJJAJF@?$AAu?$AAr?$AA?9?$AAp?$AAk?$AA?$AA@ 1004499c     libucrt:lcidtoname_downlevel.obj
 0002:000069a8       ??_C@_1BG@GEGPMCDJ@?$AAu?$AAz?$AA?9?$AAu?$AAz?$AA?9?$AAc?$AAy?$AAr?$AAl?$AA?$AA@ 100449a8     libucrt:lcidtoname_downlevel.obj
 0002:000069c0       ??_C@_1BG@EGGKJILM@?$AAu?$AAz?$AA?9?$AAu?$AAz?$AA?9?$AAl?$AAa?$AAt?$AAn?$AA?$AA@ 100449c0     libucrt:lcidtoname_downlevel.obj
 0002:000069d8       ??_C@_1M@GFOCLFF@?$AAv?$AAi?$AA?9?$AAv?$AAn?$AA?$AA@ 100449d8     libucrt:lcidtoname_downlevel.obj
 0002:000069e4       ??_C@_1M@CPAMEDFI@?$AAx?$AAh?$AA?9?$AAz?$AAa?$AA?$AA@ 100449e4     libucrt:lcidtoname_downlevel.obj
 0002:000069f0       ??_C@_1O@EBKIFIGN@?$AAz?$AAh?$AA?9?$AAc?$AAh?$AAs?$AA?$AA@ 100449f0     libucrt:lcidtoname_downlevel.obj
 0002:00006a00       ??_C@_1O@NMHPGANE@?$AAz?$AAh?$AA?9?$AAc?$AAh?$AAt?$AA?$AA@ 10044a00     libucrt:lcidtoname_downlevel.obj
 0002:00006a10       ??_C@_1M@LPINJOMC@?$AAz?$AAh?$AA?9?$AAc?$AAn?$AA?$AA@ 10044a10     libucrt:lcidtoname_downlevel.obj
 0002:00006a1c       ??_C@_1M@OCJEJODD@?$AAz?$AAh?$AA?9?$AAh?$AAk?$AA?$AA@ 10044a1c     libucrt:lcidtoname_downlevel.obj
 0002:00006a28       ??_C@_1M@DNDLJINH@?$AAz?$AAh?$AA?9?$AAm?$AAo?$AA?$AA@ 10044a28     libucrt:lcidtoname_downlevel.obj
 0002:00006a34       ??_C@_1M@MBFDNDND@?$AAz?$AAh?$AA?9?$AAs?$AAg?$AA?$AA@ 10044a34     libucrt:lcidtoname_downlevel.obj
 0002:00006a40       ??_C@_1M@IMEPLEPE@?$AAz?$AAh?$AA?9?$AAt?$AAw?$AA?$AA@ 10044a40     libucrt:lcidtoname_downlevel.obj
 0002:00006a4c       ??_C@_1M@BBGHNHJP@?$AAz?$AAu?$AA?9?$AAz?$AAa?$AA?$AA@ 10044a4c     libucrt:lcidtoname_downlevel.obj
 0002:00006a58       ??_C@_03MGHMBJCF@log?$AA@  10044a58     libucrt:libm_error.obj
 0002:00006a5c       ??_C@_05HGHHAHAP@log10?$AA@ 10044a5c     libucrt:libm_error.obj
 0002:00006a64       ??_C@_03KHJOGHMM@exp?$AA@  10044a64     libucrt:libm_error.obj
 0002:00006a68       ??_C@_03JGHBODFD@pow?$AA@  10044a68     libucrt:libm_error.obj
 0002:00006a6c       ??_C@_04FIHNOPOL@asin?$AA@ 10044a6c     libucrt:libm_error.obj
 0002:00006a74       ??_C@_04PDIFKINK@acos?$AA@ 10044a74     libucrt:libm_error.obj
 0002:00006a7c       ??_C@_04EIAKFFMI@sqrt?$AA@ 10044a7c     libucrt:libm_error.obj
 0002:00006a90       ___acrt_exp_tbl_addr       10044a90     libucrt:exp_tables.obj
 0002:00006ee8       ??_C@_1BA@BALFACEM@?$AAC?$AAO?$AAN?$AAO?$AAU?$AAT?$AA$?$AA?$AA@ 10044ee8     libucrt:initcon.obj
 0002:00006ef8       __d_inf                    10044ef8     libucrt:util.obj
 0002:00006f00       __d_max                    10044f00     libucrt:util.obj
 0002:00006f08       __d_mzero                  10044f08     libucrt:util.obj
 0002:00006f10       ??_C@_04FJHINJAO@tanh?$AA@ 10044f10     libucrt:fpexcept.obj
 0002:00006f18       ??_C@_04MLLJIGOK@atan?$AA@ 10044f18     libucrt:fpexcept.obj
 0002:00006f20       ??_C@_05KNGEOGJB@atan2?$AA@ 10044f20     libucrt:fpexcept.obj
 0002:00006f28       ??_C@_03BLEJJJBH@sin?$AA@  10044f28     libucrt:fpexcept.obj
 0002:00006f2c       ??_C@_03LALBNOCG@cos?$AA@  10044f2c     libucrt:fpexcept.obj
 0002:00006f30       ??_C@_03IIINPABG@tan?$AA@  10044f30     libucrt:fpexcept.obj
 0002:00006f34       ??_C@_04GFPJNGEK@ceil?$AA@ 10044f34     libucrt:fpexcept.obj
 0002:00006f3c       ??_C@_05PBJFFIGL@floor?$AA@ 10044f3c     libucrt:fpexcept.obj
 0002:00006f44       ??_C@_04ODHECPBC@fabs?$AA@ 10044f44     libucrt:fpexcept.obj
 0002:00006f4c       ??_C@_04EHEDPDJG@modf?$AA@ 10044f4c     libucrt:fpexcept.obj
 0002:00006f54       ??_C@_05CEJMAHNP@ldexp?$AA@ 10044f54     libucrt:fpexcept.obj
 0002:00006f5c       ??_C@_05KBKMEMPO@_cabs?$AA@ 10044f5c     libucrt:fpexcept.obj
 0002:00006f64       ??_C@_06MEIMCGCF@_hypot?$AA@ 10044f64     libucrt:fpexcept.obj
 0002:00006f6c       ??_C@_04KEPJIHGP@fmod?$AA@ 10044f6c     libucrt:fpexcept.obj
 0002:00006f74       ??_C@_05GKKHEGJL@frexp?$AA@ 10044f74     libucrt:fpexcept.obj
 0002:00006f7c       ??_C@_03MJLDFKDL@_y0?$AA@  10044f7c     libucrt:fpexcept.obj
 0002:00006f80       ??_C@_03NAKIGLHK@_y1?$AA@  10044f80     libucrt:fpexcept.obj
 0002:00006f84       ??_C@_03ONILCKOB@_yn?$AA@  10044f84     libucrt:fpexcept.obj
 0002:00006f88       ??_C@_05JGDBENOH@_logb?$AA@ 10044f88     libucrt:fpexcept.obj
 0002:00006f90       ??_C@_0L@KDOEJCKC@_nextafter?$AA@ 10044f90     libucrt:fpexcept.obj
 0002:00007088       ??_C@_04COOMCNPB@sinh?$AA@ 10045088     libucrt:fpexcept.obj
 0002:00007090       ??_C@_04HPJJNFIM@cosh?$AA@ 10045090     libucrt:fpexcept.obj
 0002:000071b0       ___acrt_log10_table_t      100451b0     libucrt:log10_tables.obj
 0002:000075c0       ___acrt_log10_table_cb     100455c0     libucrt:log10_tables.obj
 0002:000079d4       ??_7_Ref_count_base@std@@6B@ 100459d4     libcpmt:excptptr.obj
 0002:000079e8       ??_7?$_Ref_count_obj_alloc@V__ExceptionPtr@@U?$_StaticAllocator@H@@@std@@6B@ 100459e8     libcpmt:excptptr.obj
 0002:000079fc       ??_7?$_Ref_count_obj@V__ExceptionPtr@@@std@@6B@ 100459fc     libcpmt:excptptr.obj
 0002:00007a0c       ??_C@_0N@IAJIDHKP@DlgBluBo?4def?$AA@ 10045a0c     DrawPcx16ResizedBicubic.obj
 0002:00007a1c       ??_C@_0N@BJEFDLGA@DlgBluBk?4PCX?$AA@ 10045a1c     DrawPcx16ResizedBicubic.obj
 0002:00007a2c       ??_C@_0N@BJNHCFMF@HD_TStat?4pcx?$AA@ 10045a2c     DrawPcx16ResizedBicubic.obj
 0002:00007aa8       ??_C@_07PILJHEGK@era?4dll?$AA@ 10045aa8     era.obj
 0002:00007ab0       ??_C@_0N@ILCPAELP@AllocErmFunc?$AA@ 10045ab0     era.obj
 0002:00007ac0       ??_C@_0BC@HPECFMPN@CalcHookPatchSize?$AA@ 10045ac0     era.obj
 0002:00007ad4       ??_C@_0BB@NFICFMFA@ClearAllIniCache?$AA@ 10045ad4     era.obj
 0002:00007ae8       ??_C@_0O@KHPPEFLJ@ClearIniCache?$AA@ 10045ae8     era.obj
 0002:00007af8       ??_C@_0M@MCBFFFFK@DecorateInt?$AA@ 10045af8     era.obj
 0002:00007b04       ??_C@_0L@GHCNBJIK@ExecErmCmd?$AA@ 10045b04     era.obj
 0002:00007b10       ??_C@_0BE@JPCODAJD@ExecPersistedErmCmd?$AA@ 10045b10     era.obj
 0002:00007b24       ??_C@_0L@BBNMEHJH@ExtractErm?$AA@ 10045b24     era.obj
 0002:00007b30       ??_C@_0BD@HGLMDBJA@FastQuitToGameMenu?$AA@ 10045b30     era.obj
 0002:00007b44       ??_C@_0L@CKILDBJC@FatalError?$AA@ 10045b44     era.obj
 0002:00007b50       ??_C@_0P@MELBKLIK@FindNextObject?$AA@ 10045b50     era.obj
 0002:00007b60       ??_C@_0N@HFGMKLEN@FireErmEvent?$AA@ 10045b60     era.obj
 0002:00007b70       ??_C@_09GEAPPBGH@FireEvent?$AA@ 10045b70     era.obj
 0002:00007b7c       ??_C@_0P@GBBGLPHE@FormatQuantity?$AA@ 10045b7c     era.obj
 0002:00007b8c       ??_C@_0BB@CAMNCLPO@FreeAppliedPatch?$AA@ 10045b8c     era.obj
 0002:00007ba0       ??_C@_0BC@GKDCPLNJ@GenerateDebugInfo?$AA@ 10045ba0     era.obj
 0002:00007bb4       ??_C@_0M@PAAODNCJ@GetArgXVars?$AA@ 10045bb4     era.obj
 0002:00007bc0       ??_C@_0BE@LLFNHKFA@GetAssocVarIntValue?$AA@ 10045bc0     era.obj
 0002:00007bd4       ??_C@_0BE@MBIKKGG@GetAssocVarStrValue?$AA@ 10045bd4     era.obj
 0002:00007be8       ??_C@_0M@KJHFCLAP@GetButtonID?$AA@ 10045be8     era.obj
 0002:00007bf4       ??_C@_0BE@OEHKLKHD@GetCampaignFileName?$AA@ 10045bf4     era.obj
 0002:00007c08       ??_C@_0BC@BDDDAFDE@GetCampaignMapInd?$AA@ 10045c08     era.obj
 0002:00007c1c       ??_C@_0BH@JHIEBJBG@GetEraRegistryIntValue?$AA@ 10045c1c     era.obj
 0002:00007c34       ??_C@_0BH@CAMBMJCA@GetEraRegistryStrValue?$AA@ 10045c34     era.obj
 0002:00007c4c       ??_C@_0N@CFMBLIKP@GetGameState?$AA@ 10045c4c     era.obj
 0002:00007c5c       ??_C@_0P@IIOFMNON@GetMapFileName?$AA@ 10045c5c     era.obj
 0002:00007c6c       ??_C@_0P@OMEKLNHG@GetProcessGuid?$AA@ 10045c6c     era.obj
 0002:00007c7c       ??_C@_0M@LKIFOAN@GetRealAddr?$AA@ 10045c7c     era.obj
 0002:00007c88       ??_C@_0M@EFALPNPM@GetRetXVars?$AA@ 10045c88     era.obj
 0002:00007c94       ??_C@_0BH@MJACGIOO@GetTriggerReadableName?$AA@ 10045c94     era.obj
 0002:00007cac       ??_C@_0O@FNMDEAHG@GetVersionNum?$AA@ 10045cac     era.obj
 0002:00007cbc       ??_C@_0BD@DPCJBLFO@GlobalRedirectFile?$AA@ 10045cbc     era.obj
 0002:00007cd0       ??_C@_06FNGCINCL@Hash32?$AA@ 10045cd0     era.obj
 0002:00007cd8       ??_C@_08EBPIACBO@HookCode?$AA@ 10045cd8     era.obj
 0002:00007ce4       ??_C@_0L@GKIEJFBJ@IsCampaign?$AA@ 10045ce4     era.obj
 0002:00007cf0       ??_C@_0O@HBOCCCBJ@IsCommanderId?$AA@ 10045cf0     era.obj
 0002:00007d00       ??_C@_0BB@PHLEIINC@LoadImageAsPcx16?$AA@ 10045d00     era.obj
 0002:00007d14       ??_C@_07FLCNLLL@MemFree?$AA@ 10045d14     era.obj
 0002:00007d1c       ??_C@_09PIKCKENJ@NameColor?$AA@ 10045d1c     era.obj
 0002:00007d28       ??_C@_0M@KFFJELFJ@NameTrigger?$AA@ 10045d28     era.obj
 0002:00007d34       ??_C@_0M@LNHBMGFH@NotifyError?$AA@ 10045d34     era.obj
 0002:00007d40       ??_C@_0M@PLEJCMGM@PatchExists?$AA@ 10045d40     era.obj
 0002:00007d4c       ??_C@_0N@FOLHNDBL@PcxPngExists?$AA@ 10045d4c     era.obj
 0002:00007d5c       ??_C@_0O@IAKAAEFK@PersistErmCmd?$AA@ 10045d5c     era.obj
 0002:00007d6c       ??_C@_0N@BGLGOOMO@PluginExists?$AA@ 10045d6c     era.obj
 0002:00007d7c       ??_C@_0BE@CIDOCKGN@ReadSavegameSection?$AA@ 10045d7c     era.obj
 0002:00007d90       ??_C@_0P@CCLIEMKP@ReadStrFromIni?$AA@ 10045d90     era.obj
 0002:00007da0       ??_C@_0N@EADKAOLK@RedirectFile?$AA@ 10045da0     era.obj
 0002:00007db0       ??_C@_0BE@OJOEEMJD@RedirectMemoryBlock?$AA@ 10045db0     era.obj
 0002:00007dc4       ??_C@_0BA@BCNGHKCC@RegisterHandler?$AA@ 10045dc4     era.obj
 0002:00007dd4       ??_C@_09MJCMIAEG@ReloadErm?$AA@ 10045dd4     era.obj
 0002:00007de0       ??_C@_0BD@CHCJJBJH@ReloadLanguageData?$AA@ 10045de0     era.obj
 0002:00007df4       ??_C@_0BE@JBKGKCON@ReportPluginVersion?$AA@ 10045df4     era.obj
 0002:00007e08       ??_C@_0BF@KLCOOELO@RollbackAppliedPatch?$AA@ 10045e08     era.obj
 0002:00007e20       ??_C@_07PAHGKEHA@SaveIni?$AA@ 10045e20     era.obj
 0002:00007e28       ??_C@_0BE@BFHGDKCM@SetAssocVarIntValue?$AA@ 10045e28     era.obj
 0002:00007e3c       ??_C@_0BE@KCDDOKBK@SetAssocVarStrValue?$AA@ 10045e3c     era.obj
 0002:00007e50       ??_C@_0BH@JGKKDOMJ@SetEraRegistryIntValue?$AA@ 10045e50     era.obj
 0002:00007e68       ??_C@_0BH@CBOPOOPP@SetEraRegistryStrValue?$AA@ 10045e68     era.obj
 0002:00007e80       ??_C@_0BF@KNHFCCLI@SetIsCommanderIdFunc?$AA@ 10045e80     era.obj
 0002:00007e98       ??_C@_0BL@CFMKIIJH@SetIsElixirOfLifeStackFunc?$AA@ 10045e98     era.obj
 0002:00007eb4       ??_C@_0M@BMMLELAG@SetLanguage?$AA@ 10045eb4     era.obj
 0002:00007ec0       ??_C@_0BH@GOLMFEJO@SetRegenerationAbility?$AA@ 10045ec0     era.obj
 0002:00007ed8       ??_C@_0BJ@PGHLMJLL@SetStdRegenerationEffect?$AA@ 10045ed8     era.obj
 0002:00007ef4       ??_C@_0N@GOAOCOKF@ShowErmError?$AA@ 10045ef4     era.obj
 0002:00007f04       ??_C@_0M@BPKMLENP@ShowMessage?$AA@ 10045f04     era.obj
 0002:00007f10       ??_C@_06DDHLBGDE@Splice?$AA@ 10045f10     era.obj
 0002:00007f18       ??_C@_0L@KMILMGPD@SplitMix32?$AA@ 10045f18     era.obj
 0002:00007f24       ??_C@_0M@OFFBOJCJ@ToStaticStr?$AA@ 10045f24     era.obj
 0002:00007f30       ??_C@_08JBJLPCGF@trStatic?$AA@ 10045f30     era.obj
 0002:00007f3c       ??_C@_06JCAFDHMM@trTemp?$AA@ 10045f3c     era.obj
 0002:00007f44       ??_C@_0M@CLLMHKFF@WriteAtCode?$AA@ 10045f44     era.obj
 0002:00007f50       ??_C@_0BF@HMHBLPO@WriteSavegameSection?$AA@ 10045f50     era.obj
 0002:00007f68       ??_C@_0O@POMBDOKD@WriteStrToIni?$AA@ 10045f68     era.obj
 0002:00007f78       ??_C@_0L@LNAOMCPJ@GetVersion?$AA@ 10045f78     era.obj
 0002:00007f84       ??_C@_02EOEPPNBF@tr?$AA@   10045f84     era.obj
 0002:00007f88       ??_C@_02DPKJAMEF@?$CFd?$AA@ 10045f88     era.obj
 0002:00007f8c       ??_C@_0BA@JFNIOLAK@string?5too?5long?$AA@ 10045f8c     era.obj
 0002:00007f9c       ??_C@_0BI@CFPLBAOH@invalid?5string?5position?$AA@ 10045f9c     era.obj
 0002:00007fb4       ??_C@_0BA@FDLNIKIG@patcher_x86?4dll?$AA@ 10045fb4     dllmain.obj
 0002:00007fc4       ??_C@_0BB@CKHJKIEB@_GetPatcherX86?$EA0?$AA@ 10045fc4     dllmain.obj
 0002:00007fd8       ??_C@_0CD@DOKMFMCP@EraPlugin?4ObjectsExtender?4daemon@ 10045fd8     dllmain.obj
 0002:00007ffc       ??_C@_02DKCKIIND@?$CFs?$AA@ 10045ffc     CreatureBanksExtender.obj
 0002:00008000       ??_C@_0CJ@IMEFFEIP@EraPlugin?4CreatureBanksExtender?4@ 10046000     CreatureBanksExtender.obj
 0002:0000802c       ??_C@_0M@IDEFNKHF@OnGameLeave?$AA@ 1004602c     CreatureBanksExtender.obj
 0002:00008038       ??_C@_0N@CMKJBHAK@LoopCave?4wav?$AA@ 10046038     CreatureBanksExtender.obj
 0002:00008048       ??_C@_0CF@KHMPFHLC@RMG?4objectGeneration?416?4?$CFd?4isEna@ 10046048     CreatureBanksExtender.obj
 0002:00008070       ??_C@_0CG@BMEHLDMP@RMG?4objectGeneration?416?4?$CFd?4sound@ 10046070     CreatureBanksExtender.obj
 0002:00008098       ??_C@_0CA@MEKELAEM@RMG?4objectGeneration?416?4?$CFd?4name?$AA@ 10046098     CreatureBanksExtender.obj
 0002:000080b8       ??_C@_0DI@LMBNEBAO@RMG?4objectGeneration?416?4?$CFd?4state@ 100460b8     CreatureBanksExtender.obj
 0002:000080f0       ??_C@_0DJ@GGKPMDGG@RMG?4objectGeneration?416?4?$CFd?4state@ 100460f0     CreatureBanksExtender.obj
 0002:0000812c       ??_C@_0CM@KLAPMINN@RMG?4objectGeneration?416?4?$CFd?4state@ 1004612c     CreatureBanksExtender.obj
 0002:00008158       ??_C@_0CN@NGCEOPGE@RMG?4objectGeneration?416?4?$CFd?4state@ 10046158     CreatureBanksExtender.obj
 0002:00008188       ??_C@_0DL@FDGGLCJE@RMG?4objectGeneration?416?4?$CFd?4state@ 10046188     CreatureBanksExtender.obj
 0002:000081c4       ??_C@_0DH@OFGCOACD@RMG?4objectGeneration?416?4?$CFd?4state@ 100461c4     CreatureBanksExtender.obj
 0002:000081fc       ??_C@_0DI@DNGDMCNN@RMG?4objectGeneration?416?4?$CFd?4state@ 100461fc     CreatureBanksExtender.obj
 0002:00008234       ??_C@_0DC@JOKGMFFL@RMG?4objectGeneration?416?4?$CFd?4state@ 10046234     CreatureBanksExtender.obj
 0002:00008268       ??_C@_0CF@LHKPNHIP@RMG?4objectGeneration?416?4?$CFd?4isNot@ 10046268     CreatureBanksExtender.obj
 0002:00008290       ??_C@_0BD@OLBABOEK@vector?$DMT?$DO?5too?5long?$AA@ 10046290     CreatureBanksExtender.obj
 0002:000082a8       ??_7CreatureBanksExtender@cbanks@@6B@ 100462a8     CreatureBanksExtender.obj
 0002:000082b4       ??_C@_0CD@HDGCDMOG@EraPlugin?4ShrinesExtender?4daemon@ 100462b4     ShrinesExternder.obj
 0002:000082d8       ??_C@_0CA@KBCALOHK@RMG?4objectGeneration?488?4?$CFd?4name?$AA@ 100462d8     ShrinesExternder.obj
 0002:000082fc       ??_7ShrinesExternder@shrines@@6B@ 100462fc     ShrinesExternder.obj
 0002:0000830c       ??_7WarehousesExtender@warehouses@@6B@ 1004630c     WarehousesExtender.obj
 0002:00008318       ??_C@_0CG@JLPFIJMD@EraPlugin?4WarehousesExtender?4dae@ 10046318     WarehousesExtender.obj
 0002:00008340       ??_C@_0BJ@KMGFKKNA@HD?4UI?4AdvMgr?4SkipMapMsgs?$AA@ 10046340     WarehousesExtender.obj
 0002:0000835c       ??_C@_04OMBFFHIC@?$HL?$CFs?$HN?$AA@ 1004635c     WarehousesExtender.obj
 0002:00008364       ??_C@_0CF@FPLPOOGM@RMG?4objectGeneration?4?$CFd?4text?4vis@ 10046364     WarehousesExtender.obj
 0002:0000838c       ??_C@_0CD@ILIKKJEH@RMG?4objectGeneration?4?$CFd?4text?4vis@ 1004638c     WarehousesExtender.obj
 0002:000083b0       ??_C@_04HDOCAJNK@?$CFs?$CFs?$AA@ 100463b0     WarehousesExtender.obj
 0002:000083b8       ??_C@_02PHMGELLB@?6?6?$AA@ 100463b8     WarehousesExtender.obj
 0002:000083bc       ??_C@_01CLKCMJKC@?5?$AA@   100463bc     WarehousesExtender.obj
 0002:000083c0       ??_C@_0CJ@ICHIANEC@RMG?4objectGeneration?4?$CFd?4?$CFd?4prope@ 100463c0     ObjectsExtender.obj
 0002:000083ec       ??_C@_0CB@DPHMAGM@RMG?4objectGeneration?4?$CFd?4?$CFd?4value@ 100463ec     ObjectsExtender.obj
 0002:00008410       ??_C@_0CD@LNKGBOIJ@RMG?4objectGeneration?4?$CFd?4?$CFd?4densi@ 10046410     ObjectsExtender.obj
 0002:00008434       ??_C@_0CH@CKHEKNML@RMG?4objectGeneration?4?$CFd?4?$CFd?4sound@ 10046434     ObjectsExtender.obj
 0002:0000845c       ??_C@_0CA@GHGKFBHA@RMG?4objectGeneration?4?$CFd?4?$CFd?4name?$AA@ 1004645c     ObjectsExtender.obj
 0002:0000847c       ??_C@_0BE@JONHPENG@map?1set?$DMT?$DO?5too?5long?$AA@ 1004647c     ObjectsExtender.obj
 0002:00008494       ??_7ObjectsExtender@extender@@6B@ 10046494     ObjectsExtender.obj
 0002:000084a0       ??_C@_0CL@BKBOHCBN@Runtime?1RMG_CustomizeObjectsProp@ 100464a0     RMGObjectsEditor.obj
 0002:000084cc       ??_C@_0CE@JNCCGFFC@EraPlugin?4RMG?4ObjectEditor?4daemo@ 100464cc     RMGObjectsEditor.obj
 0002:000084f0       ??_C@_07MHHIKOPA@enabled?$AA@ 100464f0     RMGObjectsEditor.obj
 0002:000084f8       ??_C@_03HBNNNHNM@map?$AA@  100464f8     RMGObjectsEditor.obj
 0002:000084fc       ??_C@_04LDDJGOBB@zone?$AA@ 100464fc     RMGObjectsEditor.obj
 0002:00008504       ??_C@_05MFEJDJP@value?$AA@ 10046504     RMGObjectsEditor.obj
 0002:0000850c       ??_C@_07HAFFKDBK@density?$AA@ 1004650c     RMGObjectsEditor.obj
 0002:00008514       ??_C@_0BL@MLLECAFL@RMG?4objectGeneration?4?$CFd?4?$CFs?$AA@ 10046514     RMGObjectsEditor.obj
 0002:00008530       ??_C@_0BO@JBNIKPAM@RMG?4objectGeneration?4?$CFd?4?$CFd?4?$CFs?$AA@ 10046530     RMGObjectsEditor.obj
 0002:00008550       ??_C@_08MHAGGLPG@?$CFd_?$CFd_?$CFd?$AA@ 10046550     RMGObjectsEditor.obj
 0002:0000855c       ??_C@_0N@OPCJEEAC@alwaysRandom?$AA@ 1004655c     RMGObjectsEditor.obj
 0002:0000856c       ??_C@_0M@IDKLKEPG@DlgSettings?$AA@ 1004656c     RMGObjectsEditor.obj
 0002:00008598       ??_7RMGObjectsEditor@editor@@6B@ 10046598     RMGObjectsEditor.obj
 0002:000085a4       ??_7?$_LaunchPad@V?$unique_ptr@V?$tuple@P6AXXZ@std@@U?$default_delete@V?$tuple@P6AXXZ@std@@@2@@std@@@std@@6B@ 100465a4     RMG_SettingsDlg.obj
 0002:000085ac       ??_7Page@RMG_SettingsDlg@rmgdlg@@6B@ 100465ac     RMG_SettingsDlg.obj
 0002:000085cc       ??_7MiscPage@RMG_SettingsDlg@rmgdlg@@6B@ 100465cc     RMG_SettingsDlg.obj
 0002:000085f0       ??_7H3Dlg@h3@@6B@          100465f0     RMG_SettingsDlg.obj
 0002:00008674       ??_7ObjectsPage@RMG_SettingsDlg@rmgdlg@@6B@ 10046674     RMG_SettingsDlg.obj
 0002:00008698       ??_7_Pad@std@@6B@          10046698     RMG_SettingsDlg.obj
 0002:000086a0       ??_7RMG_SettingsDlg@rmgdlg@@6B@ 100466a0     RMG_SettingsDlg.obj
 0002:00008728       ??_7ObjectsPanel@RMG_SettingsDlg@rmgdlg@@6B@ 10046728     RMG_SettingsDlg.obj
 0002:00008730       ??_7BanksPage@RMG_SettingsDlg@rmgdlg@@6B@ 10046730     RMG_SettingsDlg.obj
 0002:00008750       ??_C@_0N@IOPNELGI@RMG_back?4pcx?$AA@ 10046750     RMG_SettingsDlg.obj
 0002:00008760       ??_C@_0N@FCBEPOJK@RMG_cncl?4def?$AA@ 10046760     RMG_SettingsDlg.obj
 0002:00008770       ??_C@_06JDKABGKH@cancel?$AA@ 10046770     RMG_SettingsDlg.obj
 0002:00008778       ??_C@_0N@DIEEIBOL@RMG_okay?4def?$AA@ 10046778     RMG_SettingsDlg.obj
 0002:00008788       ??_C@_02MFDMBIJM@ok?$AA@   10046788     RMG_SettingsDlg.obj
 0002:0000878c       ??_C@_0N@PMFNHIPJ@RMG_dflt?4def?$AA@ 1004678c     RMG_SettingsDlg.obj
 0002:0000879c       ??_C@_07DLHCIBDH@default?$AA@ 1004679c     RMG_SettingsDlg.obj
 0002:000087a4       ??_C@_0M@LFBJAHMC@RanRand?4def?$AA@ 100467a4     RMG_SettingsDlg.obj
 0002:000087b0       ??_C@_06NLFCANPD@random?$AA@ 100467b0     RMG_SettingsDlg.obj
 0002:000087b8       ??_C@_0N@PHHMOBI@RMG_help?4def?$AA@ 100467b8     RMG_SettingsDlg.obj
 0002:000087c8       ??_C@_04PCJFHION@help?$AA@ 100467c8     RMG_SettingsDlg.obj
 0002:000087d0       ??_C@_0BM@PLGPGLFG@RMG?4text?4dlg?4buttons?4?$CFs?4rmc?$AA@ 100467d0     RMG_SettingsDlg.obj
 0002:000087ec       ??_C@_0BN@GEEKKMHP@RMG?4text?4dlg?4buttons?4?$CFs?4hint?$AA@ 100467ec     RMG_SettingsDlg.obj
 0002:0000880c       ??_C@_0BL@PGFBCEPO@RMG?4text?4dlg?4pages?4?$CFd?4name?$AA@ 1004680c     RMG_SettingsDlg.obj
 0002:00008828       ??_C@_0N@EPKFOFH@RMGmenbt?4def?$AA@ 10046828     RMG_SettingsDlg.obj
 0002:00008838       ??_C@_0BK@FIIMAMMP@RMG?4text?4dlg?4pages?4?$CFd?4rmc?$AA@ 10046838     RMG_SettingsDlg.obj
 0002:00008854       ??_C@_0BL@ONDKGEPI@RMG?4text?4dlg?4pages?4?$CFd?4hint?$AA@ 10046854     RMG_SettingsDlg.obj
 0002:00008870       ??_C@_0N@HJMAFJEP@rmghntbr?4pcx?$AA@ 10046870     RMG_SettingsDlg.obj
 0002:00008880       ??_C@_0BP@OHJKPKFO@RMG?4text?4dlg?4buttons?4help?4help?$AA@ 10046880     RMG_SettingsDlg.obj
 0002:000088a0       ??_C@_0BL@MAAEMKCK@RMG?4text?4dlg?4pages?4?$CFd?4help?$AA@ 100468a0     RMG_SettingsDlg.obj
 0002:000088bc       ??_C@_0BM@HILNFCFM@RMG?4text?4dlg?4notImplemented?$AA@ 100468bc     RMG_SettingsDlg.obj
 0002:000088d8       ??_C@_0BG@OALOHHGG@RMG?4text?4dlg?4iniError?$AA@ 100468d8     RMG_SettingsDlg.obj
 0002:000088f0       ??_C@_0L@KIOKMEBA@lastPageId?$AA@ 100468f0     RMG_SettingsDlg.obj
 0002:000088fc       ??_C@_0N@KKELLMCE@RMG_chbx?4def?$AA@ 100468fc     RMG_SettingsDlg.obj
 0002:0000890c       ??_C@_0CH@FDIOKPGC@RMG?4text?4dlg?4objectPanel?4checkbo@ 1004690c     RMG_SettingsDlg.obj
 0002:00008934       ??_C@_0N@PEIMMHMF@RMG_edit?4pcx?$AA@ 10046934     RMG_SettingsDlg.obj
 0002:00008944       ??_C@_0BC@EIKHJJKL@?$HL?$HO?$DO?$CFs?30?3?$CFd?5block?$HN?$AA@ 10046944     RMG_SettingsDlg.obj
 0002:00008958       ??_C@_08GAJBFAKI@?5?$CI?$CFd?1?$CFd?$CJ?$AA@ 10046958     RMG_SettingsDlg.obj
 0002:00008964       ??_C@_0BM@EAMBDDNG@RMG?4text?4dlg?4header?4?$CFd?4name?$AA@ 10046964     RMG_SettingsDlg.obj
 0002:00008980       ??_C@_07JMKCEEPK@?$CFs?5?$CI?$CFd?$CJ?$AA@ 10046980     RMG_SettingsDlg.obj
 0002:00008988       ??_C@_0BL@KOLGBJPA@RMG?4text?4dlg?4header?4?$CFd?4rmc?$AA@ 10046988     RMG_SettingsDlg.obj
 0002:000089a4       ??_C@_0BM@FLKKHDNA@RMG?4text?4dlg?4header?4?$CFd?4hint?$AA@ 100469a4     RMG_SettingsDlg.obj
 0002:000089c0       ??_C@_0BN@GOJDLJNJ@RMG?4text?4buttons?4random?4help?$AA@ 100469c0     RMG_SettingsDlg.obj
 0002:000089e0       ??_C@_0P@PFNDCDKB@RMG?4text?4title?$AA@ 100469e0     RMG_SettingsDlg.obj
 0002:000089f0       ??_C@_0BM@LFAKAJM@RMG?4text?4buttons?4setup?4name?$AA@ 100469f0     RMG_SettingsDlg.obj
 0002:00008a0c       ??_C@_0BL@DLPBBENF@RMG?4text?4buttons?4setup?4rmc?$AA@ 10046a0c     RMG_SettingsDlg.obj
 0002:00008a28       ??_C@_0BM@BOJFLFCH@RMG?4text?4buttons?4random?4rmc?$AA@ 10046a28     RMG_SettingsDlg.obj
 0002:00008a44       ??_C@_0L@HPIELNIB@HD_WOG?4dll?$AA@ 10046a44     RMG_SettingsDlg.obj
 0002:00008a50       __real@3fc5555555555555    10046a50     DrawPcx16ResizedBicubic.obj
 0002:00008a58       __real@3fe0000000000000    10046a58     DrawPcx16ResizedBicubic.obj
 0002:00008a60       __real@3ff0000000000000    10046a60     DrawPcx16ResizedBicubic.obj
 0002:00008a68       __real@4000000000000000    10046a68     DrawPcx16ResizedBicubic.obj
 0002:00008a70       __real@4010000000000000    10046a70     DrawPcx16ResizedBicubic.obj
 0002:00008a78       __real@4018000000000000    10046a78     DrawPcx16ResizedBicubic.obj
 0002:00008a80       __real@4046000000000000    10046a80     RMG_SettingsDlg.obj
 0002:00008a90       __xmm@00000000000000000000000000000023 10046a90     RMG_SettingsDlg.obj
 0002:00008aa0       __xmm@00000000000000010000000000000013 10046aa0     RMG_SettingsDlg.obj
 0002:00008ab0       __xmm@00000000000000010000000000000020 10046ab0     RMG_SettingsDlg.obj
 0002:00008ac0       __xmm@00000000000000010000001f00000001 10046ac0     RMG_SettingsDlg.obj
 0002:00008ad0       __xmm@0000000000000001000000390000001c 10046ad0     RMG_SettingsDlg.obj
 0002:00008ae0       __xmm@00000005000000050000001400000010 10046ae0     RMG_SettingsDlg.obj
 0002:00008af0       __xmm@0000000e0000005e000000400000001c 10046af0     RMG_SettingsDlg.obj
 0002:00008b00       __xmm@00000020000000170000000a00000004 10046b00     RMG_SettingsDlg.obj
 0002:00008b10       __xmm@00000038000000230000000700000039 10046b10     RMG_SettingsDlg.obj
 0002:00008b20       __xmm@0000004100000041000000ee00000041 10046b20     RMG_SettingsDlg.obj
 0002:00008b30       __xmm@00000051000000260000006b00000066 10046b30     RMG_SettingsDlg.obj
 0002:00008b40       __xmm@00000054000000190000001800000010 10046b40     RMG_SettingsDlg.obj
 0002:00008b50       __xmm@0000005a000000580000005900000037 10046b50     RMG_SettingsDlg.obj
 0002:00008b60       __xmm@000000640000003d000000330000002f 10046b60     RMG_SettingsDlg.obj
 0002:00008b70       __xmm@00000068000000310000002900000071 10046b70     RMG_SettingsDlg.obj
 0002:00008b80       __xmm@0000006d000000700000003c0000003a 10046b80     RMG_SettingsDlg.obj
 0002:00008b90       __xmm@0000006e00000061000000600000005c 10046b90     RMG_SettingsDlg.obj
 0002:00008ba0       __xmm@000001c20000015e0000005800000014 10046ba0     RMG_SettingsDlg.obj
 0002:00008bb0       __xmm@41f00000000000000000000000000000 10046bb0     DrawPcx16ResizedBicubic.obj
 0002:00008c30       __load_config_used         10046c30     LIBCMT:loadcfg.obj
 0002:00008c8c       __tls_used                 10046c8c     LIBCMT:tlssup.obj
 0002:00008ca4       ??_R4exception@std@@6B@    10046ca4     libcpmt:xthrow.obj
 0002:00008cb8       ??_R3exception@std@@8      10046cb8     libcpmt:xthrow.obj
 0002:00008cc8       ??_R2exception@std@@8      10046cc8     libcpmt:xthrow.obj
 0002:00008cd0       ??_R1A@?0A@EA@exception@std@@8 10046cd0     libcpmt:xthrow.obj
 0002:00008cec       ??_R4bad_alloc@std@@6B@    10046cec     libcpmt:xthrow.obj
 0002:00008d00       ??_R3bad_alloc@std@@8      10046d00     libcpmt:xthrow.obj
 0002:00008d10       ??_R2bad_alloc@std@@8      10046d10     libcpmt:xthrow.obj
 0002:00008d1c       ??_R1A@?0A@EA@bad_alloc@std@@8 10046d1c     libcpmt:xthrow.obj
 0002:00008d38       ??_R4logic_error@std@@6B@  10046d38     libcpmt:xthrow.obj
 0002:00008d4c       ??_R3logic_error@std@@8    10046d4c     libcpmt:xthrow.obj
 0002:00008d5c       ??_R2logic_error@std@@8    10046d5c     libcpmt:xthrow.obj
 0002:00008d68       ??_R1A@?0A@EA@logic_error@std@@8 10046d68     libcpmt:xthrow.obj
 0002:00008d84       ??_R4invalid_argument@std@@6B@ 10046d84     libcpmt:xthrow.obj
 0002:00008d98       ??_R3invalid_argument@std@@8 10046d98     libcpmt:xthrow.obj
 0002:00008da8       ??_R2invalid_argument@std@@8 10046da8     libcpmt:xthrow.obj
 0002:00008db8       ??_R1A@?0A@EA@invalid_argument@std@@8 10046db8     libcpmt:xthrow.obj
 0002:00008dd4       ??_R4length_error@std@@6B@ 10046dd4     libcpmt:xthrow.obj
 0002:00008de8       ??_R3length_error@std@@8   10046de8     libcpmt:xthrow.obj
 0002:00008df8       ??_R2length_error@std@@8   10046df8     libcpmt:xthrow.obj
 0002:00008e08       ??_R1A@?0A@EA@length_error@std@@8 10046e08     libcpmt:xthrow.obj
 0002:00008e24       ??_R4out_of_range@std@@6B@ 10046e24     libcpmt:xthrow.obj
 0002:00008e38       ??_R3out_of_range@std@@8   10046e38     libcpmt:xthrow.obj
 0002:00008e48       ??_R2out_of_range@std@@8   10046e48     libcpmt:xthrow.obj
 0002:00008e58       ??_R1A@?0A@EA@out_of_range@std@@8 10046e58     libcpmt:xthrow.obj
 0002:00008e74       ??_R4runtime_error@std@@6B@ 10046e74     libcpmt:xthrow.obj
 0002:00008e88       ??_R3runtime_error@std@@8  10046e88     libcpmt:xthrow.obj
 0002:00008e98       ??_R2runtime_error@std@@8  10046e98     libcpmt:xthrow.obj
 0002:00008ea4       ??_R1A@?0A@EA@runtime_error@std@@8 10046ea4     libcpmt:xthrow.obj
 0002:00008ec0       ??_R3stl_condition_variable_interface@details@Concurrency@@8 10046ec0     libcpmt:cond.obj
 0002:00008ed0       ??_R2stl_condition_variable_interface@details@Concurrency@@8 10046ed0     libcpmt:cond.obj
 0002:00008ed8       ??_R1A@?0A@EA@stl_condition_variable_interface@details@Concurrency@@8 10046ed8     libcpmt:cond.obj
 0002:00008ef4       ??_R4stl_condition_variable_vista@details@Concurrency@@6B@ 10046ef4     libcpmt:cond.obj
 0002:00008f08       ??_R3stl_condition_variable_vista@details@Concurrency@@8 10046f08     libcpmt:cond.obj
 0002:00008f18       ??_R2stl_condition_variable_vista@details@Concurrency@@8 10046f18     libcpmt:cond.obj
 0002:00008f24       ??_R1A@?0A@EA@stl_condition_variable_vista@details@Concurrency@@8 10046f24     libcpmt:cond.obj
 0002:00008f40       ??_R4stl_condition_variable_win7@details@Concurrency@@6B@ 10046f40     libcpmt:cond.obj
 0002:00008f54       ??_R3stl_condition_variable_win7@details@Concurrency@@8 10046f54     libcpmt:cond.obj
 0002:00008f64       ??_R2stl_condition_variable_win7@details@Concurrency@@8 10046f64     libcpmt:cond.obj
 0002:00008f70       ??_R1A@?0A@EA@stl_condition_variable_win7@details@Concurrency@@8 10046f70     libcpmt:cond.obj
 0002:00008f8c       ??_R4stl_condition_variable_concrt@details@Concurrency@@6B@ 10046f8c     libcpmt:cond.obj
 0002:00008fa0       ??_R3stl_condition_variable_concrt@details@Concurrency@@8 10046fa0     libcpmt:cond.obj
 0002:00008fb0       ??_R2stl_condition_variable_concrt@details@Concurrency@@8 10046fb0     libcpmt:cond.obj
 0002:00008fbc       ??_R1A@?0A@EA@stl_condition_variable_concrt@details@Concurrency@@8 10046fbc     libcpmt:cond.obj
 0002:00008fd8       ??_R4error_category@std@@6B@ 10046fd8     libcpmt:thread0.obj
 0002:00008fec       ??_R3error_category@std@@8 10046fec     libcpmt:thread0.obj
 0002:00008ffc       ??_R2error_category@std@@8 10046ffc     libcpmt:thread0.obj
 0002:00009004       ??_R1A@?0A@EA@error_category@std@@8 10047004     libcpmt:thread0.obj
 0002:00009020       ??_R4_System_error@std@@6B@ 10047020     libcpmt:thread0.obj
 0002:00009034       ??_R3_System_error@std@@8  10047034     libcpmt:thread0.obj
 0002:00009044       ??_R2_System_error@std@@8  10047044     libcpmt:thread0.obj
 0002:00009054       ??_R1A@?0A@EA@_System_error@std@@8 10047054     libcpmt:thread0.obj
 0002:00009070       ??_R4system_error@std@@6B@ 10047070     libcpmt:thread0.obj
 0002:00009084       ??_R3system_error@std@@8   10047084     libcpmt:thread0.obj
 0002:00009094       ??_R2system_error@std@@8   10047094     libcpmt:thread0.obj
 0002:000090a8       ??_R1A@?0A@EA@system_error@std@@8 100470a8     libcpmt:thread0.obj
 0002:000090c4       ??_R4_Generic_error_category@std@@6B@ 100470c4     libcpmt:thread0.obj
 0002:000090d8       ??_R3_Generic_error_category@std@@8 100470d8     libcpmt:thread0.obj
 0002:000090e8       ??_R2_Generic_error_category@std@@8 100470e8     libcpmt:thread0.obj
 0002:000090f4       ??_R1A@?0A@EA@_Generic_error_category@std@@8 100470f4     libcpmt:thread0.obj
 0002:00009110       ??_R3stl_critical_section_interface@details@Concurrency@@8 10047110     libcpmt:mutex.obj
 0002:00009120       ??_R2stl_critical_section_interface@details@Concurrency@@8 10047120     libcpmt:mutex.obj
 0002:00009128       ??_R1A@?0A@EA@stl_critical_section_interface@details@Concurrency@@8 10047128     libcpmt:mutex.obj
 0002:00009144       ??_R4stl_critical_section_vista@details@Concurrency@@6B@ 10047144     libcpmt:mutex.obj
 0002:00009158       ??_R3stl_critical_section_vista@details@Concurrency@@8 10047158     libcpmt:mutex.obj
 0002:00009168       ??_R2stl_critical_section_vista@details@Concurrency@@8 10047168     libcpmt:mutex.obj
 0002:00009174       ??_R1A@?0A@EA@stl_critical_section_vista@details@Concurrency@@8 10047174     libcpmt:mutex.obj
 0002:00009190       ??_R4stl_critical_section_win7@details@Concurrency@@6B@ 10047190     libcpmt:mutex.obj
 0002:000091a4       ??_R3stl_critical_section_win7@details@Concurrency@@8 100471a4     libcpmt:mutex.obj
 0002:000091b4       ??_R2stl_critical_section_win7@details@Concurrency@@8 100471b4     libcpmt:mutex.obj
 0002:000091c0       ??_R1A@?0A@EA@stl_critical_section_win7@details@Concurrency@@8 100471c0     libcpmt:mutex.obj
 0002:000091dc       ??_R4stl_critical_section_concrt@details@Concurrency@@6B@ 100471dc     libcpmt:mutex.obj
 0002:000091f0       ??_R3stl_critical_section_concrt@details@Concurrency@@8 100471f0     libcpmt:mutex.obj
 0002:00009200       ??_R2stl_critical_section_concrt@details@Concurrency@@8 10047200     libcpmt:mutex.obj
 0002:0000920c       ??_R1A@?0A@EA@stl_critical_section_concrt@details@Concurrency@@8 1004720c     libcpmt:mutex.obj
 0002:00009228       ??_R4type_info@@6B@        10047228     LIBCMT:std_type_info_static.obj
 0002:0000923c       ??_R3type_info@@8          1004723c     LIBCMT:std_type_info_static.obj
 0002:0000924c       ??_R2type_info@@8          1004724c     LIBCMT:std_type_info_static.obj
 0002:00009254       ??_R1A@?0A@EA@type_info@@8 10047254     LIBCMT:std_type_info_static.obj
 0002:00009270       ??_R4bad_array_new_length@std@@6B@ 10047270     LIBCMT:throw_bad_alloc.obj
 0002:00009284       ??_R3bad_array_new_length@std@@8 10047284     LIBCMT:throw_bad_alloc.obj
 0002:00009294       ??_R2bad_array_new_length@std@@8 10047294     LIBCMT:throw_bad_alloc.obj
 0002:000092a4       ??_R1A@?0A@EA@bad_array_new_length@std@@8 100472a4     LIBCMT:throw_bad_alloc.obj
 0002:000092c0       ??_R4WaitBlock@details@Concurrency@@6B@ 100472c0     libconcrt:event.obj
 0002:000092d4       ??_R3WaitBlock@details@Concurrency@@8 100472d4     libconcrt:event.obj
 0002:000092e4       ??_R2WaitBlock@details@Concurrency@@8 100472e4     libconcrt:event.obj
 0002:000092ec       ??_R1A@?0A@EA@WaitBlock@details@Concurrency@@8 100472ec     libconcrt:event.obj
 0002:00009308       ??_R4SingleWaitBlock@details@Concurrency@@6B@ 10047308     libconcrt:event.obj
 0002:0000931c       ??_R3SingleWaitBlock@details@Concurrency@@8 1004731c     libconcrt:event.obj
 0002:0000932c       ??_R2SingleWaitBlock@details@Concurrency@@8 1004732c     libconcrt:event.obj
 0002:00009338       ??_R1A@?0A@EA@SingleWaitBlock@details@Concurrency@@8 10047338     libconcrt:event.obj
 0002:00009354       ??_R4MultiWaitBlock@details@Concurrency@@6B@ 10047354     libconcrt:event.obj
 0002:00009368       ??_R3MultiWaitBlock@details@Concurrency@@8 10047368     libconcrt:event.obj
 0002:00009378       ??_R2MultiWaitBlock@details@Concurrency@@8 10047378     libconcrt:event.obj
 0002:00009384       ??_R1A@?0A@EA@MultiWaitBlock@details@Concurrency@@8 10047384     libconcrt:event.obj
 0002:000093a0       ??_R4WaitAllBlock@details@Concurrency@@6B@ 100473a0     libconcrt:event.obj
 0002:000093b4       ??_R3WaitAllBlock@details@Concurrency@@8 100473b4     libconcrt:event.obj
 0002:000093c4       ??_R2WaitAllBlock@details@Concurrency@@8 100473c4     libconcrt:event.obj
 0002:000093d4       ??_R1A@?0A@EA@WaitAllBlock@details@Concurrency@@8 100473d4     libconcrt:event.obj
 0002:000093f0       ??_R4WaitAnyBlock@details@Concurrency@@6B@ 100473f0     libconcrt:event.obj
 0002:00009404       ??_R3WaitAnyBlock@details@Concurrency@@8 10047404     libconcrt:event.obj
 0002:00009414       ??_R2WaitAnyBlock@details@Concurrency@@8 10047414     libconcrt:event.obj
 0002:00009424       ??_R1A@?0A@EA@WaitAnyBlock@details@Concurrency@@8 10047424     libconcrt:event.obj
 0002:00009440       ??_R4TimedSingleWaitBlock@details@Concurrency@@6B@ 10047440     libconcrt:event.obj
 0002:00009454       ??_R3TimedSingleWaitBlock@details@Concurrency@@8 10047454     libconcrt:event.obj
 0002:00009464       ??_R2TimedSingleWaitBlock@details@Concurrency@@8 10047464     libconcrt:event.obj
 0002:00009474       ??_R1A@?0A@EA@TimedSingleWaitBlock@details@Concurrency@@8 10047474     libconcrt:event.obj
 0002:00009490       ??_R4?$_MallocaArrayHolder@PAVContext@Concurrency@@@details@Concurrency@@6B@ 10047490     libconcrt:event.obj
 0002:000094a4       ??_R3?$_MallocaArrayHolder@PAVContext@Concurrency@@@details@Concurrency@@8 100474a4     libconcrt:event.obj
 0002:000094b4       ??_R2?$_MallocaArrayHolder@PAVContext@Concurrency@@@details@Concurrency@@8 100474b4     libconcrt:event.obj
 0002:000094bc       ??_R1A@?0A@EA@?$_MallocaArrayHolder@PAVContext@Concurrency@@@details@Concurrency@@8 100474bc     libconcrt:event.obj
 0002:000094d8       ??_R4improper_lock@Concurrency@@6B@ 100474d8     libconcrt:rtlocks.obj
 0002:000094ec       ??_R3improper_lock@Concurrency@@8 100474ec     libconcrt:rtlocks.obj
 0002:000094fc       ??_R2improper_lock@Concurrency@@8 100474fc     libconcrt:rtlocks.obj
 0002:00009508       ??_R1A@?0A@EA@improper_lock@Concurrency@@8 10047508     libconcrt:rtlocks.obj
 0002:00009524       ??_R4scheduler_resource_allocation_error@Concurrency@@6B@ 10047524     libconcrt:Platform.obj
 0002:00009538       ??_R3scheduler_resource_allocation_error@Concurrency@@8 10047538     libconcrt:Platform.obj
 0002:00009548       ??_R2scheduler_resource_allocation_error@Concurrency@@8 10047548     libconcrt:Platform.obj
 0002:00009554       ??_R1A@?0A@EA@scheduler_resource_allocation_error@Concurrency@@8 10047554     libconcrt:Platform.obj
 0002:00009570       ??_R4ResourceManager@details@Concurrency@@6B@ 10047570     libconcrt:ResourceManager.obj
 0002:00009584       ??_R3ResourceManager@details@Concurrency@@8 10047584     libconcrt:ResourceManager.obj
 0002:00009594       ??_R2ResourceManager@details@Concurrency@@8 10047594     libconcrt:ResourceManager.obj
 0002:000095a0       ??_R1A@?0A@EA@ResourceManager@details@Concurrency@@8 100475a0     libconcrt:ResourceManager.obj
 0002:000095bc       ??_R1A@?0A@EA@IResourceManager@Concurrency@@8 100475bc     libconcrt:ResourceManager.obj
 0002:000095d8       ??_R3IResourceManager@Concurrency@@8 100475d8     libconcrt:ResourceManager.obj
 0002:000095e8       ??_R2IResourceManager@Concurrency@@8 100475e8     libconcrt:ResourceManager.obj
 0002:000095f0       ??_R4invalid_operation@Concurrency@@6B@ 100475f0     libconcrt:ResourceManager.obj
 0002:00009604       ??_R3invalid_operation@Concurrency@@8 10047604     libconcrt:ResourceManager.obj
 0002:00009614       ??_R2invalid_operation@Concurrency@@8 10047614     libconcrt:ResourceManager.obj
 0002:00009620       ??_R1A@?0A@EA@invalid_operation@Concurrency@@8 10047620     libconcrt:ResourceManager.obj
 0002:0000963c       ??_R4unsupported_os@Concurrency@@6B@ 1004763c     libconcrt:ResourceManager.obj
 0002:00009650       ??_R3unsupported_os@Concurrency@@8 10047650     libconcrt:ResourceManager.obj
 0002:00009660       ??_R2unsupported_os@Concurrency@@8 10047660     libconcrt:ResourceManager.obj
 0002:0000966c       ??_R1A@?0A@EA@unsupported_os@Concurrency@@8 1004766c     libconcrt:ResourceManager.obj
 0002:00009688       ??_R3ITopologyExecutionResource@Concurrency@@8 10047688     libconcrt:ResourceManager.obj
 0002:00009698       ??_R2ITopologyExecutionResource@Concurrency@@8 10047698     libconcrt:ResourceManager.obj
 0002:000096a0       ??_R1A@?0A@EA@ITopologyExecutionResource@Concurrency@@8 100476a0     libconcrt:ResourceManager.obj
 0002:000096bc       ??_R3ITopologyNode@Concurrency@@8 100476bc     libconcrt:ResourceManager.obj
 0002:000096cc       ??_R2ITopologyNode@Concurrency@@8 100476cc     libconcrt:ResourceManager.obj
 0002:000096d4       ??_R1A@?0A@EA@ITopologyNode@Concurrency@@8 100476d4     libconcrt:ResourceManager.obj
 0002:000096f0       ??_R4TopologyObject@GlobalCore@details@Concurrency@@6B@ 100476f0     libconcrt:ResourceManager.obj
 0002:00009704       ??_R3TopologyObject@GlobalCore@details@Concurrency@@8 10047704     libconcrt:ResourceManager.obj
 0002:00009714       ??_R2TopologyObject@GlobalCore@details@Concurrency@@8 10047714     libconcrt:ResourceManager.obj
 0002:00009720       ??_R1A@?0A@EA@TopologyObject@GlobalCore@details@Concurrency@@8 10047720     libconcrt:ResourceManager.obj
 0002:0000973c       ??_R4TopologyObject@GlobalNode@details@Concurrency@@6B@ 1004773c     libconcrt:ResourceManager.obj
 0002:00009750       ??_R3TopologyObject@GlobalNode@details@Concurrency@@8 10047750     libconcrt:ResourceManager.obj
 0002:00009760       ??_R2TopologyObject@GlobalNode@details@Concurrency@@8 10047760     libconcrt:ResourceManager.obj
 0002:0000976c       ??_R1A@?0A@EA@TopologyObject@GlobalNode@details@Concurrency@@8 1004776c     libconcrt:ResourceManager.obj
 0002:00009788       ??_R3ScheduleGroupBase@details@Concurrency@@8 10047788     libconcrt:SchedulerBase.obj
 0002:00009798       ??_R2ScheduleGroupBase@details@Concurrency@@8 10047798     libconcrt:SchedulerBase.obj
 0002:000097a4       ??_R1A@?0A@EA@ScheduleGroupBase@details@Concurrency@@8 100477a4     libconcrt:SchedulerBase.obj
 0002:000097c0       ??_R1A@?0A@EA@ScheduleGroup@Concurrency@@8 100477c0     libconcrt:SchedulerBase.obj
 0002:000097dc       ??_R3ScheduleGroup@Concurrency@@8 100477dc     libconcrt:SchedulerBase.obj
 0002:000097ec       ??_R2ScheduleGroup@Concurrency@@8 100477ec     libconcrt:SchedulerBase.obj
 0002:000097f4       ??_R4CacheLocalScheduleGroup@details@Concurrency@@6B@ 100477f4     libconcrt:SchedulerBase.obj
 0002:00009808       ??_R3CacheLocalScheduleGroup@details@Concurrency@@8 10047808     libconcrt:SchedulerBase.obj
 0002:00009818       ??_R2CacheLocalScheduleGroup@details@Concurrency@@8 10047818     libconcrt:SchedulerBase.obj
 0002:00009828       ??_R1A@?0A@EA@CacheLocalScheduleGroup@details@Concurrency@@8 10047828     libconcrt:SchedulerBase.obj
 0002:00009844       ??_R4FairScheduleGroup@details@Concurrency@@6B@ 10047844     libconcrt:SchedulerBase.obj
 0002:00009858       ??_R3FairScheduleGroup@details@Concurrency@@8 10047858     libconcrt:SchedulerBase.obj
 0002:00009868       ??_R2FairScheduleGroup@details@Concurrency@@8 10047868     libconcrt:SchedulerBase.obj
 0002:00009878       ??_R1A@?0A@EA@FairScheduleGroup@details@Concurrency@@8 10047878     libconcrt:SchedulerBase.obj
 0002:00009894       ??_R4SchedulerBase@details@Concurrency@@6B@ 10047894     libconcrt:SchedulerBase.obj
 0002:000098a8       ??_R3SchedulerBase@details@Concurrency@@8 100478a8     libconcrt:SchedulerBase.obj
 0002:000098b8       ??_R2SchedulerBase@details@Concurrency@@8 100478b8     libconcrt:SchedulerBase.obj
 0002:000098c4       ??_R1A@?0A@EA@SchedulerBase@details@Concurrency@@8 100478c4     libconcrt:SchedulerBase.obj
 0002:000098e0       ??_R1A@?0A@EA@Scheduler@Concurrency@@8 100478e0     libconcrt:SchedulerBase.obj
 0002:000098fc       ??_R3Scheduler@Concurrency@@8 100478fc     libconcrt:SchedulerBase.obj
 0002:0000990c       ??_R2Scheduler@Concurrency@@8 1004790c     libconcrt:SchedulerBase.obj
 0002:00009914       ??_R1A@?0A@EA@_Chore@details@Concurrency@@8 10047914     libconcrt:SchedulerBase.obj
 0002:00009930       ??_R3_Chore@details@Concurrency@@8 10047930     libconcrt:SchedulerBase.obj
 0002:00009940       ??_R2_Chore@details@Concurrency@@8 10047940     libconcrt:SchedulerBase.obj
 0002:00009948       ??_R4Scheduler@Concurrency@@6B@ 10047948     libconcrt:SchedulerBase.obj
 0002:0000995c       ??_R4ScheduleGroup@Concurrency@@6B@ 1004795c     libconcrt:SchedulerBase.obj
 0002:00009970       ??_R4improper_scheduler_attach@Concurrency@@6B@ 10047970     libconcrt:SchedulerBase.obj
 0002:00009984       ??_R3improper_scheduler_attach@Concurrency@@8 10047984     libconcrt:SchedulerBase.obj
 0002:00009994       ??_R2improper_scheduler_attach@Concurrency@@8 10047994     libconcrt:SchedulerBase.obj
 0002:000099a0       ??_R1A@?0A@EA@improper_scheduler_attach@Concurrency@@8 100479a0     libconcrt:SchedulerBase.obj
 0002:000099bc       ??_R4improper_scheduler_reference@Concurrency@@6B@ 100479bc     libconcrt:SchedulerBase.obj
 0002:000099d0       ??_R3improper_scheduler_reference@Concurrency@@8 100479d0     libconcrt:SchedulerBase.obj
 0002:000099e0       ??_R2improper_scheduler_reference@Concurrency@@8 100479e0     libconcrt:SchedulerBase.obj
 0002:000099ec       ??_R1A@?0A@EA@improper_scheduler_reference@Concurrency@@8 100479ec     libconcrt:SchedulerBase.obj
 0002:00009a08       ??_R4_Chore@details@Concurrency@@6B@ 10047a08     libconcrt:SchedulerBase.obj
 0002:00009a1c       ??_R4RealizedChore@details@Concurrency@@6B@ 10047a1c     libconcrt:SchedulerBase.obj
 0002:00009a30       ??_R3RealizedChore@details@Concurrency@@8 10047a30     libconcrt:SchedulerBase.obj
 0002:00009a40       ??_R2RealizedChore@details@Concurrency@@8 10047a40     libconcrt:SchedulerBase.obj
 0002:00009a4c       ??_R1A@?0A@EA@RealizedChore@details@Concurrency@@8 10047a4c     libconcrt:SchedulerBase.obj
 0002:00009a68       ??_R4CacheLocalScheduleGroupSegment@details@Concurrency@@6B@ 10047a68     libconcrt:SchedulerBase.obj
 0002:00009a7c       ??_R3CacheLocalScheduleGroupSegment@details@Concurrency@@8 10047a7c     libconcrt:SchedulerBase.obj
 0002:00009a8c       ??_R2CacheLocalScheduleGroupSegment@details@Concurrency@@8 10047a8c     libconcrt:SchedulerBase.obj
 0002:00009a98       ??_R1A@?0A@EA@CacheLocalScheduleGroupSegment@details@Concurrency@@8 10047a98     libconcrt:SchedulerBase.obj
 0002:00009ab4       ??_R1A@?0A@EA@ScheduleGroupSegmentBase@details@Concurrency@@8 10047ab4     libconcrt:SchedulerBase.obj
 0002:00009ad0       ??_R3ScheduleGroupSegmentBase@details@Concurrency@@8 10047ad0     libconcrt:SchedulerBase.obj
 0002:00009ae0       ??_R2ScheduleGroupSegmentBase@details@Concurrency@@8 10047ae0     libconcrt:SchedulerBase.obj
 0002:00009ae8       ??_R4FairScheduleGroupSegment@details@Concurrency@@6B@ 10047ae8     libconcrt:SchedulerBase.obj
 0002:00009afc       ??_R3FairScheduleGroupSegment@details@Concurrency@@8 10047afc     libconcrt:SchedulerBase.obj
 0002:00009b0c       ??_R2FairScheduleGroupSegment@details@Concurrency@@8 10047b0c     libconcrt:SchedulerBase.obj
 0002:00009b18       ??_R1A@?0A@EA@FairScheduleGroupSegment@details@Concurrency@@8 10047b18     libconcrt:SchedulerBase.obj
 0002:00009b34       ??_R4scheduler_worker_creation_error@Concurrency@@6B@ 10047b34     libconcrt:Exceptions.obj
 0002:00009b48       ??_R3scheduler_worker_creation_error@Concurrency@@8 10047b48     libconcrt:Exceptions.obj
 0002:00009b58       ??_R2scheduler_worker_creation_error@Concurrency@@8 10047b58     libconcrt:Exceptions.obj
 0002:00009b68       ??_R1A@?0A@EA@scheduler_worker_creation_error@Concurrency@@8 10047b68     libconcrt:Exceptions.obj
 0002:00009b84       ??_R4context_unblock_unbalanced@Concurrency@@6B@ 10047b84     libconcrt:Exceptions.obj
 0002:00009b98       ??_R3context_unblock_unbalanced@Concurrency@@8 10047b98     libconcrt:Exceptions.obj
 0002:00009ba8       ??_R2context_unblock_unbalanced@Concurrency@@8 10047ba8     libconcrt:Exceptions.obj
 0002:00009bb4       ??_R1A@?0A@EA@context_unblock_unbalanced@Concurrency@@8 10047bb4     libconcrt:Exceptions.obj
 0002:00009bd0       ??_R4context_self_unblock@Concurrency@@6B@ 10047bd0     libconcrt:Exceptions.obj
 0002:00009be4       ??_R3context_self_unblock@Concurrency@@8 10047be4     libconcrt:Exceptions.obj
 0002:00009bf4       ??_R2context_self_unblock@Concurrency@@8 10047bf4     libconcrt:Exceptions.obj
 0002:00009c00       ??_R1A@?0A@EA@context_self_unblock@Concurrency@@8 10047c00     libconcrt:Exceptions.obj
 0002:00009c1c       ??_R4missing_wait@Concurrency@@6B@ 10047c1c     libconcrt:Exceptions.obj
 0002:00009c30       ??_R3missing_wait@Concurrency@@8 10047c30     libconcrt:Exceptions.obj
 0002:00009c40       ??_R2missing_wait@Concurrency@@8 10047c40     libconcrt:Exceptions.obj
 0002:00009c4c       ??_R1A@?0A@EA@missing_wait@Concurrency@@8 10047c4c     libconcrt:Exceptions.obj
 0002:00009c68       ??_R4invalid_scheduler_policy_key@Concurrency@@6B@ 10047c68     libconcrt:Exceptions.obj
 0002:00009c7c       ??_R3invalid_scheduler_policy_key@Concurrency@@8 10047c7c     libconcrt:Exceptions.obj
 0002:00009c8c       ??_R2invalid_scheduler_policy_key@Concurrency@@8 10047c8c     libconcrt:Exceptions.obj
 0002:00009c98       ??_R1A@?0A@EA@invalid_scheduler_policy_key@Concurrency@@8 10047c98     libconcrt:Exceptions.obj
 0002:00009cb4       ??_R4invalid_scheduler_policy_value@Concurrency@@6B@ 10047cb4     libconcrt:Exceptions.obj
 0002:00009cc8       ??_R3invalid_scheduler_policy_value@Concurrency@@8 10047cc8     libconcrt:Exceptions.obj
 0002:00009cd8       ??_R2invalid_scheduler_policy_value@Concurrency@@8 10047cd8     libconcrt:Exceptions.obj
 0002:00009ce4       ??_R1A@?0A@EA@invalid_scheduler_policy_value@Concurrency@@8 10047ce4     libconcrt:Exceptions.obj
 0002:00009d00       ??_R4invalid_scheduler_policy_thread_specification@Concurrency@@6B@ 10047d00     libconcrt:Exceptions.obj
 0002:00009d14       ??_R3invalid_scheduler_policy_thread_specification@Concurrency@@8 10047d14     libconcrt:Exceptions.obj
 0002:00009d24       ??_R2invalid_scheduler_policy_thread_specification@Concurrency@@8 10047d24     libconcrt:Exceptions.obj
 0002:00009d30       ??_R1A@?0A@EA@invalid_scheduler_policy_thread_specification@Concurrency@@8 10047d30     libconcrt:Exceptions.obj
 0002:00009d4c       ??_R4nested_scheduler_missing_detach@Concurrency@@6B@ 10047d4c     libconcrt:Exceptions.obj
 0002:00009d60       ??_R3nested_scheduler_missing_detach@Concurrency@@8 10047d60     libconcrt:Exceptions.obj
 0002:00009d70       ??_R2nested_scheduler_missing_detach@Concurrency@@8 10047d70     libconcrt:Exceptions.obj
 0002:00009d7c       ??_R1A@?0A@EA@nested_scheduler_missing_detach@Concurrency@@8 10047d7c     libconcrt:Exceptions.obj
 0002:00009d98       ??_R4invalid_oversubscribe_operation@Concurrency@@6B@ 10047d98     libconcrt:Exceptions.obj
 0002:00009dac       ??_R3invalid_oversubscribe_operation@Concurrency@@8 10047dac     libconcrt:Exceptions.obj
 0002:00009dbc       ??_R2invalid_oversubscribe_operation@Concurrency@@8 10047dbc     libconcrt:Exceptions.obj
 0002:00009dc8       ??_R1A@?0A@EA@invalid_oversubscribe_operation@Concurrency@@8 10047dc8     libconcrt:Exceptions.obj
 0002:00009de4       ??_R4ContextBase@details@Concurrency@@6B@ 10047de4     libconcrt:ContextBase.obj
 0002:00009df8       ??_R3ContextBase@details@Concurrency@@8 10047df8     libconcrt:ContextBase.obj
 0002:00009e08       ??_R2ContextBase@details@Concurrency@@8 10047e08     libconcrt:ContextBase.obj
 0002:00009e14       ??_R1A@?0A@EA@ContextBase@details@Concurrency@@8 10047e14     libconcrt:ContextBase.obj
 0002:00009e30       ??_R1A@?0A@EA@Context@Concurrency@@8 10047e30     libconcrt:ContextBase.obj
 0002:00009e4c       ??_R3Context@Concurrency@@8 10047e4c     libconcrt:ContextBase.obj
 0002:00009e5c       ??_R2Context@Concurrency@@8 10047e5c     libconcrt:ContextBase.obj
 0002:00009e64       ??_R4Context@Concurrency@@6B@ 10047e64     libconcrt:ContextBase.obj
 0002:00009e78       ??_R4_Interruption_exception@details@Concurrency@@6B@ 10047e78     libconcrt:TaskCollection.obj
 0002:00009e8c       ??_R3_Interruption_exception@details@Concurrency@@8 10047e8c     libconcrt:TaskCollection.obj
 0002:00009e9c       ??_R2_Interruption_exception@details@Concurrency@@8 10047e9c     libconcrt:TaskCollection.obj
 0002:00009ea8       ??_R1A@?0A@EA@_Interruption_exception@details@Concurrency@@8 10047ea8     libconcrt:TaskCollection.obj
 0002:00009ec4       ??_R1A@?0A@EA@_RefCounter@details@Concurrency@@8 10047ec4     libconcrt:TaskCollection.obj
 0002:00009ee0       ??_R3_RefCounter@details@Concurrency@@8 10047ee0     libconcrt:TaskCollection.obj
 0002:00009ef0       ??_R2_RefCounter@details@Concurrency@@8 10047ef0     libconcrt:TaskCollection.obj
 0002:00009ef8       ??_R4_CancellationTokenRegistration@details@Concurrency@@6B@ 10047ef8     libconcrt:TaskCollection.obj
 0002:00009f0c       ??_R3_CancellationTokenRegistration@details@Concurrency@@8 10047f0c     libconcrt:TaskCollection.obj
 0002:00009f1c       ??_R2_CancellationTokenRegistration@details@Concurrency@@8 10047f1c     libconcrt:TaskCollection.obj
 0002:00009f28       ??_R1A@?0A@EA@_CancellationTokenRegistration@details@Concurrency@@8 10047f28     libconcrt:TaskCollection.obj
 0002:00009f44       ??_R4_RefCounter@details@Concurrency@@6B@ 10047f44     libconcrt:TaskCollection.obj
 0002:00009f58       ??_R4CancellationTokenRegistration_TaskProc@details@Concurrency@@6B@ 10047f58     libconcrt:TaskCollection.obj
 0002:00009f6c       ??_R3CancellationTokenRegistration_TaskProc@details@Concurrency@@8 10047f6c     libconcrt:TaskCollection.obj
 0002:00009f7c       ??_R2CancellationTokenRegistration_TaskProc@details@Concurrency@@8 10047f7c     libconcrt:TaskCollection.obj
 0002:00009f8c       ??_R1A@?0A@EA@CancellationTokenRegistration_TaskProc@details@Concurrency@@8 10047f8c     libconcrt:TaskCollection.obj
 0002:00009fa8       ??_R4?$_MallocaArrayHolder@PAVevent@Concurrency@@@details@Concurrency@@6B@ 10047fa8     libconcrt:TaskCollection.obj
 0002:00009fbc       ??_R3?$_MallocaArrayHolder@PAVevent@Concurrency@@@details@Concurrency@@8 10047fbc     libconcrt:TaskCollection.obj
 0002:00009fcc       ??_R2?$_MallocaArrayHolder@PAVevent@Concurrency@@@details@Concurrency@@8 10047fcc     libconcrt:TaskCollection.obj
 0002:00009fd4       ??_R1A@?0A@EA@?$_MallocaArrayHolder@PAVevent@Concurrency@@@details@Concurrency@@8 10047fd4     libconcrt:TaskCollection.obj
 0002:00009ff0       ??_R4ExecutionResource@details@Concurrency@@6B@ 10047ff0     libconcrt:ExecutionResource.obj
 0002:0000a004       ??_R3ExecutionResource@details@Concurrency@@8 10048004     libconcrt:ExecutionResource.obj
 0002:0000a014       ??_R2ExecutionResource@details@Concurrency@@8 10048014     libconcrt:ExecutionResource.obj
 0002:0000a020       ??_R1A@?0A@EA@ExecutionResource@details@Concurrency@@8 10048020     libconcrt:ExecutionResource.obj
 0002:0000a03c       ??_R1A@?0A@EA@IExecutionResource@Concurrency@@8 1004803c     libconcrt:ExecutionResource.obj
 0002:0000a058       ??_R3IExecutionResource@Concurrency@@8 10048058     libconcrt:ExecutionResource.obj
 0002:0000a068       ??_R2IExecutionResource@Concurrency@@8 10048068     libconcrt:ExecutionResource.obj
 0002:0000a070       ??_R4SchedulerProxy@details@Concurrency@@6B@ 10048070     libconcrt:SchedulerProxy.obj
 0002:0000a084       ??_R3SchedulerProxy@details@Concurrency@@8 10048084     libconcrt:SchedulerProxy.obj
 0002:0000a094       ??_R2SchedulerProxy@details@Concurrency@@8 10048094     libconcrt:SchedulerProxy.obj
 0002:0000a0a0       ??_R1A@?0A@EA@SchedulerProxy@details@Concurrency@@8 100480a0     libconcrt:SchedulerProxy.obj
 0002:0000a0bc       ??_R1A@?0A@EA@ISchedulerProxy@Concurrency@@8 100480bc     libconcrt:SchedulerProxy.obj
 0002:0000a0d8       ??_R3ISchedulerProxy@Concurrency@@8 100480d8     libconcrt:SchedulerProxy.obj
 0002:0000a0e8       ??_R2ISchedulerProxy@Concurrency@@8 100480e8     libconcrt:SchedulerProxy.obj
 0002:0000a0f0       ??_R4FreeThreadProxy@details@Concurrency@@6B@ 100480f0     libconcrt:ThreadProxyFactoryManager.obj
 0002:0000a104       ??_R3FreeThreadProxy@details@Concurrency@@8 10048104     libconcrt:ThreadProxyFactoryManager.obj
 0002:0000a114       ??_R2FreeThreadProxy@details@Concurrency@@8 10048114     libconcrt:ThreadProxyFactoryManager.obj
 0002:0000a124       ??_R1A@?0A@EA@FreeThreadProxy@details@Concurrency@@8 10048124     libconcrt:ThreadProxyFactoryManager.obj
 0002:0000a140       ??_R1A@?0A@EA@ThreadProxy@details@Concurrency@@8 10048140     libconcrt:ThreadProxyFactoryManager.obj
 0002:0000a15c       ??_R3ThreadProxy@details@Concurrency@@8 1004815c     libconcrt:ThreadProxyFactoryManager.obj
 0002:0000a16c       ??_R2ThreadProxy@details@Concurrency@@8 1004816c     libconcrt:ThreadProxyFactoryManager.obj
 0002:0000a178       ??_R1A@?0A@EA@IThreadProxy@Concurrency@@8 10048178     libconcrt:ThreadProxyFactoryManager.obj
 0002:0000a194       ??_R3IThreadProxy@Concurrency@@8 10048194     libconcrt:ThreadProxyFactoryManager.obj
 0002:0000a1a4       ??_R2IThreadProxy@Concurrency@@8 100481a4     libconcrt:ThreadProxyFactoryManager.obj
 0002:0000a1ac       ??_R4IThreadProxyFactory@details@Concurrency@@6B@ 100481ac     libconcrt:ThreadProxyFactoryManager.obj
 0002:0000a1c0       ??_R3IThreadProxyFactory@details@Concurrency@@8 100481c0     libconcrt:ThreadProxyFactoryManager.obj
 0002:0000a1d0       ??_R2IThreadProxyFactory@details@Concurrency@@8 100481d0     libconcrt:ThreadProxyFactoryManager.obj
 0002:0000a1d8       ??_R1A@?0A@EA@IThreadProxyFactory@details@Concurrency@@8 100481d8     libconcrt:ThreadProxyFactoryManager.obj
 0002:0000a1f4       ??_R4FreeThreadProxyFactory@details@Concurrency@@6B@ 100481f4     libconcrt:ThreadProxyFactoryManager.obj
 0002:0000a208       ??_R3FreeThreadProxyFactory@details@Concurrency@@8 10048208     libconcrt:ThreadProxyFactoryManager.obj
 0002:0000a218       ??_R2FreeThreadProxyFactory@details@Concurrency@@8 10048218     libconcrt:ThreadProxyFactoryManager.obj
 0002:0000a228       ??_R1A@?0A@EA@FreeThreadProxyFactory@details@Concurrency@@8 10048228     libconcrt:ThreadProxyFactoryManager.obj
 0002:0000a244       ??_R1A@?0A@EA@?$ThreadProxyFactory@VFreeThreadProxy@details@Concurrency@@@details@Concurrency@@8 10048244     libconcrt:ThreadProxyFactoryManager.obj
 0002:0000a260       ??_R3?$ThreadProxyFactory@VFreeThreadProxy@details@Concurrency@@@details@Concurrency@@8 10048260     libconcrt:ThreadProxyFactoryManager.obj
 0002:0000a270       ??_R2?$ThreadProxyFactory@VFreeThreadProxy@details@Concurrency@@@details@Concurrency@@8 10048270     libconcrt:ThreadProxyFactoryManager.obj
 0002:0000a27c       ??_R4?$ThreadProxyFactory@VFreeThreadProxy@details@Concurrency@@@details@Concurrency@@6B@ 1004827c     libconcrt:ThreadProxyFactoryManager.obj
 0002:0000a290       ??_R4VirtualProcessor@details@Concurrency@@6B@ 10048290     libconcrt:VirtualProcessor.obj
 0002:0000a2a4       ??_R3VirtualProcessor@details@Concurrency@@8 100482a4     libconcrt:VirtualProcessor.obj
 0002:0000a2b4       ??_R2VirtualProcessor@details@Concurrency@@8 100482b4     libconcrt:VirtualProcessor.obj
 0002:0000a2bc       ??_R1A@?0A@EA@VirtualProcessor@details@Concurrency@@8 100482bc     libconcrt:VirtualProcessor.obj
 0002:0000a2d8       ??_R4InternalContextBase@details@Concurrency@@6BIExecutionContext@2@@ 100482d8     libconcrt:InternalContextBase.obj
 0002:0000a2ec       ??_R3InternalContextBase@details@Concurrency@@8 100482ec     libconcrt:InternalContextBase.obj
 0002:0000a2fc       ??_R2InternalContextBase@details@Concurrency@@8 100482fc     libconcrt:InternalContextBase.obj
 0002:0000a310       ??_R1A@?0A@EA@InternalContextBase@details@Concurrency@@8 10048310     libconcrt:InternalContextBase.obj
 0002:0000a32c       ??_R1A@?0A@EA@IExecutionContext@Concurrency@@8 1004832c     libconcrt:InternalContextBase.obj
 0002:0000a348       ??_R3IExecutionContext@Concurrency@@8 10048348     libconcrt:InternalContextBase.obj
 0002:0000a358       ??_R2IExecutionContext@Concurrency@@8 10048358     libconcrt:InternalContextBase.obj
 0002:0000a360       ??_R13?0A@EA@ContextBase@details@Concurrency@@8 10048360     libconcrt:InternalContextBase.obj
 0002:0000a37c       ??_R13?0A@EA@Context@Concurrency@@8 1004837c     libconcrt:InternalContextBase.obj
 0002:0000a398       ??_R4InternalContextBase@details@Concurrency@@6BContextBase@12@@ 10048398     libconcrt:InternalContextBase.obj
 0002:0000a3ac       ??_R4IExecutionContext@Concurrency@@6B@ 100483ac     libconcrt:InternalContextBase.obj
 0002:0000a3c0       ??_R4ScheduleGroupBase@details@Concurrency@@6B@ 100483c0     libconcrt:ScheduleGroupBase.obj
 0002:0000a3d4       ??_R4ScheduleGroupSegmentBase@details@Concurrency@@6B@ 100483d4     libconcrt:ScheduleGroupBase.obj
 0002:0000a3e8       ??_R4ExternalContextBase@details@Concurrency@@6B@ 100483e8     libconcrt:ExternalContextBase.obj
 0002:0000a3fc       ??_R3ExternalContextBase@details@Concurrency@@8 100483fc     libconcrt:ExternalContextBase.obj
 0002:0000a40c       ??_R2ExternalContextBase@details@Concurrency@@8 1004840c     libconcrt:ExternalContextBase.obj
 0002:0000a41c       ??_R1A@?0A@EA@ExternalContextBase@details@Concurrency@@8 1004841c     libconcrt:ExternalContextBase.obj
 0002:0000a438       ??_R4ThreadScheduler@details@Concurrency@@6BIScheduler@2@@ 10048438     libconcrt:ThreadScheduler.obj
 0002:0000a44c       ??_R3ThreadScheduler@details@Concurrency@@8 1004844c     libconcrt:ThreadScheduler.obj
 0002:0000a45c       ??_R2ThreadScheduler@details@Concurrency@@8 1004845c     libconcrt:ThreadScheduler.obj
 0002:0000a470       ??_R1A@?0A@EA@ThreadScheduler@details@Concurrency@@8 10048470     libconcrt:ThreadScheduler.obj
 0002:0000a48c       ??_R1A@?0A@EA@IScheduler@Concurrency@@8 1004848c     libconcrt:ThreadScheduler.obj
 0002:0000a4a8       ??_R3IScheduler@Concurrency@@8 100484a8     libconcrt:ThreadScheduler.obj
 0002:0000a4b8       ??_R2IScheduler@Concurrency@@8 100484b8     libconcrt:ThreadScheduler.obj
 0002:0000a4c0       ??_R17?0A@EA@SchedulerBase@details@Concurrency@@8 100484c0     libconcrt:ThreadScheduler.obj
 0002:0000a4dc       ??_R17?0A@EA@Scheduler@Concurrency@@8 100484dc     libconcrt:ThreadScheduler.obj
 0002:0000a4f8       ??_R4ThreadScheduler@details@Concurrency@@6BSchedulerBase@12@@ 100484f8     libconcrt:ThreadScheduler.obj
 0002:0000a50c       ??_R4IScheduler@Concurrency@@6B@ 1004850c     libconcrt:ThreadScheduler.obj
 0002:0000a520       ??_R4ThreadInternalContext@details@Concurrency@@6BIExecutionContext@2@@ 10048520     libconcrt:ThreadScheduler.obj
 0002:0000a534       ??_R3ThreadInternalContext@details@Concurrency@@8 10048534     libconcrt:ThreadScheduler.obj
 0002:0000a544       ??_R2ThreadInternalContext@details@Concurrency@@8 10048544     libconcrt:ThreadScheduler.obj
 0002:0000a55c       ??_R1A@?0A@EA@ThreadInternalContext@details@Concurrency@@8 1004855c     libconcrt:ThreadScheduler.obj
 0002:0000a578       ??_R4ThreadInternalContext@details@Concurrency@@6BContextBase@12@@ 10048578     libconcrt:ThreadScheduler.obj
 0002:0000a58c       ??_R4VirtualProcessorRoot@details@Concurrency@@6B@ 1004858c     libconcrt:VirtualProcessorRoot.obj
 0002:0000a5a0       ??_R3VirtualProcessorRoot@details@Concurrency@@8 100485a0     libconcrt:VirtualProcessorRoot.obj
 0002:0000a5b0       ??_R2VirtualProcessorRoot@details@Concurrency@@8 100485b0     libconcrt:VirtualProcessorRoot.obj
 0002:0000a5c0       ??_R1A@?0A@EA@VirtualProcessorRoot@details@Concurrency@@8 100485c0     libconcrt:VirtualProcessorRoot.obj
 0002:0000a5dc       ??_R1A@?0A@EA@IVirtualProcessorRoot@Concurrency@@8 100485dc     libconcrt:VirtualProcessorRoot.obj
 0002:0000a5f8       ??_R3IVirtualProcessorRoot@Concurrency@@8 100485f8     libconcrt:VirtualProcessorRoot.obj
 0002:0000a608       ??_R2IVirtualProcessorRoot@Concurrency@@8 10048608     libconcrt:VirtualProcessorRoot.obj
 0002:0000a614       ??_R4FreeVirtualProcessorRoot@details@Concurrency@@6B@ 10048614     libconcrt:FreeVirtualProcessorRoot.obj
 0002:0000a628       ??_R3FreeVirtualProcessorRoot@details@Concurrency@@8 10048628     libconcrt:FreeVirtualProcessorRoot.obj
 0002:0000a638       ??_R2FreeVirtualProcessorRoot@details@Concurrency@@8 10048638     libconcrt:FreeVirtualProcessorRoot.obj
 0002:0000a64c       ??_R1A@?0A@EA@FreeVirtualProcessorRoot@details@Concurrency@@8 1004864c     libconcrt:FreeVirtualProcessorRoot.obj
 0002:0000a668       ??_R4ThreadProxy@details@Concurrency@@6B@ 10048668     libconcrt:ThreadProxy.obj
 0002:0000a67c       ??_R4ThreadVirtualProcessor@details@Concurrency@@6B@ 1004867c     libconcrt:ThreadVirtualProcessor.obj
 0002:0000a690       ??_R3ThreadVirtualProcessor@details@Concurrency@@8 10048690     libconcrt:ThreadVirtualProcessor.obj
 0002:0000a6a0       ??_R2ThreadVirtualProcessor@details@Concurrency@@8 100486a0     libconcrt:ThreadVirtualProcessor.obj
 0002:0000a6ac       ??_R1A@?0A@EA@ThreadVirtualProcessor@details@Concurrency@@8 100486ac     libconcrt:ThreadVirtualProcessor.obj
 0002:0000a6c8       ??_R4bad_exception@std@@6B@ 100486c8     libvcruntime:frame.obj
 0002:0000a6dc       ??_R3bad_exception@std@@8  100486dc     libvcruntime:frame.obj
 0002:0000a6ec       ??_R2bad_exception@std@@8  100486ec     libvcruntime:frame.obj
 0002:0000a6f8       ??_R1A@?0A@EA@bad_exception@std@@8 100486f8     libvcruntime:frame.obj
 0002:0000a714       ??_R4bad_cast@std@@6B@     10048714     libvcruntime:rtti.obj
 0002:0000a728       ??_R3bad_cast@std@@8       10048728     libvcruntime:rtti.obj
 0002:0000a738       ??_R2bad_cast@std@@8       10048738     libvcruntime:rtti.obj
 0002:0000a744       ??_R1A@?0A@EA@bad_cast@std@@8 10048744     libvcruntime:rtti.obj
 0002:0000a760       ??_R4bad_typeid@std@@6B@   10048760     libvcruntime:rtti.obj
 0002:0000a774       ??_R3bad_typeid@std@@8     10048774     libvcruntime:rtti.obj
 0002:0000a784       ??_R2bad_typeid@std@@8     10048784     libvcruntime:rtti.obj
 0002:0000a790       ??_R1A@?0A@EA@bad_typeid@std@@8 10048790     libvcruntime:rtti.obj
 0002:0000a7ac       ??_R4__non_rtti_object@std@@6B@ 100487ac     libvcruntime:rtti.obj
 0002:0000a7c0       ??_R3__non_rtti_object@std@@8 100487c0     libvcruntime:rtti.obj
 0002:0000a7d0       ??_R2__non_rtti_object@std@@8 100487d0     libvcruntime:rtti.obj
 0002:0000a7e0       ??_R1A@?0A@EA@__non_rtti_object@std@@8 100487e0     libvcruntime:rtti.obj
 0002:0000a7fc       ??_R4_Ref_count_base@std@@6B@ 100487fc     libcpmt:excptptr.obj
 0002:0000a810       ??_R3_Ref_count_base@std@@8 10048810     libcpmt:excptptr.obj
 0002:0000a820       ??_R2_Ref_count_base@std@@8 10048820     libcpmt:excptptr.obj
 0002:0000a828       ??_R1A@?0A@EA@_Ref_count_base@std@@8 10048828     libcpmt:excptptr.obj
 0002:0000a844       ??_R4?$_Ref_count_obj_alloc@V__ExceptionPtr@@U?$_StaticAllocator@H@@@std@@6B@ 10048844     libcpmt:excptptr.obj
 0002:0000a858       ??_R3?$_Ref_count_obj_alloc@V__ExceptionPtr@@U?$_StaticAllocator@H@@@std@@8 10048858     libcpmt:excptptr.obj
 0002:0000a868       ??_R2?$_Ref_count_obj_alloc@V__ExceptionPtr@@U?$_StaticAllocator@H@@@std@@8 10048868     libcpmt:excptptr.obj
 0002:0000a874       ??_R1A@?0A@EA@?$_Ref_count_obj_alloc@V__ExceptionPtr@@U?$_StaticAllocator@H@@@std@@8 10048874     libcpmt:excptptr.obj
 0002:0000a890       ??_R4?$_Ref_count_obj@V__ExceptionPtr@@@std@@6B@ 10048890     libcpmt:excptptr.obj
 0002:0000a8a4       ??_R3?$_Ref_count_obj@V__ExceptionPtr@@@std@@8 100488a4     libcpmt:excptptr.obj
 0002:0000a8b4       ??_R2?$_Ref_count_obj@V__ExceptionPtr@@@std@@8 100488b4     libcpmt:excptptr.obj
 0002:0000a8c0       ??_R1A@?0A@EA@?$_Ref_count_obj@V__ExceptionPtr@@@std@@8 100488c0     libcpmt:excptptr.obj
 0002:0000a8dc       ??_R4CreatureBanksExtender@cbanks@@6B@ 100488dc     CreatureBanksExtender.obj
 0002:0000a8f0       ??_R1A@?0A@EA@IGamePatch@@8 100488f0     CreatureBanksExtender.obj
 0002:0000a90c       ??_R3CreatureBanksExtender@cbanks@@8 1004890c     CreatureBanksExtender.obj
 0002:0000a91c       ??_R1A@?0A@EA@CreatureBanksExtender@cbanks@@8 1004891c     CreatureBanksExtender.obj
 0002:0000a938       ??_R2IGamePatch@@8         10048938     CreatureBanksExtender.obj
 0002:0000a940       ??_R2CreatureBanksExtender@cbanks@@8 10048940     CreatureBanksExtender.obj
 0002:0000a950       ??_R3IGamePatch@@8         10048950     CreatureBanksExtender.obj
 0002:0000a960       ??_R1A@?0A@EA@ObjectsExtender@extender@@8 10048960     CreatureBanksExtender.obj
 0002:0000a97c       ??_R3ObjectsExtender@extender@@8 1004897c     CreatureBanksExtender.obj
 0002:0000a98c       ??_R2ObjectsExtender@extender@@8 1004898c     CreatureBanksExtender.obj
 0002:0000a998       ??_R3ShrinesExternder@shrines@@8 10048998     ShrinesExternder.obj
 0002:0000a9a8       ??_R1A@?0A@EA@ShrinesExternder@shrines@@8 100489a8     ShrinesExternder.obj
 0002:0000a9c4       ??_R2ShrinesExternder@shrines@@8 100489c4     ShrinesExternder.obj
 0002:0000a9d4       ??_R4ShrinesExternder@shrines@@6B@ 100489d4     ShrinesExternder.obj
 0002:0000a9e8       ??_R2WarehousesExtender@warehouses@@8 100489e8     WarehousesExtender.obj
 0002:0000a9f8       ??_R4WarehousesExtender@warehouses@@6B@ 100489f8     WarehousesExtender.obj
 0002:0000aa0c       ??_R1A@?0A@EA@WarehousesExtender@warehouses@@8 10048a0c     WarehousesExtender.obj
 0002:0000aa28       ??_R3WarehousesExtender@warehouses@@8 10048a28     WarehousesExtender.obj
 0002:0000aa38       ??_R4ObjectsExtender@extender@@6B@ 10048a38     ObjectsExtender.obj
 0002:0000aa4c       ??_R2RMGObjectsEditor@editor@@8 10048a4c     RMGObjectsEditor.obj
 0002:0000aa58       ??_R4RMGObjectsEditor@editor@@6B@ 10048a58     RMGObjectsEditor.obj
 0002:0000aa6c       ??_R1A@?0A@EA@RMGObjectsEditor@editor@@8 10048a6c     RMGObjectsEditor.obj
 0002:0000aa88       ??_R3RMGObjectsEditor@editor@@8 10048a88     RMGObjectsEditor.obj
 0002:0000aa98       ??_R3BanksPage@RMG_SettingsDlg@rmgdlg@@8 10048a98     RMG_SettingsDlg.obj
 0002:0000aaa8       ??_R1A@?0A@EA@H3ExtendedDlg@h3@@8 10048aa8     RMG_SettingsDlg.obj
 0002:0000aac4       ??_R13?0A@EA@H3Allocator@h3@@8 10048ac4     RMG_SettingsDlg.obj
 0002:0000aae0       ??_R3H3BaseDlg@h3@@8       10048ae0     RMG_SettingsDlg.obj
 0002:0000aaf0       ??_R2H3NetworkDlg@h3@@8    10048af0     RMG_SettingsDlg.obj
 0002:0000ab04       ??_R1A@?0A@EA@H3BaseDlg@h3@@8 10048b04     RMG_SettingsDlg.obj
 0002:0000ab20       ??_R4MiscPage@RMG_SettingsDlg@rmgdlg@@6B@ 10048b20     RMG_SettingsDlg.obj
 0002:0000ab34       ??_R1A@?0A@EA@BanksPage@RMG_SettingsDlg@rmgdlg@@8 10048b34     RMG_SettingsDlg.obj
 0002:0000ab50       ??_R1A@?0A@EA@Page@RMG_SettingsDlg@rmgdlg@@8 10048b50     RMG_SettingsDlg.obj
 0002:0000ab6c       ??_R2H3BaseDlg@h3@@8       10048b6c     RMG_SettingsDlg.obj
 0002:0000ab78       ??_R2H3ExtendedDlg@h3@@8   10048b78     RMG_SettingsDlg.obj
 0002:0000ab88       ??_R4BanksPage@RMG_SettingsDlg@rmgdlg@@6B@ 10048b88     RMG_SettingsDlg.obj
 0002:0000ab9c       ??_R1A@?0A@EA@_Pad@std@@8  10048b9c     RMG_SettingsDlg.obj
 0002:0000abb8       ??_R1A@?0A@EA@MiscPage@RMG_SettingsDlg@rmgdlg@@8 10048bb8     RMG_SettingsDlg.obj
 0002:0000abd4       ??_R3H3Dlg@h3@@8           10048bd4     RMG_SettingsDlg.obj
 0002:0000abe4       ??_R4RMG_SettingsDlg@rmgdlg@@6B@ 10048be4     RMG_SettingsDlg.obj
 0002:0000abf8       ??_R1A@?0A@EA@H3Dlg@h3@@8  10048bf8     RMG_SettingsDlg.obj
 0002:0000ac14       ??_R3RMG_SettingsDlg@rmgdlg@@8 10048c14     RMG_SettingsDlg.obj
 0002:0000ac24       ??_R2Page@RMG_SettingsDlg@rmgdlg@@8 10048c24     RMG_SettingsDlg.obj
 0002:0000ac2c       ??_R2H3Allocator@h3@@8     10048c2c     RMG_SettingsDlg.obj
 0002:0000ac34       ??_R1A@?0A@EA@H3NetworkDlg@h3@@8 10048c34     RMG_SettingsDlg.obj
 0002:0000ac50       ??_R1A@?0A@EA@?$_LaunchPad@V?$unique_ptr@V?$tuple@P6AXXZ@std@@U?$default_delete@V?$tuple@P6AXXZ@std@@@2@@std@@@std@@8 10048c50     RMG_SettingsDlg.obj
 0002:0000ac6c       ??_R3H3NetworkDlg@h3@@8    10048c6c     RMG_SettingsDlg.obj
 0002:0000ac7c       ??_R4H3Dlg@h3@@6B@         10048c7c     RMG_SettingsDlg.obj
 0002:0000ac90       ??_R1A@?0A@EA@H3Allocator@h3@@8 10048c90     RMG_SettingsDlg.obj
 0002:0000acac       ??_R2ObjectsPanel@RMG_SettingsDlg@rmgdlg@@8 10048cac     RMG_SettingsDlg.obj
 0002:0000acb4       ??_R2MiscPage@RMG_SettingsDlg@rmgdlg@@8 10048cb4     RMG_SettingsDlg.obj
 0002:0000acc4       ??_R1A@?0A@EA@RMG_SettingsDlg@rmgdlg@@8 10048cc4     RMG_SettingsDlg.obj
 0002:0000ace0       ??_R4?$_LaunchPad@V?$unique_ptr@V?$tuple@P6AXXZ@std@@U?$default_delete@V?$tuple@P6AXXZ@std@@@2@@std@@@std@@6B@ 10048ce0     RMG_SettingsDlg.obj
 0002:0000acf4       ??_R3ObjectsPanel@RMG_SettingsDlg@rmgdlg@@8 10048cf4     RMG_SettingsDlg.obj
 0002:0000ad04       ??_R3H3ExtendedDlg@h3@@8   10048d04     RMG_SettingsDlg.obj
 0002:0000ad14       ??_R3H3Allocator@h3@@8     10048d14     RMG_SettingsDlg.obj
 0002:0000ad24       ??_R2?$_LaunchPad@V?$unique_ptr@V?$tuple@P6AXXZ@std@@U?$default_delete@V?$tuple@P6AXXZ@std@@@2@@std@@@std@@8 10048d24     RMG_SettingsDlg.obj
 0002:0000ad30       ??_R3Page@RMG_SettingsDlg@rmgdlg@@8 10048d30     RMG_SettingsDlg.obj
 0002:0000ad40       ??_R2RMG_SettingsDlg@rmgdlg@@8 10048d40     RMG_SettingsDlg.obj
 0002:0000ad5c       ??_R2H3Dlg@h3@@8           10048d5c     RMG_SettingsDlg.obj
 0002:0000ad74       ??_R4_Pad@std@@6B@         10048d74     RMG_SettingsDlg.obj
 0002:0000ad88       ??_R1A@?0A@EA@ObjectsPage@RMG_SettingsDlg@rmgdlg@@8 10048d88     RMG_SettingsDlg.obj
 0002:0000ada4       ??_R3_Pad@std@@8           10048da4     RMG_SettingsDlg.obj
 0002:0000adb4       ??_R2ObjectsPage@RMG_SettingsDlg@rmgdlg@@8 10048db4     RMG_SettingsDlg.obj
 0002:0000adc0       ??_R4ObjectsPage@RMG_SettingsDlg@rmgdlg@@6B@ 10048dc0     RMG_SettingsDlg.obj
 0002:0000add4       ??_R4ObjectsPanel@RMG_SettingsDlg@rmgdlg@@6B@ 10048dd4     RMG_SettingsDlg.obj
 0002:0000ade8       ??_R3ObjectsPage@RMG_SettingsDlg@rmgdlg@@8 10048de8     RMG_SettingsDlg.obj
 0002:0000adf8       ??_R3MiscPage@RMG_SettingsDlg@rmgdlg@@8 10048df8     RMG_SettingsDlg.obj
 0002:0000ae08       ??_R2_Pad@std@@8           10048e08     RMG_SettingsDlg.obj
 0002:0000ae10       ??_R3?$_LaunchPad@V?$unique_ptr@V?$tuple@P6AXXZ@std@@U?$default_delete@V?$tuple@P6AXXZ@std@@@2@@std@@@std@@8 10048e10     RMG_SettingsDlg.obj
 0002:0000ae20       ??_R1A@?0A@EA@ObjectsPanel@RMG_SettingsDlg@rmgdlg@@8 10048e20     RMG_SettingsDlg.obj
 0002:0000ae3c       ??_R2BanksPage@RMG_SettingsDlg@rmgdlg@@8 10048e3c     RMG_SettingsDlg.obj
 0002:0000ae4c       ??_R4Page@RMG_SettingsDlg@rmgdlg@@6B@ 10048e4c     RMG_SettingsDlg.obj
 0002:0000ae60       ___safe_se_handler_table   10048e60     <linker-defined>
 0002:0000b56c       ___rtc_iaa                 1004956c     LIBCMT:_initsect_.obj
 0002:0000b570       ___rtc_izz                 10049570     LIBCMT:_initsect_.obj
 0002:0000b574       ___rtc_taa                 10049574     LIBCMT:_initsect_.obj
 0002:0000b578       ___rtc_tzz                 10049578     LIBCMT:_initsect_.obj
 0002:0000bf28       __TI2?AVbad_alloc@std@@    10049f28     libcpmt:xthrow.obj
 0002:0000bf38       __CTA2?AVbad_alloc@std@@   10049f38     libcpmt:xthrow.obj
 0002:0000bf44       __CT??_R0?AVbad_alloc@std@@@8??0bad_alloc@std@@QAE@ABV01@@Z12 10049f44     libcpmt:xthrow.obj
 0002:0000bf60       __CT??_R0?AVexception@std@@@8??0exception@std@@QAE@ABV01@@Z12 10049f60     libcpmt:xthrow.obj
 0002:0000bf7c       __TI3?AVinvalid_argument@std@@ 10049f7c     libcpmt:xthrow.obj
 0002:0000bf8c       __CTA3?AVinvalid_argument@std@@ 10049f8c     libcpmt:xthrow.obj
 0002:0000bf9c       __CT??_R0?AVinvalid_argument@std@@@8??0invalid_argument@std@@QAE@ABV01@@Z12 10049f9c     libcpmt:xthrow.obj
 0002:0000bfb8       __CT??_R0?AVlogic_error@std@@@8??0logic_error@std@@QAE@ABV01@@Z12 10049fb8     libcpmt:xthrow.obj
 0002:0000bfd4       __TI3?AVlength_error@std@@ 10049fd4     libcpmt:xthrow.obj
 0002:0000bfe4       __CTA3?AVlength_error@std@@ 10049fe4     libcpmt:xthrow.obj
 0002:0000bff4       __CT??_R0?AVlength_error@std@@@8??0length_error@std@@QAE@ABV01@@Z12 10049ff4     libcpmt:xthrow.obj
 0002:0000c010       __TI3?AVout_of_range@std@@ 1004a010     libcpmt:xthrow.obj
 0002:0000c020       __CTA3?AVout_of_range@std@@ 1004a020     libcpmt:xthrow.obj
 0002:0000c030       __CT??_R0?AVout_of_range@std@@@8??0out_of_range@std@@QAE@ABV01@@Z12 1004a030     libcpmt:xthrow.obj
 0002:0000c04c       __CT??_R0?AVruntime_error@std@@@8??0runtime_error@std@@QAE@ABV01@@Z12 1004a04c     libcpmt:xthrow.obj
 0002:0000c0f4       __TI4?AVsystem_error@std@@ 1004a0f4     libcpmt:thread0.obj
 0002:0000c104       __CTA4?AVsystem_error@std@@ 1004a104     libcpmt:thread0.obj
 0002:0000c118       __CT??_R0?AVsystem_error@std@@@8??0system_error@std@@QAE@ABV01@@Z20 1004a118     libcpmt:thread0.obj
 0002:0000c134       __CT??_R0?AV_System_error@std@@@8??0_System_error@std@@QAE@ABV01@@Z20 1004a134     libcpmt:thread0.obj
 0002:0000c22c       __TI3?AVbad_array_new_length@std@@ 1004a22c     LIBCMT:throw_bad_alloc.obj
 0002:0000c23c       __CTA3?AVbad_array_new_length@std@@ 1004a23c     LIBCMT:throw_bad_alloc.obj
 0002:0000c24c       __CT??_R0?AVbad_array_new_length@std@@@8??0bad_array_new_length@std@@QAE@ABV01@@Z12 1004a24c     LIBCMT:throw_bad_alloc.obj
 0002:0000c414       __TI2?AVimproper_lock@Concurrency@@ 1004a414     libconcrt:rtlocks.obj
 0002:0000c424       __CTA2?AVimproper_lock@Concurrency@@ 1004a424     libconcrt:rtlocks.obj
 0002:0000c430       __CT??_R0?AVimproper_lock@Concurrency@@@8??0improper_lock@Concurrency@@QAE@ABV01@@Z12 1004a430     libconcrt:rtlocks.obj
 0002:0000c44c       __TI2?AVscheduler_resource_allocation_error@Concurrency@@ 1004a44c     libconcrt:Platform.obj
 0002:0000c45c       __CTA2?AVscheduler_resource_allocation_error@Concurrency@@ 1004a45c     libconcrt:Platform.obj
 0002:0000c468       __CT??_R0?AVscheduler_resource_allocation_error@Concurrency@@@8??0scheduler_resource_allocation_error@Concurrency@@QAE@ABV01@@Z16 1004a468     libconcrt:Platform.obj
 0002:0000c6b0       __TI2?AVunsupported_os@Concurrency@@ 1004a6b0     libconcrt:ResourceManager.obj
 0002:0000c6c0       __CTA2?AVunsupported_os@Concurrency@@ 1004a6c0     libconcrt:ResourceManager.obj
 0002:0000c6cc       __CT??_R0?AVunsupported_os@Concurrency@@@8??0unsupported_os@Concurrency@@QAE@ABV01@@Z12 1004a6cc     libconcrt:ResourceManager.obj
 0002:0000c6e8       __TI2?AVinvalid_operation@Concurrency@@ 1004a6e8     libconcrt:ResourceManager.obj
 0002:0000c6f8       __CTA2?AVinvalid_operation@Concurrency@@ 1004a6f8     libconcrt:ResourceManager.obj
 0002:0000c704       __CT??_R0?AVinvalid_operation@Concurrency@@@8??0invalid_operation@Concurrency@@QAE@ABV01@@Z12 1004a704     libconcrt:ResourceManager.obj
 0002:0000ca00       __TI2?AVimproper_scheduler_reference@Concurrency@@ 1004aa00     libconcrt:SchedulerBase.obj
 0002:0000ca10       __CTA2?AVimproper_scheduler_reference@Concurrency@@ 1004aa10     libconcrt:SchedulerBase.obj
 0002:0000ca1c       __CT??_R0?AVimproper_scheduler_reference@Concurrency@@@8??0improper_scheduler_reference@Concurrency@@QAE@ABV01@@Z12 1004aa1c     libconcrt:SchedulerBase.obj
 0002:0000ca38       __TI2?AVimproper_scheduler_attach@Concurrency@@ 1004aa38     libconcrt:SchedulerBase.obj
 0002:0000ca48       __CTA2?AVimproper_scheduler_attach@Concurrency@@ 1004aa48     libconcrt:SchedulerBase.obj
 0002:0000ca54       __CT??_R0?AVimproper_scheduler_attach@Concurrency@@@8??0improper_scheduler_attach@Concurrency@@QAE@ABV01@@Z12 1004aa54     libconcrt:SchedulerBase.obj
 0002:0000cd04       __TI2?AVmissing_wait@Concurrency@@ 1004ad04     libconcrt:TaskCollection.obj
 0002:0000cd14       __CTA2?AVmissing_wait@Concurrency@@ 1004ad14     libconcrt:TaskCollection.obj
 0002:0000cd20       __CT??_R0?AVmissing_wait@Concurrency@@@8??0missing_wait@Concurrency@@QAE@ABV01@@Z12 1004ad20     libconcrt:TaskCollection.obj
 0002:0000cd3c       __TI2?AV_Interruption_exception@details@Concurrency@@ 1004ad3c     libconcrt:TaskCollection.obj
 0002:0000cd4c       __CTA2?AV_Interruption_exception@details@Concurrency@@ 1004ad4c     libconcrt:TaskCollection.obj
 0002:0000cd58       __CT??_R0?AV_Interruption_exception@details@Concurrency@@@8??0_Interruption_exception@details@Concurrency@@QAE@ABV012@@Z12 1004ad58     libconcrt:TaskCollection.obj
 0002:0000cdcc       __TI2?AVinvalid_scheduler_policy_key@Concurrency@@ 1004adcc     libconcrt:SchedulerPolicyBase.obj
 0002:0000cddc       __CTA2?AVinvalid_scheduler_policy_key@Concurrency@@ 1004addc     libconcrt:SchedulerPolicyBase.obj
 0002:0000cde8       __CT??_R0?AVinvalid_scheduler_policy_key@Concurrency@@@8??0invalid_scheduler_policy_key@Concurrency@@QAE@ABV01@@Z12 1004ade8     libconcrt:SchedulerPolicyBase.obj
 0002:0000ce04       __TI2?AVinvalid_scheduler_policy_value@Concurrency@@ 1004ae04     libconcrt:SchedulerPolicyBase.obj
 0002:0000ce14       __CTA2?AVinvalid_scheduler_policy_value@Concurrency@@ 1004ae14     libconcrt:SchedulerPolicyBase.obj
 0002:0000ce20       __CT??_R0?AVinvalid_scheduler_policy_value@Concurrency@@@8??0invalid_scheduler_policy_value@Concurrency@@QAE@ABV01@@Z12 1004ae20     libconcrt:SchedulerPolicyBase.obj
 0002:0000ce3c       __TI2?AVinvalid_scheduler_policy_thread_specification@Concurrency@@ 1004ae3c     libconcrt:SchedulerPolicyBase.obj
 0002:0000ce4c       __CTA2?AVinvalid_scheduler_policy_thread_specification@Concurrency@@ 1004ae4c     libconcrt:SchedulerPolicyBase.obj
 0002:0000ce58       __CT??_R0?AVinvalid_scheduler_policy_thread_specification@Concurrency@@@8??0invalid_scheduler_policy_thread_specification@Concurrency@@QAE@ABV01@@Z12 1004ae58     libconcrt:SchedulerPolicyBase.obj
 0002:0000d158       __TI2?AVcontext_unblock_unbalanced@Concurrency@@ 1004b158     libconcrt:InternalContextBase.obj
 0002:0000d168       __CTA2?AVcontext_unblock_unbalanced@Concurrency@@ 1004b168     libconcrt:InternalContextBase.obj
 0002:0000d174       __CT??_R0?AVcontext_unblock_unbalanced@Concurrency@@@8??0context_unblock_unbalanced@Concurrency@@QAE@ABV01@@Z12 1004b174     libconcrt:InternalContextBase.obj
 0002:0000d190       __TI2?AVcontext_self_unblock@Concurrency@@ 1004b190     libconcrt:InternalContextBase.obj
 0002:0000d1a0       __CTA2?AVcontext_self_unblock@Concurrency@@ 1004b1a0     libconcrt:InternalContextBase.obj
 0002:0000d1ac       __CT??_R0?AVcontext_self_unblock@Concurrency@@@8??0context_self_unblock@Concurrency@@QAE@ABV01@@Z12 1004b1ac     libconcrt:InternalContextBase.obj
 0002:0000d1c8       __TI2?AVinvalid_oversubscribe_operation@Concurrency@@ 1004b1c8     libconcrt:InternalContextBase.obj
 0002:0000d1d8       __CTA2?AVinvalid_oversubscribe_operation@Concurrency@@ 1004b1d8     libconcrt:InternalContextBase.obj
 0002:0000d1e4       __CT??_R0?AVinvalid_oversubscribe_operation@Concurrency@@@8??0invalid_oversubscribe_operation@Concurrency@@QAE@ABV01@@Z12 1004b1e4     libconcrt:InternalContextBase.obj
 0002:0000d200       __TI2?AVnested_scheduler_missing_detach@Concurrency@@ 1004b200     libconcrt:InternalContextBase.obj
 0002:0000d210       __CTA2?AVnested_scheduler_missing_detach@Concurrency@@ 1004b210     libconcrt:InternalContextBase.obj
 0002:0000d21c       __CT??_R0?AVnested_scheduler_missing_detach@Concurrency@@@8??0nested_scheduler_missing_detach@Concurrency@@QAE@ABV01@@Z12 1004b21c     libconcrt:InternalContextBase.obj
 0002:0000d598       __TI3?AVscheduler_worker_creation_error@Concurrency@@ 1004b598     libconcrt:ThreadProxy.obj
 0002:0000d5a8       __CTA3?AVscheduler_worker_creation_error@Concurrency@@ 1004b5a8     libconcrt:ThreadProxy.obj
 0002:0000d5b8       __CT??_R0?AVscheduler_worker_creation_error@Concurrency@@@8??0scheduler_worker_creation_error@Concurrency@@QAE@ABV01@@Z16 1004b5b8     libconcrt:ThreadProxy.obj
 0002:0000d704       __TI2?AVbad_exception@std@@ 1004b704     libvcruntime:frame.obj
 0002:0000d714       __CTA2?AVbad_exception@std@@ 1004b714     libvcruntime:frame.obj
 0002:0000d720       __CT??_R0?AVbad_exception@std@@@8??0bad_exception@std@@QAE@ABV01@@Z12 1004b720     libvcruntime:frame.obj
 0002:0000d75c       __TI3?AV__non_rtti_object@std@@ 1004b75c     libvcruntime:rtti.obj
 0002:0000d76c       __CTA3?AV__non_rtti_object@std@@ 1004b76c     libvcruntime:rtti.obj
 0002:0000d77c       __CT??_R0?AV__non_rtti_object@std@@@8??0__non_rtti_object@std@@QAE@ABV01@@Z12 1004b77c     libvcruntime:rtti.obj
 0002:0000d798       __CT??_R0?AVbad_typeid@std@@@8??0bad_typeid@std@@QAE@ABV01@@Z12 1004b798     libvcruntime:rtti.obj
 0002:0000d7b4       __TI2?AVbad_cast@std@@     1004b7b4     libvcruntime:rtti.obj
 0002:0000d7c4       __CTA2?AVbad_cast@std@@    1004b7c4     libvcruntime:rtti.obj
 0002:0000d7d0       __CT??_R0?AVbad_cast@std@@@8??0bad_cast@std@@QAE@ABV01@@Z12 1004b7d0     libvcruntime:rtti.obj
 0002:0000ec70       __IMPORT_DESCRIPTOR_KERNEL32 1004cc70     kernel32:KERNEL32.dll
 0002:0000ec84       __NULL_IMPORT_DESCRIPTOR   1004cc84     kernel32:KERNEL32.dll
 0003:00000004       __Init_global_epoch        1004e004     LIBCMT:thread_safe_statics.obj
 0003:00000008       ___scrt_native_dllmain_reason 1004e008     LIBCMT:utility.obj
 0003:0000000c       ___security_cookie_complement 1004e00c     LIBCMT:gs_cookie.obj
 0003:00000010       ___security_cookie         1004e010     LIBCMT:gs_cookie.obj
 0003:00000020       ___isa_enabled             1004e020     LIBCMT:_cpu_disp_.obj
 0003:00000030       ?_S_spinCount@_SpinCount@details@Concurrency@@2IA 1004e030     libconcrt:rtlocks.obj
 0003:00000038       ?s_schedulerIdCount@ResourceManager@details@Concurrency@@0JC 1004e038     libconcrt:ResourceManager.obj
 0003:0000003c       ?s_executionContextIdCount@ResourceManager@details@Concurrency@@0JC 1004e03c     libconcrt:ResourceManager.obj
 0003:00000040       ?s_threadProxyIdCount@ResourceManager@details@Concurrency@@0JC 1004e040     libconcrt:ResourceManager.obj
 0003:00000044       ?s_oneShotInitializationState@SchedulerBase@details@Concurrency@@0JA 1004e044     libconcrt:SchedulerBase.obj
 0003:00000048       ?PolicyDefaults@details@Concurrency@@3PAIA 1004e048     libconcrt:SchedulerPolicyBase.obj
 0003:00000070       ?PolicyElementKeyStrings@details@Concurrency@@3PAPADA 1004e070     libconcrt:SchedulerPolicyBase.obj
 0003:000000f0       __NLG_Destination          1004e0f0     libvcruntime:_exsup_.obj
 0003:00000100       ___abort_behavior          1004e100     libucrt:abort.obj
 0003:00000108       __iob                      1004e108     libucrt:_file.obj
 0003:000001c0       ___acrt_initial_locale_data 1004e1c0     libucrt:nlsdata.obj
 0003:00000278       ___acrt_initial_locale_pointers 1004e278     libucrt:nlsdata.obj
 0003:00000280       ___acrt_wide_c_locale_string 1004e280     libucrt:nlsdata.obj
 0003:00000378       __mbctype                  1004e378     libucrt:mbctype.obj
 0003:00000480       __mbcasemap                1004e480     libucrt:mbctype.obj
 0003:00000580       ___acrt_initial_multibyte_data 1004e580     libucrt:mbctype.obj
 0003:000007a0       ___acrt_current_multibyte_data 1004e7a0     libucrt:mbctype.obj
 0003:000007b0       ___globallocalestatus      1004e7b0     libucrt:glstatus.obj
 0003:000007b4       ___acrt_lconv_static_decimal 1004e7b4     libucrt:localeconv.obj
 0003:000007b8       ___acrt_lconv_static_W_decimal 1004e7b8     libucrt:localeconv.obj
 0003:000007c0       ___acrt_lconv_c            1004e7c0     libucrt:localeconv.obj
 0003:00000810       ___dcrt_lowio_console_output_handle 1004e810     libucrt:initcon.obj
 0003:00000830       __fltused                  1004e830     LIBCMT:fltused.obj
 0003:00000848       ??_R0?AVbad_alloc@std@@@8  1004e848     libcpmt:xthrow.obj
 0003:00000864       ??_R0?AVexception@std@@@8  1004e864     libcpmt:xthrow.obj
 0003:00000880       ??_R0?AVinvalid_argument@std@@@8 1004e880     libcpmt:xthrow.obj
 0003:000008a4       ??_R0?AVlogic_error@std@@@8 1004e8a4     libcpmt:xthrow.obj
 0003:000008c4       ??_R0?AVlength_error@std@@@8 1004e8c4     libcpmt:xthrow.obj
 0003:000008e4       ??_R0?AVout_of_range@std@@@8 1004e8e4     libcpmt:xthrow.obj
 0003:00000904       ??_R0?AVruntime_error@std@@@8 1004e904     libcpmt:xthrow.obj
 0003:00000928       ??_R0?AVstl_condition_variable_interface@details@Concurrency@@@8 1004e928     libcpmt:cond.obj
 0003:0000096c       ??_R0?AVstl_condition_variable_vista@details@Concurrency@@@8 1004e96c     libcpmt:cond.obj
 0003:000009ac       ??_R0?AVstl_condition_variable_win7@details@Concurrency@@@8 1004e9ac     libcpmt:cond.obj
 0003:000009f0       ??_R0?AVstl_condition_variable_concrt@details@Concurrency@@@8 1004e9f0     libcpmt:cond.obj
 0003:00000a30       ??_R0?AVsystem_error@std@@@8 1004ea30     libcpmt:thread0.obj
 0003:00000a50       ??_R0?AV_System_error@std@@@8 1004ea50     libcpmt:thread0.obj
 0003:00000a70       ??_R0?AVerror_category@std@@@8 1004ea70     libcpmt:thread0.obj
 0003:00000a94       ??_R0?AV_Generic_error_category@std@@@8 1004ea94     libcpmt:thread0.obj
 0003:00000ac0       ??_R0?AVstl_critical_section_interface@details@Concurrency@@@8 1004eac0     libcpmt:mutex.obj
 0003:00000b04       ??_R0?AVstl_critical_section_vista@details@Concurrency@@@8 1004eb04     libcpmt:mutex.obj
 0003:00000b44       ??_R0?AVstl_critical_section_win7@details@Concurrency@@@8 1004eb44     libcpmt:mutex.obj
 0003:00000b80       ??_R0?AVstl_critical_section_concrt@details@Concurrency@@@8 1004eb80     libcpmt:mutex.obj
 0003:00000bc0       ??_R0?AVtype_info@@@8      1004ebc0     LIBCMT:std_type_info_static.obj
 0003:00000bd8       ??_R0?AVbad_array_new_length@std@@@8 1004ebd8     LIBCMT:throw_bad_alloc.obj
 0003:00000c00       ??_R0?AVWaitBlock@details@Concurrency@@@8 1004ec00     libconcrt:event.obj
 0003:00000c2c       ??_R0?AVSingleWaitBlock@details@Concurrency@@@8 1004ec2c     libconcrt:event.obj
 0003:00000c60       ??_R0?AVMultiWaitBlock@details@Concurrency@@@8 1004ec60     libconcrt:event.obj
 0003:00000c94       ??_R0?AVWaitAllBlock@details@Concurrency@@@8 1004ec94     libconcrt:event.obj
 0003:00000cc4       ??_R0?AVWaitAnyBlock@details@Concurrency@@@8 1004ecc4     libconcrt:event.obj
 0003:00000cf4       ??_R0?AVTimedSingleWaitBlock@details@Concurrency@@@8 1004ecf4     libconcrt:event.obj
 0003:00000d30       ??_R0?AV?$_MallocaArrayHolder@PAVContext@Concurrency@@@details@Concurrency@@@8 1004ed30     libconcrt:event.obj
 0003:00000d84       ??_R0?AVimproper_lock@Concurrency@@@8 1004ed84     libconcrt:rtlocks.obj
 0003:00000dac       ??_R0?AVscheduler_resource_allocation_error@Concurrency@@@8 1004edac     libconcrt:Platform.obj
 0003:00000dec       ??_R0?AVunsupported_os@Concurrency@@@8 1004edec     libconcrt:ResourceManager.obj
 0003:00000e18       ??_R0?AVinvalid_operation@Concurrency@@@8 1004ee18     libconcrt:ResourceManager.obj
 0003:00000e44       ??_R0?AVResourceManager@details@Concurrency@@@8 1004ee44     libconcrt:ResourceManager.obj
 0003:00000e78       ??_R0?AUIResourceManager@Concurrency@@@8 1004ee78     libconcrt:ResourceManager.obj
 0003:00000ea4       ??_R0?AUITopologyExecutionResource@Concurrency@@@8 1004eea4     libconcrt:ResourceManager.obj
 0003:00000edc       ??_R0?AUITopologyNode@Concurrency@@@8 1004eedc     libconcrt:ResourceManager.obj
 0003:00000f04       ??_R0?AUTopologyObject@GlobalCore@details@Concurrency@@@8 1004ef04     libconcrt:ResourceManager.obj
 0003:00000f40       ??_R0?AUTopologyObject@GlobalNode@details@Concurrency@@@8 1004ef40     libconcrt:ResourceManager.obj
 0003:00000f7c       ??_R0?AVscheduler_worker_creation_error@Concurrency@@@8 1004ef7c     libconcrt:SchedulerBase.obj
 0003:00000fb8       ??_R0?AVimproper_scheduler_reference@Concurrency@@@8 1004efb8     libconcrt:SchedulerBase.obj
 0003:00000ff0       ??_R0?AVimproper_scheduler_attach@Concurrency@@@8 1004eff0     libconcrt:SchedulerBase.obj
 0003:00001024       ??_R0?AVScheduleGroupBase@details@Concurrency@@@8 1004f024     libconcrt:SchedulerBase.obj
 0003:00001058       ??_R0?AVScheduleGroup@Concurrency@@@8 1004f058     libconcrt:SchedulerBase.obj
 0003:00001080       ??_R0?AVCacheLocalScheduleGroup@details@Concurrency@@@8 1004f080     libconcrt:SchedulerBase.obj
 0003:000010bc       ??_R0?AVFairScheduleGroup@details@Concurrency@@@8 1004f0bc     libconcrt:SchedulerBase.obj
 0003:000010f0       ??_R0?AVSchedulerBase@details@Concurrency@@@8 1004f0f0     libconcrt:SchedulerBase.obj
 0003:00001120       ??_R0?AVScheduler@Concurrency@@@8 1004f120     libconcrt:SchedulerBase.obj
 0003:00001144       ??_R0?AU_Chore@details@Concurrency@@@8 1004f144     libconcrt:SchedulerBase.obj
 0003:00001170       ??_R0?AVRealizedChore@details@Concurrency@@@8 1004f170     libconcrt:SchedulerBase.obj
 0003:000011a0       ??_R0?AVCacheLocalScheduleGroupSegment@details@Concurrency@@@8 1004f1a0     libconcrt:SchedulerBase.obj
 0003:000011e4       ??_R0?AVScheduleGroupSegmentBase@details@Concurrency@@@8 1004f1e4     libconcrt:SchedulerBase.obj
 0003:00001220       ??_R0?AVFairScheduleGroupSegment@details@Concurrency@@@8 1004f220     libconcrt:SchedulerBase.obj
 0003:0000125c       ??_R0?AVcontext_unblock_unbalanced@Concurrency@@@8 1004f25c     libconcrt:Exceptions.obj
 0003:00001294       ??_R0?AVcontext_self_unblock@Concurrency@@@8 1004f294     libconcrt:Exceptions.obj
 0003:000012c4       ??_R0?AVmissing_wait@Concurrency@@@8 1004f2c4     libconcrt:Exceptions.obj
 0003:000012ec       ??_R0?AVinvalid_scheduler_policy_key@Concurrency@@@8 1004f2ec     libconcrt:Exceptions.obj
 0003:00001324       ??_R0?AVinvalid_scheduler_policy_value@Concurrency@@@8 1004f324     libconcrt:Exceptions.obj
 0003:00001360       ??_R0?AVinvalid_scheduler_policy_thread_specification@Concurrency@@@8 1004f360     libconcrt:Exceptions.obj
 0003:000013a8       ??_R0?AVnested_scheduler_missing_detach@Concurrency@@@8 1004f3a8     libconcrt:Exceptions.obj
 0003:000013e4       ??_R0?AVinvalid_oversubscribe_operation@Concurrency@@@8 1004f3e4     libconcrt:Exceptions.obj
 0003:00001420       ??_R0?AVContextBase@details@Concurrency@@@8 1004f420     libconcrt:ContextBase.obj
 0003:00001450       ??_R0?AVContext@Concurrency@@@8 1004f450     libconcrt:ContextBase.obj
 0003:00001474       ??_R0?AV_Interruption_exception@details@Concurrency@@@8 1004f474     libconcrt:TaskCollection.obj
 0003:000014b0       ??_R0?AV_RefCounter@details@Concurrency@@@8 1004f4b0     libconcrt:TaskCollection.obj
 0003:000014e0       ??_R0?AV_CancellationTokenRegistration@details@Concurrency@@@8 1004f4e0     libconcrt:TaskCollection.obj
 0003:00001528       ??_R0?AVCancellationTokenRegistration_TaskProc@details@Concurrency@@@8 1004f528     libconcrt:TaskCollection.obj
 0003:00001578       ??_R0?AV?$_MallocaArrayHolder@PAVevent@Concurrency@@@details@Concurrency@@@8 1004f578     libconcrt:TaskCollection.obj
 0003:000015c8       ??_R0?AVExecutionResource@details@Concurrency@@@8 1004f5c8     libconcrt:ExecutionResource.obj
 0003:000015fc       ??_R0?AUIExecutionResource@Concurrency@@@8 1004f5fc     libconcrt:ExecutionResource.obj
 0003:0000162c       ??_R0?AVSchedulerProxy@details@Concurrency@@@8 1004f62c     libconcrt:SchedulerProxy.obj
 0003:00001660       ??_R0?AUISchedulerProxy@Concurrency@@@8 1004f660     libconcrt:SchedulerProxy.obj
 0003:0000168c       ??_R0?AVFreeThreadProxy@details@Concurrency@@@8 1004f68c     libconcrt:ThreadProxyFactoryManager.obj
 0003:000016c0       ??_R0?AVThreadProxy@details@Concurrency@@@8 1004f6c0     libconcrt:ThreadProxyFactoryManager.obj
 0003:000016f0       ??_R0?AUIThreadProxy@Concurrency@@@8 1004f6f0     libconcrt:ThreadProxyFactoryManager.obj
 0003:00001718       ??_R0?AUIThreadProxyFactory@details@Concurrency@@@8 1004f718     libconcrt:ThreadProxyFactoryManager.obj
 0003:00001750       ??_R0?AVFreeThreadProxyFactory@details@Concurrency@@@8 1004f750     libconcrt:ThreadProxyFactoryManager.obj
 0003:00001790       ??_R0?AV?$ThreadProxyFactory@VFreeThreadProxy@details@Concurrency@@@details@Concurrency@@@8 1004f790     libconcrt:ThreadProxyFactoryManager.obj
 0003:000017f0       ??_R0?AVVirtualProcessor@details@Concurrency@@@8 1004f7f0     libconcrt:VirtualProcessor.obj
 0003:00001824       ??_R0?AVInternalContextBase@details@Concurrency@@@8 1004f824     libconcrt:InternalContextBase.obj
 0003:0000185c       ??_R0?AUIExecutionContext@Concurrency@@@8 1004f85c     libconcrt:InternalContextBase.obj
 0003:00001888       ??_R0?AVExternalContextBase@details@Concurrency@@@8 1004f888     libconcrt:ExternalContextBase.obj
 0003:000018c0       ??_R0?AVThreadScheduler@details@Concurrency@@@8 1004f8c0     libconcrt:ThreadScheduler.obj
 0003:000018f4       ??_R0?AUIScheduler@Concurrency@@@8 1004f8f4     libconcrt:ThreadScheduler.obj
 0003:0000191c       ??_R0?AVThreadInternalContext@details@Concurrency@@@8 1004f91c     libconcrt:ThreadScheduler.obj
 0003:00001954       ??_R0?AVVirtualProcessorRoot@details@Concurrency@@@8 1004f954     libconcrt:VirtualProcessorRoot.obj
 0003:0000198c       ??_R0?AUIVirtualProcessorRoot@Concurrency@@@8 1004f98c     libconcrt:VirtualProcessorRoot.obj
 0003:000019bc       ??_R0?AVFreeVirtualProcessorRoot@details@Concurrency@@@8 1004f9bc     libconcrt:FreeVirtualProcessorRoot.obj
 0003:000019f8       ??_R0?AVThreadVirtualProcessor@details@Concurrency@@@8 1004f9f8     libconcrt:ThreadVirtualProcessor.obj
 0003:00001a34       ??_R0?AVbad_exception@std@@@8 1004fa34     libvcruntime:frame.obj
 0003:00001a54       ??_R0?AV__non_rtti_object@std@@@8 1004fa54     libvcruntime:rtti.obj
 0003:00001a78       ??_R0?AVbad_typeid@std@@@8 1004fa78     libvcruntime:rtti.obj
 0003:00001a98       ??_R0?AVbad_cast@std@@@8   1004fa98     libvcruntime:rtti.obj
 0003:00001ab4       ??_R0?AV_Ref_count_base@std@@@8 1004fab4     libcpmt:excptptr.obj
 0003:00001ad8       ??_R0?AV?$_Ref_count_obj_alloc@V__ExceptionPtr@@U?$_StaticAllocator@H@@@std@@@8 1004fad8     libcpmt:excptptr.obj
 0003:00001b2c       ??_R0?AV?$_Ref_count_obj@V__ExceptionPtr@@@std@@@8 1004fb2c     libcpmt:excptptr.obj
 0003:00001b64       ??_R0?AVIGamePatch@@@8     1004fb64     CreatureBanksExtender.obj
 0003:00001b80       ??_R0?AVObjectsExtender@extender@@@8 1004fb80     CreatureBanksExtender.obj
 0003:00001ba8       ??_R0?AVCreatureBanksExtender@cbanks@@@8 1004fba8     CreatureBanksExtender.obj
 0003:00001bd4       ??_R0?AVShrinesExternder@shrines@@@8 1004fbd4     ShrinesExternder.obj
 0003:00001bfc       ??_R0?AVWarehousesExtender@warehouses@@@8 1004fbfc     WarehousesExtender.obj
 0003:00001c28       ??_R0?AVRMGObjectsEditor@editor@@@8 1004fc28     RMGObjectsEditor.obj
 0003:00001c50       ??_R0?AUH3Allocator@h3@@@8 1004fc50     RMG_SettingsDlg.obj
 0003:00001c70       ??_R0?AUObjectsPanel@RMG_SettingsDlg@rmgdlg@@@8 1004fc70     RMG_SettingsDlg.obj
 0003:00001ca4       ??_R0?AUH3ExtendedDlg@h3@@@8 1004fca4     RMG_SettingsDlg.obj
 0003:00001cc8       ??_R0?AV?$_LaunchPad@V?$unique_ptr@V?$tuple@P6AXXZ@std@@U?$default_delete@V?$tuple@P6AXXZ@std@@@2@@std@@@std@@@8 1004fcc8     RMG_SettingsDlg.obj
 0003:00001d3c       ??_R0?AUPage@RMG_SettingsDlg@rmgdlg@@@8 1004fd3c     RMG_SettingsDlg.obj
 0003:00001d68       ??_R0?AVRMG_SettingsDlg@rmgdlg@@@8 1004fd68     RMG_SettingsDlg.obj
 0003:00001d90       ??_R0?AUBanksPage@RMG_SettingsDlg@rmgdlg@@@8 1004fd90     RMG_SettingsDlg.obj
 0003:00001dc0       ??_R0?AUObjectsPage@RMG_SettingsDlg@rmgdlg@@@8 1004fdc0     RMG_SettingsDlg.obj
 0003:00001df4       ??_R0?AV_Pad@std@@@8       1004fdf4     RMG_SettingsDlg.obj
 0003:00001e0c       ??_R0?AUH3NetworkDlg@h3@@@8 1004fe0c     RMG_SettingsDlg.obj
 0003:00001e2c       ??_R0?AUMiscPage@RMG_SettingsDlg@rmgdlg@@@8 1004fe2c     RMG_SettingsDlg.obj
 0003:00001e5c       ??_R0?AUH3BaseDlg@h3@@@8   1004fe5c     RMG_SettingsDlg.obj
 0003:00001e78       ??_R0?AUH3Dlg@h3@@@8       1004fe78     RMG_SettingsDlg.obj
 0003:00001e90       ?_Static@?1???$_Immortalize@V_Generic_error_category@std@@@std@@YAAAV_Generic_error_category@1@XZ@4U?$_Immortalizer@V_Generic_error_category@std@@@1@A 1004fe90     libcpmt:thread0.obj
 0003:00001e98       ??_B?1???$_Immortalize@V_Generic_error_category@std@@@std@@YAAAV_Generic_error_category@0@XZ@51 1004fe98     libcpmt:thread0.obj
 0003:00001e9c       ?__stl_sync_api_impl_mode@@3W4__stl_sync_api_modes_enum@@A 1004fe9c     libcpmt:mutex.obj
 0003:00002038       ___encodedKERNEL32Functions 10050038     libcpmt:winapisupp.obj
 0003:000021c8       ___scrt_current_native_startup_state 100501c8     LIBCMT:utility.obj
 0003:000021cc       ___scrt_native_startup_lock 100501cc     LIBCMT:utility.obj
 0003:000021f0       ___scrt_debugger_hook_flag 100501f0     LIBCMT:utility_desktop.obj
 0003:000021f4       __tls_index                100501f4     LIBCMT:tlssup.obj
 0003:000021f8       ___isa_available           100501f8     LIBCMT:_cpu_disp_.obj
 0003:000021fc       ___favor                   100501fc     LIBCMT:_cpu_disp_.obj
 0003:00002200       ?__type_info_root_node@@3U__type_info_node@@A 10050200     LIBCMT:tncleanup.obj
 0003:00002208       ?_OptionsStorage@?1??__local_stdio_scanf_options@@9@4_KA 10050208     LIBCMT:default_local_stdio_options.obj
 0003:0000252c       ?g_TimerQueueDemandInit@details@Concurrency@@3JC 1005052c     libconcrt:event.obj
 0003:00002530       ?g_hTimerQueue@details@Concurrency@@3RAXA 10050530     libconcrt:event.obj
 0003:00002558       ?LoadLibraryCount@details@Concurrency@@3JC 10050558     libconcrt:utils.obj
 0003:0000255c       ?HostModule@details@Concurrency@@3PAUHINSTANCE__@@A 1005055c     libconcrt:utils.obj
 0003:00002564       ?s_pResourceManager@ResourceManager@details@Concurrency@@0PAV123@A 10050564     libconcrt:ResourceManager.obj
 0003:00002568       ?s_processAffinityMask@ResourceManager@details@Concurrency@@0KA 10050568     libconcrt:ResourceManager.obj
 0003:0000256c       ?s_systemAffinityMask@ResourceManager@details@Concurrency@@0KA 1005056c     libconcrt:ResourceManager.obj
 0003:00002570       ?s_pUserAffinityRestriction@ResourceManager@details@Concurrency@@0PAUAffinityRestriction@123@A 10050570     libconcrt:ResourceManager.obj
 0003:00002574       ?s_pProcessAffinityRestriction@ResourceManager@details@Concurrency@@0PAUAffinityRestriction@123@A 10050574     libconcrt:ResourceManager.obj
 0003:00002578       ?s_coreCount@ResourceManager@details@Concurrency@@0IA 10050578     libconcrt:ResourceManager.obj
 0003:0000257c       ?s_countProcessorPackages@ResourceManager@details@Concurrency@@0_NA 1005057c     libconcrt:ResourceManager.obj
 0003:00002580       ?s_nodeCount@ResourceManager@details@Concurrency@@0IA 10050580     libconcrt:ResourceManager.obj
 0003:00002584       ?s_numaNodeCount@ResourceManager@details@Concurrency@@0IA 10050584     libconcrt:ResourceManager.obj
 0003:00002588       ?s_version@ResourceManager@details@Concurrency@@0W4OSVersion@IResourceManager@3@A 10050588     libconcrt:ResourceManager.obj
 0003:0000258c       ?s_logicalProcessorInformationLength@ResourceManager@details@Concurrency@@0KA 1005058c     libconcrt:ResourceManager.obj
 0003:00002590       ?s_pSysInfo@ResourceManager@details@Concurrency@@0PAU_SYSTEM_LOGICAL_PROCESSOR_INFORMATION@@A 10050590     libconcrt:ResourceManager.obj
 0003:00002594       ?s_pDefaultScheduler@SchedulerBase@details@Concurrency@@1PAV123@A 10050594     libconcrt:SchedulerBase.obj
 0003:00002598       ?s_pDefaultSchedulerPolicy@SchedulerBase@details@Concurrency@@1PAVSchedulerPolicy@3@A 10050598     libconcrt:SchedulerBase.obj
 0003:0000259c       ?t_dwContextIndex@SchedulerBase@details@Concurrency@@1KA 1005059c     libconcrt:SchedulerBase.obj
 0003:000025a0       ?s_workQueueIdCounter@SchedulerBase@details@Concurrency@@0JC 100505a0     libconcrt:SchedulerBase.obj
 0003:000025a4       ?s_initializedCount@SchedulerBase@details@Concurrency@@0JA 100505a4     libconcrt:SchedulerBase.obj
 0003:000025a8       ?s_numExternalAllocators@SchedulerBase@details@Concurrency@@0JC 100505a8     libconcrt:SchedulerBase.obj
 0003:000025b0       ?s_initialized@Security@details@Concurrency@@2JC 100505b0     libconcrt:staticinits.obj
 0003:000025b4       ?s_schedulerLock@SchedulerBase@details@Concurrency@@0V_NonReentrantLock@23@A 100505b4     libconcrt:staticinits.obj
 0003:000025b8       ?s_cookie@Security@details@Concurrency@@2KA 100505b8     libconcrt:staticinits.obj
 0003:000025bc       ?s_defaultSchedulerLock@SchedulerBase@details@Concurrency@@1V_NonReentrantLock@23@A 100505bc     libconcrt:staticinits.obj
 0003:000025c0       ?s_subAllocatorFreePool@SchedulerBase@details@Concurrency@@0V?$LockFreeStack@VSubAllocator@details@Concurrency@@@23@A 100505c0     libconcrt:staticinits.obj
 0003:000025c8       ?s_lock@Etw@details@Concurrency@@0V_NonReentrantLock@23@A 100505c8     libconcrt:staticinits.obj
 0003:000025cc       ?s_lock@ResourceManager@details@Concurrency@@0V_NonReentrantLock@23@A 100505cc     libconcrt:staticinits.obj
 0003:000025d0       ?s_pfn_RoInitialize@WinRT@details@Concurrency@@0P6GJW4RO_INIT_TYPE@@@ZA 100505d0     libconcrt:WinRTWrapper.obj
 0003:000025d4       ?s_pfn_RoUninitialize@WinRT@details@Concurrency@@0P6GXXZA 100505d4     libconcrt:WinRTWrapper.obj
 0003:000025d8       ?m_hModule@WinRT@details@Concurrency@@0PAUHINSTANCE__@@A 100505d8     libconcrt:WinRTWrapper.obj
 0003:000025dc       ?s_fInitialized@WinRT@details@Concurrency@@0JC 100505dc     libconcrt:WinRTWrapper.obj
 0003:000025e0       ?s_bucketSize@?$ThreadProxyFactory@VFreeThreadProxy@details@Concurrency@@@details@Concurrency@@1HA 100505e0     libconcrt:ThreadProxyFactoryManager.obj
 0003:000025e8       ?g_TraceInfo@details@Concurrency@@3U_CONCRT_TRACE_INFO@12@A 100505e8     libconcrt:Trace.obj
 0003:000025f0       ?g_ConcRTSessionHandle@details@Concurrency@@3_KA 100505f0     libconcrt:Trace.obj
 0003:000025f8       ?g_pEtw@details@Concurrency@@3PAVEtw@12@A 100505f8     libconcrt:Trace.obj
 0003:00002600       ?g_ConcRTPRoviderHandle@details@Concurrency@@3_KA 10050600     libconcrt:Trace.obj
 0003:00002608       ?t_dwSchedulingContextIndex@UMSThreadScheduler@details@Concurrency@@0KA 10050608     libconcrt:UMSThreadScheduler.obj
 0003:0000260c       ?s_currentId@VirtualProcessorRoot@details@Concurrency@@0JA 1005060c     libconcrt:VirtualProcessorRoot.obj
 0003:00002610       ?s_pfn_CreateUmsCompletionList@UMS@details@Concurrency@@0P6GHPAPAX@ZA 10050610     libconcrt:UMSWrapper.obj
 0003:00002614       ?s_pfn_DequeueUmsCompletionListItems@UMS@details@Concurrency@@0P6GHPAXKPAPAX@ZA 10050614     libconcrt:UMSWrapper.obj
 0003:00002618       ?s_pfn_GetUmsCompletionListEvent@UMS@details@Concurrency@@0P6GHPAXPAPAX@ZA 10050618     libconcrt:UMSWrapper.obj
 0003:0000261c       ?s_pfn_ExecuteUmsThread@UMS@details@Concurrency@@0P6GHPAX@ZA 1005061c     libconcrt:UMSWrapper.obj
 0003:00002620       ?s_pfn_UmsThreadYield@UMS@details@Concurrency@@0P6GHPAX@ZA 10050620     libconcrt:UMSWrapper.obj
 0003:00002624       ?s_pfn_DeleteUmsCompletionList@UMS@details@Concurrency@@0P6GHPAX@ZA 10050624     libconcrt:UMSWrapper.obj
 0003:00002628       ?s_pfn_GetCurrentUmsThread@UMS@details@Concurrency@@0P6GPAXXZA 10050628     libconcrt:UMSWrapper.obj
 0003:0000262c       ?s_pfn_GetNextUmsListItem@UMS@details@Concurrency@@0P6GPAXPAX@ZA 1005062c     libconcrt:UMSWrapper.obj
 0003:00002630       ?s_pfn_QueryUmsThreadInformation@UMS@details@Concurrency@@0P6GHPAXW4_RTL_UMS_THREAD_INFO_CLASS@@0KPAK@ZA 10050630     libconcrt:UMSWrapper.obj
 0003:00002634       ?s_pfn_SetUmsThreadInformation@UMS@details@Concurrency@@0P6GHPAXW4_RTL_UMS_THREAD_INFO_CLASS@@0K@ZA 10050634     libconcrt:UMSWrapper.obj
 0003:00002638       ?s_pfn_DeleteUmsThreadContext@UMS@details@Concurrency@@0P6GHPAX@ZA 10050638     libconcrt:UMSWrapper.obj
 0003:0000263c       ?s_pfn_CreateUmsThreadContext@UMS@details@Concurrency@@0P6GHPAPAX@ZA 1005063c     libconcrt:UMSWrapper.obj
 0003:00002640       ?s_pfn_EnterUmsSchedulingMode@UMS@details@Concurrency@@0P6GHPAU_UMS_SCHEDULER_STARTUP_INFO@@@ZA 10050640     libconcrt:UMSWrapper.obj
 0003:00002644       ?s_pfn_CreateRemoteThreadEx@UMS@details@Concurrency@@0P6GPAXPAXPAU_SECURITY_ATTRIBUTES@@KP6GK0@Z0KPAU_PROC_THREAD_ATTRIBUTE_LIST@@PAK@ZA 10050644     libconcrt:UMSWrapper.obj
 0003:00002648       ?s_pfn_InitializeProcThreadAttributeList@UMS@details@Concurrency@@0P6GHPAU_PROC_THREAD_ATTRIBUTE_LIST@@KKPAK@ZA 10050648     libconcrt:UMSWrapper.obj
 0003:0000264c       ?s_pfn_UpdateProcThreadAttribute@UMS@details@Concurrency@@0P6GHPAU_PROC_THREAD_ATTRIBUTE_LIST@@KKPAXK1PAK@ZA 1005064c     libconcrt:UMSWrapper.obj
 0003:00002650       ?s_pfn_DeleteProcThreadAttributeList@UMS@details@Concurrency@@0P6GXPAU_PROC_THREAD_ATTRIBUTE_LIST@@@ZA 10050650     libconcrt:UMSWrapper.obj
 0003:00002654       ?s_fInitialized@UMS@details@Concurrency@@0JC 10050654     libconcrt:UMSWrapper.obj
 0003:00002658       ?g_OutOfMemoryExceptionCallback@@3P6GPAXXZA 10050658     libvcruntime:frame.obj
 0003:000026b8       ___pPurecall               100506b8     libvcruntime:purevirt_data.obj
 0003:000026d8       ?pArgList@UnDecorator@@0PAVReplicator@@A 100506d8     libvcruntime:undname.obj
 0003:000026dc       ?pZNameList@UnDecorator@@0PAVReplicator@@A 100506dc     libvcruntime:undname.obj
 0003:000026e0       ?pTemplateArgList@UnDecorator@@0PAVReplicator@@A 100506e0     libvcruntime:undname.obj
 0003:000026e4       ?gName@UnDecorator@@0PBDB  100506e4     libvcruntime:undname.obj
 0003:000026e8       ?name@UnDecorator@@0PBDB   100506e8     libvcruntime:undname.obj
 0003:000026ec       ?outputString@UnDecorator@@0PADA 100506ec     libvcruntime:undname.obj
 0003:000026f0       ?maxStringLength@UnDecorator@@0HA 100506f0     libvcruntime:undname.obj
 0003:000026f4       ?disableFlags@UnDecorator@@0KA 100506f4     libvcruntime:undname.obj
 0003:000026f8       ?fExplicitTemplateParams@UnDecorator@@0_NA 100506f8     libvcruntime:undname.obj
 0003:000026f9       ?fGetTemplateArgumentList@UnDecorator@@0_NA 100506f9     libvcruntime:undname.obj
 0003:000026fc       ?m_pGetParameter@UnDecorator@@0P6APADJ@ZA 100506fc     libvcruntime:undname.obj
 0003:00002718       __nstream                  10050718     libucrt:_file.obj
 0003:0000271c       ___piob                    1005071c     libucrt:_file.obj
 0003:00002978       __environ_table            10050978     libucrt:environment_initialization.obj
 0003:0000297c       __wenviron_table           1005097c     libucrt:environment_initialization.obj
 0003:00002980       ___dcrt_initial_wide_environment 10050980     libucrt:environment_initialization.obj
 0003:00002984       ___dcrt_initial_narrow_environment 10050984     libucrt:environment_initialization.obj
 0003:00002988       ___acrt_atexit_table       10050988     libucrt:onexit.obj
 0003:00002994       ___acrt_at_quick_exit_table 10050994     libucrt:onexit.obj
 0003:000029a4       ___acrt_stdout_buffer      100509a4     libucrt:_sftbuf.obj
 0003:000029a8       ___acrt_stderr_buffer      100509a8     libucrt:_sftbuf.obj
 0003:000029ac       ___acrt_locale_changed_data 100509ac     libucrt:wsetlocale.obj
 0003:000029b0       ___acrt_current_locale_data 100509b0     libucrt:nlsdata.obj
 0003:000029b8       ___pioinfo                 100509b8     libucrt:ioinit.obj
 0003:00002bb8       __nhandle                  10050bb8     libucrt:ioinit.obj
 0003:00002bc0       ___acrt_heap               10050bc0     libucrt:heap_handle.obj
 0003:00002cac       ___mblocalename            10050cac     libucrt:mbctype.obj
 0003:00002cb0       ___mbcodepage              10050cb0     libucrt:mbctype.obj
 0003:00002cb4       ___ismbcodepage            10050cb4     libucrt:mbctype.obj
 0003:00002cb8       ___mbulinfo                10050cb8     libucrt:mbctype.obj
 0003:00002ccc       ___argc                    10050ccc     libucrt:argv_data.obj
 0003:00002cd0       ___argv                    10050cd0     libucrt:argv_data.obj
 0003:00002cd4       ___wargv                   10050cd4     libucrt:argv_data.obj
 0003:00002cd8       __acmdln                   10050cd8     libucrt:argv_data.obj
 0003:00002cdc       __wcmdln                   10050cdc     libucrt:argv_data.obj
 0003:00002ce0       __pgmptr                   10050ce0     libucrt:argv_data.obj
 0003:00002ce8       ___fastflag                10050ce8     libucrt:fp_flags.obj
 0003:00002cec       ___acrt_lconv_static_null  10050cec     libucrt:localeconv.obj
 0003:00002cf0       ___acrt_lconv_static_W_null 10050cf0     libucrt:localeconv.obj
 0003:00002d00       ?m_badAllocExceptionPtr@__ExceptionPtr@@0V?$shared_ptr@V__ExceptionPtr@@@std@@A 10050d00     libcpmt:excptptr.obj
 0003:00002d80       ?_OptionsStorage@?1??__local_stdio_printf_options@@9@4_KA 10050d80     era.obj
 0003:00002d90       ?globalPatcher@@3PAVPatcher@@A 10050d90     dllmain.obj
 0003:00002d94       ?_PI@@3PAVPatcherInstance@@A 10050d94     dllmain.obj
 0003:00002d98       ?id@ObjectsPanel@RMG_SettingsDlg@rmgdlg@@2IA 10050d98     RMG_SettingsDlg.obj
 0003:00002d9c       ?instance@RMG_SettingsDlg@rmgdlg@@0PAV12@A 10050d9c     RMG_SettingsDlg.obj
 0003:00002da0       ?dlg@Page@RMG_SettingsDlg@rmgdlg@@2PAV23@A 10050da0     RMG_SettingsDlg.obj
 0003:00002da4       ?SetIsElixirOfLifeStackFunc@Era@@3P6GP6GHPAE@ZP6GH0@Z@ZA 10050da4     era.obj
 0003:00002da8       ?hEra@Era@@3PAUHINSTANCE__@@A 10050da8     era.obj
 0003:00002dac       ?CalcHookPatchSize@Era@@3P6GHPAX@ZA 10050dac     era.obj
 0003:00002db0       ?GetEraVersion@Era@@3P6GPADXZA 10050db0     era.obj
 0003:00002db4       ?GetCampaignFileName@Era@@3P6GPADXZA 10050db4     era.obj
 0003:00002db8       ?WriteStrToIni@Era@@3P6GHPBD000@ZA 10050db8     era.obj
 0003:00002dbc       ?GetGameState@Era@@3P6GXPAUTGameState@1@@ZA 10050dbc     era.obj
 0003:00002dc0       ?NameTrigger@Era@@3P6GXHPBD@ZA 10050dc0     era.obj
 0003:00002dc4       ?FireErmEvent@Era@@3P6GXH@ZA 10050dc4     era.obj
 0003:00002dc8       ?RedirectMemoryBlock@Era@@3P6GXPAXH0@ZA 10050dc8     era.obj
 0003:00002dcc       ?FormatQuantity@Era@@3P6GHHPADHHH@ZA 10050dcc     era.obj
 0003:00002dd0       ?ToStaticStr@Era@@3P6GPADPBD@ZA 10050dd0     era.obj
 0003:00002dd4       ?GetButtonID@Era@@3P6GHPBD@ZA 10050dd4     era.obj
 0003:00002dd8       ?HookCode@Era@@3P6GPAXPAXP6GHPAUTHookContext@1@@ZPAPAX@ZA 10050dd8     era.obj
 0003:00002ddc       ?GetRealAddr@Era@@3P6GPAXPAX@ZA 10050ddc     era.obj
 0003:00002de0       ?GetEraRegistryIntValue@Era@@3P6GHPBD@ZA 10050de0     era.obj
 0003:00002de4       ?FreeAppliedPatch@Era@@3P6GXPAX@ZA 10050de4     era.obj
 0003:00002de8       ?NotifyError@Era@@3P6GXPBD@ZA 10050de8     era.obj
 0003:00002dec       ?GlobalRedirectFile@Era@@3P6GXPBD0@ZA 10050dec     era.obj
 0003:00002df0       ?WriteSavegameSection@Era@@3P6GXHPAXPBD@ZA 10050df0     era.obj
 0003:00002df4       ?FireEvent@Era@@3P6GXPBDPAXH@ZA 10050df4     era.obj
 0003:00002df8       ?IsCommanderId@Era@@3P6GHH@ZA 10050df8     era.obj
 0003:00002dfc       ?ExecPersistedErmCmd@Era@@3P6GXPAX@ZA 10050dfc     era.obj
 0003:00002e00       ?ShowErmError@Era@@3P6GXPBD@ZA 10050e00     era.obj
 0003:00002e04       ?SetAssocVarIntValue@Era@@3P6GXPBDH@ZA 10050e04     era.obj
 0003:00002e08       ?PluginExists@Era@@3P6GHPBD@ZA 10050e08     era.obj
 0003:00002e0c       ?ExtractErm@Era@@3P6GXXZA  10050e0c     era.obj
 0003:00002e10       ?FindNextObject@Era@@3P6GHHHPAH00W4ESearchDirection@1@@ZA 10050e10     era.obj
 0003:00002e14       ?ClearAllIniCache@Era@@3P6GXXZA 10050e14     era.obj
 0003:00002e18       ?AllocErmFunc@Era@@3P6GHPBDAAH@ZA 10050e18     era.obj
 0003:00002e1c       ?GetMapFileName@Era@@3P6GPADXZA 10050e1c     era.obj
 0003:00002e20       ?Splice@Era@@3P6GPAXPAX0HHPAHPAPAX@ZA 10050e20     era.obj
 0003:00002e24       ?GetRetXVars@Era@@3P6GPAY0BA@HXZA 10050e24     era.obj
 0003:00002e28       ?ReadStrFromIni@Era@@3P6GHPBD00PAD@ZA 10050e28     era.obj
 0003:00002e2c       ?ExecErmCmd@Era@@3P6GXPBD@ZA 10050e2c     era.obj
 0003:00002e30       ?IsCampaign@Era@@3P6GHXZA  10050e30     era.obj
 0003:00002e34       ?GetAssocVarIntValue@Era@@3P6GHPBD@ZA 10050e34     era.obj
 0003:00002e38       ?PersistErmCmd@Era@@3P6GPAXPBD@ZA 10050e38     era.obj
 0003:00002e3c       ?trTemp@Era@@3P6GPADPBDPAPBDH@ZA 10050e3c     era.obj
 0003:00002e40       ?ReloadErm@Era@@3P6GXXZA   10050e40     era.obj
 0003:00002e44       ?PcxPngExists@Era@@3P6GHPBD@ZA 10050e44     era.obj
 0003:00002e48       ?RollbackAppliedPatch@Era@@3P6GXPAX@ZA 10050e48     era.obj
 0003:00002e4c       ?FatalError@Era@@3P6GXPBD@ZA 10050e4c     era.obj
 0003:00002e50       ?RedirectFile@Era@@3P6GXPBD0@ZA 10050e50     era.obj
 0003:00002e54       ?SetLanguage@Era@@3P6GHPBD@ZA 10050e54     era.obj
 0003:00002e58       ?SaveIni@Era@@3P6GHPBD@ZA  10050e58     era.obj
 0003:00002e5c       ?trStatic@Era@@3P6GPADPBD@ZA 10050e5c     era.obj
 0003:00002e60       ?GetCampaignMapInd@Era@@3P6GHXZA 10050e60     era.obj
 0003:00002e64       ?GetAssocVarStrValue@Era@@3P6GPADPBD@ZA 10050e64     era.obj
 0003:00002e68       ?SetIsCommanderIdFunc@Era@@3P6GP6GHH@ZP6GHH@Z@ZA 10050e68     era.obj
 0003:00002e6c       ?GetTriggerReadableName@Era@@3P6GPADH@ZA 10050e6c     era.obj
 0003:00002e70       ?SplitMix32@Era@@3P6GHPAHHH@ZA 10050e70     era.obj
 0003:00002e74       ?SetRegenerationAbility@Era@@3P6GXHHHH@ZA 10050e74     era.obj
 0003:00002e78       ?SetEraRegistryIntValue@Era@@3P6GXPBDH@ZA 10050e78     era.obj
 0003:00002e7c       ?GetArgXVars@Era@@3P6GPAY0BA@HXZA 10050e7c     era.obj
 0003:00002e80       ?ReportPluginVersion@Era@@3P6GXPBD@ZA 10050e80     era.obj
 0003:00002e84       ?WriteAtCode@Era@@3P6GXHPAX0@ZA 10050e84     era.obj
 0003:00002e88       ?NameColor@Era@@3P6GXHPBD@ZA 10050e88     era.obj
 0003:00002e8c       ?SetEraRegistryStrValue@Era@@3P6GXPBD0@ZA 10050e8c     era.obj
 0003:00002e90       ?GetEraRegistryStrValue@Era@@3P6GPADPBD@ZA 10050e90     era.obj
 0003:00002e94       ?ReloadLanguageData@Era@@3P6GXXZA 10050e94     era.obj
 0003:00002e98       ?SetAssocVarStrValue@Era@@3P6GXPBD0@ZA 10050e98     era.obj
 0003:00002e9c       ?ClearIniCache@Era@@3P6GXPBD@ZA 10050e9c     era.obj
 0003:00002ea0       ?GetVersionNum@Era@@3P6GHXZA 10050ea0     era.obj
 0003:00002ea4       ?ShowMessage@Era@@3P6GXPBD@ZA 10050ea4     era.obj
 0003:00002ea8       ?FastQuitToGameMenu@Era@@3P6GHW4EGameMenuTarget@1@@ZA 10050ea8     era.obj
 0003:00002eac       ?Hash32@Era@@3P6GHPBDH@ZA  10050eac     era.obj
 0003:00002eb0       ?LoadImageAsPcx16@Era@@3P6GPAXPBD0HHHHW4EImageResizeAlg@1@@ZA 10050eb0     era.obj
 0003:00002eb4       ?DecorateInt@Era@@3P6GHHPADH@ZA 10050eb4     era.obj
 0003:00002eb8       ?GetProcessGuid@Era@@3P6GPADXZA 10050eb8     era.obj
 0003:00002ebc       ?RegisterHandler@Era@@3P6GXP6GXPAUTEvent@1@@ZPBD@ZA 10050ebc     era.obj
 0003:00002ec0       ?MemFree@Era@@3P6GXPBX@ZA  10050ec0     era.obj
 0003:00002ec4       ?SetStdRegenerationEffect@Era@@3P6GXHH@ZA 10050ec4     era.obj
 0003:00002ec8       ?GenerateDebugInfo@Era@@3P6GXXZA 10050ec8     era.obj
 0003:00002ecc       ?_tr@Era@@3P6GPADPBDPAPBDH@ZA 10050ecc     era.obj
 0003:00002ed0       ?ReadSavegameSection@Era@@3P6GHHPAXPBD@ZA 10050ed0     era.obj
 0003:00002ed4       ?PatchExists@Era@@3P6GHPBD@ZA 10050ed4     era.obj
 0003:00002ed8       ?additionalRmgObjects@ObjectsExtender@extender@@1V?$vector@URMGObjectInfo@@V?$allocator@URMGObjectInfo@@@std@@@std@@A 10050ed8     ObjectsExtender.obj
 0003:00002ee4       ?additionalProperties@ObjectsExtender@extender@@1V?$vector@V?$basic_string@DU?$char_traits@D@std@@V?$allocator@D@2@@std@@V?$allocator@V?$basic_string@DU?$char_traits@D@std@@V?$allocator@D@2@@std@@@2@@std@@A 10050ee4     ObjectsExtender.obj
 0003:00002ef0       ?extenders@ObjectsExtender@extender@@0V?$set@PAVObjectsExtender@extender@@U?$less@PAVObjectsExtender@extender@@@std@@V?$allocator@PAVObjectsExtender@extender@@@4@@std@@A 10050ef0     ObjectsExtender.obj
 0003:00002f00       ?generatedInfo@@3UGeneratedInfo@@A 10050f00     RMGObjectsEditor.obj
 0003:00002f18       ?m_commonObjects@RMG_SettingsDlg@rmgdlg@@0V?$vector@U?$pair@UH3ObjectAttributes@h3@@PAUH3LoadedPcx16@2@@std@@V?$allocator@U?$pair@UH3ObjectAttributes@h3@@PAUH3LoadedPcx16@2@@std@@@2@@std@@A 10050f18     RMG_SettingsDlg.obj
 0003:00002f24       ?m_banks@RMG_SettingsDlg@rmgdlg@@0V?$vector@U?$pair@UH3ObjectAttributes@h3@@PAUH3LoadedPcx16@2@@std@@V?$allocator@U?$pair@UH3ObjectAttributes@h3@@PAUH3LoadedPcx16@2@@std@@@2@@std@@A 10050f24     RMG_SettingsDlg.obj
 0003:00002f30       ?m_wogObjects@RMG_SettingsDlg@rmgdlg@@0V?$vector@U?$pair@UH3ObjectAttributes@h3@@PAUH3LoadedPcx16@2@@std@@V?$allocator@U?$pair@UH3ObjectAttributes@h3@@PAUH3LoadedPcx16@2@@std@@@2@@std@@A 10050f30     RMG_SettingsDlg.obj
 0003:00002f3c       ?m_dwellings@RMG_SettingsDlg@rmgdlg@@0V?$vector@U?$pair@UH3ObjectAttributes@h3@@PAUH3LoadedPcx16@2@@std@@V?$allocator@U?$pair@UH3ObjectAttributes@h3@@PAUH3LoadedPcx16@2@@std@@@2@@std@@A 10050f3c     RMG_SettingsDlg.obj
 0003:00002f48       ?m_objectAttributes@RMG_SettingsDlg@rmgdlg@@0V?$vector@PAV?$vector@U?$pair@UH3ObjectAttributes@h3@@PAUH3LoadedPcx16@2@@std@@V?$allocator@U?$pair@UH3ObjectAttributes@h3@@PAUH3LoadedPcx16@2@@std@@@2@@std@@V?$allocator@PAV?$vector@U?$pair@UH3ObjectAttributes@h3@@PAUH3LoadedPcx16@2@@std@@V?$allocator@U?$pair@UH3ObjectAttributes@h3@@PAUH3LoadedPcx16@2@@std@@@2@@std@@@2@@std@@B 10050f48     RMG_SettingsDlg.obj
 0003:0000489c       ___dyn_tls_init_callback   1005289c     <common>
 0003:000048a0       ___scrt_ucrt_dll_is_in_use 100528a0     <common>
 0003:000048a4       __pmatherr                 100528a4     <common>
 0003:000048a8       ___use_sse2_mathfcns       100528a8     <common>
 0005:00000000       __tls_start                10054000     LIBCMT:tlssup.obj
 0005:00000004       __Init_thread_epoch        10054004     LIBCMT:thread_safe_statics.obj
 0005:00000008       __tls_end                  10054008     LIBCMT:tlssup.obj

 entry point at        0001:0000a9fa

 Static symbols

 0000:fffa6000       .debug$S                   10000000     kernel32:KERNEL32.dll
 0000:fffa6000       .debug$S                   10000000     kernel32:KERNEL32.dll
 0000:fffa6000       .debug$S                   10000000     kernel32:KERNEL32.dll
 0000:fffa6000       .debug$S                   10000000     kernel32:KERNEL32.dll
 0000:fffa6000       .debug$S                   10000000     kernel32:KERNEL32.dll
 0000:fffa6000       .debug$S                   10000000     kernel32:KERNEL32.dll
 0000:fffa6000       .debug$S                   10000000     kernel32:KERNEL32.dll
 0000:fffa6000       .debug$S                   10000000     kernel32:KERNEL32.dll
 0000:fffa6000       .debug$S                   10000000     kernel32:KERNEL32.dll
 0000:fffa6000       .debug$S                   10000000     kernel32:KERNEL32.dll
 0000:fffa6000       .debug$S                   10000000     kernel32:KERNEL32.dll
 0000:fffa6000       .debug$S                   10000000     kernel32:KERNEL32.dll
 0000:fffa6000       .debug$S                   10000000     kernel32:KERNEL32.dll
 0000:fffa6000       .debug$S                   10000000     kernel32:KERNEL32.dll
 0000:fffa6000       .debug$S                   10000000     kernel32:KERNEL32.dll
 0000:fffa6000       .debug$S                   10000000     kernel32:KERNEL32.dll
 0000:fffa6000       .debug$S                   10000000     kernel32:KERNEL32.dll
 0000:fffa6000       .debug$S                   10000000     RMG_CustomizeObjectProperties.exp
 0000:fffa6000       .debug$S                   10000000     kernel32:KERNEL32.dll
 0000:fffa6000       .debug$S                   10000000     kernel32:KERNEL32.dll
 0000:fffa6000       .debug$S                   10000000     kernel32:KERNEL32.dll
 0000:fffa6000       .debug$S                   10000000     kernel32:KERNEL32.dll
 0000:fffa6000       .debug$S                   10000000     kernel32:KERNEL32.dll
 0000:fffa6000       .debug$S                   10000000     kernel32:KERNEL32.dll
 0000:fffa6000       .debug$S                   10000000     kernel32:KERNEL32.dll
 0000:fffa6000       .debug$S                   10000000     kernel32:KERNEL32.dll
 0000:fffa6000       .debug$S                   10000000     kernel32:KERNEL32.dll
 0000:fffa6000       .debug$S                   10000000     kernel32:KERNEL32.dll
 0000:fffa6000       .debug$S                   10000000     kernel32:KERNEL32.dll
 0000:fffa6000       .debug$S                   10000000     kernel32:KERNEL32.dll
 0000:fffa6000       .debug$S                   10000000     kernel32:KERNEL32.dll
 0000:fffa6000       .debug$S                   10000000     kernel32:KERNEL32.dll
 0000:fffa6000       .debug$S                   10000000     kernel32:KERNEL32.dll
 0000:fffa6000       .debug$S                   10000000     kernel32:KERNEL32.dll
 0000:fffa6000       .debug$S                   10000000     kernel32:KERNEL32.dll
 0000:fffa6000       .debug$S                   10000000     kernel32:KERNEL32.dll
 0000:fffa6000       .debug$S                   10000000     kernel32:KERNEL32.dll
 0000:fffa6000       .debug$S                   10000000     kernel32:KERNEL32.dll
 0000:fffa6000       .debug$S                   10000000     kernel32:KERNEL32.dll
 0000:fffa6000       .debug$S                   10000000     kernel32:KERNEL32.dll
 0000:fffa6000       .debug$S                   10000000     kernel32:KERNEL32.dll
 0000:fffa6000       .debug$S                   10000000     kernel32:KERNEL32.dll
 0000:fffa6000       .debug$S                   10000000     kernel32:KERNEL32.dll
 0000:fffa6000       .debug$S                   10000000     kernel32:KERNEL32.dll
 0000:fffa6000       .debug$S                   10000000     kernel32:KERNEL32.dll
 0000:fffa6000       .debug$S                   10000000     kernel32:KERNEL32.dll
 0000:fffa6000       .debug$S                   10000000     kernel32:KERNEL32.dll
 0000:fffa6000       .debug$S                   10000000     kernel32:KERNEL32.dll
 0000:fffa6000       .debug$S                   10000000     kernel32:KERNEL32.dll
 0000:fffa6000       .debug$S                   10000000     kernel32:KERNEL32.dll
 0000:fffa6000       .debug$S                   10000000     kernel32:KERNEL32.dll
 0000:fffa6000       .debug$S                   10000000     kernel32:KERNEL32.dll
 0000:fffa6000       .debug$S                   10000000     kernel32:KERNEL32.dll
 0000:fffa6000       .debug$S                   10000000     kernel32:KERNEL32.dll
 0000:fffa6000       .debug$S                   10000000     kernel32:KERNEL32.dll
 0000:fffa6000       .debug$S                   10000000     kernel32:KERNEL32.dll
 0000:fffa6000       .debug$S                   10000000     kernel32:KERNEL32.dll
 0000:fffa6000       .debug$S                   10000000     kernel32:KERNEL32.dll
 0000:fffa6000       .debug$S                   10000000     kernel32:KERNEL32.dll
 0000:fffa6000       .debug$S                   10000000     kernel32:KERNEL32.dll
 0000:fffa6000       .debug$S                   10000000     kernel32:KERNEL32.dll
 0000:fffa6000       .debug$S                   10000000     kernel32:KERNEL32.dll
 0000:fffa6000       .debug$S                   10000000     kernel32:KERNEL32.dll
 0000:fffa6000       .debug$S                   10000000     kernel32:KERNEL32.dll
 0000:fffa6000       .debug$S                   10000000     kernel32:KERNEL32.dll
 0000:fffa6000       .debug$S                   10000000     kernel32:KERNEL32.dll
 0000:fffa6000       .debug$S                   10000000     kernel32:KERNEL32.dll
 0000:fffa6000       .debug$S                   10000000     kernel32:KERNEL32.dll
 0000:fffa6000       .debug$S                   10000000     kernel32:KERNEL32.dll
 0000:fffa6000       .debug$S                   10000000     kernel32:KERNEL32.dll
 0000:fffa6000       .debug$S                   10000000     kernel32:KERNEL32.dll
 0000:fffa6000       .debug$S                   10000000     kernel32:KERNEL32.dll
 0000:fffa6000       .debug$S                   10000000     kernel32:KERNEL32.dll
 0000:fffa6000       .debug$S                   10000000     kernel32:KERNEL32.dll
 0000:fffa6000       .debug$S                   10000000     kernel32:KERNEL32.dll
 0000:fffa6000       .debug$S                   10000000     kernel32:KERNEL32.dll
 0000:fffa6000       .debug$S                   10000000     kernel32:KERNEL32.dll
 0000:fffa6000       .debug$S                   10000000     kernel32:KERNEL32.dll
 0000:fffa6000       .debug$S                   10000000     kernel32:KERNEL32.dll
 0000:fffa6000       .debug$S                   10000000     kernel32:KERNEL32.dll
 0000:fffa6000       .debug$S                   10000000     kernel32:KERNEL32.dll
 0000:fffa6000       .debug$S                   10000000     kernel32:KERNEL32.dll
 0000:fffa6000       .debug$S                   10000000     kernel32:KERNEL32.dll
 0000:fffa6000       .debug$S                   10000000     kernel32:KERNEL32.dll
 0000:fffa6000       .debug$S                   10000000     kernel32:KERNEL32.dll
 0000:fffa6000       .debug$S                   10000000     kernel32:KERNEL32.dll
 0000:fffa6000       .debug$S                   10000000     kernel32:KERNEL32.dll
 0000:fffa6000       .debug$S                   10000000     kernel32:KERNEL32.dll
 0000:fffa6000       .debug$S                   10000000     kernel32:KERNEL32.dll
 0000:fffa6000       .debug$S                   10000000     kernel32:KERNEL32.dll
 0000:fffa6000       .debug$S                   10000000     kernel32:KERNEL32.dll
 0000:fffa6000       .debug$S                   10000000     kernel32:KERNEL32.dll
 0000:fffa6000       .debug$S                   10000000     kernel32:KERNEL32.dll
 0000:fffa6000       .debug$S                   10000000     kernel32:KERNEL32.dll
 0000:fffa6000       .debug$S                   10000000     kernel32:KERNEL32.dll
 0000:fffa6000       .debug$S                   10000000     kernel32:KERNEL32.dll
 0000:fffa6000       .debug$S                   10000000     kernel32:KERNEL32.dll
 0000:fffa6000       .debug$S                   10000000     kernel32:KERNEL32.dll
 0000:fffa6000       .debug$S                   10000000     kernel32:KERNEL32.dll
 0000:fffa6000       .debug$S                   10000000     kernel32:KERNEL32.dll
 0000:fffa6000       .debug$S                   10000000     kernel32:KERNEL32.dll
 0000:fffa6000       .debug$S                   10000000     kernel32:KERNEL32.dll
 0000:fffa6000       .debug$S                   10000000     kernel32:KERNEL32.dll
 0000:fffa6000       .debug$S                   10000000     kernel32:KERNEL32.dll
 0000:fffa6000       .debug$S                   10000000     kernel32:KERNEL32.dll
 0000:fffa6000       .debug$S                   10000000     kernel32:KERNEL32.dll
 0000:fffa6000       .debug$S                   10000000     kernel32:KERNEL32.dll
 0000:fffa6000       .debug$S                   10000000     kernel32:KERNEL32.dll
 0000:fffa6000       .debug$S                   10000000     kernel32:KERNEL32.dll
 0000:fffa6000       .debug$S                   10000000     kernel32:KERNEL32.dll
 0000:fffa6000       .debug$S                   10000000     kernel32:KERNEL32.dll
 0000:fffa6000       .debug$S                   10000000     kernel32:KERNEL32.dll
 0000:fffa6000       .debug$S                   10000000     kernel32:KERNEL32.dll
 0000:fffa6000       .debug$S                   10000000     kernel32:KERNEL32.dll
 0000:fffa6000       .debug$S                   10000000     kernel32:KERNEL32.dll
 0000:fffa6000       .debug$S                   10000000     kernel32:KERNEL32.dll
 0000:fffa6000       .debug$S                   10000000     kernel32:KERNEL32.dll
 0000:fffa6000       .debug$S                   10000000     kernel32:KERNEL32.dll
 0000:fffa6000       .debug$S                   10000000     kernel32:KERNEL32.dll
 0000:fffa6000       .debug$S                   10000000     kernel32:KERNEL32.dll
 0000:fffa6000       .debug$S                   10000000     kernel32:KERNEL32.dll
 0000:fffa6000       .debug$S                   10000000     kernel32:KERNEL32.dll
 0000:fffa6000       .debug$S                   10000000     kernel32:KERNEL32.dll
 0000:fffa6000       .debug$S                   10000000     kernel32:KERNEL32.dll
 0000:fffa6000       .debug$S                   10000000     kernel32:KERNEL32.dll
 0000:fffa6000       .debug$S                   10000000     kernel32:KERNEL32.dll
 0000:fffa6000       .debug$S                   10000000     kernel32:KERNEL32.dll
 0000:fffa6000       .debug$S                   10000000     kernel32:KERNEL32.dll
 0000:fffa6000       .debug$S                   10000000     kernel32:KERNEL32.dll
 0000:fffa6000       .debug$S                   10000000     kernel32:KERNEL32.dll
 0000:fffa6000       .debug$S                   10000000     kernel32:KERNEL32.dll
 0001:00000000       ??__EhEra@Era@@YAXXZ       10001000 f   era.obj
 0001:00000020       ??__EAllocErmFunc@Era@@YAXXZ 10001020 f   era.obj
 0001:00000040       ??__ECalcHookPatchSize@Era@@YAXXZ 10001040 f   era.obj
 0001:00000060       ??__EClearAllIniCache@Era@@YAXXZ 10001060 f   era.obj
 0001:00000080       ??__EClearIniCache@Era@@YAXXZ 10001080 f   era.obj
 0001:000000a0       ??__EDecorateInt@Era@@YAXXZ 100010a0 f   era.obj
 0001:000000c0       ??__EExecErmCmd@Era@@YAXXZ 100010c0 f   era.obj
 0001:000000e0       ??__EExecPersistedErmCmd@Era@@YAXXZ 100010e0 f   era.obj
 0001:00000100       ??__EExtractErm@Era@@YAXXZ 10001100 f   era.obj
 0001:00000120       ??__EFastQuitToGameMenu@Era@@YAXXZ 10001120 f   era.obj
 0001:00000140       ??__EFatalError@Era@@YAXXZ 10001140 f   era.obj
 0001:00000160       ??__EFindNextObject@Era@@YAXXZ 10001160 f   era.obj
 0001:00000180       ??__EFireErmEvent@Era@@YAXXZ 10001180 f   era.obj
 0001:000001a0       ??__EFireEvent@Era@@YAXXZ  100011a0 f   era.obj
 0001:000001c0       ??__EFormatQuantity@Era@@YAXXZ 100011c0 f   era.obj
 0001:000001e0       ??__EFreeAppliedPatch@Era@@YAXXZ 100011e0 f   era.obj
 0001:00000200       ??__EGenerateDebugInfo@Era@@YAXXZ 10001200 f   era.obj
 0001:00000220       ??__EGetArgXVars@Era@@YAXXZ 10001220 f   era.obj
 0001:00000240       ??__EGetAssocVarIntValue@Era@@YAXXZ 10001240 f   era.obj
 0001:00000260       ??__EGetAssocVarStrValue@Era@@YAXXZ 10001260 f   era.obj
 0001:00000280       ??__EGetButtonID@Era@@YAXXZ 10001280 f   era.obj
 0001:000002a0       ??__EGetCampaignFileName@Era@@YAXXZ 100012a0 f   era.obj
 0001:000002c0       ??__EGetCampaignMapInd@Era@@YAXXZ 100012c0 f   era.obj
 0001:000002e0       ??__EGetEraRegistryIntValue@Era@@YAXXZ 100012e0 f   era.obj
 0001:00000300       ??__EGetEraRegistryStrValue@Era@@YAXXZ 10001300 f   era.obj
 0001:00000320       ??__EGetGameState@Era@@YAXXZ 10001320 f   era.obj
 0001:00000340       ??__EGetMapFileName@Era@@YAXXZ 10001340 f   era.obj
 0001:00000360       ??__EGetProcessGuid@Era@@YAXXZ 10001360 f   era.obj
 0001:00000380       ??__EGetRealAddr@Era@@YAXXZ 10001380 f   era.obj
 0001:000003a0       ??__EGetRetXVars@Era@@YAXXZ 100013a0 f   era.obj
 0001:000003c0       ??__EGetTriggerReadableName@Era@@YAXXZ 100013c0 f   era.obj
 0001:000003e0       ??__EGetVersionNum@Era@@YAXXZ 100013e0 f   era.obj
 0001:00000400       ??__EGlobalRedirectFile@Era@@YAXXZ 10001400 f   era.obj
 0001:00000420       ??__EHash32@Era@@YAXXZ     10001420 f   era.obj
 0001:00000440       ??__EHookCode@Era@@YAXXZ   10001440 f   era.obj
 0001:00000460       ??__EIsCampaign@Era@@YAXXZ 10001460 f   era.obj
 0001:00000480       ??__EIsCommanderId@Era@@YAXXZ 10001480 f   era.obj
 0001:000004a0       ??__ELoadImageAsPcx16@Era@@YAXXZ 100014a0 f   era.obj
 0001:000004c0       ??__EMemFree@Era@@YAXXZ    100014c0 f   era.obj
 0001:000004e0       ??__ENameColor@Era@@YAXXZ  100014e0 f   era.obj
 0001:00000500       ??__ENameTrigger@Era@@YAXXZ 10001500 f   era.obj
 0001:00000520       ??__ENotifyError@Era@@YAXXZ 10001520 f   era.obj
 0001:00000540       ??__EPatchExists@Era@@YAXXZ 10001540 f   era.obj
 0001:00000560       ??__EPcxPngExists@Era@@YAXXZ 10001560 f   era.obj
 0001:00000580       ??__EPersistErmCmd@Era@@YAXXZ 10001580 f   era.obj
 0001:000005a0       ??__EPluginExists@Era@@YAXXZ 100015a0 f   era.obj
 0001:000005c0       ??__EReadSavegameSection@Era@@YAXXZ 100015c0 f   era.obj
 0001:000005e0       ??__EReadStrFromIni@Era@@YAXXZ 100015e0 f   era.obj
 0001:00000600       ??__ERedirectFile@Era@@YAXXZ 10001600 f   era.obj
 0001:00000620       ??__ERedirectMemoryBlock@Era@@YAXXZ 10001620 f   era.obj
 0001:00000640       ??__ERegisterHandler@Era@@YAXXZ 10001640 f   era.obj
 0001:00000660       ??__EReloadErm@Era@@YAXXZ  10001660 f   era.obj
 0001:00000680       ??__EReloadLanguageData@Era@@YAXXZ 10001680 f   era.obj
 0001:000006a0       ??__EReportPluginVersion@Era@@YAXXZ 100016a0 f   era.obj
 0001:000006c0       ??__ERollbackAppliedPatch@Era@@YAXXZ 100016c0 f   era.obj
 0001:000006e0       ??__ESaveIni@Era@@YAXXZ    100016e0 f   era.obj
 0001:00000700       ??__ESetAssocVarIntValue@Era@@YAXXZ 10001700 f   era.obj
 0001:00000720       ??__ESetAssocVarStrValue@Era@@YAXXZ 10001720 f   era.obj
 0001:00000740       ??__ESetEraRegistryIntValue@Era@@YAXXZ 10001740 f   era.obj
 0001:00000760       ??__ESetEraRegistryStrValue@Era@@YAXXZ 10001760 f   era.obj
 0001:00000780       ??__ESetIsCommanderIdFunc@Era@@YAXXZ 10001780 f   era.obj
 0001:000007a0       ??__ESetIsElixirOfLifeStackFunc@Era@@YAXXZ 100017a0 f   era.obj
 0001:000007c0       ??__ESetLanguage@Era@@YAXXZ 100017c0 f   era.obj
 0001:000007e0       ??__ESetRegenerationAbility@Era@@YAXXZ 100017e0 f   era.obj
 0001:00000800       ??__ESetStdRegenerationEffect@Era@@YAXXZ 10001800 f   era.obj
 0001:00000820       ??__EShowErmError@Era@@YAXXZ 10001820 f   era.obj
 0001:00000840       ??__EShowMessage@Era@@YAXXZ 10001840 f   era.obj
 0001:00000860       ??__ESplice@Era@@YAXXZ     10001860 f   era.obj
 0001:00000880       ??__ESplitMix32@Era@@YAXXZ 10001880 f   era.obj
 0001:000008a0       ??__EToStaticStr@Era@@YAXXZ 100018a0 f   era.obj
 0001:000008c0       ??__EtrStatic@Era@@YAXXZ   100018c0 f   era.obj
 0001:000008e0       ??__EtrTemp@Era@@YAXXZ     100018e0 f   era.obj
 0001:00000900       ??__EWriteAtCode@Era@@YAXXZ 10001900 f   era.obj
 0001:00000920       ??__EWriteSavegameSection@Era@@YAXXZ 10001920 f   era.obj
 0001:00000940       ??__EWriteStrToIni@Era@@YAXXZ 10001940 f   era.obj
 0001:00000960       ??__EGetEraVersion@Era@@YAXXZ 10001960 f   era.obj
 0001:00000980       ??__E_tr@Era@@YAXXZ        10001980 f   era.obj
 0001:000009a0       ??__E?extenders@ObjectsExtender@extender@@0V?$set@PAVObjectsExtender@extender@@U?$less@PAVObjectsExtender@extender@@@std@@V?$allocator@PAVObjectsExtender@extender@@@4@@std@@A@@YAXXZ 100019a0 f   ObjectsExtender.obj
 0001:000009d0       ??__E?additionalProperties@ObjectsExtender@extender@@1V?$vector@V?$basic_string@DU?$char_traits@D@std@@V?$allocator@D@2@@std@@V?$allocator@V?$basic_string@DU?$char_traits@D@std@@V?$allocator@D@2@@std@@@2@@std@@A@@YAXXZ 100019d0 f   ObjectsExtender.obj
 0001:00000a00       ??__E?additionalRmgObjects@ObjectsExtender@extender@@1V?$vector@URMGObjectInfo@@V?$allocator@URMGObjectInfo@@@std@@@std@@A@@YAXXZ 10001a00 f   ObjectsExtender.obj
 0001:00000a40       ??__E?m_banks@RMG_SettingsDlg@rmgdlg@@0V?$vector@U?$pair@UH3ObjectAttributes@h3@@PAUH3LoadedPcx16@2@@std@@V?$allocator@U?$pair@UH3ObjectAttributes@h3@@PAUH3LoadedPcx16@2@@std@@@2@@std@@A@@YAXXZ 10001a40 f   RMG_SettingsDlg.obj
 0001:00000a80       ??__E?m_commonObjects@RMG_SettingsDlg@rmgdlg@@0V?$vector@U?$pair@UH3ObjectAttributes@h3@@PAUH3LoadedPcx16@2@@std@@V?$allocator@U?$pair@UH3ObjectAttributes@h3@@PAUH3LoadedPcx16@2@@std@@@2@@std@@A@@YAXXZ 10001a80 f   RMG_SettingsDlg.obj
 0001:00000ac0       ??__E?m_dwellings@RMG_SettingsDlg@rmgdlg@@0V?$vector@U?$pair@UH3ObjectAttributes@h3@@PAUH3LoadedPcx16@2@@std@@V?$allocator@U?$pair@UH3ObjectAttributes@h3@@PAUH3LoadedPcx16@2@@std@@@2@@std@@A@@YAXXZ 10001ac0 f   RMG_SettingsDlg.obj
 0001:00000b00       ??__E?m_wogObjects@RMG_SettingsDlg@rmgdlg@@0V?$vector@U?$pair@UH3ObjectAttributes@h3@@PAUH3LoadedPcx16@2@@std@@V?$allocator@U?$pair@UH3ObjectAttributes@h3@@PAUH3LoadedPcx16@2@@std@@@2@@std@@A@@YAXXZ 10001b00 f   RMG_SettingsDlg.obj
 0001:00000b40       ??__E?m_objectAttributes@RMG_SettingsDlg@rmgdlg@@0V?$vector@PAV?$vector@U?$pair@UH3ObjectAttributes@h3@@PAUH3LoadedPcx16@2@@std@@V?$allocator@U?$pair@UH3ObjectAttributes@h3@@PAUH3LoadedPcx16@2@@std@@@2@@std@@V?$allocator@PAV?$vector@U?$pair@UH3ObjectAttributes@h3@@PAUH3LoadedPcx16@2@@std@@V?$allocator@U?$pair@UH3ObjectAttributes@h3@@PAUH3LoadedPcx16@2@@std@@@2@@std@@@2@@std@@B@@YAXXZ 10001b40 f   RMG_SettingsDlg.obj
 0001:00000bb6       ??__Einitlocks@std@@YAXXZ  10001bb6 f   libcpmt:xlock.obj
 0001:00000bcc       ??__Es_defaultWaiterPool@platform@details@Concurrency@@YAXXZ 10001bcc f   libconcrt:Platform.obj
 0001:00000bd8       ??__Eg_DebugOutFilePtr@details@Concurrency@@YAXXZ 10001bd8 f   libconcrt:utils.obj
 0001:00000be6       ??__E?s_cookie@Security@details@Concurrency@@2KA@@YAXXZ 10001be6 f   libconcrt:staticinits.obj
 0001:00000bf1       ??__E?s_subAllocatorFreePool@SchedulerBase@details@Concurrency@@0V?$LockFreeStack@VSubAllocator@details@Concurrency@@@23@A@@YAXXZ 10001bf1 f   libconcrt:staticinits.obj
 0001:00000bfd       ??__E?m_badAllocExceptionPtr@__ExceptionPtr@@0V?$shared_ptr@V__ExceptionPtr@@@std@@A@@YAXXZ 10001bfd f   libcpmt:excptptr.obj
 0001:00001254       __catch$?_Copy@?$basic_string@DU?$char_traits@D@std@@V?$allocator@D@2@@std@@QAEXII@Z$0 10002254 f i era.obj
 0001:000012f9       __catch$?_Copy@?$basic_string@DU?$char_traits@D@std@@V?$allocator@D@2@@std@@QAEXII@Z$1 100022f9 f i era.obj
 0001:00001992       __catch$?resize@?$vector@UH3CreatureBankSetup@h3@@V?$allocator@UH3CreatureBankSetup@h3@@@std@@@std@@QAEXI@Z$0 10002992 f i CreatureBanksExtender.obj
 0001:00001e51       __catch$?_Reallocate@?$vector@UH3CreatureBankSetup@h3@@V?$allocator@UH3CreatureBankSetup@h3@@@std@@@std@@IAEXI@Z$0 10002e51 f i CreatureBanksExtender.obj
 0001:00002328       __catch$??$_Uninitialized_default_fill_n1@PAUH3CreatureBankSetup@h3@@IV?$allocator@UH3CreatureBankSetup@h3@@@std@@@std@@YAXPAUH3CreatureBankSetup@h3@@IAAU?$_Wrap_alloc@V?$allocator@UH3CreatureBankSetup@h3@@@std@@@0@U?$integral_constant@_N$0A@@0@@Z$0 10003328 f i CreatureBanksExtender.obj
 0001:0000373b       __catch$??$_Insert_nohint@ABQAVObjectsExtender@extender@@U_Nil@std@@@?$_Tree@V?$_Tset_traits@PAVObjectsExtender@extender@@U?$less@PAVObjectsExtender@extender@@@std@@V?$allocator@PAVObjectsExtender@extender@@@4@$0A@@std@@@std@@IAE?AU?$pair@V?$_Tree_const_iterator@V?$_Tree_val@U?$_Tree_simple_types@PAVObjectsExtender@extender@@@std@@@std@@@std@@_N@1@_NABQAVObjectsExtender@extender@@U_Nil@1@@Z$0 1000473b f i ObjectsExtender.obj
 0001:0000382b       __catch$??$_Insert_nohint@PBDU_Nil@std@@@?$_Tree@V?$_Tset_traits@PBDU?$less@PBD@std@@V?$allocator@PBD@2@$0A@@std@@@std@@IAE?AU?$pair@V?$_Tree_const_iterator@V?$_Tree_val@U?$_Tree_simple_types@PBD@std@@@std@@@std@@_N@1@_N$$QAPBDU_Nil@1@@Z$0 1000482b f i ObjectsExtender.obj
 0001:0000393b       __catch$??$_Insert_nohint@URMGObjectSetable@extender@@U_Nil@std@@@?$_Tree@V?$_Tset_traits@URMGObjectSetable@extender@@U?$less@URMGObjectSetable@extender@@@std@@V?$allocator@URMGObjectSetable@extender@@@4@$0A@@std@@@std@@IAE?AU?$pair@V?$_Tree_const_iterator@V?$_Tree_val@U?$_Tree_simple_types@URMGObjectSetable@extender@@@std@@@std@@@std@@_N@1@_N$$QAURMGObjectSetable@extender@@U_Nil@1@@Z$0 1000493b f i ObjectsExtender.obj
 0001:00004214       __catch$??$_Insert_hint@AAPBDPAU?$_Tree_node@PBDPAX@std@@@?$_Tree@V?$_Tset_traits@PBDU?$less@PBD@std@@V?$allocator@PBD@2@$0A@@std@@@std@@IAE?AV?$_Tree_const_iterator@V?$_Tree_val@U?$_Tree_simple_types@PBD@std@@@std@@@1@V21@AAPBDPAU?$_Tree_node@PBDPAX@1@@Z$0 10005214 f i ObjectsExtender.obj
 0001:0000451e       __catch$??$_Insert_nohint@AAPBDPAU?$_Tree_node@PBDPAX@std@@@?$_Tree@V?$_Tset_traits@PBDU?$less@PBD@std@@V?$allocator@PBD@2@$0A@@std@@@std@@IAE?AU?$pair@V?$_Tree_const_iterator@V?$_Tree_val@U?$_Tree_simple_types@PBD@std@@@std@@@std@@_N@1@_NAAPBDPAU?$_Tree_node@PBDPAX@1@@Z$0 1000551e f i ObjectsExtender.obj
 0001:00004b03       __catch$??4?$vector@V?$vector@URMGObjectInfo@@V?$allocator@URMGObjectInfo@@@std@@@std@@V?$allocator@V?$vector@URMGObjectInfo@@V?$allocator@URMGObjectInfo@@@std@@@std@@@2@@std@@QAEAAV01@ABV01@@Z$0 10005b03 f i RMGObjectsEditor.obj
 0001:000052d8       __catch$??$_Uninitialized_copy_al_unchecked1@PAV?$vector@URMGObjectInfo@@V?$allocator@URMGObjectInfo@@@std@@@std@@PAV12@V?$allocator@V?$vector@URMGObjectInfo@@V?$allocator@URMGObjectInfo@@@std@@@std@@@2@@std@@YAPAV?$vector@URMGObjectInfo@@V?$allocator@URMGObjectInfo@@@std@@@0@PAV10@00AAU?$_Wrap_alloc@V?$allocator@V?$vector@URMGObjectInfo@@V?$allocator@URMGObjectInfo@@@std@@@std@@@std@@@0@U_General_ptr_iterator_tag@0@U_Any_tag@0@@Z$0 100062d8 f i RMGObjectsEditor.obj
 0001:000063bc       $LN262                     100073bc     RMG_SettingsDlg.obj
 0001:000063d0       $LN242                     100073d0     RMG_SettingsDlg.obj
 0001:00006620       ??R<lambda_50df53dded5631204e54f143e779c3fc>@@QBE_NABVRMGObject@rmgdlg@@0@Z 10007620 f   RMG_SettingsDlg.obj
 0001:00006760       $LN167                     10007760     RMG_SettingsDlg.obj
 0001:00006c1f       __catch$??4?$vector@U?$pair@UH3ObjectAttributes@h3@@PAUH3LoadedPcx16@2@@std@@V?$allocator@U?$pair@UH3ObjectAttributes@h3@@PAUH3LoadedPcx16@2@@std@@@2@@std@@QAEAAV01@ABV01@@Z$0 10007c1f f i RMG_SettingsDlg.obj
 0001:0000808e       __catch$??$_Uninitialized_copy_al_unchecked1@PAU?$pair@UH3ObjectAttributes@h3@@PAUH3LoadedPcx16@2@@std@@PAU12@V?$allocator@U?$pair@UH3ObjectAttributes@h3@@PAUH3LoadedPcx16@2@@std@@@2@@std@@YAPAU?$pair@UH3ObjectAttributes@h3@@PAUH3LoadedPcx16@2@@0@PAU10@00AAU?$_Wrap_alloc@V?$allocator@U?$pair@UH3ObjectAttributes@h3@@PAUH3LoadedPcx16@2@@std@@@std@@@0@U_General_ptr_iterator_tag@0@U_Any_tag@0@@Z$0 1000908e f i RMG_SettingsDlg.obj
 0001:000086a8       $LN177                     100096a8     RMG_SettingsDlg.obj
 0001:000089ee       ?do_wait@@YAHPAU_Cnd_internal_imp_t@@PAU_Mtx_internal_imp_t@@PBUxtime@@@Z 100099ee f   libcpmt:cond.obj
 0001:00009210       ?mtx_do_lock@@YAHPAU_Mtx_internal_imp_t@@PBUxtime@@@Z 1000a210 f   libcpmt:mutex.obj
 0001:000096b4       _xtime_diff                1000a6b4 f   libcpmt:xtime.obj
 0001:00009798       ?initialize_pointers@@YAHXZ 1000a798 f   libcpmt:winapisupp.obj
 0001:0000a009       ?__scrt_initialize_thread_safe_statics@@YAHXZ 1000b009 f   LIBCMT:thread_safe_statics.obj
 0001:0000a0c9       ?__scrt_uninitialize_thread_safe_statics@@YAXXZ 1000b0c9 f   LIBCMT:thread_safe_statics.obj
 0001:0000a241       ?find_pe_section@@YAPAU_IMAGE_SECTION_HEADER@@QAEI@Z 1000b241 f   LIBCMT:utility.obj
 0001:0000a6f2       ?dllmain_crt_dispatch@@YGHQAUHINSTANCE__@@KQAX@Z 1000b6f2 f   LIBCMT:dll_dllmain.obj
 0001:0000a745       ?dllmain_crt_process_attach@@YAHQAUHINSTANCE__@@QAX@Z 1000b745 f   LIBCMT:dll_dllmain.obj
 0001:0000a857       ?dllmain_crt_process_detach@@YAH_N@Z 1000b857 f   LIBCMT:dll_dllmain.obj
 0001:0000a8d4       ?dllmain_dispatch@@YAHQAUHINSTANCE__@@KQAX@Z 1000b8d4 f   LIBCMT:dll_dllmain.obj
 0001:0000a9d0       ?dllmain_raw@@YGHQAUHINSTANCE__@@KQAX@Z 1000b9d0 f   LIBCMT:dll_dllmain.obj
 0001:0000ab10       $$000000                   1000bb10     LIBCMT:ulldvrm.obj
 0001:0000aed0       $$000000                   1000bed0     LIBCMT:_sehprolg4_.obj
 0001:00012d79       __catch$?GetInternalContext@SchedulerBase@details@Concurrency@@QAEPAVInternalContextBase@23@_N@Z$0 10013d79 f   libconcrt:SchedulerBase.obj
 0001:0001734c       __catch$?_Initialize@SchedulerPolicy@Concurrency@@AAEXIPAPAD@Z$0 1001834c f   libconcrt:SchedulerPolicyBase.obj
 0001:00017475       $LN30                      10018475     libconcrt:SchedulerPolicyBase.obj
 0001:0001ee48       __catch$?_StructuredChoreWrapper@_UnrealizedChore@details@Concurrency@@CAXPAV123@@Z$0 1001fe48 f   libconcrt:Chores.obj
 0001:0001ee78       __catch$?_StructuredChoreWrapper@_UnrealizedChore@details@Concurrency@@CAXPAV123@@Z$1 1001fe78 f   libconcrt:Chores.obj
 0001:0002100b       ?CallCatchBlock@@YAPAXPAUEHExceptionRecord@@PAUEHRegistrationNode@@PAU_CONTEXT@@PBU_s_FuncInfo@@PAXHK@Z 1002200b f   libvcruntime:frame.obj
 0001:000211c7       ?CallUnexpected@@YAXPBU_s_ESTypeList@@@Z 100221c7 f   libvcruntime:frame.obj
 0001:000211e7       __catch$?CallUnexpected@@YAXPBU_s_ESTypeList@@@Z$0 100221e7 f   libvcruntime:frame.obj
 0001:00021201       ?CatchIt@@YAXPAUEHExceptionRecord@@PAUEHRegistrationNode@@PAU_CONTEXT@@PAXPBU_s_FuncInfo@@PBU_s_HandlerType@@PBU_s_CatchableType@@PBU_s_TryBlockMapEntry@@H1E@Z 10022201 f   libvcruntime:frame.obj
 0001:0002127c       ?ExFilterRethrow@@YAHPAU_EXCEPTION_POINTERS@@@Z 1002227c f   libvcruntime:frame.obj
 0001:000212c6       ?FindHandler@@YAXPAUEHExceptionRecord@@PAUEHRegistrationNode@@PAU_CONTEXT@@PAXPBU_s_FuncInfo@@EH1@Z 100222c6 f   libvcruntime:frame.obj
 0001:0002162e       ?FindHandlerForForeignException@@YAXPAUEHExceptionRecord@@PAUEHRegistrationNode@@PAU_CONTEXT@@PAXPBU_s_FuncInfo@@HH1@Z 1002262e f   libvcruntime:frame.obj
 0001:00021749       ?IsInExceptionSpec@@YAEPAUEHExceptionRecord@@PBU_s_ESTypeList@@@Z 10022749 f   libvcruntime:frame.obj
 0001:000217e5       ?Is_bad_exception_allowed@@YAEPBU_s_ESTypeList@@@Z 100227e5 f   libvcruntime:frame.obj
 0001:00021cd0       $$000000                   10022cd0     libvcruntime:memmove.obj
 0001:00021f34       TrailingUpVec              10022f34     libvcruntime:memmove.obj
 0001:00021fe0       TrailingDownVec            10022fe0     libvcruntime:memmove.obj
 0001:00022750       $$000000                   10023750     libvcruntime:memcpy.obj
 0001:000229b4       TrailingUpVec              100239b4     libvcruntime:memcpy.obj
 0001:00022a60       TrailingDownVec            10023a60     libvcruntime:memcpy.obj
 0001:00022ce1       ?try_get_function@@YAPAXW4function_id@?A0x49c8dc86@@QBDQBW4module_id@2@2@Z 10023ce1 f   libvcruntime:winapi_downlevel.obj
 0001:00022d81       ?try_get_module@@YAPAUHINSTANCE__@@W4module_id@?A0x49c8dc86@@@Z 10023d81 f   libvcruntime:winapi_downlevel.obj
 0001:00023010       _ValidateLocalCookies      10024010 f   libvcruntime:_chandler4_.obj
 0001:000231c0       $$000000                   100241c0     libvcruntime:memset.obj
 0001:000233ca       ?FindCompleteObject@@YAPAXPAPAX@Z 100243ca f   libvcruntime:rtti.obj
 0001:000233e7       ?FindMITargetTypeInstance@@YAPBU_s_RTTIBaseClassDescriptor@@PAXPBU_s_RTTICompleteObjectLocator@@PAUTypeDescriptor@@H2@Z 100243e7 f   libvcruntime:rtti.obj
 0001:00023534       ?FindSITargetTypeInstance@@YAPBU_s_RTTIBaseClassDescriptor@@PBU_s_RTTICompleteObjectLocator@@PAUTypeDescriptor@@1@Z 10024534 f   libvcruntime:rtti.obj
 0001:000235f7       ?FindVITargetTypeInstance@@YAPBU_s_RTTIBaseClassDescriptor@@PAXPBU_s_RTTICompleteObjectLocator@@PAUTypeDescriptor@@H2@Z 100245f7 f   libvcruntime:rtti.obj
 0001:000237ae       ?PMDtoOffset@@YAHPAXABUPMD@@@Z 100247ae f   libvcruntime:rtti.obj
 0001:00023a50       $$000000                   10024a50     libvcruntime:lowhelpr.obj
 0001:00023b30       $$000000                   10024b30     libvcruntime:_exsup4_.obj
 0001:00023bc0       __unwind_handler4          10024bc0 f   libvcruntime:_exsup4_.obj
 0001:00023c90       $$000000                   10024c90     libvcruntime:_exsup_.obj
 0001:00023cb0       __unwind_handler           10024cb0 f   libvcruntime:_exsup_.obj
 0001:00023dc7       ??$common_vsprintf@Vformat_validation_base@__crt_stdio_output@@D@@YAH_KQADIQBDQAU__crt_locale_pointers@@1@Z 10024dc7 f   libucrt:output.obj
 0001:00023f43       ??$common_vsprintf@Vstandard_base@__crt_stdio_output@@D@@YAH_KQADIQBDQAU__crt_locale_pointers@@1@Z 10024f43 f   libucrt:output.obj
 0001:000240bf       ??$common_vsprintf_s@D@@YAH_KQADIQBDQAU__crt_locale_pointers@@1@Z 100250bf f   libucrt:output.obj
 0001:00024753       $LN52                      10025753     libucrt:output.obj
 0001:0002486f       $LN54                      1002586f     libucrt:output.obj
 0001:00024d8d       $LN19                      10025d8d     libucrt:output.obj
 0001:00025c5b       ??$thread_start@P6GIPAX@Z@@YGKQAX@Z 10026c5b f   libucrt:thread.obj
 0001:00025d0f       ?common_end_thread@@YAXI@Z 10026d0f f   libucrt:thread.obj
 0001:00025d66       ?create_thread_parameter@@YAPAU__acrt_thread_parameter@@QAX0@Z 10026d66 f   libucrt:thread.obj
 0001:0002612f       ?atexit_exception_filter@@YAHK@Z 1002712f f   libucrt:exit.obj
 0001:00026142       ?common_exit@@YAXHW4_crt_exit_cleanup_mode@@W4_crt_exit_return_mode@@@Z 10027142 f   libucrt:exit.obj
 0001:0002625b       ?exit_or_terminate_process@@YAXI@Z 1002725b f   libucrt:exit.obj
 0001:0002629c       ?is_managed_app@@YA_NXZ    1002729c f   libucrt:exit.obj
 0001:000262e0       ?try_cor_exit_process@@YAXI@Z 100272e0 f   libucrt:exit.obj
 0001:00026384       ??$common_configure_argv@D@@YAHW4_crt_argv_mode@@@Z 10027384 f   libucrt:argv_parsing.obj
 0001:000264a8       ??$parse_command_line@D@@YAXPADPAPAD0PAI2@Z 100274a8 f   libucrt:argv_parsing.obj
 0001:0002667d       ??$common_initialize_environment_nolock@D@@YAHXZ 1002767d f   libucrt:environment_initialization.obj
 0001:000266d6       ??$create_environment@D@@YAQAPADQAD@Z 100276d6 f   libucrt:environment_initialization.obj
 0001:000267a7       ??$free_environment@_W@@YAXQAPA_W@Z 100277a7 f   libucrt:environment_initialization.obj
 0001:000267a7       ??$free_environment@D@@YAXQAPAD@Z 100277a7 f   libucrt:environment_initialization.obj
 0001:00026816       ??$uninitialize_environment_internal@D@@YAXAAPAPAD@Z 10027816 f   libucrt:environment_initialization.obj
 0001:00026831       ??$uninitialize_environment_internal@_W@@YAXAAPAPA_W@Z 10027831 f   libucrt:environment_initialization.obj
 0001:00026999       ??R<lambda_275893d493268fdec8709772e3fcec0e>@@QBEHXZ 10027999 f   libucrt:onexit.obj
 0001:00026ab9       ??R<lambda_4e60a939b0d047cfe11ddc22648dfba9>@@QBEHXZ 10027ab9 f   libucrt:onexit.obj
 0001:00026c8e       _initialize_global_variables 10027c8e f   libucrt:initialization.obj
 0001:00026ca0       _initialize_c              10027ca0 f   libucrt:initialization.obj
 0001:00026cba       _uninitialize_environment  10027cba f   libucrt:initialization.obj
 0001:00026cc2       _initialize_pointers       10027cc2 f   libucrt:initialization.obj
 0001:00026cff       _uninitialize_vcruntime    10027cff f   libucrt:initialization.obj
 0001:00026d08       _uninitialize_allocated_memory 10027d08 f   libucrt:initialization.obj
 0001:00026f1f       _common_flush_all          10027f1f f   libucrt:fflush.obj
 0001:00027000       $$000000                   10028000     libucrt:87ctran.obj
 0001:00027090       $$000000                   10028090     libucrt:sqrt.obj
 0001:00027257       ??$common_tox_l@$1?internal_isupper_l@@YA_NHQAU__crt_locale_pointers@@@Z$1?internal_map_lower@@YAHH0@Z@@YAHHKQAU__crt_locale_pointers@@@Z 10028257 f   libucrt:tolower_toupper.obj
 0001:000273a1       ?internal_isupper_l@@YA_NHQAU__crt_locale_pointers@@@Z 100283a1 f   libucrt:tolower_toupper.obj
 0001:00027bef       ?construct_ptd@@YAXQAU__acrt_ptd@@QAPAU__crt_locale_data@@@Z 10028bef f   libucrt:per_thread_data.obj
 0001:00027c68       ?destroy_fls@@YGXPAX@Z     10028c68 f   libucrt:per_thread_data.obj
 0001:00027c89       ?destroy_ptd@@YAXQAU__acrt_ptd@@@Z 10028c89 f   libucrt:per_thread_data.obj
 0001:00027d32       ?replace_current_thread_locale_nolock@@YAXQAU__acrt_ptd@@QAU__crt_locale_data@@@Z 10028d32 f   libucrt:per_thread_data.obj
 0001:00027fdc       ?fp_format_a@@YAHQBNPADIQADIH_NIQAU__crt_locale_pointers@@@Z 10028fdc f   libucrt:cvt.obj
 0001:000282df       ?fp_format_e@@YAHQBNQADI1IH_NIQAU__crt_locale_pointers@@@Z 100292df f   libucrt:cvt.obj
 0001:0002837a       ?fp_format_e_internal@@YAHQADIH_NIQAU_strflt@@1QAU__crt_locale_pointers@@@Z 1002937a f   libucrt:cvt.obj
 0001:000284c5       ?fp_format_f@@YAHQBNQADI1IHQAU__crt_locale_pointers@@@Z 100294c5 f   libucrt:cvt.obj
 0001:00028552       ?fp_format_f_internal@@YAHQADIHQAU_strflt@@_NQAU__crt_locale_pointers@@@Z 10029552 f   libucrt:cvt.obj
 0001:00028629       ?fp_format_g@@YAHQBNQADI1IH_NIQAU__crt_locale_pointers@@@Z 10029629 f   libucrt:cvt.obj
 0001:000286f1       ?fp_format_nan_or_infinity@@YAHW4__acrt_fp_class@@_NPADI1@Z 100296f1 f   libucrt:cvt.obj
 0001:000287e9       ?shift_bytes@@YAXQADI0H@Z  100297e9 f   libucrt:cvt.obj
 0001:000289ff       ?initialize_inherited_file_handles_nolock@@YAXXZ 100299ff f   libucrt:ioinit.obj
 0001:00028ab5       ?initialize_stdio_handles_nolock@@YAXXZ 10029ab5 f   libucrt:ioinit.obj
 0001:00028d88       ?get_global_action_nolock@@YAPAP6AXH@ZH@Z 10029d88 f   libucrt:signal.obj
 0001:00028dca       ?siglookup@@YAPAU__crt_signal_action_t@@HQAU1@@Z 10029dca f   libucrt:signal.obj
 0001:00029055       ?try_get_function@@YAPAXW4function_id@?A0x352e5c4b@@QBDQBW4module_id@2@2@Z 1002a055 f   libucrt:winapi_thunks.obj
 0001:000290f1       ?try_get_module@@YAPAUHINSTANCE__@@W4module_id@?A0x352e5c4b@@@Z 1002a0f1 f   libucrt:winapi_thunks.obj
 0001:00029669       ?<helper_func_cdecl>@<lambda_62bb7ecb46d0a77b591a051c43eb5ad1>@@CAHPBX0@Z 1002a669 f   libucrt:argv_wildcards.obj
 0001:00029681       ??$common_expand_argv_wildcards@D@@YAHQAPADQAPAPAD@Z 1002a681 f   libucrt:argv_wildcards.obj
 0001:00029811       ??$copy_and_add_argument_to_buffer@D@@YAHQBD0IAAV?$argument_list@D@?A0xb0e4b824@@@Z 1002a811 f   libucrt:argv_wildcards.obj
 0001:000298a7       ??$expand_argument_wildcards@D@@YAHQAD0AAV?$argument_list@D@?A0xb0e4b824@@@Z 1002a8a7 f   libucrt:argv_wildcards.obj
 0001:00029b82       ??R<lambda_ad1ced32f4ac17aa236e5ef05d6b3b7c>@@QBEXXZ 1002ab82 f   libucrt:mbctype.obj
 0001:00029c46       ?CPtoLocaleName@@YAPB_WH@Z 1002ac46 f   libucrt:mbctype.obj
 0001:00029c84       ?getSystemCP@@YAHH@Z       1002ac84 f   libucrt:mbctype.obj
 0001:00029cf7       ?setSBCS@@YAXPAU__crt_multibyte_data@@@Z 1002acf7 f   libucrt:mbctype.obj
 0001:00029d5c       ?setSBUpLow@@YAXPAU__crt_multibyte_data@@@Z 1002ad5c f   libucrt:mbctype.obj
 0001:00029ef0       ?setmbcp_internal@@YAHH_N@Z 1002aef0 f   libucrt:mbctype.obj
 0001:0002a2a2       _memcpy_s                  1002b2a2 f   libucrt:cfout.obj
 0001:0002a2a2       _memcpy_s                  1002b2a2 f   libucrt:mbctype.obj
 0001:0002a323       ?x_ismbbtype_l@@YAHPAU__crt_locale_pointers@@IHH@Z 1002b323 f   libucrt:ismbbyte.obj
 0001:0002a3ad       _uninitialize_c            1002b3ad f   libucrt:initialization.obj
 0001:0002a3ad       _initialize_environment    1002b3ad f   libucrt:initialization.obj
 0001:0002a3ad       _initialize_global_state_isolation 1002b3ad f   libucrt:initialization.obj
 0001:0002a3ad       _uninitialize_global_state_isolation 1002b3ad f   libucrt:initialization.obj
 0001:0002a3ad       _report_memory_leaks       1002b3ad f   libucrt:initialization.obj
 0001:0002a3b0       ?find_end_of_double_null_terminated_sequence@@YAPB_WQB_W@Z 1002b3b0 f   libucrt:get_environment_from_os.obj
 0001:0002a757       ?write_double_translated_ansi_nolock@@YA?AUwrite_result@?A0x47fa6670@@HQBDI@Z 1002b757 f   libucrt:write.obj
 0001:0002a90a       ?write_double_translated_unicode_nolock@@YA?AUwrite_result@?A0x47fa6670@@QBDI@Z 1002b90a f   libucrt:write.obj
 0001:0002a977       ?write_requires_double_translation_nolock@@YA_NH@Z 1002b977 f   libucrt:write.obj
 0001:0002a9ed       ?write_text_ansi_nolock@@YA?AUwrite_result@?A0x47fa6670@@HQBDI@Z 1002b9ed f   libucrt:write.obj
 0001:0002aacc       ?write_text_utf16le_nolock@@YA?AUwrite_result@?A0x47fa6670@@HQBDI@Z 1002bacc f   libucrt:write.obj
 0001:0002abba       ?write_text_utf8_nolock@@YA?AUwrite_result@?A0x47fa6670@@HQBDI@Z 1002bbba f   libucrt:write.obj
 0001:0002aff0       $$000000                   1002bff0     libucrt:exp_pentium4.obj
 0001:0002b2b0       $$000000                   1002c2b0     libucrt:87tran.obj
 0001:0002b4b0       $$000000                   1002c4b0     libucrt:87cdisp.obj
 0001:0002b740       $$000000                   1002c740     libucrt:87disp.obj
 0001:0002b940       $$000000                   1002c940     libucrt:genexcep.obj
 0001:0002b9a0       $$000000                   1002c9a0     libucrt:common.obj
 0001:0002bb65       ?__acrt_LCMapStringA_stat@@YAHPAU__crt_locale_pointers@@PB_WKPBDHPADHHH@Z 1002cb65 f   libucrt:lcmapstringa.obj
 0001:0002dc77       ?free_crt_array_internal@@YAXQAPBXI@Z 1002ec77 f   libucrt:inittime.obj
 0001:0002e13c       ?GetTableIndexFromLocaleName@@YAHPB_W@Z 1002f13c f   libucrt:lcidtoname_downlevel.obj
 0001:0002e31a       ??$common_lseek_nolock@_J@@YA_JH_JH@Z 1002f31a f   libucrt:lseek.obj
 0001:0002e3c0       ?shortsort@@YAXPAD0IP6AHPBX1@Z@Z 1002f3c0 f   libucrt:qsort.obj
 0001:0002e460       ?swap@@YAXPAD0I@Z          1002f460 f   libucrt:qsort.obj
 0001:0002e83a       ??$common_tcsncpy_s@D@@YAHQADIQBDI@Z 1002f83a f   libucrt:strncpy_s.obj
 0001:0002e900       $$000000                   1002f900     libucrt:strpbrk.obj
 0001:0002e9e4       ?initialize_multibyte@@YAHXZ 1002f9e4 f   libucrt:multibyte_initializer.obj
 0001:0002f060       $$000000                   10030060     libucrt:log10.obj
 0001:0002f1b0       $$000000                   100301b0     libucrt:ceil_pentium4.obj
 0001:0002fe97       ___get_abstract_control_sse2 10030e97 f   libucrt:_fenvutils.obj
 0001:0002ff14       ___get_abstract_control_x87 10030f14 f   libucrt:_fenvutils.obj
 0001:0002ff87       ___get_machine_control     10030f87 f   libucrt:_fenvutils.obj
 0001:0002fff8       ___get_machine_control_sse2 10030ff8 f   libucrt:_fenvutils.obj
 0001:00030078       ___get_machine_status_sse2 10031078 f   libucrt:_fenvutils.obj
 0001:000300d9       ___get_machine_status_x87  100310d9 f   libucrt:_fenvutils.obj
 0001:00030410       $$000000                   10031410     libucrt:log10_pentium4.obj
 0001:00030760       $$000000                   10031760     libucrt:_strnicm.obj
 0001:000308f4       __catch$??$allocate_shared@V__ExceptionPtr@@U?$_StaticAllocator@H@@AAPAUEHExceptionRecord@@_N@std@@YA?AV?$shared_ptr@V__ExceptionPtr@@@0@ABU?$_StaticAllocator@H@@AAPAUEHExceptionRecord@@$$QA_N@Z$0 100318f4 f i libcpmt:excptptr.obj
 0001:00030bfe       __catch$?_CallCopyCtor@__ExceptionPtr@@ABEXPAX0IQBU_s_CatchableType@@@Z$0 10031bfe f   libcpmt:excptptr.obj
 0001:00030cda       __catch$?_CopyException@__ExceptionPtr@@SA?AV?$shared_ptr@V__ExceptionPtr@@@std@@PBXPBU_s_ThrowInfo@@_N@Z$0 10031cda f   libcpmt:excptptr.obj
 0001:00030d06       __catch$?_CopyException@__ExceptionPtr@@SA?AV?$shared_ptr@V__ExceptionPtr@@@std@@PBXPBU_s_ThrowInfo@@_N@Z$1 10031d06 f   libcpmt:excptptr.obj
 0001:00030d6e       __catch$?_CurrentException@__ExceptionPtr@@SA?AV?$shared_ptr@V__ExceptionPtr@@@std@@XZ$0 10031d6e f   libcpmt:excptptr.obj
 0001:00030d98       __catch$?_CurrentException@__ExceptionPtr@@SA?AV?$shared_ptr@V__ExceptionPtr@@@std@@XZ$1 10031d98 f   libcpmt:excptptr.obj
 0001:00030f99       ?_StaticAlloc@@YAPAXI@Z    10031f99 f   libcpmt:excptptr.obj
 0001:00031090       $$000000                   10032090     LIBCMT:alloca16.obj
 0001:000310c0       $$000000                   100320c0     LIBCMT:llmul.obj
 0001:00031100       $$000000                   10032100     LIBCMT:ullrem.obj
 0001:00031180       $$000000                   10032180     LIBCMT:_ftol2_.obj
 0001:00031390       $$000000                   10032390     LIBCMT:_sehprolg4gs_.obj
 0001:000313f0       $$000000                   100323f0     LIBCMT:lldvrm.obj
 0001:000314d0       $$000000                   100324d0     LIBCMT:ullshr.obj
 0001:000314f0       $$000000                   100324f0     LIBCMT:chkstk.obj
 0001:00031520       $$000000                   10032520     LIBCMT:llshl.obj
 0001:00031540       $$000000                   10032540     libvcruntime:strrchr.obj
 0001:00031680       $$000000                   10032680     libvcruntime:strchr.obj
 0001:00033194       $LN13                      10034194     CreatureBanksExtender.obj
 0001:000331ac       $LN11                      100341ac     CreatureBanksExtender.obj
 0001:00033990       $LN11                      10034990     WarehousesExtender.obj
 0001:00034628       $LN35                      10035628     ObjectsExtender.obj
 0001:00034634       $LN33                      10035634     ObjectsExtender.obj
 0001:000351e0       $LN96                      100361e0     RMGObjectsEditor.obj
 0001:00035200       $LN94                      10036200     RMGObjectsEditor.obj
 0001:00039d20       $LN109                     1003ad20     RMG_SettingsDlg.obj
 0001:00039d3c       $LN106                     1003ad3c     RMG_SettingsDlg.obj
 0001:0003ac00       __ehhandler$?_Copy@?$basic_string@DU?$char_traits@D@std@@V?$allocator@D@2@@std@@QAEXII@Z 1003bc00 f   era.obj
 0001:0003ac10       __ehhandler$?clear@?$_Tree@V?$_Tset_traits@PAVObjectsExtender@extender@@U?$less@PAVObjectsExtender@extender@@@std@@V?$allocator@PAVObjectsExtender@extender@@@4@$0A@@std@@@std@@QAEXXZ 1003bc10 f   ObjectsExtender.obj
 0001:0003ac10       __ehhandler$??1?$H3BinaryLoader@UH3LoadedDef@h3@@@h3@@QAE@XZ 1003bc10 f   RMG_SettingsDlg.obj
 0001:0003ac10       __ehhandler$?_Run@?$_LaunchPad@V?$unique_ptr@V?$tuple@P6AXXZ@std@@U?$default_delete@V?$tuple@P6AXXZ@std@@@2@@std@@@std@@CAXPAV12@@Z 1003bc10 f   RMG_SettingsDlg.obj
 0001:0003ac10       __ehhandler$?clear@?$_Tree@V?$_Tset_traits@URMGObjectSetable@extender@@U?$less@URMGObjectSetable@extender@@@std@@V?$allocator@URMGObjectSetable@extender@@@4@$0A@@std@@@std@@QAEXXZ 1003bc10 f   ObjectsExtender.obj
 0001:0003ac10       __ehhandler$??1?$H3BinaryLoader@UH3LoadedPcx@h3@@@h3@@QAE@XZ 1003bc10 f   RMG_SettingsDlg.obj
 0001:0003ac10       __ehhandler$??1?$array@V?$vector@HV?$allocator@H@std@@@std@@$03@std@@QAE@XZ 1003bc10 f   RMG_SettingsDlg.obj
 0001:0003ac10       __ehhandler$?clear@?$_Tree@V?$_Tset_traits@PBDU?$less@PBD@std@@V?$allocator@PBD@2@$0A@@std@@@std@@QAEXXZ 1003bc10 f   ObjectsExtender.obj
 0001:0003ac10       __ehhandler$??1H3BasePalette565@h3@@QAE@XZ 1003bc10 f   RMG_SettingsDlg.obj
 0001:0003ac10       __ehhandler$??1H3String@h3@@QAE@XZ 1003bc10 f   CreatureBanksExtender.obj
 0001:0003ac20       __unwindfunclet$?Format@H3String@h3@@SA?AU12@PBDPAD@Z$0 1003bc20 f   CreatureBanksExtender.obj
 0001:0003ac39       __ehhandler$?Format@H3String@h3@@SA?AU12@PBDPAD@Z 1003bc39 f   CreatureBanksExtender.obj
 0001:0003ac50       __unwindfunclet$??0H3CreatureBankSetup@h3@@QAE@XZ$0 1003bc50 f   CreatureBanksExtender.obj
 0001:0003ac58       __ehhandler$??0H3CreatureBankSetup@h3@@QAE@XZ 1003bc58 f   CreatureBanksExtender.obj
 0001:0003ac70       __unwindfunclet$?clear@?$vector@U?$pair@UH3ObjectAttributes@h3@@PAUH3LoadedPcx16@2@@std@@V?$allocator@U?$pair@UH3ObjectAttributes@h3@@PAUH3LoadedPcx16@2@@std@@@2@@std@@QAEXXZ$11 1003bc70 f   RMG_SettingsDlg.obj
 0001:0003ac70       __unwindfunclet$??1?$pair@UH3ObjectAttributes@h3@@$$T@std@@QAE@XZ$1 1003bc70 f   RMG_SettingsDlg.obj
 0001:0003ac70       __unwindfunclet$??_GRMG_SettingsDlg@rmgdlg@@EAEPAXI@Z$1 1003bc70 f   RMG_SettingsDlg.obj
 0001:0003ac70       __unwindfunclet$?clear@?$vector@UH3CreatureBankSetup@h3@@V?$allocator@UH3CreatureBankSetup@h3@@@std@@@std@@QAEXXZ$10 1003bc70 f   CreatureBanksExtender.obj
 0001:0003ac70       __unwindfunclet$??1?$H3Vector@PAUH3RmgObjectGenerator@h3@@@h3@@QAE@XZ$1 1003bc70 f   RMGObjectsEditor.obj
 0001:0003ac70       __unwindfunclet$??1?$_LaunchPad@V?$unique_ptr@V?$tuple@P6AXXZ@std@@U?$default_delete@V?$tuple@P6AXXZ@std@@@2@@std@@@std@@QAE@XZ$10 1003bc70 f   RMG_SettingsDlg.obj
 0001:0003ac70       __unwindfunclet$??1H3NetworkDlg@h3@@QAE@XZ$4 1003bc70 f   RMG_SettingsDlg.obj
 0001:0003ac70       __unwindfunclet$??1H3CreatureBankSetup@h3@@QAE@XZ$0 1003bc70 f   CreatureBanksExtender.obj
 0001:0003ac70       __unwindfunclet$??1H3Dlg@h3@@QAE@XZ$5 1003bc70 f   RMG_SettingsDlg.obj
 0001:0003ac76       __ehhandler$??1H3NetworkDlg@h3@@QAE@XZ 1003bc76 f   RMG_SettingsDlg.obj
 0001:0003ac76       __ehhandler$??1H3Dlg@h3@@QAE@XZ 1003bc76 f   RMG_SettingsDlg.obj
 0001:0003ac76       __ehhandler$??1H3CreatureBankSetup@h3@@QAE@XZ 1003bc76 f   CreatureBanksExtender.obj
 0001:0003ac76       __ehhandler$??_GRMG_SettingsDlg@rmgdlg@@EAEPAXI@Z 1003bc76 f   RMG_SettingsDlg.obj
 0001:0003ac76       __ehhandler$??1?$H3Vector@PAUH3RmgObjectGenerator@h3@@@h3@@QAE@XZ 1003bc76 f   RMGObjectsEditor.obj
 0001:0003ac76       __ehhandler$?clear@?$vector@UH3CreatureBankSetup@h3@@V?$allocator@UH3CreatureBankSetup@h3@@@std@@@std@@QAEXXZ 1003bc76 f   CreatureBanksExtender.obj
 0001:0003ac76       __ehhandler$?clear@?$vector@U?$pair@UH3ObjectAttributes@h3@@PAUH3LoadedPcx16@2@@std@@V?$allocator@U?$pair@UH3ObjectAttributes@h3@@PAUH3LoadedPcx16@2@@std@@@2@@std@@QAEXXZ 1003bc76 f   RMG_SettingsDlg.obj
 0001:0003ac76       __ehhandler$??1?$_LaunchPad@V?$unique_ptr@V?$tuple@P6AXXZ@std@@U?$default_delete@V?$tuple@P6AXXZ@std@@@2@@std@@@std@@QAE@XZ 1003bc76 f   RMG_SettingsDlg.obj
 0001:0003ac76       __ehhandler$??1?$pair@UH3ObjectAttributes@h3@@$$T@std@@QAE@XZ 1003bc76 f   RMG_SettingsDlg.obj
 0001:0003ac80       __ehhandler$?resize@?$vector@UH3CreatureBankSetup@h3@@V?$allocator@UH3CreatureBankSetup@h3@@@std@@@std@@QAEXI@Z 1003bc80 f   CreatureBanksExtender.obj
 0001:0003ac90       __unwindfunclet$??$_Destroy_range@V?$allocator@U?$pair@UH3ObjectAttributes@h3@@PAUH3LoadedPcx16@2@@std@@@std@@PAU?$pair@UH3ObjectAttributes@h3@@PAUH3LoadedPcx16@2@@2@@std@@YAXPAU?$pair@UH3ObjectAttributes@h3@@PAUH3LoadedPcx16@2@@0@0AAU?$_Wrap_alloc@V?$allocator@U?$pair@UH3ObjectAttributes@h3@@PAUH3LoadedPcx16@2@@std@@@std@@@0@@Z$3 1003bc90 f   RMG_SettingsDlg.obj
 0001:0003ac90       __unwindfunclet$?CreateText@H3BaseDlg@h3@@QAEPAUH3DlgText@2@HHHHPBD0HHW4eTextAlignment@NTextAlignment@NH3Dlg@2@H@Z$1 1003bc90 f   RMG_SettingsDlg.obj
 0001:0003ac90       __unwindfunclet$?_Destroy@?$vector@U?$pair@UH3ObjectAttributes@h3@@PAUH3LoadedPcx16@2@@std@@V?$allocator@U?$pair@UH3ObjectAttributes@h3@@PAUH3LoadedPcx16@2@@std@@@2@@std@@IAEXPAU?$pair@UH3ObjectAttributes@h3@@PAUH3LoadedPcx16@2@@2@0@Z$5 1003bc90 f   RMG_SettingsDlg.obj
 0001:0003ac90       __unwindfunclet$??$swap@U?$H3Vector@PAUH3RmgObjectGenerator@h3@@@h3@@X@std@@YAXAAU?$H3Vector@PAUH3RmgObjectGenerator@h3@@@h3@@0@Z$5 1003bc90 f   RMGObjectsEditor.obj
 0001:0003ac90       __unwindfunclet$?_Tidy@?$vector@UH3CreatureBankSetup@h3@@V?$allocator@UH3CreatureBankSetup@h3@@@std@@@std@@IAEXXZ$13 1003bc90 f   CreatureBanksExtender.obj
 0001:0003ac90       __unwindfunclet$?Create@H3DlgCustomButton@h3@@SAPAU12@HHPBDP6IHPAUH3Msg@2@@ZHH@Z$1 1003bc90 f   RMG_SettingsDlg.obj
 0001:0003ac90       __unwindfunclet$?CreateCaptionButton@H3BaseDlg@h3@@QAEPAUH3DlgCaptionButton@2@HHHHHPBD00HHHHH@Z$1 1003bc90 f   RMG_SettingsDlg.obj
 0001:0003ac90       __unwindfunclet$?_Pop_back_n@?$vector@UH3CreatureBankSetup@h3@@V?$allocator@UH3CreatureBankSetup@h3@@@std@@@std@@QAEXI@Z$10 1003bc90 f   CreatureBanksExtender.obj
 0001:0003ac90       __unwindfunclet$??$_Destroy_range@V?$allocator@UH3CreatureBankSetup@h3@@@std@@PAUH3CreatureBankSetup@h3@@@std@@YAXPAUH3CreatureBankSetup@h3@@0AAU?$_Wrap_alloc@V?$allocator@UH3CreatureBankSetup@h3@@@std@@@0@@Z$2 1003bc90 f   CreatureBanksExtender.obj
 0001:0003ac90       __unwindfunclet$?_Tidy@?$vector@U?$pair@UH3ObjectAttributes@h3@@PAUH3LoadedPcx16@2@@std@@V?$allocator@U?$pair@UH3ObjectAttributes@h3@@PAUH3LoadedPcx16@2@@std@@@2@@std@@IAEXXZ$14 1003bc90 f   RMG_SettingsDlg.obj
 0001:0003ac96       __ehhandler$?_Tidy@?$vector@U?$pair@UH3ObjectAttributes@h3@@PAUH3LoadedPcx16@2@@std@@V?$allocator@U?$pair@UH3ObjectAttributes@h3@@PAUH3LoadedPcx16@2@@std@@@2@@std@@IAEXXZ 1003bc96 f   RMG_SettingsDlg.obj
 0001:0003ac96       __ehhandler$??$swap@U?$H3Vector@PAUH3RmgObjectGenerator@h3@@@h3@@X@std@@YAXAAU?$H3Vector@PAUH3RmgObjectGenerator@h3@@@h3@@0@Z 1003bc96 f   RMGObjectsEditor.obj
 0001:0003ac96       __ehhandler$?_Pop_back_n@?$vector@UH3CreatureBankSetup@h3@@V?$allocator@UH3CreatureBankSetup@h3@@@std@@@std@@QAEXI@Z 1003bc96 f   CreatureBanksExtender.obj
 0001:0003ac96       __ehhandler$?Create@H3DlgCustomButton@h3@@SAPAU12@HHPBDP6IHPAUH3Msg@2@@ZHH@Z 1003bc96 f   RMG_SettingsDlg.obj
 0001:0003ac96       __ehhandler$?_Tidy@?$vector@UH3CreatureBankSetup@h3@@V?$allocator@UH3CreatureBankSetup@h3@@@std@@@std@@IAEXXZ 1003bc96 f   CreatureBanksExtender.obj
 0001:0003ac96       __ehhandler$?CreateCaptionButton@H3BaseDlg@h3@@QAEPAUH3DlgCaptionButton@2@HHHHHPBD00HHHHH@Z 1003bc96 f   RMG_SettingsDlg.obj
 0001:0003ac96       __ehhandler$??$_Destroy_range@V?$allocator@UH3CreatureBankSetup@h3@@@std@@PAUH3CreatureBankSetup@h3@@@std@@YAXPAUH3CreatureBankSetup@h3@@0AAU?$_Wrap_alloc@V?$allocator@UH3CreatureBankSetup@h3@@@std@@@0@@Z 1003bc96 f   CreatureBanksExtender.obj
 0001:0003ac96       __ehhandler$?CreateText@H3BaseDlg@h3@@QAEPAUH3DlgText@2@HHHHPBD0HHW4eTextAlignment@NTextAlignment@NH3Dlg@2@H@Z 1003bc96 f   RMG_SettingsDlg.obj
 0001:0003ac96       __ehhandler$?_Destroy@?$vector@U?$pair@UH3ObjectAttributes@h3@@PAUH3LoadedPcx16@2@@std@@V?$allocator@U?$pair@UH3ObjectAttributes@h3@@PAUH3LoadedPcx16@2@@std@@@2@@std@@IAEXPAU?$pair@UH3ObjectAttributes@h3@@PAUH3LoadedPcx16@2@@2@0@Z 1003bc96 f   RMG_SettingsDlg.obj
 0001:0003ac96       __ehhandler$??$_Destroy_range@V?$allocator@U?$pair@UH3ObjectAttributes@h3@@PAUH3LoadedPcx16@2@@std@@@std@@PAU?$pair@UH3ObjectAttributes@h3@@PAUH3LoadedPcx16@2@@2@@std@@YAXPAU?$pair@UH3ObjectAttributes@h3@@PAUH3LoadedPcx16@2@@0@0AAU?$_Wrap_alloc@V?$allocator@U?$pair@UH3ObjectAttributes@h3@@PAUH3LoadedPcx16@2@@std@@@std@@@0@@Z 1003bc96 f   RMG_SettingsDlg.obj
 0001:0003aca0       __unwindfunclet$?_Reallocate@?$vector@UH3CreatureBankSetup@h3@@V?$allocator@UH3CreatureBankSetup@h3@@@std@@@std@@IAEXI@Z$35 1003bca0 f   CreatureBanksExtender.obj
 0001:0003aca6       __ehhandler$?_Reallocate@?$vector@UH3CreatureBankSetup@h3@@V?$allocator@UH3CreatureBankSetup@h3@@@std@@@std@@IAEXI@Z 1003bca6 f   CreatureBanksExtender.obj
 0001:0003acb0       __unwindfunclet$??$_Uninitialized_default_fill_n1@PAUH3CreatureBankSetup@h3@@IV?$allocator@UH3CreatureBankSetup@h3@@@std@@@std@@YAXPAUH3CreatureBankSetup@h3@@IAAU?$_Wrap_alloc@V?$allocator@UH3CreatureBankSetup@h3@@@std@@@0@U?$integral_constant@_N$0A@@0@@Z$2 1003bcb0 f   CreatureBanksExtender.obj
 0001:0003acc1       __ehhandler$??$_Uninitialized_default_fill_n1@PAUH3CreatureBankSetup@h3@@IV?$allocator@UH3CreatureBankSetup@h3@@@std@@@std@@YAXPAUH3CreatureBankSetup@h3@@IAAU?$_Wrap_alloc@V?$allocator@UH3CreatureBankSetup@h3@@@std@@@0@U?$integral_constant@_N$0A@@0@@Z 1003bcc1 f   CreatureBanksExtender.obj
 0001:0003acd0       __unwindfunclet$??$?0PAPBD@?$set@PBDU?$less@PBD@std@@V?$allocator@PBD@2@@std@@QAE@PAPBD0@Z$0 1003bcd0 f   ObjectsExtender.obj
 0001:0003acd8       __ehhandler$??$?0PAPBD@?$set@PBDU?$less@PBD@std@@V?$allocator@PBD@2@@std@@QAE@PAPBD0@Z 1003bcd8 f   ObjectsExtender.obj
 0001:0003acf0       __unwindfunclet$??$emplace_back@AAPBD@?$vector@V?$basic_string@DU?$char_traits@D@std@@V?$allocator@D@2@@std@@V?$allocator@V?$basic_string@DU?$char_traits@D@std@@V?$allocator@D@2@@std@@@2@@std@@QAEXAAPBD@Z$20 1003bcf0 f   ObjectsExtender.obj
 0001:0003ad01       __ehhandler$??$emplace_back@AAPBD@?$vector@V?$basic_string@DU?$char_traits@D@std@@V?$allocator@D@2@@std@@V?$allocator@V?$basic_string@DU?$char_traits@D@std@@V?$allocator@D@2@@std@@@2@@std@@QAEXAAPBD@Z 1003bd01 f   ObjectsExtender.obj
 0001:0003ad10       __ehhandler$??$_Insert_nohint@ABQAVObjectsExtender@extender@@U_Nil@std@@@?$_Tree@V?$_Tset_traits@PAVObjectsExtender@extender@@U?$less@PAVObjectsExtender@extender@@@std@@V?$allocator@PAVObjectsExtender@extender@@@4@$0A@@std@@@std@@IAE?AU?$pair@V?$_Tree_const_iterator@V?$_Tree_val@U?$_Tree_simple_types@PAVObjectsExtender@extender@@@std@@@std@@@std@@_N@1@_NABQAVObjectsExtender@extender@@U_Nil@1@@Z 1003bd10 f   ObjectsExtender.obj
 0001:0003ad20       __ehhandler$??$_Insert_nohint@PBDU_Nil@std@@@?$_Tree@V?$_Tset_traits@PBDU?$less@PBD@std@@V?$allocator@PBD@2@$0A@@std@@@std@@IAE?AU?$pair@V?$_Tree_const_iterator@V?$_Tree_val@U?$_Tree_simple_types@PBD@std@@@std@@@std@@_N@1@_N$$QAPBDU_Nil@1@@Z 1003bd20 f   ObjectsExtender.obj
 0001:0003ad30       __ehhandler$??$_Insert_nohint@URMGObjectSetable@extender@@U_Nil@std@@@?$_Tree@V?$_Tset_traits@URMGObjectSetable@extender@@U?$less@URMGObjectSetable@extender@@@std@@V?$allocator@URMGObjectSetable@extender@@@4@$0A@@std@@@std@@IAE?AU?$pair@V?$_Tree_const_iterator@V?$_Tree_val@U?$_Tree_simple_types@URMGObjectSetable@extender@@@std@@@std@@@std@@_N@1@_N$$QAURMGObjectSetable@extender@@U_Nil@1@@Z 1003bd30 f   ObjectsExtender.obj
 0001:0003ad40       __unwindfunclet$?Reserve@?$H3Vector@PBD@h3@@QAEHI@Z$1 1003bd40 f   ObjectsExtender.obj
 0001:0003ad40       __unwindfunclet$?Reserve@?$H3Vector@PAUH3DlgItem@h3@@@h3@@QAEHI@Z$1 1003bd40 f   RMG_SettingsDlg.obj
 0001:0003ad40       __unwindfunclet$?Reserve@?$H3Vector@PAUH3RmgObjectGenerator@h3@@@h3@@QAEHI@Z$1 1003bd40 f   ObjectsExtender.obj
 0001:0003ad40       __unwindfunclet$?Reserve@?$H3Vector@H@h3@@QAEHI@Z$1 1003bd40 f   RMG_SettingsDlg.obj
 0001:0003ad40       __unwindfunclet$?AddBackground@H3Dlg@h3@@QAEHHHHHHHHH@Z$1 1003bd40 f   RMG_SettingsDlg.obj
 0001:0003ad46       __unwindfunclet$?AddBackground@H3Dlg@h3@@QAEHHHHHHHHH@Z$3 1003bd46 f   RMG_SettingsDlg.obj
 0001:0003ad46       __unwindfunclet$?Reserve@?$H3Vector@H@h3@@QAEHI@Z$5 1003bd46 f   RMG_SettingsDlg.obj
 0001:0003ad46       __unwindfunclet$?Reserve@?$H3Vector@PAUH3RmgObjectGenerator@h3@@@h3@@QAEHI@Z$5 1003bd46 f   ObjectsExtender.obj
 0001:0003ad46       __unwindfunclet$?Reserve@?$H3Vector@PBD@h3@@QAEHI@Z$5 1003bd46 f   ObjectsExtender.obj
 0001:0003ad46       __unwindfunclet$?Reserve@?$H3Vector@PAUH3DlgItem@h3@@@h3@@QAEHI@Z$5 1003bd46 f   RMG_SettingsDlg.obj
 0001:0003ad4c       __ehhandler$?Reserve@?$H3Vector@PAUH3DlgItem@h3@@@h3@@QAEHI@Z 1003bd4c f   RMG_SettingsDlg.obj
 0001:0003ad4c       __ehhandler$?Reserve@?$H3Vector@PBD@h3@@QAEHI@Z 1003bd4c f   ObjectsExtender.obj
 0001:0003ad4c       __ehhandler$?AddBackground@H3Dlg@h3@@QAEHHHHHHHHH@Z 1003bd4c f   RMG_SettingsDlg.obj
 0001:0003ad4c       __ehhandler$?Reserve@?$H3Vector@PAUH3RmgObjectGenerator@h3@@@h3@@QAEHI@Z 1003bd4c f   ObjectsExtender.obj
 0001:0003ad4c       __ehhandler$?Reserve@?$H3Vector@H@h3@@QAEHI@Z 1003bd4c f   RMG_SettingsDlg.obj
 0001:0003ad60       __ehhandler$??$_Insert_hint@AAPBDPAU?$_Tree_node@PBDPAX@std@@@?$_Tree@V?$_Tset_traits@PBDU?$less@PBD@std@@V?$allocator@PBD@2@$0A@@std@@@std@@IAE?AV?$_Tree_const_iterator@V?$_Tree_val@U?$_Tree_simple_types@PBD@std@@@std@@@1@V21@AAPBDPAU?$_Tree_node@PBDPAX@1@@Z 1003bd60 f   ObjectsExtender.obj
 0001:0003ad70       __ehhandler$??$_Insert_nohint@AAPBDPAU?$_Tree_node@PBDPAX@std@@@?$_Tree@V?$_Tset_traits@PBDU?$less@PBD@std@@V?$allocator@PBD@2@$0A@@std@@@std@@IAE?AU?$pair@V?$_Tree_const_iterator@V?$_Tree_val@U?$_Tree_simple_types@PBD@std@@@std@@@std@@_N@1@_NAAPBDPAU?$_Tree_node@PBDPAX@1@@Z 1003bd70 f   ObjectsExtender.obj
 0001:0003ad80       __unwindfunclet$??1PseudoH3RmgRandomMapGenerator@@QAE@XZ$2 1003bd80 f   RMGObjectsEditor.obj
 0001:0003ad86       __unwindfunclet$??1PseudoH3RmgRandomMapGenerator@@QAE@XZ$5 1003bd86 f   RMGObjectsEditor.obj
 0001:0003ad8c       __unwindfunclet$??1PseudoH3RmgRandomMapGenerator@@QAE@XZ$6 1003bd8c f   RMGObjectsEditor.obj
 0001:0003ad92       __ehhandler$??1PseudoH3RmgRandomMapGenerator@@QAE@XZ 1003bd92 f   RMGObjectsEditor.obj
 0001:0003ada0       __ehhandler$??4?$vector@V?$vector@URMGObjectInfo@@V?$allocator@URMGObjectInfo@@@std@@@std@@V?$allocator@V?$vector@URMGObjectInfo@@V?$allocator@URMGObjectInfo@@@std@@@std@@@2@@std@@QAEAAV01@ABV01@@Z 1003bda0 f   RMGObjectsEditor.obj
 0001:0003adb0       __unwindfunclet$??1?$H3Vector@UH3ObjectAttributes@h3@@@h3@@QAE@XZ$4 1003bdb0 f   RMGObjectsEditor.obj
 0001:0003adb6       __unwindfunclet$??1?$H3Vector@UH3ObjectAttributes@h3@@@h3@@QAE@XZ$6 1003bdb6 f   RMGObjectsEditor.obj
 0001:0003adbc       __ehhandler$??1?$H3Vector@UH3ObjectAttributes@h3@@@h3@@QAE@XZ 1003bdbc f   RMGObjectsEditor.obj
 0001:0003add0       __unwindfunclet$??$_Uninitialized_copy_al_unchecked1@PAV?$vector@URMGObjectInfo@@V?$allocator@URMGObjectInfo@@@std@@@std@@PAV12@V?$allocator@V?$vector@URMGObjectInfo@@V?$allocator@URMGObjectInfo@@@std@@@std@@@2@@std@@YAPAV?$vector@URMGObjectInfo@@V?$allocator@URMGObjectInfo@@@std@@@0@PAV10@00AAU?$_Wrap_alloc@V?$allocator@V?$vector@URMGObjectInfo@@V?$allocator@URMGObjectInfo@@@std@@@std@@@std@@@0@U_General_ptr_iterator_tag@0@U_Any_tag@0@@Z$4 1003bdd0 f   RMGObjectsEditor.obj
 0001:0003ade1       __ehhandler$??$_Uninitialized_copy_al_unchecked1@PAV?$vector@URMGObjectInfo@@V?$allocator@URMGObjectInfo@@@std@@@std@@PAV12@V?$allocator@V?$vector@URMGObjectInfo@@V?$allocator@URMGObjectInfo@@@std@@@std@@@2@@std@@YAPAV?$vector@URMGObjectInfo@@V?$allocator@URMGObjectInfo@@@std@@@0@PAV10@00AAU?$_Wrap_alloc@V?$allocator@V?$vector@URMGObjectInfo@@V?$allocator@URMGObjectInfo@@@std@@@std@@@std@@@0@U_General_ptr_iterator_tag@0@U_Any_tag@0@@Z 1003bde1 f   RMGObjectsEditor.obj
 0001:0003adf0       __unwindfunclet$??0_Pad@std@@QAE@XZ$0 1003bdf0 f   RMG_SettingsDlg.obj
 0001:0003adf8       __unwindfunclet$??0_Pad@std@@QAE@XZ$1 1003bdf8 f   RMG_SettingsDlg.obj
 0001:0003ae00       __ehhandler$??0_Pad@std@@QAE@XZ 1003be00 f   RMG_SettingsDlg.obj
 0001:0003ae10       __unwindfunclet$?BackgroundRegion@H3LoadedPcx16@h3@@QAEHHHHHH@Z$0 1003be10 f   RMG_SettingsDlg.obj
 0001:0003ae18       __unwindfunclet$?BackgroundRegion@H3LoadedPcx16@h3@@QAEHHHHHH@Z$3 1003be18 f   RMG_SettingsDlg.obj
 0001:0003ae1e       __ehhandler$?BackgroundRegion@H3LoadedPcx16@h3@@QAEHHHHHH@Z 1003be1e f   RMG_SettingsDlg.obj
 0001:0003ae30       __unwindfunclet$?FrameRegion@H3LoadedPcx16@h3@@QAEHHHHHHHH@Z$0 1003be30 f   RMG_SettingsDlg.obj
 0001:0003ae38       __unwindfunclet$?FrameRegion@H3LoadedPcx16@h3@@QAEHHHHHHHH@Z$1 1003be38 f   RMG_SettingsDlg.obj
 0001:0003ae43       __unwindfunclet$?FrameRegion@H3LoadedPcx16@h3@@QAEHHHHHHHH@Z$3 1003be43 f   RMG_SettingsDlg.obj
 0001:0003ae49       __unwindfunclet$?FrameRegion@H3LoadedPcx16@h3@@QAEHHHHHHHH@Z$4 1003be49 f   RMG_SettingsDlg.obj
 0001:0003ae4f       __ehhandler$?FrameRegion@H3LoadedPcx16@h3@@QAEHHHHHHHH@Z 1003be4f f   RMG_SettingsDlg.obj
 0001:0003ae60       __unwindfunclet$??0H3Dlg@h3@@QAE@HHHHHHH@Z$0 1003be60 f   RMG_SettingsDlg.obj
 0001:0003ae68       __ehhandler$??0H3Dlg@h3@@QAE@HHHHHHH@Z 1003be68 f   RMG_SettingsDlg.obj
 0001:0003ae80       __unwindfunclet$??R<lambda_50df53dded5631204e54f143e779c3fc>@@QBE_NABVRMGObject@rmgdlg@@0@Z$0 1003be80 f   RMG_SettingsDlg.obj
 0001:0003ae88       __unwindfunclet$??R<lambda_50df53dded5631204e54f143e779c3fc>@@QBE_NABVRMGObject@rmgdlg@@0@Z$1 1003be88 f   RMG_SettingsDlg.obj
 0001:0003ae90       __unwindfunclet$??R<lambda_50df53dded5631204e54f143e779c3fc>@@QBE_NABVRMGObject@rmgdlg@@0@Z$8 1003be90 f   RMG_SettingsDlg.obj
 0001:0003ae96       __unwindfunclet$??R<lambda_50df53dded5631204e54f143e779c3fc>@@QBE_NABVRMGObject@rmgdlg@@0@Z$9 1003be96 f   RMG_SettingsDlg.obj
 0001:0003ae9c       __unwindfunclet$??R<lambda_50df53dded5631204e54f143e779c3fc>@@QBE_NABVRMGObject@rmgdlg@@0@Z$20 1003be9c f   RMG_SettingsDlg.obj
 0001:0003aea2       __unwindfunclet$??R<lambda_50df53dded5631204e54f143e779c3fc>@@QBE_NABVRMGObject@rmgdlg@@0@Z$21 1003bea2 f   RMG_SettingsDlg.obj
 0001:0003aea8       __ehhandler$??R<lambda_50df53dded5631204e54f143e779c3fc>@@QBE_NABVRMGObject@rmgdlg@@0@Z 1003bea8 f   RMG_SettingsDlg.obj
 0001:0003aec0       __ehhandler$??4?$vector@U?$pair@UH3ObjectAttributes@h3@@PAUH3LoadedPcx16@2@@std@@V?$allocator@U?$pair@UH3ObjectAttributes@h3@@PAUH3LoadedPcx16@2@@std@@@2@@std@@QAEAAV01@ABV01@@Z 1003bec0 f   RMG_SettingsDlg.obj
 0001:0003aed0       __unwindfunclet$?_Reallocate@?$vector@U?$pair@UH3ObjectAttributes@h3@@PAUH3LoadedPcx16@2@@std@@V?$allocator@U?$pair@UH3ObjectAttributes@h3@@PAUH3LoadedPcx16@2@@std@@@2@@std@@IAEXI@Z$36 1003bed0 f   RMG_SettingsDlg.obj
 0001:0003aed6       __ehhandler$?_Reallocate@?$vector@U?$pair@UH3ObjectAttributes@h3@@PAUH3LoadedPcx16@2@@std@@V?$allocator@U?$pair@UH3ObjectAttributes@h3@@PAUH3LoadedPcx16@2@@std@@@2@@std@@IAEXI@Z 1003bed6 f   RMG_SettingsDlg.obj
 0001:0003aee0       __unwindfunclet$??$_Launch@V?$unique_ptr@V?$tuple@P6AXXZ@std@@U?$default_delete@V?$tuple@P6AXXZ@std@@@2@@std@@@std@@YAXPAU_Thrd_imp_t@@$$QAV?$unique_ptr@V?$tuple@P6AXXZ@std@@U?$default_delete@V?$tuple@P6AXXZ@std@@@2@@0@@Z$0 1003bee0 f   RMG_SettingsDlg.obj
 0001:0003aee8       __unwindfunclet$??$_Launch@V?$unique_ptr@V?$tuple@P6AXXZ@std@@U?$default_delete@V?$tuple@P6AXXZ@std@@@2@@std@@@std@@YAXPAU_Thrd_imp_t@@$$QAV?$unique_ptr@V?$tuple@P6AXXZ@std@@U?$default_delete@V?$tuple@P6AXXZ@std@@@2@@0@@Z$29 1003bee8 f   RMG_SettingsDlg.obj
 0001:0003aeee       __ehhandler$??$_Launch@V?$unique_ptr@V?$tuple@P6AXXZ@std@@U?$default_delete@V?$tuple@P6AXXZ@std@@@2@@std@@@std@@YAXPAU_Thrd_imp_t@@$$QAV?$unique_ptr@V?$tuple@P6AXXZ@std@@U?$default_delete@V?$tuple@P6AXXZ@std@@@2@@0@@Z 1003beee f   RMG_SettingsDlg.obj
 0001:0003af00       __unwindfunclet$??$_Uninitialized_copy_al_unchecked1@PAU?$pair@UH3ObjectAttributes@h3@@PAUH3LoadedPcx16@2@@std@@PAU12@V?$allocator@U?$pair@UH3ObjectAttributes@h3@@PAUH3LoadedPcx16@2@@std@@@2@@std@@YAPAU?$pair@UH3ObjectAttributes@h3@@PAUH3LoadedPcx16@2@@0@PAU10@00AAU?$_Wrap_alloc@V?$allocator@U?$pair@UH3ObjectAttributes@h3@@PAUH3LoadedPcx16@2@@std@@@std@@@0@U_General_ptr_iterator_tag@0@U_Any_tag@0@@Z$4 1003bf00 f   RMG_SettingsDlg.obj
 0001:0003af11       __ehhandler$??$_Uninitialized_copy_al_unchecked1@PAU?$pair@UH3ObjectAttributes@h3@@PAUH3LoadedPcx16@2@@std@@PAU12@V?$allocator@U?$pair@UH3ObjectAttributes@h3@@PAUH3LoadedPcx16@2@@std@@@2@@std@@YAPAU?$pair@UH3ObjectAttributes@h3@@PAUH3LoadedPcx16@2@@0@PAU10@00AAU?$_Wrap_alloc@V?$allocator@U?$pair@UH3ObjectAttributes@h3@@PAUH3LoadedPcx16@2@@std@@@std@@@0@U_General_ptr_iterator_tag@0@U_Any_tag@0@@Z 1003bf11 f   RMG_SettingsDlg.obj
 0001:0003af20       __unwindfunclet$??$_Push_heap_by_index@PAVRMGObject@rmgdlg@@HV12@V<lambda_50df53dded5631204e54f143e779c3fc>@@@std@@YAXPAVRMGObject@rmgdlg@@HH$$QAV12@AAV<lambda_50df53dded5631204e54f143e779c3fc>@@@Z$0 1003bf20 f   RMG_SettingsDlg.obj
 0001:0003af28       __unwindfunclet$??$_Push_heap_by_index@PAVRMGObject@rmgdlg@@HV12@V<lambda_50df53dded5631204e54f143e779c3fc>@@@std@@YAXPAVRMGObject@rmgdlg@@HH$$QAV12@AAV<lambda_50df53dded5631204e54f143e779c3fc>@@@Z$1 1003bf28 f   RMG_SettingsDlg.obj
 0001:0003af30       __unwindfunclet$??$_Push_heap_by_index@PAVRMGObject@rmgdlg@@HV12@V<lambda_50df53dded5631204e54f143e779c3fc>@@@std@@YAXPAVRMGObject@rmgdlg@@HH$$QAV12@AAV<lambda_50df53dded5631204e54f143e779c3fc>@@@Z$2 1003bf30 f   RMG_SettingsDlg.obj
 0001:0003af36       __unwindfunclet$??$_Push_heap_by_index@PAVRMGObject@rmgdlg@@HV12@V<lambda_50df53dded5631204e54f143e779c3fc>@@@std@@YAXPAVRMGObject@rmgdlg@@HH$$QAV12@AAV<lambda_50df53dded5631204e54f143e779c3fc>@@@Z$3 1003bf36 f   RMG_SettingsDlg.obj
 0001:0003af3c       __unwindfunclet$??$_Push_heap_by_index@PAVRMGObject@rmgdlg@@HV12@V<lambda_50df53dded5631204e54f143e779c3fc>@@@std@@YAXPAVRMGObject@rmgdlg@@HH$$QAV12@AAV<lambda_50df53dded5631204e54f143e779c3fc>@@@Z$4 1003bf3c f   RMG_SettingsDlg.obj
 0001:0003af42       __unwindfunclet$??$_Push_heap_by_index@PAVRMGObject@rmgdlg@@HV12@V<lambda_50df53dded5631204e54f143e779c3fc>@@@std@@YAXPAVRMGObject@rmgdlg@@HH$$QAV12@AAV<lambda_50df53dded5631204e54f143e779c3fc>@@@Z$5 1003bf42 f   RMG_SettingsDlg.obj
 0001:0003af48       __unwindfunclet$??$_Push_heap_by_index@PAVRMGObject@rmgdlg@@HV12@V<lambda_50df53dded5631204e54f143e779c3fc>@@@std@@YAXPAVRMGObject@rmgdlg@@HH$$QAV12@AAV<lambda_50df53dded5631204e54f143e779c3fc>@@@Z$6 1003bf48 f   RMG_SettingsDlg.obj
 0001:0003af4e       __unwindfunclet$??$_Push_heap_by_index@PAVRMGObject@rmgdlg@@HV12@V<lambda_50df53dded5631204e54f143e779c3fc>@@@std@@YAXPAVRMGObject@rmgdlg@@HH$$QAV12@AAV<lambda_50df53dded5631204e54f143e779c3fc>@@@Z$7 1003bf4e f   RMG_SettingsDlg.obj
 0001:0003af54       __unwindfunclet$??$_Push_heap_by_index@PAVRMGObject@rmgdlg@@HV12@V<lambda_50df53dded5631204e54f143e779c3fc>@@@std@@YAXPAVRMGObject@rmgdlg@@HH$$QAV12@AAV<lambda_50df53dded5631204e54f143e779c3fc>@@@Z$8 1003bf54 f   RMG_SettingsDlg.obj
 0001:0003af5a       __unwindfunclet$??$_Push_heap_by_index@PAVRMGObject@rmgdlg@@HV12@V<lambda_50df53dded5631204e54f143e779c3fc>@@@std@@YAXPAVRMGObject@rmgdlg@@HH$$QAV12@AAV<lambda_50df53dded5631204e54f143e779c3fc>@@@Z$9 1003bf5a f   RMG_SettingsDlg.obj
 0001:0003af60       __unwindfunclet$??$_Push_heap_by_index@PAVRMGObject@rmgdlg@@HV12@V<lambda_50df53dded5631204e54f143e779c3fc>@@@std@@YAXPAVRMGObject@rmgdlg@@HH$$QAV12@AAV<lambda_50df53dded5631204e54f143e779c3fc>@@@Z$10 1003bf60 f   RMG_SettingsDlg.obj
 0001:0003af66       __unwindfunclet$??$_Push_heap_by_index@PAVRMGObject@rmgdlg@@HV12@V<lambda_50df53dded5631204e54f143e779c3fc>@@@std@@YAXPAVRMGObject@rmgdlg@@HH$$QAV12@AAV<lambda_50df53dded5631204e54f143e779c3fc>@@@Z$11 1003bf66 f   RMG_SettingsDlg.obj
 0001:0003af6c       __unwindfunclet$??$_Push_heap_by_index@PAVRMGObject@rmgdlg@@HV12@V<lambda_50df53dded5631204e54f143e779c3fc>@@@std@@YAXPAVRMGObject@rmgdlg@@HH$$QAV12@AAV<lambda_50df53dded5631204e54f143e779c3fc>@@@Z$12 1003bf6c f   RMG_SettingsDlg.obj
 0001:0003af72       __unwindfunclet$??$_Push_heap_by_index@PAVRMGObject@rmgdlg@@HV12@V<lambda_50df53dded5631204e54f143e779c3fc>@@@std@@YAXPAVRMGObject@rmgdlg@@HH$$QAV12@AAV<lambda_50df53dded5631204e54f143e779c3fc>@@@Z$13 1003bf72 f   RMG_SettingsDlg.obj
 0001:0003af78       __unwindfunclet$??$_Push_heap_by_index@PAVRMGObject@rmgdlg@@HV12@V<lambda_50df53dded5631204e54f143e779c3fc>@@@std@@YAXPAVRMGObject@rmgdlg@@HH$$QAV12@AAV<lambda_50df53dded5631204e54f143e779c3fc>@@@Z$14 1003bf78 f   RMG_SettingsDlg.obj
 0001:0003af7e       __unwindfunclet$??$_Push_heap_by_index@PAVRMGObject@rmgdlg@@HV12@V<lambda_50df53dded5631204e54f143e779c3fc>@@@std@@YAXPAVRMGObject@rmgdlg@@HH$$QAV12@AAV<lambda_50df53dded5631204e54f143e779c3fc>@@@Z$15 1003bf7e f   RMG_SettingsDlg.obj
 0001:0003af84       __unwindfunclet$??$_Push_heap_by_index@PAVRMGObject@rmgdlg@@HV12@V<lambda_50df53dded5631204e54f143e779c3fc>@@@std@@YAXPAVRMGObject@rmgdlg@@HH$$QAV12@AAV<lambda_50df53dded5631204e54f143e779c3fc>@@@Z$16 1003bf84 f   RMG_SettingsDlg.obj
 0001:0003af8a       __unwindfunclet$??$_Push_heap_by_index@PAVRMGObject@rmgdlg@@HV12@V<lambda_50df53dded5631204e54f143e779c3fc>@@@std@@YAXPAVRMGObject@rmgdlg@@HH$$QAV12@AAV<lambda_50df53dded5631204e54f143e779c3fc>@@@Z$17 1003bf8a f   RMG_SettingsDlg.obj
 0001:0003af90       __unwindfunclet$??$_Push_heap_by_index@PAVRMGObject@rmgdlg@@HV12@V<lambda_50df53dded5631204e54f143e779c3fc>@@@std@@YAXPAVRMGObject@rmgdlg@@HH$$QAV12@AAV<lambda_50df53dded5631204e54f143e779c3fc>@@@Z$18 1003bf90 f   RMG_SettingsDlg.obj
 0001:0003af96       __unwindfunclet$??$_Push_heap_by_index@PAVRMGObject@rmgdlg@@HV12@V<lambda_50df53dded5631204e54f143e779c3fc>@@@std@@YAXPAVRMGObject@rmgdlg@@HH$$QAV12@AAV<lambda_50df53dded5631204e54f143e779c3fc>@@@Z$19 1003bf96 f   RMG_SettingsDlg.obj
 0001:0003af9c       __unwindfunclet$??$_Push_heap_by_index@PAVRMGObject@rmgdlg@@HV12@V<lambda_50df53dded5631204e54f143e779c3fc>@@@std@@YAXPAVRMGObject@rmgdlg@@HH$$QAV12@AAV<lambda_50df53dded5631204e54f143e779c3fc>@@@Z$20 1003bf9c f   RMG_SettingsDlg.obj
 0001:0003afa2       __unwindfunclet$??$_Push_heap_by_index@PAVRMGObject@rmgdlg@@HV12@V<lambda_50df53dded5631204e54f143e779c3fc>@@@std@@YAXPAVRMGObject@rmgdlg@@HH$$QAV12@AAV<lambda_50df53dded5631204e54f143e779c3fc>@@@Z$21 1003bfa2 f   RMG_SettingsDlg.obj
 0001:0003afa8       __ehhandler$??$_Push_heap_by_index@PAVRMGObject@rmgdlg@@HV12@V<lambda_50df53dded5631204e54f143e779c3fc>@@@std@@YAXPAVRMGObject@rmgdlg@@HH$$QAV12@AAV<lambda_50df53dded5631204e54f143e779c3fc>@@@Z 1003bfa8 f   RMG_SettingsDlg.obj
 0001:0003afb2       __ehhandler$??_EGlobalCore@details@Concurrency@@QAEPAXI@Z 1003bfb2 f   libcpmt:cond.obj
 0001:0003afb2       __ehhandler$??1__ExceptionPtr@@QAE@XZ 1003bfb2 f   libcpmt:excptptr.obj
 0001:0003afb2       __ehhandler$??1ThreadProxy@details@Concurrency@@UAE@XZ 1003bfb2 f   libconcrt:ThreadProxy.obj
 0001:0003afb2       __ehhandler$??1SchedulerBase@details@Concurrency@@UAE@XZ 1003bfb2 f   libconcrt:SchedulerBase.obj
 0001:0003afb2       __ehhandler$??_ENumaInformation@SchedulerBase@details@Concurrency@@QAEPAXI@Z 1003bfb2 f   libconcrt:SchedulerBase.obj
 0001:0003afb2       __ehhandler$??1?$Mailbox@V_UnrealizedChore@details@Concurrency@@@details@Concurrency@@QAE@XZ 1003bfb2 f   libconcrt:ScheduleGroupBase.obj
 0001:0003afb2       __ehhandler$??1_Condition_variable@details@Concurrency@@QAE@XZ 1003bfb2 f   libconcrt:event.obj
 0001:0003afb2       __ehhandler$??_EGlobalNode@details@Concurrency@@QAEPAXI@Z 1003bfb2 f   libconcrt:ResourceManager.obj
 0001:0003afcd       __unwindfunclet$?create_stl_condition_variable@details@Concurrency@@YAXPAVstl_condition_variable_interface@12@@Z$2 1003bfcd f   libcpmt:cond.obj
 0001:0003afcd       __unwindfunclet$?create_stl_critical_section@details@Concurrency@@YAXPAVstl_critical_section_interface@12@@Z$2 1003bfcd f   libcpmt:mutex.obj
 0001:0003afdb       __ehhandler$?create_stl_condition_variable@details@Concurrency@@YAXPAVstl_condition_variable_interface@12@@Z 1003bfdb f   libcpmt:cond.obj
 0001:0003afdb       __ehhandler$?create_stl_critical_section@details@Concurrency@@YAXPAVstl_critical_section_interface@12@@Z 1003bfdb f   libcpmt:mutex.obj
 0001:0003aff6       __unwindfunclet$??0system_error@std@@QAE@HABVerror_category@1@PBD@Z$0 1003bff6 f   libcpmt:thread0.obj
 0001:0003affe       __ehhandler$??0system_error@std@@QAE@HABVerror_category@1@PBD@Z 1003bffe f   libcpmt:thread0.obj
 0001:0003b023       __unwindfunclet$?_Makestr@_System_error@std@@CA?AV?$basic_string@DU?$char_traits@D@std@@V?$allocator@D@2@@2@Verror_code@2@V32@@Z$0 1003c023 f   libcpmt:thread0.obj
 0001:0003b02b       __unwindfunclet$?_Makestr@_System_error@std@@CA?AV?$basic_string@DU?$char_traits@D@std@@V?$allocator@D@2@@2@Verror_code@2@V32@@Z$1 1003c02b f   libcpmt:thread0.obj
 0001:0003b033       __ehhandler$?_Makestr@_System_error@std@@CA?AV?$basic_string@DU?$char_traits@D@std@@V?$allocator@D@2@@2@Verror_code@2@V32@@Z 1003c033 f   libcpmt:thread0.obj
 0001:0003b058       __unwindfunclet$??0MultiWaitBlockHolder@details@Concurrency@@QAE@_NI00@Z$0 1003c058 f   libconcrt:event.obj
 0001:0003b069       __unwindfunclet$??0MultiWaitBlockHolder@details@Concurrency@@QAE@_NI00@Z$1 1003c069 f   libconcrt:event.obj
 0001:0003b07a       __ehhandler$??0MultiWaitBlockHolder@details@Concurrency@@QAE@_NI00@Z 1003c07a f   libconcrt:event.obj
 0001:0003b095       __unwindfunclet$?notify_one@_Condition_variable@details@Concurrency@@QAEXXZ$0 1003c095 f   libconcrt:event.obj
 0001:0003b09d       __ehhandler$?notify_one@_Condition_variable@details@Concurrency@@QAEXXZ 1003c09d f   libconcrt:event.obj
 0001:0003b0b8       __unwindfunclet$?set@event@Concurrency@@QAEXXZ$0 1003c0b8 f   libconcrt:event.obj
 0001:0003b0c0       __unwindfunclet$?set@event@Concurrency@@QAEXXZ$1 1003c0c0 f   libconcrt:event.obj
 0001:0003b0c8       __ehhandler$?set@event@Concurrency@@QAEXXZ 1003c0c8 f   libconcrt:event.obj
 0001:0003b0ed       __unwindfunclet$?wait@_Condition_variable@details@Concurrency@@QAEXAAVcritical_section@3@@Z$0 1003c0ed f   libconcrt:event.obj
 0001:0003b0f5       __ehhandler$?wait@_Condition_variable@details@Concurrency@@QAEXAAVcritical_section@3@@Z 1003c0f5 f   libconcrt:event.obj
 0001:0003b110       __unwindfunclet$?wait@event@Concurrency@@QAEII@Z$0 1003c110 f   libconcrt:event.obj
 0001:0003b118       __ehhandler$?wait@event@Concurrency@@QAEII@Z 1003c118 f   libconcrt:event.obj
 0001:0003b133       __unwindfunclet$?wait_for@_Condition_variable@details@Concurrency@@QAE_NAAVcritical_section@3@I@Z$0 1003c133 f   libconcrt:event.obj
 0001:0003b140       __unwindfunclet$?wait_for@_Condition_variable@details@Concurrency@@QAE_NAAVcritical_section@3@I@Z$1 1003c140 f   libconcrt:event.obj
 0001:0003b148       __ehhandler$?wait_for@_Condition_variable@details@Concurrency@@QAE_NAAVcritical_section@3@I@Z 1003c148 f   libconcrt:event.obj
 0001:0003b163       __unwindfunclet$?wait_for_multiple@event@Concurrency@@SAIPAPAV12@I_NI@Z$0 1003c163 f   libconcrt:event.obj
 0001:0003b16b       __unwindfunclet$?wait_for_multiple@event@Concurrency@@SAIPAPAV12@I_NI@Z$1 1003c16b f   libconcrt:event.obj
 0001:0003b176       __ehhandler$?wait_for_multiple@event@Concurrency@@SAIPAPAV12@I_NI@Z 1003c176 f   libconcrt:event.obj
 0001:0003b194       __unwindfunclet$??0scoped_lock@critical_section@Concurrency@@QAE@AAV12@@Z$0 1003c194 f   libconcrt:rtlocks.obj
 0001:0003b1a2       __ehhandler$??0scoped_lock@critical_section@Concurrency@@QAE@AAV12@@Z 1003c1a2 f   libconcrt:rtlocks.obj
 0001:0003b1bd       __unwindfunclet$?try_lock_for@critical_section@Concurrency@@QAE_NI@Z$0 1003c1bd f   libconcrt:rtlocks.obj
 0001:0003b1ca       __ehhandler$?try_lock_for@critical_section@Concurrency@@QAE_NI@Z 1003c1ca f   libconcrt:rtlocks.obj
 0001:0003b1e5       __unwindfunclet$??0ResourceManager@details@Concurrency@@AAE@XZ$0 1003c1e5 f   libconcrt:ResourceManager.obj
 0001:0003b1f0       __unwindfunclet$??0ResourceManager@details@Concurrency@@AAE@XZ$1 1003c1f0 f   libconcrt:ResourceManager.obj
 0001:0003b1fb       __ehhandler$??0ResourceManager@details@Concurrency@@AAE@XZ 1003c1fb f   libconcrt:ResourceManager.obj
 0001:0003b216       __unwindfunclet$?CaptureProcessAffinity@ResourceManager@details@Concurrency@@CAXXZ$2 1003c216 f   libconcrt:ResourceManager.obj
 0001:0003b223       __ehhandler$?CaptureProcessAffinity@ResourceManager@details@Concurrency@@CAXXZ 1003c223 f   libconcrt:ResourceManager.obj
 0001:0003b248       __unwindfunclet$?CreateAllocatedNodeData@ResourceManager@details@Concurrency@@QAEPAUSchedulerNode@23@XZ$0 1003c248 f   libconcrt:ResourceManager.obj
 0001:0003b265       __ehhandler$?CreateAllocatedNodeData@ResourceManager@details@Concurrency@@QAEPAUSchedulerNode@23@XZ 1003c265 f   libconcrt:ResourceManager.obj
 0001:0003b280       __unwindfunclet$?CreateSchedulerProxy@ResourceManager@details@Concurrency@@AAEPAVSchedulerProxy@23@PAUIScheduler@3@@Z$0 1003c280 f   libconcrt:ResourceManager.obj
 0001:0003b288       __unwindfunclet$?CreateSchedulerProxy@ResourceManager@details@Concurrency@@AAEPAVSchedulerProxy@23@PAUIScheduler@3@@Z$1 1003c288 f   libconcrt:ResourceManager.obj
 0001:0003b298       __ehhandler$?CreateSchedulerProxy@ResourceManager@details@Concurrency@@AAEPAVSchedulerProxy@23@PAUIScheduler@3@@Z 1003c298 f   libconcrt:ResourceManager.obj
 0001:0003b2b3       __unwindfunclet$?CreateSingleton@ResourceManager@details@Concurrency@@SAPAV123@XZ$0 1003c2b3 f   libconcrt:ResourceManager.obj
 0001:0003b2bb       __unwindfunclet$?CreateSingleton@ResourceManager@details@Concurrency@@SAPAV123@XZ$1 1003c2bb f   libconcrt:ResourceManager.obj
 0001:0003b2cb       __unwindfunclet$?CreateSingleton@ResourceManager@details@Concurrency@@SAPAV123@XZ$2 1003c2cb f   libconcrt:ResourceManager.obj
 0001:0003b2db       __ehhandler$?CreateSingleton@ResourceManager@details@Concurrency@@SAPAV123@XZ 1003c2db f   libconcrt:ResourceManager.obj
 0001:0003b2f6       __unwindfunclet$?DestroyExecutionResource@SchedulerProxy@details@Concurrency@@QAEXPAVExecutionResource@23@@Z$1 1003c2f6 f   libconcrt:SchedulerProxy.obj
 0001:0003b2f6       __unwindfunclet$?CurrentSubscriptionLevel@ResourceManager@details@Concurrency@@QAEIII@Z$1 1003c2f6 f   libconcrt:ResourceManager.obj
 0001:0003b2fc       __ehhandler$?DestroyExecutionResource@SchedulerProxy@details@Concurrency@@QAEXPAVExecutionResource@23@@Z 1003c2fc f   libconcrt:SchedulerProxy.obj
 0001:0003b2fc       __ehhandler$?CurrentSubscriptionLevel@ResourceManager@details@Concurrency@@QAEIII@Z 1003c2fc f   libconcrt:ResourceManager.obj
 0001:0003b317       __unwindfunclet$?DynamicResourceManager@ResourceManager@details@Concurrency@@AAEXXZ$0 1003c317 f   libconcrt:ResourceManager.obj
 0001:0003b31f       __unwindfunclet$?DynamicResourceManager@ResourceManager@details@Concurrency@@AAEXXZ$1 1003c31f f   libconcrt:ResourceManager.obj
 0001:0003b325       __ehhandler$?DynamicResourceManager@ResourceManager@details@Concurrency@@AAEXXZ 1003c325 f   libconcrt:ResourceManager.obj
 0001:0003b340       __unwindfunclet$?Release@ResourceManager@details@Concurrency@@UAEIXZ$0 1003c340 f   libconcrt:ResourceManager.obj
 0001:0003b348       __unwindfunclet$?Release@ResourceManager@details@Concurrency@@UAEIXZ$3 1003c348 f   libconcrt:ResourceManager.obj
 0001:0003b34e       __ehhandler$?Release@ResourceManager@details@Concurrency@@UAEIXZ 1003c34e f   libconcrt:ResourceManager.obj
 0001:0003b369       __unwindfunclet$?RemoveExecutionResource@ResourceManager@details@Concurrency@@QAEXPAVExecutionResource@23@@Z$0 1003c369 f   libconcrt:ResourceManager.obj
 0001:0003b369       __unwindfunclet$?DestroyVirtualProcessorRoot@SchedulerProxy@details@Concurrency@@QAEXPAVVirtualProcessorRoot@23@@Z$0 1003c369 f   libconcrt:SchedulerProxy.obj
 0001:0003b371       __unwindfunclet$?DestroyVirtualProcessorRoot@SchedulerProxy@details@Concurrency@@QAEXPAVVirtualProcessorRoot@23@@Z$1 1003c371 f   libconcrt:SchedulerProxy.obj
 0001:0003b371       __unwindfunclet$?RemoveExecutionResource@ResourceManager@details@Concurrency@@QAEXPAVExecutionResource@23@@Z$1 1003c371 f   libconcrt:ResourceManager.obj
 0001:0003b377       __ehhandler$?DestroyVirtualProcessorRoot@SchedulerProxy@details@Concurrency@@QAEXPAVVirtualProcessorRoot@23@@Z 1003c377 f   libconcrt:SchedulerProxy.obj
 0001:0003b377       __ehhandler$?RemoveExecutionResource@ResourceManager@details@Concurrency@@QAEXPAVExecutionResource@23@@Z 1003c377 f   libconcrt:ResourceManager.obj
 0001:0003b392       __unwindfunclet$?RequestInitialVirtualProcessors@ResourceManager@details@Concurrency@@QAEPAUIExecutionResource@3@PAVSchedulerProxy@23@_N@Z$0 1003c392 f   libconcrt:ResourceManager.obj
 0001:0003b39a       __unwindfunclet$?RequestInitialVirtualProcessors@ResourceManager@details@Concurrency@@QAEPAUIExecutionResource@3@PAVSchedulerProxy@23@_N@Z$1 1003c39a f   libconcrt:ResourceManager.obj
 0001:0003b3a0       __unwindfunclet$?RequestInitialVirtualProcessors@ResourceManager@details@Concurrency@@QAEPAUIExecutionResource@3@PAVSchedulerProxy@23@_N@Z$2 1003c3a0 f   libconcrt:ResourceManager.obj
 0001:0003b3a6       __ehhandler$?RequestInitialVirtualProcessors@ResourceManager@details@Concurrency@@QAEPAUIExecutionResource@3@PAVSchedulerProxy@23@_N@Z 1003c3a6 f   libconcrt:ResourceManager.obj
 0001:0003b3c1       __unwindfunclet$?Shutdown@ResourceManager@details@Concurrency@@QAEXPAVSchedulerProxy@23@@Z$1 1003c3c1 f   libconcrt:ResourceManager.obj
 0001:0003b3c7       __ehhandler$?Shutdown@ResourceManager@details@Concurrency@@QAEXPAVSchedulerProxy@23@@Z 1003c3c7 f   libconcrt:ResourceManager.obj
 0001:0003b3e2       __unwindfunclet$??0SchedulerBase@details@Concurrency@@QAE@ABVSchedulerPolicy@2@@Z$0 1003c3e2 f   libconcrt:SchedulerBase.obj
 0001:0003b3ea       __unwindfunclet$??0SchedulerBase@details@Concurrency@@QAE@ABVSchedulerPolicy@2@@Z$1 1003c3ea f   libconcrt:SchedulerBase.obj
 0001:0003b3f5       __unwindfunclet$??0SchedulerBase@details@Concurrency@@QAE@ABVSchedulerPolicy@2@@Z$2 1003c3f5 f   libconcrt:SchedulerBase.obj
 0001:0003b400       __unwindfunclet$??0SchedulerBase@details@Concurrency@@QAE@ABVSchedulerPolicy@2@@Z$3 1003c400 f   libconcrt:SchedulerBase.obj
 0001:0003b40b       __unwindfunclet$??0SchedulerBase@details@Concurrency@@QAE@ABVSchedulerPolicy@2@@Z$4 1003c40b f   libconcrt:SchedulerBase.obj
 0001:0003b416       __unwindfunclet$??0SchedulerBase@details@Concurrency@@QAE@ABVSchedulerPolicy@2@@Z$5 1003c416 f   libconcrt:SchedulerBase.obj
 0001:0003b421       __unwindfunclet$??0SchedulerBase@details@Concurrency@@QAE@ABVSchedulerPolicy@2@@Z$6 1003c421 f   libconcrt:SchedulerBase.obj
 0001:0003b42c       __unwindfunclet$??0SchedulerBase@details@Concurrency@@QAE@ABVSchedulerPolicy@2@@Z$7 1003c42c f   libconcrt:SchedulerBase.obj
 0001:0003b43a       __unwindfunclet$??0SchedulerBase@details@Concurrency@@QAE@ABVSchedulerPolicy@2@@Z$8 1003c43a f   libconcrt:SchedulerBase.obj
 0001:0003b448       __unwindfunclet$??0SchedulerBase@details@Concurrency@@QAE@ABVSchedulerPolicy@2@@Z$9 1003c448 f   libconcrt:SchedulerBase.obj
 0001:0003b456       __unwindfunclet$??0SchedulerBase@details@Concurrency@@QAE@ABVSchedulerPolicy@2@@Z$10 1003c456 f   libconcrt:SchedulerBase.obj
 0001:0003b464       __ehhandler$??0SchedulerBase@details@Concurrency@@QAE@ABVSchedulerPolicy@2@@Z 1003c464 f   libconcrt:SchedulerBase.obj
 0001:0003b47f       __unwindfunclet$??_GSubAllocator@details@Concurrency@@QAEPAXI@Z$0 1003c47f f   libconcrt:SchedulerBase.obj
 0001:0003b485       __ehhandler$??_GSubAllocator@details@Concurrency@@QAEPAXI@Z 1003c485 f   libconcrt:SchedulerBase.obj
 0001:0003b4a0       __unwindfunclet$?AllocateSegment@CacheLocalScheduleGroup@details@Concurrency@@MAEPAVScheduleGroupSegmentBase@23@PAVSchedulingRing@23@PAVlocation@3@@Z$0 1003c4a0 f   libconcrt:SchedulerBase.obj
 0001:0003b4b0       __ehhandler$?AllocateSegment@CacheLocalScheduleGroup@details@Concurrency@@MAEPAVScheduleGroupSegmentBase@23@PAVSchedulingRing@23@PAVlocation@3@@Z 1003c4b0 f   libconcrt:SchedulerBase.obj
 0001:0003b4cb       __unwindfunclet$?AllocateSegment@FairScheduleGroup@details@Concurrency@@MAEPAVScheduleGroupSegmentBase@23@PAVSchedulingRing@23@PAVlocation@3@@Z$0 1003c4cb f   libconcrt:SchedulerBase.obj
 0001:0003b4db       __ehhandler$?AllocateSegment@FairScheduleGroup@details@Concurrency@@MAEPAVScheduleGroupSegmentBase@23@PAVSchedulingRing@23@PAVlocation@3@@Z 1003c4db f   libconcrt:SchedulerBase.obj
 0001:0003b4f6       __unwindfunclet$?StaticDestruction@SchedulerBase@details@Concurrency@@CAXXZ$0 1003c4f6 f   libconcrt:SchedulerBase.obj
 0001:0003b4f6       __unwindfunclet$?Version@ResourceManager@details@Concurrency@@SA?AW4OSVersion@IResourceManager@3@XZ$0 1003c4f6 f   libconcrt:ResourceManager.obj
 0001:0003b4f6       __unwindfunclet$?CheckStaticConstruction@SchedulerBase@details@Concurrency@@CAXXZ$0 1003c4f6 f   libconcrt:SchedulerBase.obj
 0001:0003b4f6       __unwindfunclet$?_RegisterConcRTEventTracing@details@Concurrency@@YAXXZ$0 1003c4f6 f   libconcrt:Trace.obj
 0001:0003b4f6       __unwindfunclet$?GetCoreCount@ResourceManager@details@Concurrency@@SAIXZ$0 1003c4f6 f   libconcrt:ResourceManager.obj
 0001:0003b4f6       __unwindfunclet$?GetNodeCount@ResourceManager@details@Concurrency@@SAIXZ$0 1003c4f6 f   libconcrt:ResourceManager.obj
 0001:0003b4fe       __ehhandler$?StaticDestruction@SchedulerBase@details@Concurrency@@CAXXZ 1003c4fe f   libconcrt:SchedulerBase.obj
 0001:0003b4fe       __ehhandler$?GetCoreCount@ResourceManager@details@Concurrency@@SAIXZ 1003c4fe f   libconcrt:ResourceManager.obj
 0001:0003b4fe       __ehhandler$?CheckStaticConstruction@SchedulerBase@details@Concurrency@@CAXXZ 1003c4fe f   libconcrt:SchedulerBase.obj
 0001:0003b4fe       __ehhandler$?GetNodeCount@ResourceManager@details@Concurrency@@SAIXZ 1003c4fe f   libconcrt:ResourceManager.obj
 0001:0003b4fe       __ehhandler$?Version@ResourceManager@details@Concurrency@@SA?AW4OSVersion@IResourceManager@3@XZ 1003c4fe f   libconcrt:ResourceManager.obj
 0001:0003b4fe       __ehhandler$?_RegisterConcRTEventTracing@details@Concurrency@@YAXXZ 1003c4fe f   libconcrt:Trace.obj
 0001:0003b519       __unwindfunclet$?AddTail@?$SafeRWList@VWaitNode@SchedulerBase@details@Concurrency@@VNoCount@CollectionTypes@34@V_ReaderWriterLock@34@@details@Concurrency@@QAEXPAVWaitNode@SchedulerBase@23@@Z$1 1003c519 f   libconcrt:SchedulerBase.obj
 0001:0003b519       __unwindfunclet$?Enqueue@?$SafeSQueue@VRealizedChore@details@Concurrency@@V_HyperNonReentrantLock@23@@details@Concurrency@@QAEXPAVRealizedChore@23@@Z$1 1003c519 f   libconcrt:ScheduleGroupBase.obj
 0001:0003b519       __unwindfunclet$?RemoveHead@?$SafeRWList@VWaitNode@SchedulerBase@details@Concurrency@@VNoCount@CollectionTypes@34@V_ReaderWriterLock@34@@details@Concurrency@@QAEPAVWaitNode@SchedulerBase@23@XZ$1 1003c519 f   libconcrt:SchedulerBase.obj
 0001:0003b519       __unwindfunclet$?Dequeue@?$SafeSQueue@VInternalContextBase@details@Concurrency@@V_HyperNonReentrantLock@23@@details@Concurrency@@QAEPAVInternalContextBase@23@XZ$1 1003c519 f   libconcrt:SchedulerBase.obj
 0001:0003b519       __unwindfunclet$?MarkDetachment@?$WorkStealingQueue@V_UnrealizedChore@details@Concurrency@@V_CriticalNonReentrantLock@23@@details@Concurrency@@QAEXXZ$1 1003c519 f   libconcrt:ScheduleGroupBase.obj
 0001:0003b519       __unwindfunclet$?Enqueue@?$SafeSQueue@VInternalContextBase@details@Concurrency@@V_HyperNonReentrantLock@23@@details@Concurrency@@QAEXPAVInternalContextBase@23@@Z$1 1003c519 f   libconcrt:CacheLocalScheduleGroup.obj
 0001:0003b519       __unwindfunclet$?AddExecutionResource@SchedulerProxy@details@Concurrency@@QAEXPAVExecutionResource@23@@Z$1 1003c519 f   libconcrt:SchedulerProxy.obj
 0001:0003b519       __unwindfunclet$?AddTail@?$SafeRWList@UListEntry@details@Concurrency@@VNoCount@CollectionTypes@23@V_ReaderWriterLock@23@@details@Concurrency@@QAEXPAUListEntry@23@@Z$1 1003c519 f   libconcrt:ContextBase.obj
 0001:0003b519       __unwindfunclet$?Dequeue@?$SafeSQueue@VRealizedChore@details@Concurrency@@V_HyperNonReentrantLock@23@@details@Concurrency@@QAEPAVRealizedChore@23@XZ$1 1003c519 f   libconcrt:ScheduleGroupBase.obj
 0001:0003b519       __unwindfunclet$?Remove@?$SafeRWList@UListEntry@details@Concurrency@@VNoCount@CollectionTypes@23@V_ReaderWriterLock@23@@details@Concurrency@@QAEXPAUListEntry@23@@Z$1 1003c519 f   libconcrt:ContextBase.obj
 0001:0003b51f       __ehhandler$?Enqueue@?$SafeSQueue@VInternalContextBase@details@Concurrency@@V_HyperNonReentrantLock@23@@details@Concurrency@@QAEXPAVInternalContextBase@23@@Z 1003c51f f   libconcrt:CacheLocalScheduleGroup.obj
 0001:0003b51f       __ehhandler$?AddTail@?$SafeRWList@VWaitNode@SchedulerBase@details@Concurrency@@VNoCount@CollectionTypes@34@V_ReaderWriterLock@34@@details@Concurrency@@QAEXPAVWaitNode@SchedulerBase@23@@Z 1003c51f f   libconcrt:SchedulerBase.obj
 0001:0003b51f       __ehhandler$?Dequeue@?$SafeSQueue@VInternalContextBase@details@Concurrency@@V_HyperNonReentrantLock@23@@details@Concurrency@@QAEPAVInternalContextBase@23@XZ 1003c51f f   libconcrt:SchedulerBase.obj
 0001:0003b51f       __ehhandler$?MarkDetachment@?$WorkStealingQueue@V_UnrealizedChore@details@Concurrency@@V_CriticalNonReentrantLock@23@@details@Concurrency@@QAEXXZ 1003c51f f   libconcrt:ScheduleGroupBase.obj
 0001:0003b51f       __ehhandler$?AddExecutionResource@SchedulerProxy@details@Concurrency@@QAEXPAVExecutionResource@23@@Z 1003c51f f   libconcrt:SchedulerProxy.obj
 0001:0003b51f       __ehhandler$?AddTail@?$SafeRWList@UListEntry@details@Concurrency@@VNoCount@CollectionTypes@23@V_ReaderWriterLock@23@@details@Concurrency@@QAEXPAUListEntry@23@@Z 1003c51f f   libconcrt:ContextBase.obj
 0001:0003b51f       __ehhandler$?Remove@?$SafeRWList@UListEntry@details@Concurrency@@VNoCount@CollectionTypes@23@V_ReaderWriterLock@23@@details@Concurrency@@QAEXPAUListEntry@23@@Z 1003c51f f   libconcrt:ContextBase.obj
 0001:0003b51f       __ehhandler$?Dequeue@?$SafeSQueue@VRealizedChore@details@Concurrency@@V_HyperNonReentrantLock@23@@details@Concurrency@@QAEPAVRealizedChore@23@XZ 1003c51f f   libconcrt:ScheduleGroupBase.obj
 0001:0003b51f       __ehhandler$?RemoveHead@?$SafeRWList@VWaitNode@SchedulerBase@details@Concurrency@@VNoCount@CollectionTypes@34@V_ReaderWriterLock@34@@details@Concurrency@@QAEPAVWaitNode@SchedulerBase@23@XZ 1003c51f f   libconcrt:SchedulerBase.obj
 0001:0003b51f       __ehhandler$?Enqueue@?$SafeSQueue@VRealizedChore@details@Concurrency@@V_HyperNonReentrantLock@23@@details@Concurrency@@QAEXPAVRealizedChore@23@@Z 1003c51f f   libconcrt:ScheduleGroupBase.obj
 0001:0003b53a       __unwindfunclet$?GetBitSet@SchedulerBase@details@Concurrency@@QAE?AVQuickBitSet@23@PBVlocation@3@@Z$0 1003c53a f   libconcrt:SchedulerBase.obj
 0001:0003b553       __ehhandler$?GetBitSet@SchedulerBase@details@Concurrency@@QAE?AVQuickBitSet@23@PBVlocation@3@@Z 1003c553 f   libconcrt:SchedulerBase.obj
 0001:0003b56e       __unwindfunclet$?GetDefaultScheduler@SchedulerBase@details@Concurrency@@CAPAV123@XZ$0 1003c56e f   libconcrt:SchedulerBase.obj
 0001:0003b576       __unwindfunclet$?GetDefaultScheduler@SchedulerBase@details@Concurrency@@CAPAV123@XZ$1 1003c576 f   libconcrt:SchedulerBase.obj
 0001:0003b57e       __ehhandler$?GetDefaultScheduler@SchedulerBase@details@Concurrency@@CAPAV123@XZ 1003c57e f   libconcrt:SchedulerBase.obj
 0001:0003b599       __unwindfunclet$?GetExternalContext@SchedulerBase@details@Concurrency@@AAEPAVExternalContextBase@23@_N@Z$0 1003c599 f   libconcrt:SchedulerBase.obj
 0001:0003b5a9       __ehhandler$?GetExternalContext@SchedulerBase@details@Concurrency@@AAEPAVExternalContextBase@23@_N@Z 1003c5a9 f   libconcrt:SchedulerBase.obj
 0001:0003b5c4       __ehhandler$?GetInternalContext@SchedulerBase@details@Concurrency@@QAEPAVInternalContextBase@23@_N@Z 1003c5c4 f   libconcrt:SchedulerBase.obj
 0001:0003b5df       __unwindfunclet$?GetSubAllocator@SchedulerBase@details@Concurrency@@SAPAVSubAllocator@23@_N@Z$0 1003c5df f   libconcrt:SchedulerBase.obj
 0001:0003b5ef       __ehhandler$?GetSubAllocator@SchedulerBase@details@Concurrency@@SAPAVSubAllocator@23@_N@Z 1003c5ef f   libconcrt:SchedulerBase.obj
 0001:0003b60a       __unwindfunclet$?Initialize@SchedulerBase@details@Concurrency@@AAEXXZ$0 1003c60a f   libconcrt:SchedulerBase.obj
 0001:0003b633       __unwindfunclet$?Initialize@SchedulerBase@details@Concurrency@@AAEXXZ$1 1003c633 f   libconcrt:SchedulerBase.obj
 0001:0003b63b       __unwindfunclet$?Initialize@SchedulerBase@details@Concurrency@@AAEXXZ$2 1003c63b f   libconcrt:SchedulerBase.obj
 0001:0003b64b       __unwindfunclet$?Initialize@SchedulerBase@details@Concurrency@@AAEXXZ$3 1003c64b f   libconcrt:SchedulerBase.obj
 0001:0003b65b       __ehhandler$?Initialize@SchedulerBase@details@Concurrency@@AAEXXZ 1003c65b f   libconcrt:SchedulerBase.obj
 0001:0003b676       __unwindfunclet$?InternalCreateScheduleGroup@SchedulerBase@details@Concurrency@@AAEPAVScheduleGroup@3@PAVlocation@3@@Z$0 1003c676 f   libconcrt:SchedulerBase.obj
 0001:0003b683       __unwindfunclet$?InternalCreateScheduleGroup@SchedulerBase@details@Concurrency@@AAEPAVScheduleGroup@3@PAVlocation@3@@Z$1 1003c683 f   libconcrt:SchedulerBase.obj
 0001:0003b690       __ehhandler$?InternalCreateScheduleGroup@SchedulerBase@details@Concurrency@@AAEPAVScheduleGroup@3@PAVlocation@3@@Z 1003c690 f   libconcrt:SchedulerBase.obj
 0001:0003b6ab       __unwindfunclet$??0ContextBase@details@Concurrency@@QAE@PAVSchedulerBase@12@_N@Z$0 1003c6ab f   libconcrt:ContextBase.obj
 0001:0003b6b3       __unwindfunclet$??0ContextBase@details@Concurrency@@QAE@PAVSchedulerBase@12@_N@Z$1 1003c6b3 f   libconcrt:ContextBase.obj
 0001:0003b6c1       __unwindfunclet$??0ContextBase@details@Concurrency@@QAE@PAVSchedulerBase@12@_N@Z$2 1003c6c1 f   libconcrt:ContextBase.obj
 0001:0003b6cf       __ehhandler$??0ContextBase@details@Concurrency@@QAE@PAVSchedulerBase@12@_N@Z 1003c6cf f   libconcrt:ContextBase.obj
 0001:0003b6ea       __ehhandler$??1_Scoped_lock@_NonReentrantBlockingLock@details@Concurrency@@QAE@XZ 1003c6ea f   libconcrt:ResourceManager.obj
 0001:0003b6ea       __ehhandler$??1ScopedCriticalRegion@ContextBase@details@Concurrency@@QAE@XZ 1003c6ea f   libconcrt:InternalContextBase.obj
 0001:0003b6ea       __ehhandler$??1?$unique_lock@Vmutex@std@@@std@@QAE@XZ 1003c6ea f   libconcrt:TaskCollection.obj
 0001:0003b6ea       __ehhandler$??1?$lock_guard@Vmutex@std@@@std@@QAE@XZ 1003c6ea f   libconcrt:TaskCollection.obj
 0001:0003b6ea       __ehhandler$??1_Scoped_lock_read@?$SafeRWList@UListEntry@details@Concurrency@@VNoCount@CollectionTypes@23@V_ReaderWriterLock@23@@details@Concurrency@@QAE@XZ 1003c6ea f   libconcrt:ContextBase.obj
 0001:0003b6ea       __ehhandler$??1_Scoped_lock@_CriticalNonReentrantLock@details@Concurrency@@QAE@XZ 1003c6ea f   libconcrt:ContextBase.obj
 0001:0003b6ea       __ehhandler$??1_Scoped_lock@_ReentrantBlockingLock@details@Concurrency@@QAE@XZ 1003c6ea f   libconcrt:SchedulerProxy.obj
 0001:0003b6ea       __ehhandler$??1_Scoped_lock@_HyperNonReentrantLock@details@Concurrency@@QAE@XZ 1003c6ea f   libconcrt:SchedulerBase.obj
 0001:0003b6ea       __ehhandler$??1scoped_lock@critical_section@Concurrency@@QAE@XZ 1003c6ea f   libconcrt:rtlocks.obj
 0001:0003b705       __unwindfunclet$?CancelStealers@ContextBase@details@Concurrency@@QAEXPAV_TaskCollectionBase@23@@Z$0 1003c705 f   libconcrt:ContextBase.obj
 0001:0003b70d       __unwindfunclet$?CancelStealers@ContextBase@details@Concurrency@@QAEXPAV_TaskCollectionBase@23@@Z$1 1003c70d f   libconcrt:ContextBase.obj
 0001:0003b713       __ehhandler$?CancelStealers@ContextBase@details@Concurrency@@QAEXPAV_TaskCollectionBase@23@@Z 1003c713 f   libconcrt:ContextBase.obj
 0001:0003b72e       __unwindfunclet$?CreateWorkQueue@ContextBase@details@Concurrency@@QAEXXZ$0 1003c72e f   libconcrt:ContextBase.obj
 0001:0003b73b       __ehhandler$?CreateWorkQueue@ContextBase@details@Concurrency@@QAEXXZ 1003c73b f   libconcrt:ContextBase.obj
 0001:0003b756       __unwindfunclet$?SyncPop@?$WorkStealingQueue@V_UnrealizedChore@details@Concurrency@@V_CriticalNonReentrantLock@23@@details@Concurrency@@AAEPAV_UnrealizedChore@23@XZ$0 1003c756 f   libconcrt:ContextBase.obj
 0001:0003b75e       __unwindfunclet$?SyncPop@?$WorkStealingQueue@V_UnrealizedChore@details@Concurrency@@V_CriticalNonReentrantLock@23@@details@Concurrency@@AAEPAV_UnrealizedChore@23@XZ$2 1003c75e f   libconcrt:ContextBase.obj
 0001:0003b764       __ehhandler$?SyncPop@?$WorkStealingQueue@V_UnrealizedChore@details@Concurrency@@V_CriticalNonReentrantLock@23@@details@Concurrency@@AAEPAV_UnrealizedChore@23@XZ 1003c764 f   libconcrt:ContextBase.obj
 0001:0003b77f       __unwindfunclet$??0_TaskCollection@details@Concurrency@@AAE@PAV012@_N@Z$0 1003c77f f   libconcrt:TaskCollection.obj
 0001:0003b78a       __ehhandler$??0_TaskCollection@details@Concurrency@@AAE@PAV012@_N@Z 1003c78a f   libconcrt:TaskCollection.obj
 0001:0003b7a5       __ehhandler$??1_TaskCollection@details@Concurrency@@QAE@XZ 1003c7a5 f   libconcrt:TaskCollection.obj
 0001:0003b7c0       __unwindfunclet$?_Alias@_TaskCollection@details@Concurrency@@AAEPAV123@XZ$0 1003c7c0 f   libconcrt:TaskCollection.obj
 0001:0003b7d0       __ehhandler$?_Alias@_TaskCollection@details@Concurrency@@AAEPAV123@XZ 1003c7d0 f   libconcrt:TaskCollection.obj
 0001:0003b7eb       __unwindfunclet$?_CancelStolenContexts@_TaskCollection@details@Concurrency@@AAEX_N0@Z$0 1003c7eb f   libconcrt:TaskCollection.obj
 0001:0003b7f3       __unwindfunclet$?_CancelStolenContexts@_TaskCollection@details@Concurrency@@AAEX_N0@Z$1 1003c7f3 f   libconcrt:TaskCollection.obj
 0001:0003b7f9       __ehhandler$?_CancelStolenContexts@_TaskCollection@details@Concurrency@@AAEX_N0@Z 1003c7f9 f   libconcrt:TaskCollection.obj
 0001:0003b814       __unwindfunclet$?_DeregisterCallback@_CancellationTokenState@details@Concurrency@@QAEXPAV_CancellationTokenRegistration@23@@Z$0 1003c814 f   libconcrt:TaskCollection.obj
 0001:0003b81c       __unwindfunclet$?_DeregisterCallback@_CancellationTokenState@details@Concurrency@@QAEXPAV_CancellationTokenRegistration@23@@Z$7 1003c81c f   libconcrt:TaskCollection.obj
 0001:0003b822       __unwindfunclet$?_DeregisterCallback@_CancellationTokenState@details@Concurrency@@QAEXPAV_CancellationTokenRegistration@23@@Z$1 1003c822 f   libconcrt:TaskCollection.obj
 0001:0003b82a       __unwindfunclet$?_DeregisterCallback@_CancellationTokenState@details@Concurrency@@QAEXPAV_CancellationTokenRegistration@23@@Z$12 1003c82a f   libconcrt:TaskCollection.obj
 0001:0003b830       __ehhandler$?_DeregisterCallback@_CancellationTokenState@details@Concurrency@@QAEXPAV_CancellationTokenRegistration@23@@Z 1003c830 f   libconcrt:TaskCollection.obj
 0001:0003b84b       __unwindfunclet$?_FullAliasWait@_TaskCollection@details@Concurrency@@AAEXPAV123@@Z$0 1003c84b f   libconcrt:TaskCollection.obj
 0001:0003b853       __ehhandler$?_FullAliasWait@_TaskCollection@details@Concurrency@@AAEXPAV123@@Z 1003c853 f   libconcrt:TaskCollection.obj
 0001:0003b878       __unwindfunclet$?_Initialize@_TaskCollection@details@Concurrency@@AAEXXZ$0 1003c878 f   libconcrt:TaskCollection.obj
 0001:0003b88a       __ehhandler$?_Initialize@_TaskCollection@details@Concurrency@@AAEXXZ 1003c88a f   libconcrt:TaskCollection.obj
 0001:0003b8a5       __unwindfunclet$?_Invoke@_CancellationTokenRegistration@details@Concurrency@@AAEXXZ$2 1003c8a5 f   libconcrt:TaskCollection.obj
 0001:0003b8ab       __unwindfunclet$?_Invoke@_CancellationTokenRegistration@details@Concurrency@@AAEXXZ$4 1003c8ab f   libconcrt:TaskCollection.obj
 0001:0003b8b1       __ehhandler$?_Invoke@_CancellationTokenRegistration@details@Concurrency@@AAEXXZ 1003c8b1 f   libconcrt:TaskCollection.obj
 0001:0003b8cc       __unwindfunclet$?_RegisterCallback@_CancellationTokenState@details@Concurrency@@QAEXPAV_CancellationTokenRegistration@23@@Z$0 1003c8cc f   libconcrt:TaskCollection.obj
 0001:0003b8d4       __unwindfunclet$?_RegisterCallback@_CancellationTokenState@details@Concurrency@@QAEXPAV_CancellationTokenRegistration@23@@Z$12 1003c8d4 f   libconcrt:TaskCollection.obj
 0001:0003b8da       __ehhandler$?_RegisterCallback@_CancellationTokenState@details@Concurrency@@QAEXPAV_CancellationTokenRegistration@23@@Z 1003c8da f   libconcrt:TaskCollection.obj
 0001:0003b8f5       __ehhandler$?_Initialize@SchedulerPolicy@Concurrency@@AAEXIPAPAD@Z 1003c8f5 f   libconcrt:SchedulerPolicyBase.obj
 0001:0003b910       __unwindfunclet$??0SchedulerProxy@details@Concurrency@@QAE@PAUIScheduler@2@PAVResourceManager@12@ABVSchedulerPolicy@2@@Z$0 1003c910 f   libconcrt:SchedulerProxy.obj
 0001:0003b91b       __unwindfunclet$??0SchedulerProxy@details@Concurrency@@QAE@PAUIScheduler@2@PAVResourceManager@12@ABVSchedulerPolicy@2@@Z$1 1003c91b f   libconcrt:SchedulerProxy.obj
 0001:0003b92b       __ehhandler$??0SchedulerProxy@details@Concurrency@@QAE@PAUIScheduler@2@PAVResourceManager@12@ABVSchedulerPolicy@2@@Z 1003c92b f   libconcrt:SchedulerProxy.obj
 0001:0003b946       __unwindfunclet$?AddVirtualProcessorRoots@SchedulerProxy@details@Concurrency@@QAEXPAPAUIVirtualProcessorRoot@3@I@Z$0 1003c946 f   libconcrt:SchedulerProxy.obj
 0001:0003b94e       __unwindfunclet$?AddVirtualProcessorRoots@SchedulerProxy@details@Concurrency@@QAEXPAPAUIVirtualProcessorRoot@3@I@Z$1 1003c94e f   libconcrt:SchedulerProxy.obj
 0001:0003b954       __ehhandler$?AddVirtualProcessorRoots@SchedulerProxy@details@Concurrency@@QAEXPAPAUIVirtualProcessorRoot@3@I@Z 1003c954 f   libconcrt:SchedulerProxy.obj
 0001:0003b96f       __unwindfunclet$?CreateOversubscriber@SchedulerProxy@details@Concurrency@@UAEPAUIVirtualProcessorRoot@3@PAUIExecutionResource@3@@Z$0 1003c96f f   libconcrt:SchedulerProxy.obj
 0001:0003b977       __unwindfunclet$?CreateOversubscriber@SchedulerProxy@details@Concurrency@@UAEPAUIVirtualProcessorRoot@3@PAUIExecutionResource@3@@Z$1 1003c977 f   libconcrt:SchedulerProxy.obj
 0001:0003b97d       __ehhandler$?CreateOversubscriber@SchedulerProxy@details@Concurrency@@UAEPAUIVirtualProcessorRoot@3@PAUIExecutionResource@3@@Z 1003c97d f   libconcrt:SchedulerProxy.obj
 0001:0003b998       __unwindfunclet$?CreateVirtualProcessorRoot@SchedulerProxy@details@Concurrency@@UAEPAVVirtualProcessorRoot@23@PAUSchedulerNode@23@I@Z$0 1003c998 f   libconcrt:SchedulerProxy.obj
 0001:0003b9a5       __ehhandler$?CreateVirtualProcessorRoot@SchedulerProxy@details@Concurrency@@UAEPAVVirtualProcessorRoot@23@PAUSchedulerNode@23@I@Z 1003c9a5 f   libconcrt:SchedulerProxy.obj
 0001:0003b9c0       __unwindfunclet$?GetResourceForNewSubscription@SchedulerProxy@details@Concurrency@@QAEPAVExecutionResource@23@PAV423@@Z$0 1003c9c0 f   libconcrt:SchedulerProxy.obj
 0001:0003b9c0       __unwindfunclet$?CreateExternalThreadResource@SchedulerProxy@details@Concurrency@@QAEPAVExecutionResource@23@PAUSchedulerNode@23@I@Z$0 1003c9c0 f   libconcrt:SchedulerProxy.obj
 0001:0003b9cd       __ehhandler$?CreateExternalThreadResource@SchedulerProxy@details@Concurrency@@QAEPAVExecutionResource@23@PAUSchedulerNode@23@I@Z 1003c9cd f   libconcrt:SchedulerProxy.obj
 0001:0003b9cd       __ehhandler$?GetResourceForNewSubscription@SchedulerProxy@details@Concurrency@@QAEPAVExecutionResource@23@PAV423@@Z 1003c9cd f   libconcrt:SchedulerProxy.obj
 0001:0003b9e8       __unwindfunclet$?RemoveCore@SchedulerProxy@details@Concurrency@@QAEXPAUSchedulerNode@23@I@Z$0 1003c9e8 f   libconcrt:SchedulerProxy.obj
 0001:0003b9f0       __unwindfunclet$?RemoveCore@SchedulerProxy@details@Concurrency@@QAEXPAUSchedulerNode@23@I@Z$1 1003c9f0 f   libconcrt:SchedulerProxy.obj
 0001:0003b9f6       __ehhandler$?RemoveCore@SchedulerProxy@details@Concurrency@@QAEXPAUSchedulerNode@23@I@Z 1003c9f6 f   libconcrt:SchedulerProxy.obj
 0001:0003ba11       __unwindfunclet$?SendCoreNotification@SchedulerProxy@details@Concurrency@@QAEXPAUSchedulerCore@23@_N@Z$0 1003ca11 f   libconcrt:SchedulerProxy.obj
 0001:0003ba19       __unwindfunclet$?SendCoreNotification@SchedulerProxy@details@Concurrency@@QAEXPAUSchedulerCore@23@_N@Z$1 1003ca19 f   libconcrt:SchedulerProxy.obj
 0001:0003ba1f       __ehhandler$?SendCoreNotification@SchedulerProxy@details@Concurrency@@QAEXPAUSchedulerCore@23@_N@Z 1003ca1f f   libconcrt:SchedulerProxy.obj
 0001:0003ba44       __unwindfunclet$??0ThreadProxyFactoryManager@details@Concurrency@@QAE@XZ$0 1003ca44 f   libconcrt:ThreadProxyFactoryManager.obj
 0001:0003ba4f       __ehhandler$??0ThreadProxyFactoryManager@details@Concurrency@@QAE@XZ 1003ca4f f   libconcrt:ThreadProxyFactoryManager.obj
 0001:0003ba6a       __ehhandler$??1ThreadProxyFactoryManager@details@Concurrency@@QAE@XZ 1003ca6a f   libconcrt:ThreadProxyFactoryManager.obj
 0001:0003ba6a       __ehhandler$??1event@Concurrency@@QAE@XZ 1003ca6a f   libconcrt:event.obj
 0001:0003ba6a       __ehhandler$??1ResourceManager@details@Concurrency@@AAE@XZ 1003ca6a f   libconcrt:ResourceManager.obj
 0001:0003ba85       __unwindfunclet$?Create@FreeThreadProxyFactory@details@Concurrency@@EAEPAVFreeThreadProxy@23@I@Z$0 1003ca85 f   libconcrt:ThreadProxyFactoryManager.obj
 0001:0003ba92       __ehhandler$?Create@FreeThreadProxyFactory@details@Concurrency@@EAEPAVFreeThreadProxy@23@I@Z 1003ca92 f   libconcrt:ThreadProxyFactoryManager.obj
 0001:0003baad       __unwindfunclet$?SubscribeCurrentThread@ResourceManager@details@Concurrency@@QAEPAVExecutionResource@23@PAVSchedulerProxy@23@@Z$0 1003caad f   libconcrt:ResourceManager.obj
 0001:0003baad       __unwindfunclet$?GetFreeThreadProxyFactory@ThreadProxyFactoryManager@details@Concurrency@@QAEPAVFreeThreadProxyFactory@23@XZ$0 1003caad f   libconcrt:ThreadProxyFactoryManager.obj
 0001:0003bab5       __unwindfunclet$?GetFreeThreadProxyFactory@ThreadProxyFactoryManager@details@Concurrency@@QAEPAVFreeThreadProxyFactory@23@XZ$1 1003cab5 f   libconcrt:ThreadProxyFactoryManager.obj
 0001:0003bab5       __unwindfunclet$?SubscribeCurrentThread@ResourceManager@details@Concurrency@@QAEPAVExecutionResource@23@PAVSchedulerProxy@23@@Z$1 1003cab5 f   libconcrt:ResourceManager.obj
 0001:0003babb       __ehhandler$?SubscribeCurrentThread@ResourceManager@details@Concurrency@@QAEPAVExecutionResource@23@PAVSchedulerProxy@23@@Z 1003cabb f   libconcrt:ResourceManager.obj
 0001:0003babb       __ehhandler$?GetFreeThreadProxyFactory@ThreadProxyFactoryManager@details@Concurrency@@QAEPAVFreeThreadProxyFactory@23@XZ 1003cabb f   libconcrt:ThreadProxyFactoryManager.obj
 0001:0003bad6       __unwindfunclet$??0SchedulingNode@details@Concurrency@@QAE@ABVQuickBitSet@12@KPAVSchedulingRing@12@@Z$0 1003cad6 f   libconcrt:SchedulingNode.obj
 0001:0003bae1       __unwindfunclet$??0SchedulingNode@details@Concurrency@@QAE@ABVQuickBitSet@12@KPAVSchedulingRing@12@@Z$1 1003cae1 f   libconcrt:SchedulingNode.obj
 0001:0003baec       __ehhandler$??0SchedulingNode@details@Concurrency@@QAE@ABVQuickBitSet@12@KPAVSchedulingRing@12@@Z 1003caec f   libconcrt:SchedulingNode.obj
 0001:0003bb07       __unwindfunclet$?Steal@WorkQueue@details@Concurrency@@QAEPAV_UnrealizedChore@23@_N@Z$0 1003cb07 f   libconcrt:WorkQueue.obj
 0001:0003bb07       __unwindfunclet$?Steal@?$StructuredWorkStealingQueue@VInternalContextBase@details@Concurrency@@V_HyperNonReentrantLock@23@@details@Concurrency@@QAEPAVInternalContextBase@23@_N@Z$0 1003cb07 f   libconcrt:SchedulingNode.obj
 0001:0003bb0f       __unwindfunclet$?Steal@?$StructuredWorkStealingQueue@VInternalContextBase@details@Concurrency@@V_HyperNonReentrantLock@23@@details@Concurrency@@QAEPAVInternalContextBase@23@_N@Z$1 1003cb0f f   libconcrt:SchedulingNode.obj
 0001:0003bb0f       __unwindfunclet$?Steal@WorkQueue@details@Concurrency@@QAEPAV_UnrealizedChore@23@_N@Z$1 1003cb0f f   libconcrt:WorkQueue.obj
 0001:0003bb15       __ehhandler$?Steal@WorkQueue@details@Concurrency@@QAEPAV_UnrealizedChore@23@_N@Z 1003cb15 f   libconcrt:WorkQueue.obj
 0001:0003bb15       __ehhandler$?Steal@?$StructuredWorkStealingQueue@VInternalContextBase@details@Concurrency@@V_HyperNonReentrantLock@23@@details@Concurrency@@QAEPAVInternalContextBase@23@_N@Z 1003cb15 f   libconcrt:SchedulingNode.obj
 0001:0003bb30       __ehhandler$??1AllocatorBucket@details@Concurrency@@QAE@XZ 1003cb30 f   libconcrt:SubAllocator.obj
 0001:0003bb30       __ehhandler$??1InternalContextBase@details@Concurrency@@UAE@XZ 1003cb30 f   libconcrt:InternalContextBase.obj
 0001:0003bb30       __ehhandler$??1SchedulerProxy@details@Concurrency@@IAE@XZ 1003cb30 f   libconcrt:SchedulerProxy.obj
 0001:0003bb30       __ehhandler$??1VirtualProcessor@details@Concurrency@@UAE@XZ 1003cb30 f   libconcrt:VirtualProcessor.obj
 0001:0003bb30       __ehhandler$??1ExternalContextBase@details@Concurrency@@UAE@XZ 1003cb30 f   libconcrt:ExternalContextBase.obj
 0001:0003bb4b       __unwindfunclet$?Alloc@InternalContextBase@details@Concurrency@@UAEPAXI@Z$0 1003cb4b f   libconcrt:InternalContextBase.obj
 0001:0003bb53       __unwindfunclet$?Alloc@InternalContextBase@details@Concurrency@@UAEPAXI@Z$1 1003cb53 f   libconcrt:InternalContextBase.obj
 0001:0003bb59       __ehhandler$?Alloc@InternalContextBase@details@Concurrency@@UAEPAXI@Z 1003cb59 f   libconcrt:InternalContextBase.obj
 0001:0003bb74       __unwindfunclet$?Dispatch@InternalContextBase@details@Concurrency@@UAEXPAUDispatchState@3@@Z$0 1003cb74 f   libconcrt:InternalContextBase.obj
 0001:0003bb8d       __ehhandler$?Dispatch@InternalContextBase@details@Concurrency@@UAEXPAUDispatchState@3@@Z 1003cb8d f   libconcrt:InternalContextBase.obj
 0001:0003bba8       __unwindfunclet$?GrowAndPush@?$StructuredWorkStealingQueue@VInternalContextBase@details@Concurrency@@V_HyperNonReentrantLock@23@@details@Concurrency@@AAEXPAVInternalContextBase@23@VSlot@?$Mailbox@VInternalContextBase@details@Concurrency@@@23@@Z$0 1003cba8 f   libconcrt:InternalContextBase.obj
 0001:0003bbc5       __unwindfunclet$?GrowAndPush@?$StructuredWorkStealingQueue@VInternalContextBase@details@Concurrency@@V_HyperNonReentrantLock@23@@details@Concurrency@@AAEXPAVInternalContextBase@23@VSlot@?$Mailbox@VInternalContextBase@details@Concurrency@@@23@@Z$2 1003cbc5 f   libconcrt:InternalContextBase.obj
 0001:0003bbcb       __ehhandler$?GrowAndPush@?$StructuredWorkStealingQueue@VInternalContextBase@details@Concurrency@@V_HyperNonReentrantLock@23@@details@Concurrency@@AAEXPAVInternalContextBase@23@VSlot@?$Mailbox@VInternalContextBase@details@Concurrency@@@23@@Z 1003cbcb f   libconcrt:InternalContextBase.obj
 0001:0003bbe6       __unwindfunclet$??0SchedulingRing@details@Concurrency@@QAE@PAVSchedulerBase@12@H@Z$0 1003cbe6 f   libconcrt:SchedulingRing.obj
 0001:0003bbf1       __unwindfunclet$??0SchedulingRing@details@Concurrency@@QAE@PAVSchedulerBase@12@H@Z$1 1003cbf1 f   libconcrt:SchedulingRing.obj
 0001:0003bbfc       __ehhandler$??0SchedulingRing@details@Concurrency@@QAE@PAVSchedulerBase@12@H@Z 1003cbfc f   libconcrt:SchedulingRing.obj
 0001:0003bc17       __unwindfunclet$??0?$Mailbox@V_UnrealizedChore@details@Concurrency@@@details@Concurrency@@QAE@PAVSchedulerBase@12@ABVQuickBitSet@12@_NI@Z$0 1003cc17 f   libconcrt:ScheduleGroupBase.obj
 0001:0003bc22       __unwindfunclet$??0?$Mailbox@V_UnrealizedChore@details@Concurrency@@@details@Concurrency@@QAE@PAVSchedulerBase@12@ABVQuickBitSet@12@_NI@Z$1 1003cc22 f   libconcrt:ScheduleGroupBase.obj
 0001:0003bc2f       __ehhandler$??0?$Mailbox@V_UnrealizedChore@details@Concurrency@@@details@Concurrency@@QAE@PAVSchedulerBase@12@ABVQuickBitSet@12@_NI@Z 1003cc2f f   libconcrt:ScheduleGroupBase.obj
 0001:0003bc4a       __unwindfunclet$??0ScheduleGroupBase@details@Concurrency@@QAE@PAVSchedulerBase@12@PAVlocation@2@@Z$0 1003cc4a f   libconcrt:ScheduleGroupBase.obj
 0001:0003bc52       __ehhandler$??0ScheduleGroupBase@details@Concurrency@@QAE@PAVSchedulerBase@12@PAVlocation@2@@Z 1003cc52 f   libconcrt:ScheduleGroupBase.obj
 0001:0003bc6d       __unwindfunclet$??0ScheduleGroupSegmentBase@details@Concurrency@@IAE@PAVScheduleGroupBase@12@PAVSchedulingRing@12@PAVlocation@2@@Z$0 1003cc6d f   libconcrt:ScheduleGroupBase.obj
 0001:0003bc78       __unwindfunclet$??0ScheduleGroupSegmentBase@details@Concurrency@@IAE@PAVScheduleGroupBase@12@PAVSchedulingRing@12@PAVlocation@2@@Z$1 1003cc78 f   libconcrt:ScheduleGroupBase.obj
 0001:0003bc80       __unwindfunclet$??0ScheduleGroupSegmentBase@details@Concurrency@@IAE@PAVScheduleGroupBase@12@PAVSchedulingRing@12@PAVlocation@2@@Z$2 1003cc80 f   libconcrt:ScheduleGroupBase.obj
 0001:0003bc8b       __unwindfunclet$??0ScheduleGroupSegmentBase@details@Concurrency@@IAE@PAVScheduleGroupBase@12@PAVSchedulingRing@12@PAVlocation@2@@Z$3 1003cc8b f   libconcrt:ScheduleGroupBase.obj
 0001:0003bc96       __unwindfunclet$??0ScheduleGroupSegmentBase@details@Concurrency@@IAE@PAVScheduleGroupBase@12@PAVSchedulingRing@12@PAVlocation@2@@Z$4 1003cc96 f   libconcrt:ScheduleGroupBase.obj
 0001:0003bca4       __ehhandler$??0ScheduleGroupSegmentBase@details@Concurrency@@IAE@PAVScheduleGroupBase@12@PAVSchedulingRing@12@PAVlocation@2@@Z 1003cca4 f   libconcrt:ScheduleGroupBase.obj
 0001:0003bcbf       __unwindfunclet$??0Segment@?$Mailbox@V_UnrealizedChore@details@Concurrency@@@details@Concurrency@@QAE@PAVSchedulerBase@23@ABVQuickBitSet@23@II@Z$0 1003ccbf f   libconcrt:ScheduleGroupBase.obj
 0001:0003bcca       __ehhandler$??0Segment@?$Mailbox@V_UnrealizedChore@details@Concurrency@@@details@Concurrency@@QAE@PAVSchedulerBase@23@ABVQuickBitSet@23@II@Z 1003ccca f   libconcrt:ScheduleGroupBase.obj
 0001:0003bce5       __unwindfunclet$?DemandInitialize@?$Mailbox@V_UnrealizedChore@details@Concurrency@@@details@Concurrency@@AAEXXZ$0 1003cce5 f   libconcrt:ScheduleGroupBase.obj
 0001:0003bcf2       __ehhandler$?DemandInitialize@?$Mailbox@V_UnrealizedChore@details@Concurrency@@@details@Concurrency@@AAEXXZ 1003ccf2 f   libconcrt:ScheduleGroupBase.obj
 0001:0003bd0d       __unwindfunclet$?Grow@?$Mailbox@V_UnrealizedChore@details@Concurrency@@@details@Concurrency@@AAEPAUSegment@123@PAU4123@@Z$0 1003cd0d f   libconcrt:ScheduleGroupBase.obj
 0001:0003bd1a       __ehhandler$?Grow@?$Mailbox@V_UnrealizedChore@details@Concurrency@@@details@Concurrency@@AAEPAUSegment@123@PAU4123@@Z 1003cd1a f   libconcrt:ScheduleGroupBase.obj
 0001:0003bd35       __unwindfunclet$??0ExternalContextBase@details@Concurrency@@QAE@PAVSchedulerBase@12@_N@Z$0 1003cd35 f   libconcrt:ExternalContextBase.obj
 0001:0003bd3d       __ehhandler$??0ExternalContextBase@details@Concurrency@@QAE@PAVSchedulerBase@12@_N@Z 1003cd3d f   libconcrt:ExternalContextBase.obj
 0001:0003bd58       __unwindfunclet$?Create@ThreadScheduler@details@Concurrency@@SAPAV123@ABVSchedulerPolicy@3@@Z$0 1003cd58 f   libconcrt:ThreadScheduler.obj
 0001:0003bd68       __ehhandler$?Create@ThreadScheduler@details@Concurrency@@SAPAV123@ABVSchedulerPolicy@3@@Z 1003cd68 f   libconcrt:ThreadScheduler.obj
 0001:0003bd83       __unwindfunclet$?CreateInternalContext@ThreadScheduler@details@Concurrency@@MAEPAVInternalContextBase@23@XZ$0 1003cd83 f   libconcrt:ThreadScheduler.obj
 0001:0003bd93       __ehhandler$?CreateInternalContext@ThreadScheduler@details@Concurrency@@MAEPAVInternalContextBase@23@XZ 1003cd93 f   libconcrt:ThreadScheduler.obj
 0001:0003bdae       __unwindfunclet$?CreateVirtualProcessor@ThreadScheduler@details@Concurrency@@UAEPAVVirtualProcessor@23@PAVSchedulingNode@23@PAUIVirtualProcessorRoot@3@@Z$0 1003cdae f   libconcrt:ThreadScheduler.obj
 0001:0003bdbe       __ehhandler$?CreateVirtualProcessor@ThreadScheduler@details@Concurrency@@UAEPAVVirtualProcessor@23@PAVSchedulingNode@23@PAUIVirtualProcessorRoot@3@@Z 1003cdbe f   libconcrt:ThreadScheduler.obj
 0001:0003bdd9       __unwindfunclet$?_RethrowException@_TaskCollectionBase@details@Concurrency@@IAEXXZ$0 1003cdd9 f   libconcrt:TaskCollectionBase.obj
 0001:0003bde1       __ehhandler$?_RethrowException@_TaskCollectionBase@details@Concurrency@@IAEXXZ 1003cde1 f   libconcrt:TaskCollectionBase.obj
 0001:0003bdfc       __unwindfunclet$?rethrow_exception@std@@YAXVexception_ptr@1@@Z$0 1003cdfc f   libconcrt:TaskCollectionBase.obj
 0001:0003be04       __ehhandler$?rethrow_exception@std@@YAXVexception_ptr@1@@Z 1003ce04 f   libconcrt:TaskCollectionBase.obj
 0001:0003be1f       __unwindfunclet$??0WorkQueue@details@Concurrency@@QAE@XZ$0 1003ce1f f   libconcrt:WorkQueue.obj
 0001:0003be27       __unwindfunclet$??0WorkQueue@details@Concurrency@@QAE@XZ$1 1003ce27 f   libconcrt:WorkQueue.obj
 0001:0003be32       __ehhandler$??0WorkQueue@details@Concurrency@@QAE@XZ 1003ce32 f   libconcrt:WorkQueue.obj
 0001:0003be4d       __unwindfunclet$?Sweep@?$WorkStealingQueue@V_UnrealizedChore@details@Concurrency@@V_CriticalNonReentrantLock@23@@details@Concurrency@@QAEXP6A_NPAV_UnrealizedChore@23@PAX@Z12@Z$0 1003ce4d f   libconcrt:WorkQueue.obj
 0001:0003be55       __unwindfunclet$?Sweep@?$WorkStealingQueue@V_UnrealizedChore@details@Concurrency@@V_CriticalNonReentrantLock@23@@details@Concurrency@@QAEXP6A_NPAV_UnrealizedChore@23@PAX@Z12@Z$1 1003ce55 f   libconcrt:WorkQueue.obj
 0001:0003be5b       __ehhandler$?Sweep@?$WorkStealingQueue@V_UnrealizedChore@details@Concurrency@@V_CriticalNonReentrantLock@23@@details@Concurrency@@QAEXP6A_NPAV_UnrealizedChore@23@PAX@Z12@Z 1003ce5b f   libconcrt:WorkQueue.obj
 0001:0003be76       __ehhandler$?_StructuredChoreWrapper@_UnrealizedChore@details@Concurrency@@CAXPAV123@@Z 1003ce76 f   libconcrt:Chores.obj
 0001:0003be91       __unwindfunclet$??0ThreadVirtualProcessor@details@Concurrency@@QAE@PAVSchedulingNode@12@PAUIVirtualProcessorRoot@2@@Z$0 1003ce91 f   libconcrt:ThreadVirtualProcessor.obj
 0001:0003be99       __ehhandler$??0ThreadVirtualProcessor@details@Concurrency@@QAE@PAVSchedulingNode@12@PAUIVirtualProcessorRoot@2@@Z 1003ce99 f   libconcrt:ThreadVirtualProcessor.obj
 0001:0003beb4       __ehhandler$?CallUnexpected@@YAXPBU_s_ESTypeList@@@Z 1003ceb4 f   libvcruntime:frame.obj
 0001:0003becf       __unwindfunclet$??$?0AAPAUEHExceptionRecord@@_N@?$_Ref_count_obj@V__ExceptionPtr@@@std@@QAE@AAPAUEHExceptionRecord@@$$QA_N@Z$0 1003cecf f   libcpmt:excptptr.obj
 0001:0003bed7       __unwindfunclet$??$?0AAPAUEHExceptionRecord@@_N@?$_Ref_count_obj@V__ExceptionPtr@@@std@@QAE@AAPAUEHExceptionRecord@@$$QA_N@Z$1 1003ced7 f   libcpmt:excptptr.obj
 0001:0003bee9       __ehhandler$??$?0AAPAUEHExceptionRecord@@_N@?$_Ref_count_obj@V__ExceptionPtr@@@std@@QAE@AAPAUEHExceptionRecord@@$$QA_N@Z 1003cee9 f   libcpmt:excptptr.obj
 0001:0003bf04       __unwindfunclet$??$?0AAPAUEHExceptionRecord@@_N@?$_Ref_count_obj_alloc@V__ExceptionPtr@@U?$_StaticAllocator@H@@@std@@QAE@ABU?$_StaticAllocator@H@@AAPAUEHExceptionRecord@@$$QA_N@Z$0 1003cf04 f   libcpmt:excptptr.obj
 0001:0003bf0c       __unwindfunclet$??$?0AAPAUEHExceptionRecord@@_N@?$_Ref_count_obj_alloc@V__ExceptionPtr@@U?$_StaticAllocator@H@@@std@@QAE@ABU?$_StaticAllocator@H@@AAPAUEHExceptionRecord@@$$QA_N@Z$1 1003cf0c f   libcpmt:excptptr.obj
 0001:0003bf1a       __ehhandler$??$?0AAPAUEHExceptionRecord@@_N@?$_Ref_count_obj_alloc@V__ExceptionPtr@@U?$_StaticAllocator@H@@@std@@QAE@ABU?$_StaticAllocator@H@@AAPAUEHExceptionRecord@@$$QA_N@Z 1003cf1a f   libcpmt:excptptr.obj
 0001:0003bf35       __unwindfunclet$??$allocate_shared@V__ExceptionPtr@@U?$_StaticAllocator@H@@AAPAUEHExceptionRecord@@_N@std@@YA?AV?$shared_ptr@V__ExceptionPtr@@@0@ABU?$_StaticAllocator@H@@AAPAUEHExceptionRecord@@$$QA_N@Z$13 1003cf35 f   libcpmt:excptptr.obj
 0001:0003bf43       __ehhandler$??$allocate_shared@V__ExceptionPtr@@U?$_StaticAllocator@H@@AAPAUEHExceptionRecord@@_N@std@@YA?AV?$shared_ptr@V__ExceptionPtr@@@0@ABU?$_StaticAllocator@H@@AAPAUEHExceptionRecord@@$$QA_N@Z 1003cf43 f   libcpmt:excptptr.obj
 0001:0003bf5e       __unwindfunclet$??$make_shared@V__ExceptionPtr@@AAPAUEHExceptionRecord@@_N@std@@YA?AV?$shared_ptr@V__ExceptionPtr@@@0@AAPAUEHExceptionRecord@@$$QA_N@Z$0 1003cf5e f   libcpmt:excptptr.obj
 0001:0003bf6b       __ehhandler$??$make_shared@V__ExceptionPtr@@AAPAUEHExceptionRecord@@_N@std@@YA?AV?$shared_ptr@V__ExceptionPtr@@@0@AAPAUEHExceptionRecord@@$$QA_N@Z 1003cf6b f   libcpmt:excptptr.obj
 0001:0003bf86       __ehhandler$?_CallCopyCtor@__ExceptionPtr@@ABEXPAX0IQBU_s_CatchableType@@@Z 1003cf86 f   libcpmt:excptptr.obj
 0001:0003bfa1       __ehhandler$?_CopyException@__ExceptionPtr@@SA?AV?$shared_ptr@V__ExceptionPtr@@@std@@PBXPBU_s_ThrowInfo@@_N@Z 1003cfa1 f   libcpmt:excptptr.obj
 0001:0003bfbc       __ehhandler$?_CurrentException@__ExceptionPtr@@SA?AV?$shared_ptr@V__ExceptionPtr@@@std@@XZ 1003cfbc f   libcpmt:excptptr.obj
 0001:0003bfd7       __unwindfunclet$?_InitBadAllocException@__ExceptionPtr@@CA?AV?$shared_ptr@V__ExceptionPtr@@@std@@XZ$0 1003cfd7 f   libcpmt:excptptr.obj
 0001:0003bfdf       __ehhandler$?_InitBadAllocException@__ExceptionPtr@@CA?AV?$shared_ptr@V__ExceptionPtr@@@std@@XZ 1003cfdf f   libcpmt:excptptr.obj
 0001:0003c000       __unwindfunclet$?CrBanksTxt_AfterLoad@@YGHPAVLoHook@@PAUHookContext@@@Z$0 1003d000 f   dllmain.obj
 0001:0003c006       __unwindfunclet$?CrBanksTxt_AfterLoad@@YGHPAVLoHook@@PAUHookContext@@@Z$1 1003d006 f   dllmain.obj
 0001:0003c012       __unwindfunclet$?CrBanksTxt_AfterLoad@@YGHPAVLoHook@@PAUHookContext@@@Z$2 1003d012 f   dllmain.obj
 0001:0003c01e       __unwindfunclet$?CrBanksTxt_AfterLoad@@YGHPAVLoHook@@PAUHookContext@@@Z$3 1003d01e f   dllmain.obj
 0001:0003c02a       __ehhandler$?CrBanksTxt_AfterLoad@@YGHPAVLoHook@@PAUHookContext@@@Z 1003d02a f   dllmain.obj
 0001:0003c040       __ehhandler$?ShrinkToFit@CreatureBanksExtender@cbanks@@AAEXXZ 1003d040 f   CreatureBanksExtender.obj
 0001:0003c04a       __ehhandler$?Reserve@CreatureBanksExtender@cbanks@@AAEXG@Z 1003d04a f   CreatureBanksExtender.obj
 0001:0003c054       __ehhandler$?Resize@CreatureBanksExtender@cbanks@@AAEXG@Z 1003d054 f   CreatureBanksExtender.obj
 0001:0003c05e       __unwindfunclet$?GetBanksSetupFromJson@CreatureBanksExtender@cbanks@@AAE?BHF@Z$0 1003d05e f   CreatureBanksExtender.obj
 0001:0003c066       __unwindfunclet$?GetBanksSetupFromJson@CreatureBanksExtender@cbanks@@AAE?BHF@Z$16 1003d066 f   CreatureBanksExtender.obj
 0001:0003c06c       __unwindfunclet$?GetBanksSetupFromJson@CreatureBanksExtender@cbanks@@AAE?BHF@Z$17 1003d06c f   CreatureBanksExtender.obj
 0001:0003c072       __unwindfunclet$?GetBanksSetupFromJson@CreatureBanksExtender@cbanks@@AAE?BHF@Z$18 1003d072 f   CreatureBanksExtender.obj
 0001:0003c078       __unwindfunclet$?GetBanksSetupFromJson@CreatureBanksExtender@cbanks@@AAE?BHF@Z$19 1003d078 f   CreatureBanksExtender.obj
 0001:0003c07e       __unwindfunclet$?GetBanksSetupFromJson@CreatureBanksExtender@cbanks@@AAE?BHF@Z$3 1003d07e f   CreatureBanksExtender.obj
 0001:0003c089       __unwindfunclet$?GetBanksSetupFromJson@CreatureBanksExtender@cbanks@@AAE?BHF@Z$4 1003d089 f   CreatureBanksExtender.obj
 0001:0003c091       __unwindfunclet$?GetBanksSetupFromJson@CreatureBanksExtender@cbanks@@AAE?BHF@Z$148 1003d091 f   CreatureBanksExtender.obj
 0001:0003c097       __unwindfunclet$?GetBanksSetupFromJson@CreatureBanksExtender@cbanks@@AAE?BHF@Z$5 1003d097 f   CreatureBanksExtender.obj
 0001:0003c09f       __unwindfunclet$?GetBanksSetupFromJson@CreatureBanksExtender@cbanks@@AAE?BHF@Z$149 1003d09f f   CreatureBanksExtender.obj
 0001:0003c0a5       __unwindfunclet$?GetBanksSetupFromJson@CreatureBanksExtender@cbanks@@AAE?BHF@Z$150 1003d0a5 f   CreatureBanksExtender.obj
 0001:0003c0ab       __unwindfunclet$?GetBanksSetupFromJson@CreatureBanksExtender@cbanks@@AAE?BHF@Z$151 1003d0ab f   CreatureBanksExtender.obj
 0001:0003c0b1       __unwindfunclet$?GetBanksSetupFromJson@CreatureBanksExtender@cbanks@@AAE?BHF@Z$152 1003d0b1 f   CreatureBanksExtender.obj
 0001:0003c0b7       __unwindfunclet$?GetBanksSetupFromJson@CreatureBanksExtender@cbanks@@AAE?BHF@Z$153 1003d0b7 f   CreatureBanksExtender.obj
 0001:0003c0bd       __unwindfunclet$?GetBanksSetupFromJson@CreatureBanksExtender@cbanks@@AAE?BHF@Z$154 1003d0bd f   CreatureBanksExtender.obj
 0001:0003c0c3       __unwindfunclet$?GetBanksSetupFromJson@CreatureBanksExtender@cbanks@@AAE?BHF@Z$155 1003d0c3 f   CreatureBanksExtender.obj
 0001:0003c0c9       __unwindfunclet$?GetBanksSetupFromJson@CreatureBanksExtender@cbanks@@AAE?BHF@Z$156 1003d0c9 f   CreatureBanksExtender.obj
 0001:0003c0cf       __unwindfunclet$?GetBanksSetupFromJson@CreatureBanksExtender@cbanks@@AAE?BHF@Z$157 1003d0cf f   CreatureBanksExtender.obj
 0001:0003c0d5       __unwindfunclet$?GetBanksSetupFromJson@CreatureBanksExtender@cbanks@@AAE?BHF@Z$158 1003d0d5 f   CreatureBanksExtender.obj
 0001:0003c0db       __unwindfunclet$?GetBanksSetupFromJson@CreatureBanksExtender@cbanks@@AAE?BHF@Z$159 1003d0db f   CreatureBanksExtender.obj
 0001:0003c0e1       __unwindfunclet$?GetBanksSetupFromJson@CreatureBanksExtender@cbanks@@AAE?BHF@Z$160 1003d0e1 f   CreatureBanksExtender.obj
 0001:0003c0e7       __unwindfunclet$?GetBanksSetupFromJson@CreatureBanksExtender@cbanks@@AAE?BHF@Z$161 1003d0e7 f   CreatureBanksExtender.obj
 0001:0003c0ed       __unwindfunclet$?GetBanksSetupFromJson@CreatureBanksExtender@cbanks@@AAE?BHF@Z$162 1003d0ed f   CreatureBanksExtender.obj
 0001:0003c0f3       __unwindfunclet$?GetBanksSetupFromJson@CreatureBanksExtender@cbanks@@AAE?BHF@Z$163 1003d0f3 f   CreatureBanksExtender.obj
 0001:0003c0f9       __unwindfunclet$?GetBanksSetupFromJson@CreatureBanksExtender@cbanks@@AAE?BHF@Z$164 1003d0f9 f   CreatureBanksExtender.obj
 0001:0003c0ff       __unwindfunclet$?GetBanksSetupFromJson@CreatureBanksExtender@cbanks@@AAE?BHF@Z$165 1003d0ff f   CreatureBanksExtender.obj
 0001:0003c105       __unwindfunclet$?GetBanksSetupFromJson@CreatureBanksExtender@cbanks@@AAE?BHF@Z$166 1003d105 f   CreatureBanksExtender.obj
 0001:0003c10b       __unwindfunclet$?GetBanksSetupFromJson@CreatureBanksExtender@cbanks@@AAE?BHF@Z$167 1003d10b f   CreatureBanksExtender.obj
 0001:0003c111       __unwindfunclet$?GetBanksSetupFromJson@CreatureBanksExtender@cbanks@@AAE?BHF@Z$252 1003d111 f   CreatureBanksExtender.obj
 0001:0003c122       __unwindfunclet$?GetBanksSetupFromJson@CreatureBanksExtender@cbanks@@AAE?BHF@Z$346 1003d122 f   CreatureBanksExtender.obj
 0001:0003c128       __unwindfunclet$?GetBanksSetupFromJson@CreatureBanksExtender@cbanks@@AAE?BHF@Z$348 1003d128 f   CreatureBanksExtender.obj
 0001:0003c12e       __unwindfunclet$?GetBanksSetupFromJson@CreatureBanksExtender@cbanks@@AAE?BHF@Z$349 1003d12e f   CreatureBanksExtender.obj
 0001:0003c134       __ehhandler$?GetBanksSetupFromJson@CreatureBanksExtender@cbanks@@AAE?BHF@Z 1003d134 f   CreatureBanksExtender.obj
 0001:0003c13e       __unwindfunclet$?AfterLoadingObjectTxtProc@CreatureBanksExtender@cbanks@@EAEXPBF@Z$0 1003d13e f   CreatureBanksExtender.obj
 0001:0003c144       __ehhandler$?AfterLoadingObjectTxtProc@CreatureBanksExtender@cbanks@@EAEXPBF@Z 1003d144 f   CreatureBanksExtender.obj
 0001:0003c14e       __unwindfunclet$??0CreatureBanksExtender@cbanks@@AAE@XZ$0 1003d14e f   CreatureBanksExtender.obj
 0001:0003c156       __unwindfunclet$??0CreatureBanksExtender@cbanks@@AAE@XZ$1 1003d156 f   CreatureBanksExtender.obj
 0001:0003c161       __unwindfunclet$??0CreatureBanksExtender@cbanks@@AAE@XZ$2 1003d161 f   CreatureBanksExtender.obj
 0001:0003c16c       __ehhandler$??0CreatureBanksExtender@cbanks@@AAE@XZ 1003d16c f   CreatureBanksExtender.obj
 0001:0003c176       __unwindfunclet$?Get@CreatureBanksExtender@cbanks@@SAAAV12@XZ$0 1003d176 f   CreatureBanksExtender.obj
 0001:0003c182       __ehhandler$?Get@CreatureBanksExtender@cbanks@@SAAAV12@XZ 1003d182 f   CreatureBanksExtender.obj
 0001:0003c190       __unwindfunclet$?Shrine__AtGetName@ShrinesExternder@shrines@@CGHPAVLoHook@@PAUHookContext@@@Z$1 1003d190 f   ShrinesExternder.obj
 0001:0003c196       __unwindfunclet$?Shrine__AtGetName@ShrinesExternder@shrines@@CGHPAVLoHook@@PAUHookContext@@@Z$2 1003d196 f   ShrinesExternder.obj
 0001:0003c19c       __ehhandler$?Shrine__AtGetName@ShrinesExternder@shrines@@CGHPAVLoHook@@PAUHookContext@@@Z 1003d19c f   ShrinesExternder.obj
 0001:0003c1a6       __unwindfunclet$??0ShrinesExternder@shrines@@AAE@XZ$0 1003d1a6 f   ShrinesExternder.obj
 0001:0003c1ae       __ehhandler$??0ShrinesExternder@shrines@@AAE@XZ 1003d1ae f   ShrinesExternder.obj
 0001:0003c1b8       __unwindfunclet$?Get@ShrinesExternder@shrines@@SAAAV12@XZ$0 1003d1b8 f   ShrinesExternder.obj
 0001:0003c1c4       __ehhandler$?Get@ShrinesExternder@shrines@@SAAAV12@XZ 1003d1c4 f   ShrinesExternder.obj
 0001:0003c1d0       __unwindfunclet$?ShowHint@warehouses@@YAHPAVLoHook@@PAUHookContext@@PBD@Z$0 1003d1d0 f   WarehousesExtender.obj
 0001:0003c1d8       __unwindfunclet$?ShowHint@warehouses@@YAHPAVLoHook@@PAUHookContext@@PBD@Z$2 1003d1d8 f   WarehousesExtender.obj
 0001:0003c1de       __ehhandler$?ShowHint@warehouses@@YAHPAVLoHook@@PAUHookContext@@PBD@Z 1003d1de f   WarehousesExtender.obj
 0001:0003c1e8       __unwindfunclet$?ShowMessage@warehouses@@YAXPBUH3MapItem@h3@@HH@Z$0 1003d1e8 f   WarehousesExtender.obj
 0001:0003c1f0       __unwindfunclet$?ShowMessage@warehouses@@YAXPBUH3MapItem@h3@@HH@Z$1 1003d1f0 f   WarehousesExtender.obj
 0001:0003c1f8       __unwindfunclet$?ShowMessage@warehouses@@YAXPBUH3MapItem@h3@@HH@Z$4 1003d1f8 f   WarehousesExtender.obj
 0001:0003c1fe       __unwindfunclet$?ShowMessage@warehouses@@YAXPBUH3MapItem@h3@@HH@Z$5 1003d1fe f   WarehousesExtender.obj
 0001:0003c204       __unwindfunclet$?ShowMessage@warehouses@@YAXPBUH3MapItem@h3@@HH@Z$2 1003d204 f   WarehousesExtender.obj
 0001:0003c21d       __unwindfunclet$?ShowMessage@warehouses@@YAXPBUH3MapItem@h3@@HH@Z$3 1003d21d f   WarehousesExtender.obj
 0001:0003c236       __unwindfunclet$?ShowMessage@warehouses@@YAXPBUH3MapItem@h3@@HH@Z$6 1003d236 f   WarehousesExtender.obj
 0001:0003c23c       __unwindfunclet$?ShowMessage@warehouses@@YAXPBUH3MapItem@h3@@HH@Z$7 1003d23c f   WarehousesExtender.obj
 0001:0003c242       __unwindfunclet$?ShowMessage@warehouses@@YAXPBUH3MapItem@h3@@HH@Z$8 1003d242 f   WarehousesExtender.obj
 0001:0003c248       __unwindfunclet$?ShowMessage@warehouses@@YAXPBUH3MapItem@h3@@HH@Z$9 1003d248 f   WarehousesExtender.obj
 0001:0003c24e       __ehhandler$?ShowMessage@warehouses@@YAXPBUH3MapItem@h3@@HH@Z 1003d24e f   WarehousesExtender.obj
 0001:0003c258       __unwindfunclet$??0WarehousesExtender@warehouses@@AAE@XZ$0 1003d258 f   WarehousesExtender.obj
 0001:0003c260       __ehhandler$??0WarehousesExtender@warehouses@@AAE@XZ 1003d260 f   WarehousesExtender.obj
 0001:0003c26a       __unwindfunclet$?Get@WarehousesExtender@warehouses@@SAAAV12@XZ$0 1003d26a f   WarehousesExtender.obj
 0001:0003c276       __ehhandler$?Get@WarehousesExtender@warehouses@@SAAAV12@XZ 1003d276 f   WarehousesExtender.obj
 0001:0003c280       __unwindfunclet$?H3AdventureManager__ObjectVisit_SoundPlay@ObjectsExtender@extender@@CGHPAVLoHook@@PAUHookContext@@@Z$0 1003d280 f   ObjectsExtender.obj
 0001:0003c288       __unwindfunclet$?H3AdventureManager__ObjectVisit_SoundPlay@ObjectsExtender@extender@@CGHPAVLoHook@@PAUHookContext@@@Z$2 1003d288 f   ObjectsExtender.obj
 0001:0003c28e       __unwindfunclet$?H3AdventureManager__ObjectVisit_SoundPlay@ObjectsExtender@extender@@CGHPAVLoHook@@PAUHookContext@@@Z$1 1003d28e f   ObjectsExtender.obj
 0001:0003c296       __unwindfunclet$?H3AdventureManager__ObjectVisit_SoundPlay@ObjectsExtender@extender@@CGHPAVLoHook@@PAUHookContext@@@Z$3 1003d296 f   ObjectsExtender.obj
 0001:0003c29c       __unwindfunclet$?H3AdventureManager__ObjectVisit_SoundPlay@ObjectsExtender@extender@@CGHPAVLoHook@@PAUHookContext@@@Z$4 1003d29c f   ObjectsExtender.obj
 0001:0003c2a2       __unwindfunclet$?H3AdventureManager__ObjectVisit_SoundPlay@ObjectsExtender@extender@@CGHPAVLoHook@@PAUHookContext@@@Z$5 1003d2a2 f   ObjectsExtender.obj
 0001:0003c2a8       __ehhandler$?H3AdventureManager__ObjectVisit_SoundPlay@ObjectsExtender@extender@@CGHPAVLoHook@@PAUHookContext@@@Z 1003d2a8 f   ObjectsExtender.obj
 0001:0003c2b2       __unwindfunclet$?AddObjectsToObjectGenList@ObjectsExtender@extender@@SAXPAU?$H3Vector@PAUH3RmgObjectGenerator@h3@@@h3@@@Z$0 1003d2b2 f   ObjectsExtender.obj
 0001:0003c2ba       __ehhandler$?AddObjectsToObjectGenList@ObjectsExtender@extender@@SAXPAU?$H3Vector@PAUH3RmgObjectGenerator@h3@@@h3@@@Z 1003d2ba f   ObjectsExtender.obj
 0001:0003c2c4       __unwindfunclet$?CreateRmgObjectGen@extender@@YAPAUH3RmgObjectGenerator@h3@@ABURMGObjectInfo@@@Z$1 1003d2c4 f   ObjectsExtender.obj
 0001:0003c2ca       __unwindfunclet$?CreateRmgObjectGen@extender@@YAPAUH3RmgObjectGenerator@h3@@ABURMGObjectInfo@@@Z$3 1003d2ca f   ObjectsExtender.obj
 0001:0003c2d0       __ehhandler$?CreateRmgObjectGen@extender@@YAPAUH3RmgObjectGenerator@h3@@ABURMGObjectInfo@@@Z 1003d2d0 f   ObjectsExtender.obj
 0001:0003c2da       __unwindfunclet$?H3GameMainSetup__LoadObjects@ObjectsExtender@extender@@CGXPAVHiHook@@PBUH3MainSetup@h3@@@Z$3 1003d2da f   ObjectsExtender.obj
 0001:0003c2e0       __unwindfunclet$?H3GameMainSetup__LoadObjects@ObjectsExtender@extender@@CGXPAVHiHook@@PBUH3MainSetup@h3@@@Z$4 1003d2e0 f   ObjectsExtender.obj
 0001:0003c2e6       __unwindfunclet$?H3GameMainSetup__LoadObjects@ObjectsExtender@extender@@CGXPAVHiHook@@PBUH3MainSetup@h3@@@Z$21 1003d2e6 f   ObjectsExtender.obj
 0001:0003c2ec       __unwindfunclet$?H3GameMainSetup__LoadObjects@ObjectsExtender@extender@@CGXPAVHiHook@@PBUH3MainSetup@h3@@@Z$22 1003d2ec f   ObjectsExtender.obj
 0001:0003c2f2       __unwindfunclet$?H3GameMainSetup__LoadObjects@ObjectsExtender@extender@@CGXPAVHiHook@@PBUH3MainSetup@h3@@@Z$23 1003d2f2 f   ObjectsExtender.obj
 0001:0003c2f8       __unwindfunclet$?H3GameMainSetup__LoadObjects@ObjectsExtender@extender@@CGXPAVHiHook@@PBUH3MainSetup@h3@@@Z$24 1003d2f8 f   ObjectsExtender.obj
 0001:0003c2fe       __unwindfunclet$?H3GameMainSetup__LoadObjects@ObjectsExtender@extender@@CGXPAVHiHook@@PBUH3MainSetup@h3@@@Z$105 1003d2fe f   ObjectsExtender.obj
 0001:0003c304       __ehhandler$?H3GameMainSetup__LoadObjects@ObjectsExtender@extender@@CGXPAVHiHook@@PBUH3MainSetup@h3@@@Z 1003d304 f   ObjectsExtender.obj
 0001:0003c30e       __unwindfunclet$?LoadObjectsTxt@ObjectsExtender@extender@@CGHPAVLoHook@@PAUHookContext@@@Z$0 1003d30e f   ObjectsExtender.obj
 0001:0003c316       __ehhandler$?LoadObjectsTxt@ObjectsExtender@extender@@CGHPAVLoHook@@PAUHookContext@@@Z 1003d316 f   ObjectsExtender.obj
 0001:0003c320       __unwindfunclet$?GetObjectName@RMGObjectInfo@@SAPBDHH@Z$0 1003d320 f   RMGObjectsEditor.obj
 0001:0003c326       __ehhandler$?GetObjectName@RMGObjectInfo@@SAPBDHH@Z 1003d326 f   RMGObjectsEditor.obj
 0001:0003c330       __ehhandler$?GetName@RMGObjectInfo@@QBEPBDXZ 1003d330 f   RMGObjectsEditor.obj
 0001:0003c33a       __unwindfunclet$??1RMGObjectsEditor@editor@@EAE@XZ$2 1003d33a f   RMGObjectsEditor.obj
 0001:0003c340       __ehhandler$??1RMGObjectsEditor@editor@@EAE@XZ 1003d340 f   RMGObjectsEditor.obj
 0001:0003c34a       __unwindfunclet$?InitLoading@RMGObjectsEditor@editor@@AAEXPBF@Z$0 1003d34a f   RMGObjectsEditor.obj
 0001:0003c352       __unwindfunclet$?InitLoading@RMGObjectsEditor@editor@@AAEXPBF@Z$25 1003d352 f   RMGObjectsEditor.obj
 0001:0003c358       __ehhandler$?InitLoading@RMGObjectsEditor@editor@@AAEXPBF@Z 1003d358 f   RMGObjectsEditor.obj
 0001:0003c362       __unwindfunclet$?InitDefaults@RMGObjectsEditor@editor@@AAEXPBF@Z$9 1003d362 f   RMGObjectsEditor.obj
 0001:0003c368       __unwindfunclet$?InitDefaults@RMGObjectsEditor@editor@@AAEXPBF@Z$10 1003d368 f   RMGObjectsEditor.obj
 0001:0003c36e       __unwindfunclet$?InitDefaults@RMGObjectsEditor@editor@@AAEXPBF@Z$17 1003d36e f   RMGObjectsEditor.obj
 0001:0003c374       __unwindfunclet$?InitDefaults@RMGObjectsEditor@editor@@AAEXPBF@Z$18 1003d374 f   RMGObjectsEditor.obj
 0001:0003c37a       __ehhandler$?InitDefaults@RMGObjectsEditor@editor@@AAEXPBF@Z 1003d37a f   RMGObjectsEditor.obj
 0001:0003c384       __unwindfunclet$??0RMGObjectsEditor@editor@@AAE@XZ$0 1003d384 f   RMGObjectsEditor.obj
 0001:0003c38f       __unwindfunclet$??0RMGObjectsEditor@editor@@AAE@XZ$1 1003d38f f   RMGObjectsEditor.obj
 0001:0003c39d       __unwindfunclet$??0RMGObjectsEditor@editor@@AAE@XZ$2 1003d39d f   RMGObjectsEditor.obj
 0001:0003c3ab       __unwindfunclet$??0RMGObjectsEditor@editor@@AAE@XZ$3 1003d3ab f   RMGObjectsEditor.obj
 0001:0003c3b9       __ehhandler$??0RMGObjectsEditor@editor@@AAE@XZ 1003d3b9 f   RMGObjectsEditor.obj
 0001:0003c3c3       __unwindfunclet$?Init@RMGObjectsEditor@editor@@SAXPBF@Z$0 1003d3c3 f   RMGObjectsEditor.obj
 0001:0003c3c9       __ehhandler$?Init@RMGObjectsEditor@editor@@SAXPBF@Z 1003d3c9 f   RMGObjectsEditor.obj
 0001:0003c3d3       __ehhandler$?Get@RMGObjectsEditor@editor@@SAAAV12@XZ 1003d3d3 f   RMGObjectsEditor.obj
 0001:0003c3e0       __unwindfunclet$?GameStart@rmgdlg@@YGXPAVHiHook@@K@Z$2 1003d3e0 f   RMG_SettingsDlg.obj
 0001:0003c3e8       __unwindfunclet$?GameStart@rmgdlg@@YGXPAVHiHook@@K@Z$0 1003d3e8 f   RMG_SettingsDlg.obj
 0001:0003c3f0       __ehhandler$?GameStart@rmgdlg@@YGXPAVHiHook@@K@Z 1003d3f0 f   RMG_SettingsDlg.obj
 0001:0003c3fa       __unwindfunclet$?CreateGraphics@rmgdlg@@YAXABU?$H3Vector@PAUH3RmgObjectGenerator@h3@@@h3@@@Z$26 1003d3fa f   RMG_SettingsDlg.obj
 0001:0003c400       __ehhandler$?CreateGraphics@rmgdlg@@YAXABU?$H3Vector@PAUH3RmgObjectGenerator@h3@@@h3@@@Z 1003d400 f   RMG_SettingsDlg.obj
 0001:0003c40a       __unwindfunclet$?CreateResizedObjectPcx@rmgdlg@@YAXXZ$26 1003d40a f   RMG_SettingsDlg.obj
 0001:0003c410       __ehhandler$?CreateResizedObjectPcx@rmgdlg@@YAXXZ 1003d410 f   RMG_SettingsDlg.obj
 0001:0003c41a       __unwindfunclet$?NewScenarioDlg_Create@RMG_SettingsDlg@rmgdlg@@CGXPAVHiHook@@PAUH3SelectScenarioDialog@h3@@K@Z$0 1003d41a f   RMG_SettingsDlg.obj
 0001:0003c420       __unwindfunclet$?NewScenarioDlg_Create@RMG_SettingsDlg@rmgdlg@@CGXPAVHiHook@@PAUH3SelectScenarioDialog@h3@@K@Z$1 1003d420 f   RMG_SettingsDlg.obj
 0001:0003c426       __unwindfunclet$?NewScenarioDlg_Create@RMG_SettingsDlg@rmgdlg@@CGXPAVHiHook@@PAUH3SelectScenarioDialog@h3@@K@Z$2 1003d426 f   RMG_SettingsDlg.obj
 0001:0003c42c       __unwindfunclet$?NewScenarioDlg_Create@RMG_SettingsDlg@rmgdlg@@CGXPAVHiHook@@PAUH3SelectScenarioDialog@h3@@K@Z$3 1003d42c f   RMG_SettingsDlg.obj
 0001:0003c432       __ehhandler$?NewScenarioDlg_Create@RMG_SettingsDlg@rmgdlg@@CGXPAVHiHook@@PAUH3SelectScenarioDialog@h3@@K@Z 1003d432 f   RMG_SettingsDlg.obj
 0001:0003c43c       __unwindfunclet$?SelectScenarioDlgRandomizeProc@rmgdlg@@YIHPAUH3Msg@h3@@@Z$1 1003d43c f   RMG_SettingsDlg.obj
 0001:0003c442       __unwindfunclet$?SelectScenarioDlgRandomizeProc@rmgdlg@@YIHPAUH3Msg@h3@@@Z$0 1003d442 f   RMG_SettingsDlg.obj
 0001:0003c44a       __ehhandler$?SelectScenarioDlgRandomizeProc@rmgdlg@@YIHPAUH3Msg@h3@@@Z 1003d44a f   RMG_SettingsDlg.obj
 0001:0003c454       __unwindfunclet$?Dlg_SelectScenario_Proc@RMG_SettingsDlg@rmgdlg@@CGHPAVLoHook@@PAUHookContext@@@Z$0 1003d454 f   RMG_SettingsDlg.obj
 0001:0003c45f       __ehhandler$?Dlg_SelectScenario_Proc@RMG_SettingsDlg@rmgdlg@@CGHPAVLoHook@@PAUHookContext@@@Z 1003d45f f   RMG_SettingsDlg.obj
 0001:0003c469       __unwindfunclet$?GetObjectPrototypesLists@rmgdlg@@YAXXZ$0 1003d469 f   RMG_SettingsDlg.obj
 0001:0003c471       __unwindfunclet$?GetObjectPrototypesLists@rmgdlg@@YAXXZ$1 1003d471 f   RMG_SettingsDlg.obj
 0001:0003c479       __unwindfunclet$?GetObjectPrototypesLists@rmgdlg@@YAXXZ$2 1003d479 f   RMG_SettingsDlg.obj
 0001:0003c481       __unwindfunclet$?GetObjectPrototypesLists@rmgdlg@@YAXXZ$5 1003d481 f   RMG_SettingsDlg.obj
 0001:0003c489       __unwindfunclet$?GetObjectPrototypesLists@rmgdlg@@YAXXZ$46 1003d489 f   RMG_SettingsDlg.obj
 0001:0003c48f       __ehhandler$?GetObjectPrototypesLists@rmgdlg@@YAXXZ 1003d48f f   RMG_SettingsDlg.obj
 0001:0003c499       __unwindfunclet$?FindDataInObjectGeneratorsList@rmgdlg@@YAXAAV?$vector@U?$pair@UH3ObjectAttributes@h3@@PAUH3LoadedPcx16@2@@std@@V?$allocator@U?$pair@UH3ObjectAttributes@h3@@PAUH3LoadedPcx16@2@@std@@@2@@std@@@Z$0 1003d499 f   RMG_SettingsDlg.obj
 0001:0003c4a1       __unwindfunclet$?FindDataInObjectGeneratorsList@rmgdlg@@YAXAAV?$vector@U?$pair@UH3ObjectAttributes@h3@@PAUH3LoadedPcx16@2@@std@@V?$allocator@U?$pair@UH3ObjectAttributes@h3@@PAUH3LoadedPcx16@2@@std@@@2@@std@@@Z$68 1003d4a1 f   RMG_SettingsDlg.obj
 0001:0003c4b2       __ehhandler$?FindDataInObjectGeneratorsList@rmgdlg@@YAXAAV?$vector@U?$pair@UH3ObjectAttributes@h3@@PAUH3LoadedPcx16@2@@std@@V?$allocator@U?$pair@UH3ObjectAttributes@h3@@PAUH3LoadedPcx16@2@@std@@@2@@std@@@Z 1003d4b2 f   RMG_SettingsDlg.obj
 0001:0003c4bc       __unwindfunclet$?GetObjectPrototypesByTypes@rmgdlg@@YAXAAV?$vector@U?$pair@UH3ObjectAttributes@h3@@PAUH3LoadedPcx16@2@@std@@V?$allocator@U?$pair@UH3ObjectAttributes@h3@@PAUH3LoadedPcx16@2@@std@@@2@@std@@PBHI@Z$0 1003d4bc f   RMG_SettingsDlg.obj
 0001:0003c4c4       __unwindfunclet$?GetObjectPrototypesByTypes@rmgdlg@@YAXAAV?$vector@U?$pair@UH3ObjectAttributes@h3@@PAUH3LoadedPcx16@2@@std@@V?$allocator@U?$pair@UH3ObjectAttributes@h3@@PAUH3LoadedPcx16@2@@std@@@2@@std@@PBHI@Z$50 1003d4c4 f   RMG_SettingsDlg.obj
 0001:0003c4ca       __ehhandler$?GetObjectPrototypesByTypes@rmgdlg@@YAXAAV?$vector@U?$pair@UH3ObjectAttributes@h3@@PAUH3LoadedPcx16@2@@std@@V?$allocator@U?$pair@UH3ObjectAttributes@h3@@PAUH3LoadedPcx16@2@@std@@@2@@std@@PBHI@Z 1003d4ca f   RMG_SettingsDlg.obj
 0001:0003c4d4       __unwindfunclet$??0PageHeader@ObjectsPage@RMG_SettingsDlg@rmgdlg@@QAE@HHHHH@Z$0 1003d4d4 f   RMG_SettingsDlg.obj
 0001:0003c4df       __unwindfunclet$??0PageHeader@ObjectsPage@RMG_SettingsDlg@rmgdlg@@QAE@HHHHH@Z$1 1003d4df f   RMG_SettingsDlg.obj
 0001:0003c4ea       __unwindfunclet$??0PageHeader@ObjectsPage@RMG_SettingsDlg@rmgdlg@@QAE@HHHHH@Z$35 1003d4ea f   RMG_SettingsDlg.obj
 0001:0003c4f0       __unwindfunclet$??0PageHeader@ObjectsPage@RMG_SettingsDlg@rmgdlg@@QAE@HHHHH@Z$63 1003d4f0 f   RMG_SettingsDlg.obj
 0001:0003c4f6       __unwindfunclet$??0PageHeader@ObjectsPage@RMG_SettingsDlg@rmgdlg@@QAE@HHHHH@Z$2 1003d4f6 f   RMG_SettingsDlg.obj
 0001:0003c4fe       __unwindfunclet$??0PageHeader@ObjectsPage@RMG_SettingsDlg@rmgdlg@@QAE@HHHHH@Z$88 1003d4fe f   RMG_SettingsDlg.obj
 0001:0003c504       __unwindfunclet$??0PageHeader@ObjectsPage@RMG_SettingsDlg@rmgdlg@@QAE@HHHHH@Z$90 1003d504 f   RMG_SettingsDlg.obj
 0001:0003c50a       __unwindfunclet$??0PageHeader@ObjectsPage@RMG_SettingsDlg@rmgdlg@@QAE@HHHHH@Z$91 1003d50a f   RMG_SettingsDlg.obj
 0001:0003c510       __unwindfunclet$??0PageHeader@ObjectsPage@RMG_SettingsDlg@rmgdlg@@QAE@HHHHH@Z$3 1003d510 f   RMG_SettingsDlg.obj
 0001:0003c51b       __unwindfunclet$??0PageHeader@ObjectsPage@RMG_SettingsDlg@rmgdlg@@QAE@HHHHH@Z$92 1003d51b f   RMG_SettingsDlg.obj
 0001:0003c521       __unwindfunclet$??0PageHeader@ObjectsPage@RMG_SettingsDlg@rmgdlg@@QAE@HHHHH@Z$4 1003d521 f   RMG_SettingsDlg.obj
 0001:0003c52c       __unwindfunclet$??0PageHeader@ObjectsPage@RMG_SettingsDlg@rmgdlg@@QAE@HHHHH@Z$5 1003d52c f   RMG_SettingsDlg.obj
 0001:0003c537       __unwindfunclet$??0PageHeader@ObjectsPage@RMG_SettingsDlg@rmgdlg@@QAE@HHHHH@Z$93 1003d537 f   RMG_SettingsDlg.obj
 0001:0003c53d       __unwindfunclet$??0PageHeader@ObjectsPage@RMG_SettingsDlg@rmgdlg@@QAE@HHHHH@Z$94 1003d53d f   RMG_SettingsDlg.obj
 0001:0003c543       __unwindfunclet$??0PageHeader@ObjectsPage@RMG_SettingsDlg@rmgdlg@@QAE@HHHHH@Z$95 1003d543 f   RMG_SettingsDlg.obj
 0001:0003c549       __unwindfunclet$??0PageHeader@ObjectsPage@RMG_SettingsDlg@rmgdlg@@QAE@HHHHH@Z$96 1003d549 f   RMG_SettingsDlg.obj
 0001:0003c54f       __unwindfunclet$??0PageHeader@ObjectsPage@RMG_SettingsDlg@rmgdlg@@QAE@HHHHH@Z$98 1003d54f f   RMG_SettingsDlg.obj
 0001:0003c555       __unwindfunclet$??0PageHeader@ObjectsPage@RMG_SettingsDlg@rmgdlg@@QAE@HHHHH@Z$230 1003d555 f   RMG_SettingsDlg.obj
 0001:0003c55b       __ehhandler$??0PageHeader@ObjectsPage@RMG_SettingsDlg@rmgdlg@@QAE@HHHHH@Z 1003d55b f   RMG_SettingsDlg.obj
 0001:0003c565       __unwindfunclet$??0RMGObject@rmgdlg@@QAE@ABUH3ObjectAttributes@h3@@PAUH3LoadedPcx16@3@@Z$1 1003d565 f   RMG_SettingsDlg.obj
 0001:0003c56b       __ehhandler$??0RMGObject@rmgdlg@@QAE@ABUH3ObjectAttributes@h3@@PAUH3LoadedPcx16@3@@Z 1003d56b f   RMG_SettingsDlg.obj
 0001:0003c575       __ehhandler$?SetActivePage@RMG_SettingsDlg@rmgdlg@@AAEHPAUPage@12@@Z 1003d575 f   RMG_SettingsDlg.obj
 0001:0003c57f       __ehhandler$?ShowObjectExtendedInfo@BanksPage@RMG_SettingsDlg@rmgdlg@@UBEHPBUObjectsPanel@23@ABUH3Msg@h3@@@Z 1003d57f f   RMG_SettingsDlg.obj
 0001:0003c589       __unwindfunclet$?ShowObjectExtendedInfo@ObjectsPage@RMG_SettingsDlg@rmgdlg@@MBEHPBUObjectsPanel@23@ABUH3Msg@h3@@@Z$0 1003d589 f   RMG_SettingsDlg.obj
 0001:0003c58f       __unwindfunclet$?ShowObjectExtendedInfo@ObjectsPage@RMG_SettingsDlg@rmgdlg@@MBEHPBUObjectsPanel@23@ABUH3Msg@h3@@@Z$1 1003d58f f   RMG_SettingsDlg.obj
 0001:0003c595       __unwindfunclet$?ShowObjectExtendedInfo@ObjectsPage@RMG_SettingsDlg@rmgdlg@@MBEHPBUObjectsPanel@23@ABUH3Msg@h3@@@Z$2 1003d595 f   RMG_SettingsDlg.obj
 0001:0003c59b       __unwindfunclet$?ShowObjectExtendedInfo@ObjectsPage@RMG_SettingsDlg@rmgdlg@@MBEHPBUObjectsPanel@23@ABUH3Msg@h3@@@Z$3 1003d59b f   RMG_SettingsDlg.obj
 0001:0003c5a1       __unwindfunclet$?ShowObjectExtendedInfo@ObjectsPage@RMG_SettingsDlg@rmgdlg@@MBEHPBUObjectsPanel@23@ABUH3Msg@h3@@@Z$4 1003d5a1 f   RMG_SettingsDlg.obj
 0001:0003c5a7       __ehhandler$?ShowObjectExtendedInfo@ObjectsPage@RMG_SettingsDlg@rmgdlg@@MBEHPBUObjectsPanel@23@ABUH3Msg@h3@@@Z 1003d5a7 f   RMG_SettingsDlg.obj
 0001:0003c5b1       __unwindfunclet$?FillObjects@ObjectsPage@RMG_SettingsDlg@rmgdlg@@MAEXH@Z$24 1003d5b1 f   RMG_SettingsDlg.obj
 0001:0003c5b7       __unwindfunclet$?FillObjects@ObjectsPage@RMG_SettingsDlg@rmgdlg@@MAEXH@Z$25 1003d5b7 f   RMG_SettingsDlg.obj
 0001:0003c5bd       __ehhandler$?FillObjects@ObjectsPage@RMG_SettingsDlg@rmgdlg@@MAEXH@Z 1003d5bd f   RMG_SettingsDlg.obj
 0001:0003c5c7       __unwindfunclet$??0ObjectsPage@RMG_SettingsDlg@rmgdlg@@QAE@PAUH3DlgCaptionButton@h3@@ABV?$vector@U?$pair@UH3ObjectAttributes@h3@@PAUH3LoadedPcx16@2@@std@@V?$allocator@U?$pair@UH3ObjectAttributes@h3@@PAUH3LoadedPcx16@2@@std@@@2@@std@@H@Z$0 1003d5c7 f   RMG_SettingsDlg.obj
 0001:0003c5cf       __unwindfunclet$??0ObjectsPage@RMG_SettingsDlg@rmgdlg@@QAE@PAUH3DlgCaptionButton@h3@@ABV?$vector@U?$pair@UH3ObjectAttributes@h3@@PAUH3LoadedPcx16@2@@std@@V?$allocator@U?$pair@UH3ObjectAttributes@h3@@PAUH3LoadedPcx16@2@@std@@@2@@std@@H@Z$1 1003d5cf f   RMG_SettingsDlg.obj
 0001:0003c5da       __unwindfunclet$??0ObjectsPage@RMG_SettingsDlg@rmgdlg@@QAE@PAUH3DlgCaptionButton@h3@@ABV?$vector@U?$pair@UH3ObjectAttributes@h3@@PAUH3LoadedPcx16@2@@std@@V?$allocator@U?$pair@UH3ObjectAttributes@h3@@PAUH3LoadedPcx16@2@@std@@@2@@std@@H@Z$2 1003d5da f   RMG_SettingsDlg.obj
 0001:0003c5e5       __unwindfunclet$??0ObjectsPage@RMG_SettingsDlg@rmgdlg@@QAE@PAUH3DlgCaptionButton@h3@@ABV?$vector@U?$pair@UH3ObjectAttributes@h3@@PAUH3LoadedPcx16@2@@std@@V?$allocator@U?$pair@UH3ObjectAttributes@h3@@PAUH3LoadedPcx16@2@@std@@@2@@std@@H@Z$64 1003d5e5 f   RMG_SettingsDlg.obj
 0001:0003c5f6       __unwindfunclet$??0ObjectsPage@RMG_SettingsDlg@rmgdlg@@QAE@PAUH3DlgCaptionButton@h3@@ABV?$vector@U?$pair@UH3ObjectAttributes@h3@@PAUH3LoadedPcx16@2@@std@@V?$allocator@U?$pair@UH3ObjectAttributes@h3@@PAUH3LoadedPcx16@2@@std@@@2@@std@@H@Z$3 1003d5f6 f   RMG_SettingsDlg.obj
 0001:0003c605       __unwindfunclet$??0ObjectsPage@RMG_SettingsDlg@rmgdlg@@QAE@PAUH3DlgCaptionButton@h3@@ABV?$vector@U?$pair@UH3ObjectAttributes@h3@@PAUH3LoadedPcx16@2@@std@@V?$allocator@U?$pair@UH3ObjectAttributes@h3@@PAUH3LoadedPcx16@2@@std@@@2@@std@@H@Z$4 1003d605 f   RMG_SettingsDlg.obj
 0001:0003c614       __ehhandler$??0ObjectsPage@RMG_SettingsDlg@rmgdlg@@QAE@PAUH3DlgCaptionButton@h3@@ABV?$vector@U?$pair@UH3ObjectAttributes@h3@@PAUH3LoadedPcx16@2@@std@@V?$allocator@U?$pair@UH3ObjectAttributes@h3@@PAUH3LoadedPcx16@2@@std@@@2@@std@@H@Z 1003d614 f   RMG_SettingsDlg.obj
 0001:0003c61e       __unwindfunclet$??1RMG_SettingsDlg@rmgdlg@@EAE@XZ$85 1003d61e f   RMG_SettingsDlg.obj
 0001:0003c624       __unwindfunclet$??1RMG_SettingsDlg@rmgdlg@@EAE@XZ$91 1003d624 f   RMG_SettingsDlg.obj
 0001:0003c62a       __ehhandler$??1RMG_SettingsDlg@rmgdlg@@EAE@XZ 1003d62a f   RMG_SettingsDlg.obj
 0001:0003c634       __ehhandler$?PanelInfoToObjectInfo@ObjectsPanel@RMG_SettingsDlg@rmgdlg@@QAEXXZ 1003d634 f   RMG_SettingsDlg.obj
 0001:0003c63e       __ehhandler$?ObjectInfoToPanelInfo@ObjectsPanel@RMG_SettingsDlg@rmgdlg@@QAEXXZ 1003d63e f   RMG_SettingsDlg.obj
 0001:0003c648       __unwindfunclet$?SetObject@ObjectsPanel@RMG_SettingsDlg@rmgdlg@@QAEXPAVRMGObject@3@@Z$0 1003d648 f   RMG_SettingsDlg.obj
 0001:0003c64e       __ehhandler$?SetObject@ObjectsPanel@RMG_SettingsDlg@rmgdlg@@QAEXPAVRMGObject@3@@Z 1003d64e f   RMG_SettingsDlg.obj
 0001:0003c658       __unwindfunclet$??0ObjectsPanel@RMG_SettingsDlg@rmgdlg@@QAE@HHPAUPage@12@@Z$0 1003d658 f   RMG_SettingsDlg.obj
 0001:0003c663       __unwindfunclet$??0ObjectsPanel@RMG_SettingsDlg@rmgdlg@@QAE@HHPAUPage@12@@Z$3 1003d663 f   RMG_SettingsDlg.obj
 0001:0003c669       __unwindfunclet$??0ObjectsPanel@RMG_SettingsDlg@rmgdlg@@QAE@HHPAUPage@12@@Z$31 1003d669 f   RMG_SettingsDlg.obj
 0001:0003c66f       __unwindfunclet$??0ObjectsPanel@RMG_SettingsDlg@rmgdlg@@QAE@HHPAUPage@12@@Z$57 1003d66f f   RMG_SettingsDlg.obj
 0001:0003c675       __unwindfunclet$??0ObjectsPanel@RMG_SettingsDlg@rmgdlg@@QAE@HHPAUPage@12@@Z$58 1003d675 f   RMG_SettingsDlg.obj
 0001:0003c67b       __unwindfunclet$??0ObjectsPanel@RMG_SettingsDlg@rmgdlg@@QAE@HHPAUPage@12@@Z$84 1003d67b f   RMG_SettingsDlg.obj
 0001:0003c681       __unwindfunclet$??0ObjectsPanel@RMG_SettingsDlg@rmgdlg@@QAE@HHPAUPage@12@@Z$110 1003d681 f   RMG_SettingsDlg.obj
 0001:0003c687       __unwindfunclet$??0ObjectsPanel@RMG_SettingsDlg@rmgdlg@@QAE@HHPAUPage@12@@Z$136 1003d687 f   RMG_SettingsDlg.obj
 0001:0003c68d       __unwindfunclet$??0ObjectsPanel@RMG_SettingsDlg@rmgdlg@@QAE@HHPAUPage@12@@Z$162 1003d68d f   RMG_SettingsDlg.obj
 0001:0003c693       __unwindfunclet$??0ObjectsPanel@RMG_SettingsDlg@rmgdlg@@QAE@HHPAUPage@12@@Z$188 1003d693 f   RMG_SettingsDlg.obj
 0001:0003c699       __ehhandler$??0ObjectsPanel@RMG_SettingsDlg@rmgdlg@@QAE@HHPAUPage@12@@Z 1003d699 f   RMG_SettingsDlg.obj
 0001:0003c6a3       __unwindfunclet$?CreateHorizontalScrollBar@ObjectsPage@RMG_SettingsDlg@rmgdlg@@IAEXXZ$20 1003d6a3 f   RMG_SettingsDlg.obj
 0001:0003c6a9       __ehhandler$?CreateHorizontalScrollBar@ObjectsPage@RMG_SettingsDlg@rmgdlg@@IAEXXZ 1003d6a9 f   RMG_SettingsDlg.obj
 0001:0003c6b3       __unwindfunclet$?CreateVerticalScrollBar@ObjectsPage@RMG_SettingsDlg@rmgdlg@@IAEXXZ$27 1003d6b3 f   RMG_SettingsDlg.obj
 0001:0003c6b9       __ehhandler$?CreateVerticalScrollBar@ObjectsPage@RMG_SettingsDlg@rmgdlg@@IAEXXZ 1003d6b9 f   RMG_SettingsDlg.obj
 0001:0003c6c3       __unwindfunclet$?SaveObjects@RMG_SettingsDlg@rmgdlg@@AAEHH@Z$0 1003d6c3 f   RMG_SettingsDlg.obj
 0001:0003c6cb       __unwindfunclet$?SaveObjects@RMG_SettingsDlg@rmgdlg@@AAEHH@Z$1 1003d6cb f   RMG_SettingsDlg.obj
 0001:0003c6d3       __unwindfunclet$?SaveObjects@RMG_SettingsDlg@rmgdlg@@AAEHH@Z$65 1003d6d3 f   RMG_SettingsDlg.obj
 0001:0003c6d9       __ehhandler$?SaveObjects@RMG_SettingsDlg@rmgdlg@@AAEHH@Z 1003d6d9 f   RMG_SettingsDlg.obj
 0001:0003c6e3       __ehhandler$?WriteIniDlgSettings@RMG_SettingsDlg@rmgdlg@@ABE?BHXZ 1003d6e3 f   RMG_SettingsDlg.obj
 0001:0003c6ed       __ehhandler$?ReadIniDlgSettings@RMG_SettingsDlg@rmgdlg@@AAE?BHXZ 1003d6ed f   RMG_SettingsDlg.obj
 0001:0003c6f7       __unwindfunclet$?OnOK@RMG_SettingsDlg@rmgdlg@@EAEXXZ$0 1003d6f7 f   RMG_SettingsDlg.obj
 0001:0003c6fd       __ehhandler$?OnOK@RMG_SettingsDlg@rmgdlg@@EAEXXZ 1003d6fd f   RMG_SettingsDlg.obj
 0001:0003c707       __ehhandler$?RemoveEditsFocus@RMG_SettingsDlg@rmgdlg@@ABE?BHH@Z 1003d707 f   RMG_SettingsDlg.obj
 0001:0003c711       __unwindfunclet$?OnHelp@RMG_SettingsDlg@rmgdlg@@AAEXXZ$2 1003d711 f   RMG_SettingsDlg.obj
 0001:0003c717       __unwindfunclet$?OnHelp@RMG_SettingsDlg@rmgdlg@@AAEXXZ$0 1003d717 f   RMG_SettingsDlg.obj
 0001:0003c71f       __unwindfunclet$?OnHelp@RMG_SettingsDlg@rmgdlg@@AAEXXZ$1 1003d71f f   RMG_SettingsDlg.obj
 0001:0003c727       __unwindfunclet$?OnHelp@RMG_SettingsDlg@rmgdlg@@AAEXXZ$10 1003d727 f   RMG_SettingsDlg.obj
 0001:0003c72d       __unwindfunclet$?OnHelp@RMG_SettingsDlg@rmgdlg@@AAEXXZ$11 1003d72d f   RMG_SettingsDlg.obj
 0001:0003c733       __unwindfunclet$?OnHelp@RMG_SettingsDlg@rmgdlg@@AAEXXZ$12 1003d733 f   RMG_SettingsDlg.obj
 0001:0003c739       __unwindfunclet$?OnHelp@RMG_SettingsDlg@rmgdlg@@AAEXXZ$13 1003d739 f   RMG_SettingsDlg.obj
 0001:0003c73f       __ehhandler$?OnHelp@RMG_SettingsDlg@rmgdlg@@AAEXXZ 1003d73f f   RMG_SettingsDlg.obj
 0001:0003c749       __unwindfunclet$??0RMG_SettingsDlg@rmgdlg@@QAE@HHHH@Z$0 1003d749 f   RMG_SettingsDlg.obj
 0001:0003c751       __unwindfunclet$??0RMG_SettingsDlg@rmgdlg@@QAE@HHHH@Z$1 1003d751 f   RMG_SettingsDlg.obj
 0001:0003c75f       __unwindfunclet$??0RMG_SettingsDlg@rmgdlg@@QAE@HHHH@Z$2 1003d75f f   RMG_SettingsDlg.obj
 0001:0003c76d       __unwindfunclet$??0RMG_SettingsDlg@rmgdlg@@QAE@HHHH@Z$14 1003d76d f   RMG_SettingsDlg.obj
 0001:0003c773       __unwindfunclet$??0RMG_SettingsDlg@rmgdlg@@QAE@HHHH@Z$16 1003d773 f   RMG_SettingsDlg.obj
 0001:0003c779       __unwindfunclet$??0RMG_SettingsDlg@rmgdlg@@QAE@HHHH@Z$18 1003d779 f   RMG_SettingsDlg.obj
 0001:0003c77f       __unwindfunclet$??0RMG_SettingsDlg@rmgdlg@@QAE@HHHH@Z$3 1003d77f f   RMG_SettingsDlg.obj
 0001:0003c787       __unwindfunclet$??0RMG_SettingsDlg@rmgdlg@@QAE@HHHH@Z$4 1003d787 f   RMG_SettingsDlg.obj
 0001:0003c78f       __unwindfunclet$??0RMG_SettingsDlg@rmgdlg@@QAE@HHHH@Z$21 1003d78f f   RMG_SettingsDlg.obj
 0001:0003c795       __unwindfunclet$??0RMG_SettingsDlg@rmgdlg@@QAE@HHHH@Z$22 1003d795 f   RMG_SettingsDlg.obj
 0001:0003c79b       __unwindfunclet$??0RMG_SettingsDlg@rmgdlg@@QAE@HHHH@Z$23 1003d79b f   RMG_SettingsDlg.obj
 0001:0003c7a1       __unwindfunclet$??0RMG_SettingsDlg@rmgdlg@@QAE@HHHH@Z$24 1003d7a1 f   RMG_SettingsDlg.obj
 0001:0003c7a7       __unwindfunclet$??0RMG_SettingsDlg@rmgdlg@@QAE@HHHH@Z$25 1003d7a7 f   RMG_SettingsDlg.obj
 0001:0003c7ad       __unwindfunclet$??0RMG_SettingsDlg@rmgdlg@@QAE@HHHH@Z$27 1003d7ad f   RMG_SettingsDlg.obj
 0001:0003c7b3       __unwindfunclet$??0RMG_SettingsDlg@rmgdlg@@QAE@HHHH@Z$5 1003d7b3 f   RMG_SettingsDlg.obj
 0001:0003c7bb       __unwindfunclet$??0RMG_SettingsDlg@rmgdlg@@QAE@HHHH@Z$6 1003d7bb f   RMG_SettingsDlg.obj
 0001:0003c7c3       __unwindfunclet$??0RMG_SettingsDlg@rmgdlg@@QAE@HHHH@Z$28 1003d7c3 f   RMG_SettingsDlg.obj
 0001:0003c7c9       __unwindfunclet$??0RMG_SettingsDlg@rmgdlg@@QAE@HHHH@Z$29 1003d7c9 f   RMG_SettingsDlg.obj
 0001:0003c7cf       __unwindfunclet$??0RMG_SettingsDlg@rmgdlg@@QAE@HHHH@Z$30 1003d7cf f   RMG_SettingsDlg.obj
 0001:0003c7d5       __unwindfunclet$??0RMG_SettingsDlg@rmgdlg@@QAE@HHHH@Z$31 1003d7d5 f   RMG_SettingsDlg.obj
 0001:0003c7db       __unwindfunclet$??0RMG_SettingsDlg@rmgdlg@@QAE@HHHH@Z$36 1003d7db f   RMG_SettingsDlg.obj
 0001:0003c7e1       __unwindfunclet$??0RMG_SettingsDlg@rmgdlg@@QAE@HHHH@Z$7 1003d7e1 f   RMG_SettingsDlg.obj
 0001:0003c7f0       __unwindfunclet$??0RMG_SettingsDlg@rmgdlg@@QAE@HHHH@Z$8 1003d7f0 f   RMG_SettingsDlg.obj
 0001:0003c7ff       __unwindfunclet$??0RMG_SettingsDlg@rmgdlg@@QAE@HHHH@Z$9 1003d7ff f   RMG_SettingsDlg.obj
 0001:0003c80e       __unwindfunclet$??0RMG_SettingsDlg@rmgdlg@@QAE@HHHH@Z$10 1003d80e f   RMG_SettingsDlg.obj
 0001:0003c81d       __unwindfunclet$??0RMG_SettingsDlg@rmgdlg@@QAE@HHHH@Z$306 1003d81d f   RMG_SettingsDlg.obj
 0001:0003c823       __ehhandler$??0RMG_SettingsDlg@rmgdlg@@QAE@HHHH@Z 1003d823 f   RMG_SettingsDlg.obj
 0001:0003c830       ??__F_instance@?1??Get@CreatureBanksExtender@cbanks@@SAAAV12@XZ@YAXXZ 1003d830 f   CreatureBanksExtender.obj
 0001:0003c840       ??__F_instance@?1??Get@ShrinesExternder@shrines@@SAAAV12@XZ@YAXXZ 1003d840 f   ShrinesExternder.obj
 0001:0003c8a0       ??__F_instance@?1??Get@WarehousesExtender@warehouses@@SAAAV12@XZ@YAXXZ 1003d8a0 f   WarehousesExtender.obj
 0001:0003c900       ??__F?extenders@ObjectsExtender@extender@@0V?$set@PAVObjectsExtender@extender@@U?$less@PAVObjectsExtender@extender@@@std@@V?$allocator@PAVObjectsExtender@extender@@@4@@std@@A@@YAXXZ 1003d900 f   ObjectsExtender.obj
 0001:0003c940       ??__F?additionalProperties@ObjectsExtender@extender@@1V?$vector@V?$basic_string@DU?$char_traits@D@std@@V?$allocator@D@2@@std@@V?$allocator@V?$basic_string@DU?$char_traits@D@std@@V?$allocator@D@2@@std@@@2@@std@@A@@YAXXZ 1003d940 f   ObjectsExtender.obj
 0001:0003c950       ??__F?additionalRmgObjects@ObjectsExtender@extender@@1V?$vector@URMGObjectInfo@@V?$allocator@URMGObjectInfo@@@std@@@std@@A@@YAXXZ 1003d950 f   ObjectsExtender.obj
 0001:0003c9a0       ??__Finstance@?1??Get@RMGObjectsEditor@editor@@SAAAV12@XZ@YAXXZ 1003d9a0 f   RMGObjectsEditor.obj
 0001:0003c9b0       ??__F?m_banks@RMG_SettingsDlg@rmgdlg@@0V?$vector@U?$pair@UH3ObjectAttributes@h3@@PAUH3LoadedPcx16@2@@std@@V?$allocator@U?$pair@UH3ObjectAttributes@h3@@PAUH3LoadedPcx16@2@@std@@@2@@std@@A@@YAXXZ 1003d9b0 f   RMG_SettingsDlg.obj
 0001:0003c9c0       ??__F?m_commonObjects@RMG_SettingsDlg@rmgdlg@@0V?$vector@U?$pair@UH3ObjectAttributes@h3@@PAUH3LoadedPcx16@2@@std@@V?$allocator@U?$pair@UH3ObjectAttributes@h3@@PAUH3LoadedPcx16@2@@std@@@2@@std@@A@@YAXXZ 1003d9c0 f   RMG_SettingsDlg.obj
 0001:0003c9d0       ??__F?m_dwellings@RMG_SettingsDlg@rmgdlg@@0V?$vector@U?$pair@UH3ObjectAttributes@h3@@PAUH3LoadedPcx16@2@@std@@V?$allocator@U?$pair@UH3ObjectAttributes@h3@@PAUH3LoadedPcx16@2@@std@@@2@@std@@A@@YAXXZ 1003d9d0 f   RMG_SettingsDlg.obj
 0001:0003c9e0       ??__F?m_wogObjects@RMG_SettingsDlg@rmgdlg@@0V?$vector@U?$pair@UH3ObjectAttributes@h3@@PAUH3LoadedPcx16@2@@std@@V?$allocator@U?$pair@UH3ObjectAttributes@h3@@PAUH3LoadedPcx16@2@@std@@@2@@std@@A@@YAXXZ 1003d9e0 f   RMG_SettingsDlg.obj
 0001:0003c9f0       ??__F?m_objectAttributes@RMG_SettingsDlg@rmgdlg@@0V?$vector@PAV?$vector@U?$pair@UH3ObjectAttributes@h3@@PAUH3LoadedPcx16@2@@std@@V?$allocator@U?$pair@UH3ObjectAttributes@h3@@PAUH3LoadedPcx16@2@@std@@@2@@std@@V?$allocator@PAV?$vector@U?$pair@UH3ObjectAttributes@h3@@PAUH3LoadedPcx16@2@@std@@V?$allocator@U?$pair@UH3ObjectAttributes@h3@@PAUH3LoadedPcx16@2@@std@@@2@@std@@@2@@std@@B@@YAXXZ 1003d9f0 f   RMG_SettingsDlg.obj
 0001:0003ca3d       ??__Finitlocks@std@@YAXXZ  1003da3d f   libcpmt:xlock.obj
 0001:0003ca47       ??__Fs_defaultWaiterPool@platform@details@Concurrency@@YAXXZ 1003da47 f   libconcrt:Platform.obj
 0001:0003ca51       ??__F?m_badAllocExceptionPtr@__ExceptionPtr@@0V?$shared_ptr@V__ExceptionPtr@@@std@@A@@YAXXZ 1003da51 f   libcpmt:excptptr.obj
 0002:000001b0       ?initlocks$initializer$@std@@3P6AXXZA 1003e1b0     libcpmt:xlock.obj
 0002:000001b4       ??s_cookie$initializer$@Security@details@Concurrency@@2P6AXXZA@@3P6AXXZA 1003e1b4     libconcrt:staticinits.obj
 0002:000001b8       ??s_subAllocatorFreePool$initializer$@SchedulerBase@details@Concurrency@@0P6AXXZA@@3P6AXXZA 1003e1b8     libconcrt:staticinits.obj
 0002:000001bc       ?s_defaultWaiterPool$initializer$@platform@details@Concurrency@@3P6AXXZA 1003e1bc     libconcrt:Platform.obj
 0002:000001c0       ?g_DebugOutFilePtr$initializer$@details@Concurrency@@3P6AXXZA 1003e1c0     libconcrt:utils.obj
 0002:000001c4       ??m_badAllocExceptionPtr$initializer$@__ExceptionPtr@@0P6AXXZA@@3P6AXXZA 1003e1c4     libcpmt:excptptr.obj
 0002:000001c8       ?hEra$initializer$@Era@@3P6AXXZA 1003e1c8     era.obj
 0002:000001cc       ?AllocErmFunc$initializer$@Era@@3P6AXXZA 1003e1cc     era.obj
 0002:000001d0       ?CalcHookPatchSize$initializer$@Era@@3P6AXXZA 1003e1d0     era.obj
 0002:000001d4       ?ClearAllIniCache$initializer$@Era@@3P6AXXZA 1003e1d4     era.obj
 0002:000001d8       ?ClearIniCache$initializer$@Era@@3P6AXXZA 1003e1d8     era.obj
 0002:000001dc       ?DecorateInt$initializer$@Era@@3P6AXXZA 1003e1dc     era.obj
 0002:000001e0       ?ExecErmCmd$initializer$@Era@@3P6AXXZA 1003e1e0     era.obj
 0002:000001e4       ?ExecPersistedErmCmd$initializer$@Era@@3P6AXXZA 1003e1e4     era.obj
 0002:000001e8       ?ExtractErm$initializer$@Era@@3P6AXXZA 1003e1e8     era.obj
 0002:000001ec       ?FastQuitToGameMenu$initializer$@Era@@3P6AXXZA 1003e1ec     era.obj
 0002:000001f0       ?FatalError$initializer$@Era@@3P6AXXZA 1003e1f0     era.obj
 0002:000001f4       ?FindNextObject$initializer$@Era@@3P6AXXZA 1003e1f4     era.obj
 0002:000001f8       ?FireErmEvent$initializer$@Era@@3P6AXXZA 1003e1f8     era.obj
 0002:000001fc       ?FireEvent$initializer$@Era@@3P6AXXZA 1003e1fc     era.obj
 0002:00000200       ?FormatQuantity$initializer$@Era@@3P6AXXZA 1003e200     era.obj
 0002:00000204       ?FreeAppliedPatch$initializer$@Era@@3P6AXXZA 1003e204     era.obj
 0002:00000208       ?GenerateDebugInfo$initializer$@Era@@3P6AXXZA 1003e208     era.obj
 0002:0000020c       ?GetArgXVars$initializer$@Era@@3P6AXXZA 1003e20c     era.obj
 0002:00000210       ?GetAssocVarIntValue$initializer$@Era@@3P6AXXZA 1003e210     era.obj
 0002:00000214       ?GetAssocVarStrValue$initializer$@Era@@3P6AXXZA 1003e214     era.obj
 0002:00000218       ?GetButtonID$initializer$@Era@@3P6AXXZA 1003e218     era.obj
 0002:0000021c       ?GetCampaignFileName$initializer$@Era@@3P6AXXZA 1003e21c     era.obj
 0002:00000220       ?GetCampaignMapInd$initializer$@Era@@3P6AXXZA 1003e220     era.obj
 0002:00000224       ?GetEraRegistryIntValue$initializer$@Era@@3P6AXXZA 1003e224     era.obj
 0002:00000228       ?GetEraRegistryStrValue$initializer$@Era@@3P6AXXZA 1003e228     era.obj
 0002:0000022c       ?GetGameState$initializer$@Era@@3P6AXXZA 1003e22c     era.obj
 0002:00000230       ?GetMapFileName$initializer$@Era@@3P6AXXZA 1003e230     era.obj
 0002:00000234       ?GetProcessGuid$initializer$@Era@@3P6AXXZA 1003e234     era.obj
 0002:00000238       ?GetRealAddr$initializer$@Era@@3P6AXXZA 1003e238     era.obj
 0002:0000023c       ?GetRetXVars$initializer$@Era@@3P6AXXZA 1003e23c     era.obj
 0002:00000240       ?GetTriggerReadableName$initializer$@Era@@3P6AXXZA 1003e240     era.obj
 0002:00000244       ?GetVersionNum$initializer$@Era@@3P6AXXZA 1003e244     era.obj
 0002:00000248       ?GlobalRedirectFile$initializer$@Era@@3P6AXXZA 1003e248     era.obj
 0002:0000024c       ?Hash32$initializer$@Era@@3P6AXXZA 1003e24c     era.obj
 0002:00000250       ?HookCode$initializer$@Era@@3P6AXXZA 1003e250     era.obj
 0002:00000254       ?IsCampaign$initializer$@Era@@3P6AXXZA 1003e254     era.obj
 0002:00000258       ?IsCommanderId$initializer$@Era@@3P6AXXZA 1003e258     era.obj
 0002:0000025c       ?LoadImageAsPcx16$initializer$@Era@@3P6AXXZA 1003e25c     era.obj
 0002:00000260       ?MemFree$initializer$@Era@@3P6AXXZA 1003e260     era.obj
 0002:00000264       ?NameColor$initializer$@Era@@3P6AXXZA 1003e264     era.obj
 0002:00000268       ?NameTrigger$initializer$@Era@@3P6AXXZA 1003e268     era.obj
 0002:0000026c       ?NotifyError$initializer$@Era@@3P6AXXZA 1003e26c     era.obj
 0002:00000270       ?PatchExists$initializer$@Era@@3P6AXXZA 1003e270     era.obj
 0002:00000274       ?PcxPngExists$initializer$@Era@@3P6AXXZA 1003e274     era.obj
 0002:00000278       ?PersistErmCmd$initializer$@Era@@3P6AXXZA 1003e278     era.obj
 0002:0000027c       ?PluginExists$initializer$@Era@@3P6AXXZA 1003e27c     era.obj
 0002:00000280       ?ReadSavegameSection$initializer$@Era@@3P6AXXZA 1003e280     era.obj
 0002:00000284       ?ReadStrFromIni$initializer$@Era@@3P6AXXZA 1003e284     era.obj
 0002:00000288       ?RedirectFile$initializer$@Era@@3P6AXXZA 1003e288     era.obj
 0002:0000028c       ?RedirectMemoryBlock$initializer$@Era@@3P6AXXZA 1003e28c     era.obj
 0002:00000290       ?RegisterHandler$initializer$@Era@@3P6AXXZA 1003e290     era.obj
 0002:00000294       ?ReloadErm$initializer$@Era@@3P6AXXZA 1003e294     era.obj
 0002:00000298       ?ReloadLanguageData$initializer$@Era@@3P6AXXZA 1003e298     era.obj
 0002:0000029c       ?ReportPluginVersion$initializer$@Era@@3P6AXXZA 1003e29c     era.obj
 0002:000002a0       ?RollbackAppliedPatch$initializer$@Era@@3P6AXXZA 1003e2a0     era.obj
 0002:000002a4       ?SaveIni$initializer$@Era@@3P6AXXZA 1003e2a4     era.obj
 0002:000002a8       ?SetAssocVarIntValue$initializer$@Era@@3P6AXXZA 1003e2a8     era.obj
 0002:000002ac       ?SetAssocVarStrValue$initializer$@Era@@3P6AXXZA 1003e2ac     era.obj
 0002:000002b0       ?SetEraRegistryIntValue$initializer$@Era@@3P6AXXZA 1003e2b0     era.obj
 0002:000002b4       ?SetEraRegistryStrValue$initializer$@Era@@3P6AXXZA 1003e2b4     era.obj
 0002:000002b8       ?SetIsCommanderIdFunc$initializer$@Era@@3P6AXXZA 1003e2b8     era.obj
 0002:000002bc       ?SetIsElixirOfLifeStackFunc$initializer$@Era@@3P6AXXZA 1003e2bc     era.obj
 0002:000002c0       ?SetLanguage$initializer$@Era@@3P6AXXZA 1003e2c0     era.obj
 0002:000002c4       ?SetRegenerationAbility$initializer$@Era@@3P6AXXZA 1003e2c4     era.obj
 0002:000002c8       ?SetStdRegenerationEffect$initializer$@Era@@3P6AXXZA 1003e2c8     era.obj
 0002:000002cc       ?ShowErmError$initializer$@Era@@3P6AXXZA 1003e2cc     era.obj
 0002:000002d0       ?ShowMessage$initializer$@Era@@3P6AXXZA 1003e2d0     era.obj
 0002:000002d4       ?Splice$initializer$@Era@@3P6AXXZA 1003e2d4     era.obj
 0002:000002d8       ?SplitMix32$initializer$@Era@@3P6AXXZA 1003e2d8     era.obj
 0002:000002dc       ?ToStaticStr$initializer$@Era@@3P6AXXZA 1003e2dc     era.obj
 0002:000002e0       ?trStatic$initializer$@Era@@3P6AXXZA 1003e2e0     era.obj
 0002:000002e4       ?trTemp$initializer$@Era@@3P6AXXZA 1003e2e4     era.obj
 0002:000002e8       ?WriteAtCode$initializer$@Era@@3P6AXXZA 1003e2e8     era.obj
 0002:000002ec       ?WriteSavegameSection$initializer$@Era@@3P6AXXZA 1003e2ec     era.obj
 0002:000002f0       ?WriteStrToIni$initializer$@Era@@3P6AXXZA 1003e2f0     era.obj
 0002:000002f4       ?GetEraVersion$initializer$@Era@@3P6AXXZA 1003e2f4     era.obj
 0002:000002f8       ?_tr$initializer$@Era@@3P6AXXZA 1003e2f8     era.obj
 0002:000002fc       ??extenders$initializer$@ObjectsExtender@extender@@0P6AXXZA@@3P6AXXZA 1003e2fc     ObjectsExtender.obj
 0002:00000300       ??additionalProperties$initializer$@ObjectsExtender@extender@@1P6AXXZA@@3P6AXXZA 1003e300     ObjectsExtender.obj
 0002:00000304       ??additionalRmgObjects$initializer$@ObjectsExtender@extender@@1P6AXXZA@@3P6AXXZA 1003e304     ObjectsExtender.obj
 0002:00000308       ??m_banks$initializer$@RMG_SettingsDlg@rmgdlg@@0P6AXXZA@@3P6AXXZA 1003e308     RMG_SettingsDlg.obj
 0002:0000030c       ??m_commonObjects$initializer$@RMG_SettingsDlg@rmgdlg@@0P6AXXZA@@3P6AXXZA 1003e30c     RMG_SettingsDlg.obj
 0002:00000310       ??m_dwellings$initializer$@RMG_SettingsDlg@rmgdlg@@0P6AXXZA@@3P6AXXZA 1003e310     RMG_SettingsDlg.obj
 0002:00000314       ??m_wogObjects$initializer$@RMG_SettingsDlg@rmgdlg@@0P6AXXZA@@3P6AXXZA 1003e314     RMG_SettingsDlg.obj
 0002:00000318       ??m_objectAttributes$initializer$@RMG_SettingsDlg@rmgdlg@@0P6AXXZA@@3P6AXXZA 1003e318     RMG_SettingsDlg.obj
 0002:00000324       ?pinit@@3P6AHXZA           1003e324     libcpmt:winapisupp.obj
 0002:00000328       ?__scrt_initialize_tss_var@@3P6AHXZA 1003e328     LIBCMT:thread_safe_statics.obj
 0002:00000348       ?pterm@@3P6AXXZA           1003e348     libconcrt:utils.obj
 0002:00000430       ?msgs@@3QBQBDB             1003e430     libcpmt:thread0.obj
 0002:0000044c       ?codes@@3QBHB              1003e44c     libcpmt:thread0.obj
 0002:00000c98       ?_Win_errtab@std@@3QBU_Win_errtab_t@1@B 1003ec98     libcpmt:syserror.obj
 0002:00000ee8       ?_Sys_errtab@std@@3QBU_Sys_errtab_t@1@B 1003eee8     libcpmt:syserror.obj
 0002:000013d0       _GS_ExceptionPointers      1003f3d0     LIBCMT:gs_report.obj
 0002:00002148       ?ExceptionTemplate@?1??_CxxThrowException@@9@8@4UEHExceptionRecord@@B 10040148     libvcruntime:throw.obj
 0002:00002168       ?module_names@?A0x49c8dc86@@3QBQB_WB 10040168     libvcruntime:winapi_downlevel.obj
 0002:00002218       ?candidate_modules@?1??try_get_FlsAlloc@@YAP6GKP6GXPAX@Z@ZXZ@4QBW4module_id@?A0x49c8dc86@@B 10040218     libvcruntime:winapi_downlevel.obj
 0002:00002220       ?candidate_modules@?1??try_get_FlsFree@@YAP6GHK@ZXZ@4QBW4module_id@?A0x49c8dc86@@B 10040220     libvcruntime:winapi_downlevel.obj
 0002:00002228       ?candidate_modules@?1??try_get_FlsGetValue@@YAP6GPAXK@ZXZ@4QBW4module_id@?A0x49c8dc86@@B 10040228     libvcruntime:winapi_downlevel.obj
 0002:00002230       ?candidate_modules@?1??try_get_FlsSetValue@@YAP6GHKPAX@ZXZ@4QBW4module_id@?A0x49c8dc86@@B 10040230     libvcruntime:winapi_downlevel.obj
 0002:00002238       ?candidate_modules@?1??try_get_InitializeCriticalSectionEx@@YAP6GHPAU_RTL_CRITICAL_SECTION@@KK@ZXZ@4QBW4module_id@?A0x49c8dc86@@B 10040238     libvcruntime:winapi_downlevel.obj
 0002:000022a0       ?tokenTable@@3QBQBDB       100402a0     libvcruntime:undname.obj
 0002:000022d8       ?nameTable@@3QBQBDB        100402d8     libvcruntime:undname.obj
 0002:0000241c       ?rttiTable@@3QBQBDB        1004041c     libvcruntime:undname.obj
 0002:00002ba0       ___acrt_initializers       10040ba0     libucrt:initialization.obj
 0002:00002c20       _NAME_                     10040c20     libucrt:sqrt.obj
 0002:00002c28       _errtable                  10040c28     libucrt:errno.obj
 0002:000038a0       _module_names              100418a0     libucrt:winapi_thunks.obj
 0002:00003d40       ?candidate_modules@?1??try_get_FlsAlloc@@YAP6GKP6GXPAX@Z@ZXZ@4QBW4module_id@?A0x352e5c4b@@B 10041d40     libucrt:winapi_thunks.obj
 0002:00003d48       ?candidate_modules@?1??try_get_FlsFree@@YAP6GHK@ZXZ@4QBW4module_id@?A0x352e5c4b@@B 10041d48     libucrt:winapi_thunks.obj
 0002:00003d50       ?candidate_modules@?1??try_get_FlsGetValue@@YAP6GPAXK@ZXZ@4QBW4module_id@?A0x352e5c4b@@B 10041d50     libucrt:winapi_thunks.obj
 0002:00003d58       ?candidate_modules@?1??try_get_FlsSetValue@@YAP6GHKPAX@ZXZ@4QBW4module_id@?A0x352e5c4b@@B 10041d58     libucrt:winapi_thunks.obj
 0002:00003d60       ?candidate_modules@?1??try_get_GetCurrentPackageId@@YAP6GJPAIPAE@ZXZ@4QBW4module_id@?A0x352e5c4b@@B 10041d60     libucrt:winapi_thunks.obj
 0002:00003d68       ?candidate_modules@?1??try_get_InitializeCriticalSectionEx@@YAP6GHPAU_RTL_CRITICAL_SECTION@@KK@ZXZ@4QBW4module_id@?A0x352e5c4b@@B 10041d68     libucrt:winapi_thunks.obj
 0002:00003d70       ?candidate_modules@?1??try_get_LCMapStringEx@@YAP6GHPB_WK0HPA_WHPAU_nlsversioninfo@@PAXJ@ZXZ@4QBW4module_id@?A0x352e5c4b@@B 10041d70     libucrt:winapi_thunks.obj
 0002:00003d78       ?candidate_modules@?1??try_get_LocaleNameToLCID@@YAP6GKPB_WK@ZXZ@4QBW4module_id@?A0x352e5c4b@@B 10041d78     libucrt:winapi_thunks.obj
 0002:00003d94       ?candidate_modules@?1??try_get_RoInitialize@@YAP6GJW4RO_INIT_TYPE@@@ZXZ@4QBW4module_id@?A0x352e5c4b@@B 10041d94     libucrt:winapi_thunks.obj
 0002:00003d98       ?candidate_modules@?1??try_get_RoUninitialize@@YAP6GXXZXZ@4QBW4module_id@?A0x352e5c4b@@B 10041d98     libucrt:winapi_thunks.obj
 0002:00003d9c       __mb_locale_names          10041d9c     libucrt:mbctype.obj
 0002:00003de0       smask                      10041de0     libucrt:exp_pentium4.obj
 0002:00003df0       emask                      10041df0     libucrt:exp_pentium4.obj
 0002:00003e00       mmask                      10041e00     libucrt:exp_pentium4.obj
 0002:00003e10       bias                       10041e10     libucrt:exp_pentium4.obj
 0002:00003e20       Shifter                    10041e20     libucrt:exp_pentium4.obj
 0002:00003e30       twom60                     10041e30     libucrt:exp_pentium4.obj
 0002:00003e40       cv                         10041e40     libucrt:exp_pentium4.obj
 0002:00003e90       ONE_val                    10041e90     libucrt:exp_pentium4.obj
 0002:00003e98       EMIN                       10041e98     libucrt:exp_pentium4.obj
 0002:00003ea0       MAX_ARG                    10041ea0     libucrt:exp_pentium4.obj
 0002:00003ea8       MIN_ARG                    10041ea8     libucrt:exp_pentium4.obj
 0002:00003eb0       INF                        10041eb0     libucrt:exp_pentium4.obj
 0002:00003eb8       ZERO                       10041eb8     libucrt:exp_pentium4.obj
 0002:00003ec0       XMAX                       10041ec0     libucrt:exp_pentium4.obj
 0002:00003ec8       XMIN                       10041ec8     libucrt:exp_pentium4.obj
 0002:00003ed0       Sm_Thres                   10041ed0     libucrt:exp_pentium4.obj
 0002:00003ed8       Del_Thres                  10041ed8     libucrt:exp_pentium4.obj
 0002:00003efe       _log2max                   10041efe     libucrt:87tran.obj
 0002:00003f08       _smallarg                  10041f08     libucrt:87tran.obj
 0002:00003f12       _half                      10041f12     libucrt:87tran.obj
 0002:00003f40       DblMax                     10041f40     libucrt:87cdisp.obj
 0002:00003f48       DblMin                     10041f48     libucrt:87cdisp.obj
 0002:00003f50       IeeeAdjO                   10041f50     libucrt:87cdisp.obj
 0002:00003f58       IeeeAdjU                   10041f58     libucrt:87cdisp.obj
 0002:00003f60       _infinity                  10041f60     libucrt:87cdisp.obj
 0002:00003f68       _zero                      10041f68     libucrt:87cdisp.obj
 0002:00003f8e       One                        10041f8e     libucrt:87disp.obj
 0002:00003f96       Three                      10041f96     libucrt:87disp.obj
 0002:00003f9e       XAMtoTagTab                10041f9e     libucrt:87disp.obj
 0002:00003fb0       One                        10041fb0     libucrt:common.obj
 0002:00003fc4       DblMax                     10041fc4     libucrt:common.obj
 0002:00003fcc       DblMin                     10041fcc     libucrt:common.obj
 0002:00003fd4       IeeeAdjO                   10041fd4     libucrt:common.obj
 0002:00003fdc       IeeeAdjU                   10041fdc     libucrt:common.obj
 0002:00003fe4       _infinity                  10041fe4     libucrt:common.obj
 0002:00003fec       _zero                      10041fec     libucrt:common.obj
 0002:000049e8       _LcidToLocaleNameTable     100429e8     libucrt:lcidtoname_downlevel.obj
 0002:00005b08       _LocaleNameToIndexTable    10043b08     libucrt:lcidtoname_downlevel.obj
 0002:00006e90       LOG_name                   10044e90     libucrt:log10.obj
 0002:00006ea0       _One                       10044ea0     libucrt:ceil_pentium4.obj
 0002:00006eb0       _Bns                       10044eb0     libucrt:ceil_pentium4.obj
 0002:00006ec0       _Zero                      10044ec0     libucrt:ceil_pentium4.obj
 0002:00006ed0       _S                         10044ed0     libucrt:ceil_pentium4.obj
 0002:00006ee0       _NegZero                   10044ee0     libucrt:ceil_pentium4.obj
 0002:00006fa0       ?_names@?1??_get_fname@@9@9 10044fa0     libucrt:fpexcept.obj
 0002:00007098       _over                      10045098     libucrt:fpctrl.obj
 0002:000070a4       _under                     100450a4     libucrt:fpctrl.obj
 0002:000070b0       emask                      100450b0     libucrt:log10_pentium4.obj
 0002:000070c0       CC                         100450c0     libucrt:log10_pentium4.obj
 0002:000070d0       Magic                      100450d0     libucrt:log10_pentium4.obj
 0002:000070e0       hi_mask                    100450e0     libucrt:log10_pentium4.obj
 0002:000070f0       LOG10_2                    100450f0     libucrt:log10_pentium4.obj
 0002:00007100       place_L                    10045100     libucrt:log10_pentium4.obj
 0002:00007120       One                        10045120     libucrt:log10_pentium4.obj
 0002:00007130       Zero                       10045130     libucrt:log10_pentium4.obj
 0002:00007140       Two52                      10045140     libucrt:log10_pentium4.obj
 0002:00007150       Infs                       10045150     libucrt:log10_pentium4.obj
 0002:00007160       NaN                        10045160     libucrt:log10_pentium4.obj
 0002:00007170       coeff                      10045170     libucrt:log10_pentium4.obj
 0002:00007a3c       ?KEY_EQUALS@h3@@3QBDB      10045a3c     DrawPcx16ResizedBicubic.obj
 0002:00007a40       ?NEW_LINE@h3@@3QBDB        10045a40     DrawPcx16ResizedBicubic.obj
 0002:00007a44       ?BOM_HEADER@h3@@3QBDB      10045a44     DrawPcx16ResizedBicubic.obj
 0002:00007a48       ?KEY_EQUALS@h3@@3QBDB      10045a48     dllmain.obj
 0002:00007a4c       ?NEW_LINE@h3@@3QBDB        10045a4c     dllmain.obj
 0002:00007a50       ?BOM_HEADER@h3@@3QBDB      10045a50     dllmain.obj
 0002:00007a54       ?KEY_EQUALS@h3@@3QBDB      10045a54     CreatureBanksExtender.obj
 0002:00007a58       ?NEW_LINE@h3@@3QBDB        10045a58     CreatureBanksExtender.obj
 0002:00007a5c       ?BOM_HEADER@h3@@3QBDB      10045a5c     CreatureBanksExtender.obj
 0002:00007a60       ?KEY_EQUALS@h3@@3QBDB      10045a60     ShrinesExternder.obj
 0002:00007a64       ?NEW_LINE@h3@@3QBDB        10045a64     ShrinesExternder.obj
 0002:00007a68       ?BOM_HEADER@h3@@3QBDB      10045a68     ShrinesExternder.obj
 0002:00007a6c       ?KEY_EQUALS@h3@@3QBDB      10045a6c     WarehousesExtender.obj
 0002:00007a70       ?NEW_LINE@h3@@3QBDB        10045a70     WarehousesExtender.obj
 0002:00007a74       ?BOM_HEADER@h3@@3QBDB      10045a74     WarehousesExtender.obj
 0002:00007a78       ?KEY_EQUALS@h3@@3QBDB      10045a78     ObjectsExtender.obj
 0002:00007a7c       ?NEW_LINE@h3@@3QBDB        10045a7c     ObjectsExtender.obj
 0002:00007a80       ?BOM_HEADER@h3@@3QBDB      10045a80     ObjectsExtender.obj
 0002:00007a84       ?KEY_EQUALS@h3@@3QBDB      10045a84     RMGObjectsEditor.obj
 0002:00007a88       ?NEW_LINE@h3@@3QBDB        10045a88     RMGObjectsEditor.obj
 0002:00007a8c       ?BOM_HEADER@h3@@3QBDB      10045a8c     RMGObjectsEditor.obj
 0002:00007a90       ?KEY_EQUALS@h3@@3QBDB      10045a90     RMG_SettingsDlg.obj
 0002:00007a94       ?NEW_LINE@h3@@3QBDB        10045a94     RMG_SettingsDlg.obj
 0002:00007a98       ?BOM_HEADER@h3@@3QBDB      10045a98     RMG_SettingsDlg.obj
 0002:00007a9c       ?DLGBLUEBOX@HDassets@NH3Dlg@h3@@3QBDB 10045a9c     RMG_SettingsDlg.obj
 0002:00007aa0       ?DLGBLUEBACK@HDassets@NH3Dlg@h3@@3QBDB 10045aa0     RMG_SettingsDlg.obj
 0002:00007aa4       ?HD_STATUSBAR_PCX@HDassets@NH3Dlg@h3@@3QBDB 10045aa4     RMG_SettingsDlg.obj
 0002:00008580       ?keyNames@?1??InitDefaults@RMGObjectsEditor@editor@@AAEXPBF@Z@4QBQBDB 10046580     RMGObjectsEditor.obj
 0002:0000b580       __ehfuncinfo$?_Copy@?$basic_string@DU?$char_traits@D@std@@V?$allocator@D@2@@std@@QAEXII@Z 10049580     era.obj
 0002:0000b5a4       __unwindtable$?_Copy@?$basic_string@DU?$char_traits@D@std@@V?$allocator@D@2@@std@@QAEXII@Z 100495a4     era.obj
 0002:0000b5c4       __tryblocktable$?_Copy@?$basic_string@DU?$char_traits@D@std@@V?$allocator@D@2@@std@@QAEXII@Z 100495c4     era.obj
 0002:0000b5ec       __catchsym$?_Copy@?$basic_string@DU?$char_traits@D@std@@V?$allocator@D@2@@std@@QAEXII@Z$110 100495ec     era.obj
 0002:0000b5fc       __catchsym$?_Copy@?$basic_string@DU?$char_traits@D@std@@V?$allocator@D@2@@std@@QAEXII@Z$111 100495fc     era.obj
 0002:0000b60c       __ehfuncinfo$??1ThreadProxyFactoryManager@details@Concurrency@@QAE@XZ 1004960c     libconcrt:ThreadProxyFactoryManager.obj
 0002:0000b60c       __ehfuncinfo$?clear@?$_Tree@V?$_Tset_traits@PAVObjectsExtender@extender@@U?$less@PAVObjectsExtender@extender@@@std@@V?$allocator@PAVObjectsExtender@extender@@@4@$0A@@std@@@std@@QAEXXZ 1004960c     ObjectsExtender.obj
 0002:0000b60c       __ehfuncinfo$??1?$unique_lock@Vmutex@std@@@std@@QAE@XZ 1004960c     libconcrt:TaskCollection.obj
 0002:0000b60c       __ehfuncinfo$??1InternalContextBase@details@Concurrency@@UAE@XZ 1004960c     libconcrt:InternalContextBase.obj
 0002:0000b60c       __ehfuncinfo$??1ScopedCriticalRegion@ContextBase@details@Concurrency@@QAE@XZ 1004960c     libconcrt:InternalContextBase.obj
 0002:0000b60c       __ehfuncinfo$??1?$lock_guard@Vmutex@std@@@std@@QAE@XZ 1004960c     libconcrt:TaskCollection.obj
 0002:0000b60c       __ehfuncinfo$??1?$Mailbox@V_UnrealizedChore@details@Concurrency@@@details@Concurrency@@QAE@XZ 1004960c     libconcrt:ScheduleGroupBase.obj
 0002:0000b60c       __ehfuncinfo$??_EGlobalNode@details@Concurrency@@QAEPAXI@Z 1004960c     libconcrt:ResourceManager.obj
 0002:0000b60c       __ehfuncinfo$?_Run@?$_LaunchPad@V?$unique_ptr@V?$tuple@P6AXXZ@std@@U?$default_delete@V?$tuple@P6AXXZ@std@@@2@@std@@@std@@CAXPAV12@@Z 1004960c     RMG_SettingsDlg.obj
 0002:0000b60c       __ehfuncinfo$??1_TaskCollection@details@Concurrency@@QAE@XZ 1004960c     libconcrt:TaskCollection.obj
 0002:0000b60c       __ehfuncinfo$?clear@?$_Tree@V?$_Tset_traits@URMGObjectSetable@extender@@U?$less@URMGObjectSetable@extender@@@std@@V?$allocator@URMGObjectSetable@extender@@@4@$0A@@std@@@std@@QAEXXZ 1004960c     ObjectsExtender.obj
 0002:0000b60c       __ehfuncinfo$??1H3BasePalette565@h3@@QAE@XZ 1004960c     RMG_SettingsDlg.obj
 0002:0000b60c       __ehfuncinfo$??_ENumaInformation@SchedulerBase@details@Concurrency@@QAEPAXI@Z 1004960c     libconcrt:SchedulerBase.obj
 0002:0000b60c       __ehfuncinfo$??1?$H3BinaryLoader@UH3LoadedDef@h3@@@h3@@QAE@XZ 1004960c     RMG_SettingsDlg.obj
 0002:0000b60c       __ehfuncinfo$??1ResourceManager@details@Concurrency@@AAE@XZ 1004960c     libconcrt:ResourceManager.obj
 0002:0000b60c       __ehfuncinfo$??1_Condition_variable@details@Concurrency@@QAE@XZ 1004960c     libconcrt:event.obj
 0002:0000b60c       __ehfuncinfo$?clear@?$_Tree@V?$_Tset_traits@PBDU?$less@PBD@std@@V?$allocator@PBD@2@$0A@@std@@@std@@QAEXXZ 1004960c     ObjectsExtender.obj
 0002:0000b60c       __ehfuncinfo$??1_Scoped_lock@_NonReentrantBlockingLock@details@Concurrency@@QAE@XZ 1004960c     libconcrt:ResourceManager.obj
 0002:0000b60c       __ehfuncinfo$??1VirtualProcessor@details@Concurrency@@UAE@XZ 1004960c     libconcrt:VirtualProcessor.obj
 0002:0000b60c       __ehfuncinfo$??1_Scoped_lock_read@?$SafeRWList@UListEntry@details@Concurrency@@VNoCount@CollectionTypes@23@V_ReaderWriterLock@23@@details@Concurrency@@QAE@XZ 1004960c     libconcrt:ContextBase.obj
 0002:0000b60c       __ehfuncinfo$??1ExternalContextBase@details@Concurrency@@UAE@XZ 1004960c     libconcrt:ExternalContextBase.obj
 0002:0000b60c       __ehfuncinfo$??1_Scoped_lock@_CriticalNonReentrantLock@details@Concurrency@@QAE@XZ 1004960c     libconcrt:ContextBase.obj
 0002:0000b60c       __ehfuncinfo$??1?$H3BinaryLoader@UH3LoadedPcx@h3@@@h3@@QAE@XZ 1004960c     RMG_SettingsDlg.obj
 0002:0000b60c       __ehfuncinfo$??1ThreadProxy@details@Concurrency@@UAE@XZ 1004960c     libconcrt:ThreadProxy.obj
 0002:0000b60c       __ehfuncinfo$??1event@Concurrency@@QAE@XZ 1004960c     libconcrt:event.obj
 0002:0000b60c       __ehfuncinfo$??1SchedulerBase@details@Concurrency@@UAE@XZ 1004960c     libconcrt:SchedulerBase.obj
 0002:0000b60c       __ehfuncinfo$??1_Scoped_lock@_HyperNonReentrantLock@details@Concurrency@@QAE@XZ 1004960c     libconcrt:SchedulerBase.obj
 0002:0000b60c       __ehfuncinfo$??1H3String@h3@@QAE@XZ 1004960c     CreatureBanksExtender.obj
 0002:0000b60c       __ehfuncinfo$??1?$array@V?$vector@HV?$allocator@H@std@@@std@@$03@std@@QAE@XZ 1004960c     RMG_SettingsDlg.obj
 0002:0000b60c       __ehfuncinfo$??1AllocatorBucket@details@Concurrency@@QAE@XZ 1004960c     libconcrt:SubAllocator.obj
 0002:0000b60c       __ehfuncinfo$??1__ExceptionPtr@@QAE@XZ 1004960c     libcpmt:excptptr.obj
 0002:0000b60c       __ehfuncinfo$??1SchedulerProxy@details@Concurrency@@IAE@XZ 1004960c     libconcrt:SchedulerProxy.obj
 0002:0000b60c       __ehfuncinfo$??_EGlobalCore@details@Concurrency@@QAEPAXI@Z 1004960c     libcpmt:cond.obj
 0002:0000b60c       __ehfuncinfo$??1_Scoped_lock@_ReentrantBlockingLock@details@Concurrency@@QAE@XZ 1004960c     libconcrt:SchedulerProxy.obj
 0002:0000b60c       __ehfuncinfo$??1scoped_lock@critical_section@Concurrency@@QAE@XZ 1004960c     libconcrt:rtlocks.obj
 0002:0000b630       __ehfuncinfo$?Format@H3String@h3@@SA?AU12@PBDPAD@Z 10049630     CreatureBanksExtender.obj
 0002:0000b654       __unwindtable$?Format@H3String@h3@@SA?AU12@PBDPAD@Z 10049654     CreatureBanksExtender.obj
 0002:0000b65c       __ehfuncinfo$??0H3CreatureBankSetup@h3@@QAE@XZ 1004965c     CreatureBanksExtender.obj
 0002:0000b680       __unwindtable$??0H3CreatureBankSetup@h3@@QAE@XZ 10049680     CreatureBanksExtender.obj
 0002:0000b688       __ehfuncinfo$??_GRMG_SettingsDlg@rmgdlg@@EAEPAXI@Z 10049688     RMG_SettingsDlg.obj
 0002:0000b688       __ehfuncinfo$?clear@?$vector@U?$pair@UH3ObjectAttributes@h3@@PAUH3LoadedPcx16@2@@std@@V?$allocator@U?$pair@UH3ObjectAttributes@h3@@PAUH3LoadedPcx16@2@@std@@@2@@std@@QAEXXZ 10049688     RMG_SettingsDlg.obj
 0002:0000b688       __ehfuncinfo$??1H3Dlg@h3@@QAE@XZ 10049688     RMG_SettingsDlg.obj
 0002:0000b688       __ehfuncinfo$??1?$H3Vector@PAUH3RmgObjectGenerator@h3@@@h3@@QAE@XZ 10049688     RMGObjectsEditor.obj
 0002:0000b688       __ehfuncinfo$??1?$_LaunchPad@V?$unique_ptr@V?$tuple@P6AXXZ@std@@U?$default_delete@V?$tuple@P6AXXZ@std@@@2@@std@@@std@@QAE@XZ 10049688     RMG_SettingsDlg.obj
 0002:0000b688       __ehfuncinfo$??1?$pair@UH3ObjectAttributes@h3@@$$T@std@@QAE@XZ 10049688     RMG_SettingsDlg.obj
 0002:0000b688       __ehfuncinfo$?clear@?$vector@UH3CreatureBankSetup@h3@@V?$allocator@UH3CreatureBankSetup@h3@@@std@@@std@@QAEXXZ 10049688     CreatureBanksExtender.obj
 0002:0000b688       __ehfuncinfo$??1H3CreatureBankSetup@h3@@QAE@XZ 10049688     CreatureBanksExtender.obj
 0002:0000b688       __ehfuncinfo$??1H3NetworkDlg@h3@@QAE@XZ 10049688     RMG_SettingsDlg.obj
 0002:0000b6ac       __unwindtable$??1H3CreatureBankSetup@h3@@QAE@XZ 100496ac     CreatureBanksExtender.obj
 0002:0000b6ac       __unwindtable$??1?$H3Vector@PAUH3RmgObjectGenerator@h3@@@h3@@QAE@XZ 100496ac     RMGObjectsEditor.obj
 0002:0000b6ac       __unwindtable$?clear@?$vector@U?$pair@UH3ObjectAttributes@h3@@PAUH3LoadedPcx16@2@@std@@V?$allocator@U?$pair@UH3ObjectAttributes@h3@@PAUH3LoadedPcx16@2@@std@@@2@@std@@QAEXXZ 100496ac     RMG_SettingsDlg.obj
 0002:0000b6ac       __unwindtable$??1?$_LaunchPad@V?$unique_ptr@V?$tuple@P6AXXZ@std@@U?$default_delete@V?$tuple@P6AXXZ@std@@@2@@std@@@std@@QAE@XZ 100496ac     RMG_SettingsDlg.obj
 0002:0000b6ac       __unwindtable$??1?$pair@UH3ObjectAttributes@h3@@$$T@std@@QAE@XZ 100496ac     RMG_SettingsDlg.obj
 0002:0000b6ac       __unwindtable$??_GRMG_SettingsDlg@rmgdlg@@EAEPAXI@Z 100496ac     RMG_SettingsDlg.obj
 0002:0000b6ac       __unwindtable$??1H3Dlg@h3@@QAE@XZ 100496ac     RMG_SettingsDlg.obj
 0002:0000b6ac       __unwindtable$??1H3NetworkDlg@h3@@QAE@XZ 100496ac     RMG_SettingsDlg.obj
 0002:0000b6ac       __unwindtable$?clear@?$vector@UH3CreatureBankSetup@h3@@V?$allocator@UH3CreatureBankSetup@h3@@@std@@@std@@QAEXXZ 100496ac     CreatureBanksExtender.obj
 0002:0000b6b4       __ehfuncinfo$?resize@?$vector@UH3CreatureBankSetup@h3@@V?$allocator@UH3CreatureBankSetup@h3@@@std@@@std@@QAEXI@Z 100496b4     CreatureBanksExtender.obj
 0002:0000b6d8       __unwindtable$?resize@?$vector@UH3CreatureBankSetup@h3@@V?$allocator@UH3CreatureBankSetup@h3@@@std@@@std@@QAEXI@Z 100496d8     CreatureBanksExtender.obj
 0002:0000b6e8       __tryblocktable$?resize@?$vector@UH3CreatureBankSetup@h3@@V?$allocator@UH3CreatureBankSetup@h3@@@std@@@std@@QAEXI@Z 100496e8     CreatureBanksExtender.obj
 0002:0000b6fc       __catchsym$?resize@?$vector@UH3CreatureBankSetup@h3@@V?$allocator@UH3CreatureBankSetup@h3@@@std@@@std@@QAEXI@Z$52 100496fc     CreatureBanksExtender.obj
 0002:0000b70c       __ehfuncinfo$?_Tidy@?$vector@U?$pair@UH3ObjectAttributes@h3@@PAUH3LoadedPcx16@2@@std@@V?$allocator@U?$pair@UH3ObjectAttributes@h3@@PAUH3LoadedPcx16@2@@std@@@2@@std@@IAEXXZ 1004970c     RMG_SettingsDlg.obj
 0002:0000b70c       __ehfuncinfo$??$swap@U?$H3Vector@PAUH3RmgObjectGenerator@h3@@@h3@@X@std@@YAXAAU?$H3Vector@PAUH3RmgObjectGenerator@h3@@@h3@@0@Z 1004970c     RMGObjectsEditor.obj
 0002:0000b70c       __ehfuncinfo$??$_Destroy_range@V?$allocator@U?$pair@UH3ObjectAttributes@h3@@PAUH3LoadedPcx16@2@@std@@@std@@PAU?$pair@UH3ObjectAttributes@h3@@PAUH3LoadedPcx16@2@@2@@std@@YAXPAU?$pair@UH3ObjectAttributes@h3@@PAUH3LoadedPcx16@2@@0@0AAU?$_Wrap_alloc@V?$allocator@U?$pair@UH3ObjectAttributes@h3@@PAUH3LoadedPcx16@2@@std@@@std@@@0@@Z 1004970c     RMG_SettingsDlg.obj
 0002:0000b70c       __ehfuncinfo$??$_Destroy_range@V?$allocator@UH3CreatureBankSetup@h3@@@std@@PAUH3CreatureBankSetup@h3@@@std@@YAXPAUH3CreatureBankSetup@h3@@0AAU?$_Wrap_alloc@V?$allocator@UH3CreatureBankSetup@h3@@@std@@@0@@Z 1004970c     CreatureBanksExtender.obj
 0002:0000b70c       __ehfuncinfo$?_Destroy@?$vector@U?$pair@UH3ObjectAttributes@h3@@PAUH3LoadedPcx16@2@@std@@V?$allocator@U?$pair@UH3ObjectAttributes@h3@@PAUH3LoadedPcx16@2@@std@@@2@@std@@IAEXPAU?$pair@UH3ObjectAttributes@h3@@PAUH3LoadedPcx16@2@@2@0@Z 1004970c     RMG_SettingsDlg.obj
 0002:0000b70c       __ehfuncinfo$?Create@H3DlgCustomButton@h3@@SAPAU12@HHPBDP6IHPAUH3Msg@2@@ZHH@Z 1004970c     RMG_SettingsDlg.obj
 0002:0000b70c       __ehfuncinfo$?CreateCaptionButton@H3BaseDlg@h3@@QAEPAUH3DlgCaptionButton@2@HHHHHPBD00HHHHH@Z 1004970c     RMG_SettingsDlg.obj
 0002:0000b70c       __ehfuncinfo$?_Pop_back_n@?$vector@UH3CreatureBankSetup@h3@@V?$allocator@UH3CreatureBankSetup@h3@@@std@@@std@@QAEXI@Z 1004970c     CreatureBanksExtender.obj
 0002:0000b70c       __ehfuncinfo$?CreateText@H3BaseDlg@h3@@QAEPAUH3DlgText@2@HHHHPBD0HHW4eTextAlignment@NTextAlignment@NH3Dlg@2@H@Z 1004970c     RMG_SettingsDlg.obj
 0002:0000b70c       __ehfuncinfo$?_Tidy@?$vector@UH3CreatureBankSetup@h3@@V?$allocator@UH3CreatureBankSetup@h3@@@std@@@std@@IAEXXZ 1004970c     CreatureBanksExtender.obj
 0002:0000b730       __unwindtable$?_Tidy@?$vector@U?$pair@UH3ObjectAttributes@h3@@PAUH3LoadedPcx16@2@@std@@V?$allocator@U?$pair@UH3ObjectAttributes@h3@@PAUH3LoadedPcx16@2@@std@@@2@@std@@IAEXXZ 10049730     RMG_SettingsDlg.obj
 0002:0000b730       __unwindtable$?CreateText@H3BaseDlg@h3@@QAEPAUH3DlgText@2@HHHHPBD0HHW4eTextAlignment@NTextAlignment@NH3Dlg@2@H@Z 10049730     RMG_SettingsDlg.obj
 0002:0000b730       __unwindtable$?_Pop_back_n@?$vector@UH3CreatureBankSetup@h3@@V?$allocator@UH3CreatureBankSetup@h3@@@std@@@std@@QAEXI@Z 10049730     CreatureBanksExtender.obj
 0002:0000b730       __unwindtable$?_Tidy@?$vector@UH3CreatureBankSetup@h3@@V?$allocator@UH3CreatureBankSetup@h3@@@std@@@std@@IAEXXZ 10049730     CreatureBanksExtender.obj
 0002:0000b730       __unwindtable$?_Destroy@?$vector@U?$pair@UH3ObjectAttributes@h3@@PAUH3LoadedPcx16@2@@std@@V?$allocator@U?$pair@UH3ObjectAttributes@h3@@PAUH3LoadedPcx16@2@@std@@@2@@std@@IAEXPAU?$pair@UH3ObjectAttributes@h3@@PAUH3LoadedPcx16@2@@2@0@Z 10049730     RMG_SettingsDlg.obj
 0002:0000b730       __unwindtable$??$_Destroy_range@V?$allocator@UH3CreatureBankSetup@h3@@@std@@PAUH3CreatureBankSetup@h3@@@std@@YAXPAUH3CreatureBankSetup@h3@@0AAU?$_Wrap_alloc@V?$allocator@UH3CreatureBankSetup@h3@@@std@@@0@@Z 10049730     CreatureBanksExtender.obj
 0002:0000b730       __unwindtable$?Create@H3DlgCustomButton@h3@@SAPAU12@HHPBDP6IHPAUH3Msg@2@@ZHH@Z 10049730     RMG_SettingsDlg.obj
 0002:0000b730       __unwindtable$??$swap@U?$H3Vector@PAUH3RmgObjectGenerator@h3@@@h3@@X@std@@YAXAAU?$H3Vector@PAUH3RmgObjectGenerator@h3@@@h3@@0@Z 10049730     RMGObjectsEditor.obj
 0002:0000b730       __unwindtable$??$_Destroy_range@V?$allocator@U?$pair@UH3ObjectAttributes@h3@@PAUH3LoadedPcx16@2@@std@@@std@@PAU?$pair@UH3ObjectAttributes@h3@@PAUH3LoadedPcx16@2@@2@@std@@YAXPAU?$pair@UH3ObjectAttributes@h3@@PAUH3LoadedPcx16@2@@0@0AAU?$_Wrap_alloc@V?$allocator@U?$pair@UH3ObjectAttributes@h3@@PAUH3LoadedPcx16@2@@std@@@std@@@0@@Z 10049730     RMG_SettingsDlg.obj
 0002:0000b730       __unwindtable$?CreateCaptionButton@H3BaseDlg@h3@@QAEPAUH3DlgCaptionButton@2@HHHHHPBD00HHHHH@Z 10049730     RMG_SettingsDlg.obj
 0002:0000b738       __ehfuncinfo$?_Reallocate@?$vector@UH3CreatureBankSetup@h3@@V?$allocator@UH3CreatureBankSetup@h3@@@std@@@std@@IAEXI@Z 10049738     CreatureBanksExtender.obj
 0002:0000b75c       __unwindtable$?_Reallocate@?$vector@UH3CreatureBankSetup@h3@@V?$allocator@UH3CreatureBankSetup@h3@@@std@@@std@@IAEXI@Z 1004975c     CreatureBanksExtender.obj
 0002:0000b774       __tryblocktable$?_Reallocate@?$vector@UH3CreatureBankSetup@h3@@V?$allocator@UH3CreatureBankSetup@h3@@@std@@@std@@IAEXI@Z 10049774     CreatureBanksExtender.obj
 0002:0000b788       __catchsym$?_Reallocate@?$vector@UH3CreatureBankSetup@h3@@V?$allocator@UH3CreatureBankSetup@h3@@@std@@@std@@IAEXI@Z$56 10049788     CreatureBanksExtender.obj
 0002:0000b798       __ehfuncinfo$??$_Uninitialized_default_fill_n1@PAUH3CreatureBankSetup@h3@@IV?$allocator@UH3CreatureBankSetup@h3@@@std@@@std@@YAXPAUH3CreatureBankSetup@h3@@IAAU?$_Wrap_alloc@V?$allocator@UH3CreatureBankSetup@h3@@@std@@@0@U?$integral_constant@_N$0A@@0@@Z 10049798     CreatureBanksExtender.obj
 0002:0000b7bc       __unwindtable$??$_Uninitialized_default_fill_n1@PAUH3CreatureBankSetup@h3@@IV?$allocator@UH3CreatureBankSetup@h3@@@std@@@std@@YAXPAUH3CreatureBankSetup@h3@@IAAU?$_Wrap_alloc@V?$allocator@UH3CreatureBankSetup@h3@@@std@@@0@U?$integral_constant@_N$0A@@0@@Z 100497bc     CreatureBanksExtender.obj
 0002:0000b7d4       __tryblocktable$??$_Uninitialized_default_fill_n1@PAUH3CreatureBankSetup@h3@@IV?$allocator@UH3CreatureBankSetup@h3@@@std@@@std@@YAXPAUH3CreatureBankSetup@h3@@IAAU?$_Wrap_alloc@V?$allocator@UH3CreatureBankSetup@h3@@@std@@@0@U?$integral_constant@_N$0A@@0@@Z 100497d4     CreatureBanksExtender.obj
 0002:0000b7e8       __catchsym$??$_Uninitialized_default_fill_n1@PAUH3CreatureBankSetup@h3@@IV?$allocator@UH3CreatureBankSetup@h3@@@std@@@std@@YAXPAUH3CreatureBankSetup@h3@@IAAU?$_Wrap_alloc@V?$allocator@UH3CreatureBankSetup@h3@@@std@@@0@U?$integral_constant@_N$0A@@0@@Z$3 100497e8     CreatureBanksExtender.obj
 0002:0000b7f8       __ehfuncinfo$??$?0PAPBD@?$set@PBDU?$less@PBD@std@@V?$allocator@PBD@2@@std@@QAE@PAPBD0@Z 100497f8     ObjectsExtender.obj
 0002:0000b81c       __unwindtable$??$?0PAPBD@?$set@PBDU?$less@PBD@std@@V?$allocator@PBD@2@@std@@QAE@PAPBD0@Z 1004981c     ObjectsExtender.obj
 0002:0000b824       __ehfuncinfo$??$emplace_back@AAPBD@?$vector@V?$basic_string@DU?$char_traits@D@std@@V?$allocator@D@2@@std@@V?$allocator@V?$basic_string@DU?$char_traits@D@std@@V?$allocator@D@2@@std@@@2@@std@@QAEXAAPBD@Z 10049824     ObjectsExtender.obj
 0002:0000b848       __unwindtable$??$emplace_back@AAPBD@?$vector@V?$basic_string@DU?$char_traits@D@std@@V?$allocator@D@2@@std@@V?$allocator@V?$basic_string@DU?$char_traits@D@std@@V?$allocator@D@2@@std@@@2@@std@@QAEXAAPBD@Z 10049848     ObjectsExtender.obj
 0002:0000b850       __ehfuncinfo$??$_Insert_nohint@ABQAVObjectsExtender@extender@@U_Nil@std@@@?$_Tree@V?$_Tset_traits@PAVObjectsExtender@extender@@U?$less@PAVObjectsExtender@extender@@@std@@V?$allocator@PAVObjectsExtender@extender@@@4@$0A@@std@@@std@@IAE?AU?$pair@V?$_Tree_const_iterator@V?$_Tree_val@U?$_Tree_simple_types@PAVObjectsExtender@extender@@@std@@@std@@@std@@_N@1@_NABQAVObjectsExtender@extender@@U_Nil@1@@Z 10049850     ObjectsExtender.obj
 0002:0000b874       __unwindtable$??$_Insert_nohint@ABQAVObjectsExtender@extender@@U_Nil@std@@@?$_Tree@V?$_Tset_traits@PAVObjectsExtender@extender@@U?$less@PAVObjectsExtender@extender@@@std@@V?$allocator@PAVObjectsExtender@extender@@@4@$0A@@std@@@std@@IAE?AU?$pair@V?$_Tree_const_iterator@V?$_Tree_val@U?$_Tree_simple_types@PAVObjectsExtender@extender@@@std@@@std@@@std@@_N@1@_NABQAVObjectsExtender@extender@@U_Nil@1@@Z 10049874     ObjectsExtender.obj
 0002:0000b884       __tryblocktable$??$_Insert_nohint@ABQAVObjectsExtender@extender@@U_Nil@std@@@?$_Tree@V?$_Tset_traits@PAVObjectsExtender@extender@@U?$less@PAVObjectsExtender@extender@@@std@@V?$allocator@PAVObjectsExtender@extender@@@4@$0A@@std@@@std@@IAE?AU?$pair@V?$_Tree_const_iterator@V?$_Tree_val@U?$_Tree_simple_types@PAVObjectsExtender@extender@@@std@@@std@@@std@@_N@1@_NABQAVObjectsExtender@extender@@U_Nil@1@@Z 10049884     ObjectsExtender.obj
 0002:0000b898       __catchsym$??$_Insert_nohint@ABQAVObjectsExtender@extender@@U_Nil@std@@@?$_Tree@V?$_Tset_traits@PAVObjectsExtender@extender@@U?$less@PAVObjectsExtender@extender@@@std@@V?$allocator@PAVObjectsExtender@extender@@@4@$0A@@std@@@std@@IAE?AU?$pair@V?$_Tree_const_iterator@V?$_Tree_val@U?$_Tree_simple_types@PAVObjectsExtender@extender@@@std@@@std@@@std@@_N@1@_NABQAVObjectsExtender@extender@@U_Nil@1@@Z$42 10049898     ObjectsExtender.obj
 0002:0000b8a8       __ehfuncinfo$??$_Insert_nohint@PBDU_Nil@std@@@?$_Tree@V?$_Tset_traits@PBDU?$less@PBD@std@@V?$allocator@PBD@2@$0A@@std@@@std@@IAE?AU?$pair@V?$_Tree_const_iterator@V?$_Tree_val@U?$_Tree_simple_types@PBD@std@@@std@@@std@@_N@1@_N$$QAPBDU_Nil@1@@Z 100498a8     ObjectsExtender.obj
 0002:0000b8cc       __unwindtable$??$_Insert_nohint@PBDU_Nil@std@@@?$_Tree@V?$_Tset_traits@PBDU?$less@PBD@std@@V?$allocator@PBD@2@$0A@@std@@@std@@IAE?AU?$pair@V?$_Tree_const_iterator@V?$_Tree_val@U?$_Tree_simple_types@PBD@std@@@std@@@std@@_N@1@_N$$QAPBDU_Nil@1@@Z 100498cc     ObjectsExtender.obj
 0002:0000b8dc       __tryblocktable$??$_Insert_nohint@PBDU_Nil@std@@@?$_Tree@V?$_Tset_traits@PBDU?$less@PBD@std@@V?$allocator@PBD@2@$0A@@std@@@std@@IAE?AU?$pair@V?$_Tree_const_iterator@V?$_Tree_val@U?$_Tree_simple_types@PBD@std@@@std@@@std@@_N@1@_N$$QAPBDU_Nil@1@@Z 100498dc     ObjectsExtender.obj
 0002:0000b8f0       __catchsym$??$_Insert_nohint@PBDU_Nil@std@@@?$_Tree@V?$_Tset_traits@PBDU?$less@PBD@std@@V?$allocator@PBD@2@$0A@@std@@@std@@IAE?AU?$pair@V?$_Tree_const_iterator@V?$_Tree_val@U?$_Tree_simple_types@PBD@std@@@std@@@std@@_N@1@_N$$QAPBDU_Nil@1@@Z$42 100498f0     ObjectsExtender.obj
 0002:0000b900       __ehfuncinfo$??$_Insert_nohint@URMGObjectSetable@extender@@U_Nil@std@@@?$_Tree@V?$_Tset_traits@URMGObjectSetable@extender@@U?$less@URMGObjectSetable@extender@@@std@@V?$allocator@URMGObjectSetable@extender@@@4@$0A@@std@@@std@@IAE?AU?$pair@V?$_Tree_const_iterator@V?$_Tree_val@U?$_Tree_simple_types@URMGObjectSetable@extender@@@std@@@std@@@std@@_N@1@_N$$QAURMGObjectSetable@extender@@U_Nil@1@@Z 10049900     ObjectsExtender.obj
 0002:0000b924       __unwindtable$??$_Insert_nohint@URMGObjectSetable@extender@@U_Nil@std@@@?$_Tree@V?$_Tset_traits@URMGObjectSetable@extender@@U?$less@URMGObjectSetable@extender@@@std@@V?$allocator@URMGObjectSetable@extender@@@4@$0A@@std@@@std@@IAE?AU?$pair@V?$_Tree_const_iterator@V?$_Tree_val@U?$_Tree_simple_types@URMGObjectSetable@extender@@@std@@@std@@@std@@_N@1@_N$$QAURMGObjectSetable@extender@@U_Nil@1@@Z 10049924     ObjectsExtender.obj
 0002:0000b934       __tryblocktable$??$_Insert_nohint@URMGObjectSetable@extender@@U_Nil@std@@@?$_Tree@V?$_Tset_traits@URMGObjectSetable@extender@@U?$less@URMGObjectSetable@extender@@@std@@V?$allocator@URMGObjectSetable@extender@@@4@$0A@@std@@@std@@IAE?AU?$pair@V?$_Tree_const_iterator@V?$_Tree_val@U?$_Tree_simple_types@URMGObjectSetable@extender@@@std@@@std@@@std@@_N@1@_N$$QAURMGObjectSetable@extender@@U_Nil@1@@Z 10049934     ObjectsExtender.obj
 0002:0000b948       __catchsym$??$_Insert_nohint@URMGObjectSetable@extender@@U_Nil@std@@@?$_Tree@V?$_Tset_traits@URMGObjectSetable@extender@@U?$less@URMGObjectSetable@extender@@@std@@V?$allocator@URMGObjectSetable@extender@@@4@$0A@@std@@@std@@IAE?AU?$pair@V?$_Tree_const_iterator@V?$_Tree_val@U?$_Tree_simple_types@URMGObjectSetable@extender@@@std@@@std@@@std@@_N@1@_N$$QAURMGObjectSetable@extender@@U_Nil@1@@Z$42 10049948     ObjectsExtender.obj
 0002:0000b958       __ehfuncinfo$?Reserve@?$H3Vector@PAUH3DlgItem@h3@@@h3@@QAEHI@Z 10049958     RMG_SettingsDlg.obj
 0002:0000b958       __ehfuncinfo$?AddBackground@H3Dlg@h3@@QAEHHHHHHHHH@Z 10049958     RMG_SettingsDlg.obj
 0002:0000b958       __ehfuncinfo$?Reserve@?$H3Vector@PAUH3RmgObjectGenerator@h3@@@h3@@QAEHI@Z 10049958     ObjectsExtender.obj
 0002:0000b958       __ehfuncinfo$?Reserve@?$H3Vector@H@h3@@QAEHI@Z 10049958     RMG_SettingsDlg.obj
 0002:0000b958       __ehfuncinfo$?Reserve@?$H3Vector@PBD@h3@@QAEHI@Z 10049958     ObjectsExtender.obj
 0002:0000b97c       __unwindtable$?Reserve@?$H3Vector@PAUH3DlgItem@h3@@@h3@@QAEHI@Z 1004997c     RMG_SettingsDlg.obj
 0002:0000b97c       __unwindtable$?Reserve@?$H3Vector@H@h3@@QAEHI@Z 1004997c     RMG_SettingsDlg.obj
 0002:0000b97c       __unwindtable$?AddBackground@H3Dlg@h3@@QAEHHHHHHHHH@Z 1004997c     RMG_SettingsDlg.obj
 0002:0000b97c       __unwindtable$?Reserve@?$H3Vector@PAUH3RmgObjectGenerator@h3@@@h3@@QAEHI@Z 1004997c     ObjectsExtender.obj
 0002:0000b97c       __unwindtable$?Reserve@?$H3Vector@PBD@h3@@QAEHI@Z 1004997c     ObjectsExtender.obj
 0002:0000b98c       __ehfuncinfo$??$_Insert_hint@AAPBDPAU?$_Tree_node@PBDPAX@std@@@?$_Tree@V?$_Tset_traits@PBDU?$less@PBD@std@@V?$allocator@PBD@2@$0A@@std@@@std@@IAE?AV?$_Tree_const_iterator@V?$_Tree_val@U?$_Tree_simple_types@PBD@std@@@std@@@1@V21@AAPBDPAU?$_Tree_node@PBDPAX@1@@Z 1004998c     ObjectsExtender.obj
 0002:0000b9b0       __unwindtable$??$_Insert_hint@AAPBDPAU?$_Tree_node@PBDPAX@std@@@?$_Tree@V?$_Tset_traits@PBDU?$less@PBD@std@@V?$allocator@PBD@2@$0A@@std@@@std@@IAE?AV?$_Tree_const_iterator@V?$_Tree_val@U?$_Tree_simple_types@PBD@std@@@std@@@1@V21@AAPBDPAU?$_Tree_node@PBDPAX@1@@Z 100499b0     ObjectsExtender.obj
 0002:0000b9c0       __tryblocktable$??$_Insert_hint@AAPBDPAU?$_Tree_node@PBDPAX@std@@@?$_Tree@V?$_Tset_traits@PBDU?$less@PBD@std@@V?$allocator@PBD@2@$0A@@std@@@std@@IAE?AV?$_Tree_const_iterator@V?$_Tree_val@U?$_Tree_simple_types@PBD@std@@@std@@@1@V21@AAPBDPAU?$_Tree_node@PBDPAX@1@@Z 100499c0     ObjectsExtender.obj
 0002:0000b9d4       __catchsym$??$_Insert_hint@AAPBDPAU?$_Tree_node@PBDPAX@std@@@?$_Tree@V?$_Tset_traits@PBDU?$less@PBD@std@@V?$allocator@PBD@2@$0A@@std@@@std@@IAE?AV?$_Tree_const_iterator@V?$_Tree_val@U?$_Tree_simple_types@PBD@std@@@std@@@1@V21@AAPBDPAU?$_Tree_node@PBDPAX@1@@Z$120 100499d4     ObjectsExtender.obj
 0002:0000b9e4       __ehfuncinfo$??$_Insert_nohint@AAPBDPAU?$_Tree_node@PBDPAX@std@@@?$_Tree@V?$_Tset_traits@PBDU?$less@PBD@std@@V?$allocator@PBD@2@$0A@@std@@@std@@IAE?AU?$pair@V?$_Tree_const_iterator@V?$_Tree_val@U?$_Tree_simple_types@PBD@std@@@std@@@std@@_N@1@_NAAPBDPAU?$_Tree_node@PBDPAX@1@@Z 100499e4     ObjectsExtender.obj
 0002:0000ba08       __unwindtable$??$_Insert_nohint@AAPBDPAU?$_Tree_node@PBDPAX@std@@@?$_Tree@V?$_Tset_traits@PBDU?$less@PBD@std@@V?$allocator@PBD@2@$0A@@std@@@std@@IAE?AU?$pair@V?$_Tree_const_iterator@V?$_Tree_val@U?$_Tree_simple_types@PBD@std@@@std@@@std@@_N@1@_NAAPBDPAU?$_Tree_node@PBDPAX@1@@Z 10049a08     ObjectsExtender.obj
 0002:0000ba18       __tryblocktable$??$_Insert_nohint@AAPBDPAU?$_Tree_node@PBDPAX@std@@@?$_Tree@V?$_Tset_traits@PBDU?$less@PBD@std@@V?$allocator@PBD@2@$0A@@std@@@std@@IAE?AU?$pair@V?$_Tree_const_iterator@V?$_Tree_val@U?$_Tree_simple_types@PBD@std@@@std@@@std@@_N@1@_NAAPBDPAU?$_Tree_node@PBDPAX@1@@Z 10049a18     ObjectsExtender.obj
 0002:0000ba2c       __catchsym$??$_Insert_nohint@AAPBDPAU?$_Tree_node@PBDPAX@std@@@?$_Tree@V?$_Tset_traits@PBDU?$less@PBD@std@@V?$allocator@PBD@2@$0A@@std@@@std@@IAE?AU?$pair@V?$_Tree_const_iterator@V?$_Tree_val@U?$_Tree_simple_types@PBD@std@@@std@@@std@@_N@1@_NAAPBDPAU?$_Tree_node@PBDPAX@1@@Z$56 10049a2c     ObjectsExtender.obj
 0002:0000ba3c       __ehfuncinfo$??1PseudoH3RmgRandomMapGenerator@@QAE@XZ 10049a3c     RMGObjectsEditor.obj
 0002:0000ba60       __unwindtable$??1PseudoH3RmgRandomMapGenerator@@QAE@XZ 10049a60     RMGObjectsEditor.obj
 0002:0000ba78       __ehfuncinfo$??4?$vector@V?$vector@URMGObjectInfo@@V?$allocator@URMGObjectInfo@@@std@@@std@@V?$allocator@V?$vector@URMGObjectInfo@@V?$allocator@URMGObjectInfo@@@std@@@std@@@2@@std@@QAEAAV01@ABV01@@Z 10049a78     RMGObjectsEditor.obj
 0002:0000ba9c       __unwindtable$??4?$vector@V?$vector@URMGObjectInfo@@V?$allocator@URMGObjectInfo@@@std@@@std@@V?$allocator@V?$vector@URMGObjectInfo@@V?$allocator@URMGObjectInfo@@@std@@@std@@@2@@std@@QAEAAV01@ABV01@@Z 10049a9c     RMGObjectsEditor.obj
 0002:0000baac       __tryblocktable$??4?$vector@V?$vector@URMGObjectInfo@@V?$allocator@URMGObjectInfo@@@std@@@std@@V?$allocator@V?$vector@URMGObjectInfo@@V?$allocator@URMGObjectInfo@@@std@@@std@@@2@@std@@QAEAAV01@ABV01@@Z 10049aac     RMGObjectsEditor.obj
 0002:0000bac0       __catchsym$??4?$vector@V?$vector@URMGObjectInfo@@V?$allocator@URMGObjectInfo@@@std@@@std@@V?$allocator@V?$vector@URMGObjectInfo@@V?$allocator@URMGObjectInfo@@@std@@@std@@@2@@std@@QAEAAV01@ABV01@@Z$160 10049ac0     RMGObjectsEditor.obj
 0002:0000bad0       __ehfuncinfo$??1?$H3Vector@UH3ObjectAttributes@h3@@@h3@@QAE@XZ 10049ad0     RMGObjectsEditor.obj
 0002:0000baf4       __unwindtable$??1?$H3Vector@UH3ObjectAttributes@h3@@@h3@@QAE@XZ 10049af4     RMGObjectsEditor.obj
 0002:0000bb04       __ehfuncinfo$??$_Uninitialized_copy_al_unchecked1@PAV?$vector@URMGObjectInfo@@V?$allocator@URMGObjectInfo@@@std@@@std@@PAV12@V?$allocator@V?$vector@URMGObjectInfo@@V?$allocator@URMGObjectInfo@@@std@@@std@@@2@@std@@YAPAV?$vector@URMGObjectInfo@@V?$allocator@URMGObjectInfo@@@std@@@0@PAV10@00AAU?$_Wrap_alloc@V?$allocator@V?$vector@URMGObjectInfo@@V?$allocator@URMGObjectInfo@@@std@@@std@@@std@@@0@U_General_ptr_iterator_tag@0@U_Any_tag@0@@Z 10049b04     RMGObjectsEditor.obj
 0002:0000bb28       __unwindtable$??$_Uninitialized_copy_al_unchecked1@PAV?$vector@URMGObjectInfo@@V?$allocator@URMGObjectInfo@@@std@@@std@@PAV12@V?$allocator@V?$vector@URMGObjectInfo@@V?$allocator@URMGObjectInfo@@@std@@@std@@@2@@std@@YAPAV?$vector@URMGObjectInfo@@V?$allocator@URMGObjectInfo@@@std@@@0@PAV10@00AAU?$_Wrap_alloc@V?$allocator@V?$vector@URMGObjectInfo@@V?$allocator@URMGObjectInfo@@@std@@@std@@@std@@@0@U_General_ptr_iterator_tag@0@U_Any_tag@0@@Z 10049b28     RMGObjectsEditor.obj
 0002:0000bb40       __tryblocktable$??$_Uninitialized_copy_al_unchecked1@PAV?$vector@URMGObjectInfo@@V?$allocator@URMGObjectInfo@@@std@@@std@@PAV12@V?$allocator@V?$vector@URMGObjectInfo@@V?$allocator@URMGObjectInfo@@@std@@@std@@@2@@std@@YAPAV?$vector@URMGObjectInfo@@V?$allocator@URMGObjectInfo@@@std@@@0@PAV10@00AAU?$_Wrap_alloc@V?$allocator@V?$vector@URMGObjectInfo@@V?$allocator@URMGObjectInfo@@@std@@@std@@@std@@@0@U_General_ptr_iterator_tag@0@U_Any_tag@0@@Z 10049b40     RMGObjectsEditor.obj
 0002:0000bb54       __catchsym$??$_Uninitialized_copy_al_unchecked1@PAV?$vector@URMGObjectInfo@@V?$allocator@URMGObjectInfo@@@std@@@std@@PAV12@V?$allocator@V?$vector@URMGObjectInfo@@V?$allocator@URMGObjectInfo@@@std@@@std@@@2@@std@@YAPAV?$vector@URMGObjectInfo@@V?$allocator@URMGObjectInfo@@@std@@@0@PAV10@00AAU?$_Wrap_alloc@V?$allocator@V?$vector@URMGObjectInfo@@V?$allocator@URMGObjectInfo@@@std@@@std@@@std@@@0@U_General_ptr_iterator_tag@0@U_Any_tag@0@@Z$6 10049b54     RMGObjectsEditor.obj
 0002:0000bb64       __ehfuncinfo$??0_Pad@std@@QAE@XZ 10049b64     RMG_SettingsDlg.obj
 0002:0000bb88       __unwindtable$??0_Pad@std@@QAE@XZ 10049b88     RMG_SettingsDlg.obj
 0002:0000bb98       __ehfuncinfo$?BackgroundRegion@H3LoadedPcx16@h3@@QAEHHHHHH@Z 10049b98     RMG_SettingsDlg.obj
 0002:0000bbbc       __unwindtable$?BackgroundRegion@H3LoadedPcx16@h3@@QAEHHHHHH@Z 10049bbc     RMG_SettingsDlg.obj
 0002:0000bbd4       __ehfuncinfo$?FrameRegion@H3LoadedPcx16@h3@@QAEHHHHHHHH@Z 10049bd4     RMG_SettingsDlg.obj
 0002:0000bbf8       __unwindtable$?FrameRegion@H3LoadedPcx16@h3@@QAEHHHHHHHH@Z 10049bf8     RMG_SettingsDlg.obj
 0002:0000bc20       __ehfuncinfo$??0H3Dlg@h3@@QAE@HHHHHHH@Z 10049c20     RMG_SettingsDlg.obj
 0002:0000bc44       __unwindtable$??0H3Dlg@h3@@QAE@HHHHHHH@Z 10049c44     RMG_SettingsDlg.obj
 0002:0000bc50       __ehfuncinfo$??R<lambda_50df53dded5631204e54f143e779c3fc>@@QBE_NABVRMGObject@rmgdlg@@0@Z 10049c50     RMG_SettingsDlg.obj
 0002:0000bc78       __unwindtable$??R<lambda_50df53dded5631204e54f143e779c3fc>@@QBE_NABVRMGObject@rmgdlg@@0@Z 10049c78     RMG_SettingsDlg.obj
 0002:0000bd28       __ehfuncinfo$??4?$vector@U?$pair@UH3ObjectAttributes@h3@@PAUH3LoadedPcx16@2@@std@@V?$allocator@U?$pair@UH3ObjectAttributes@h3@@PAUH3LoadedPcx16@2@@std@@@2@@std@@QAEAAV01@ABV01@@Z 10049d28     RMG_SettingsDlg.obj
 0002:0000bd4c       __unwindtable$??4?$vector@U?$pair@UH3ObjectAttributes@h3@@PAUH3LoadedPcx16@2@@std@@V?$allocator@U?$pair@UH3ObjectAttributes@h3@@PAUH3LoadedPcx16@2@@std@@@2@@std@@QAEAAV01@ABV01@@Z 10049d4c     RMG_SettingsDlg.obj
 0002:0000bd5c       __tryblocktable$??4?$vector@U?$pair@UH3ObjectAttributes@h3@@PAUH3LoadedPcx16@2@@std@@V?$allocator@U?$pair@UH3ObjectAttributes@h3@@PAUH3LoadedPcx16@2@@std@@@2@@std@@QAEAAV01@ABV01@@Z 10049d5c     RMG_SettingsDlg.obj
 0002:0000bd70       __catchsym$??4?$vector@U?$pair@UH3ObjectAttributes@h3@@PAUH3LoadedPcx16@2@@std@@V?$allocator@U?$pair@UH3ObjectAttributes@h3@@PAUH3LoadedPcx16@2@@std@@@2@@std@@QAEAAV01@ABV01@@Z$141 10049d70     RMG_SettingsDlg.obj
 0002:0000bd80       __ehfuncinfo$?_Reallocate@?$vector@U?$pair@UH3ObjectAttributes@h3@@PAUH3LoadedPcx16@2@@std@@V?$allocator@U?$pair@UH3ObjectAttributes@h3@@PAUH3LoadedPcx16@2@@std@@@2@@std@@IAEXI@Z 10049d80     RMG_SettingsDlg.obj
 0002:0000bda4       __unwindtable$?_Reallocate@?$vector@U?$pair@UH3ObjectAttributes@h3@@PAUH3LoadedPcx16@2@@std@@V?$allocator@U?$pair@UH3ObjectAttributes@h3@@PAUH3LoadedPcx16@2@@std@@@2@@std@@IAEXI@Z 10049da4     RMG_SettingsDlg.obj
 0002:0000bdbc       __ehfuncinfo$??$_Launch@V?$unique_ptr@V?$tuple@P6AXXZ@std@@U?$default_delete@V?$tuple@P6AXXZ@std@@@2@@std@@@std@@YAXPAU_Thrd_imp_t@@$$QAV?$unique_ptr@V?$tuple@P6AXXZ@std@@U?$default_delete@V?$tuple@P6AXXZ@std@@@2@@0@@Z 10049dbc     RMG_SettingsDlg.obj
 0002:0000bde0       __unwindtable$??$_Launch@V?$unique_ptr@V?$tuple@P6AXXZ@std@@U?$default_delete@V?$tuple@P6AXXZ@std@@@2@@std@@@std@@YAXPAU_Thrd_imp_t@@$$QAV?$unique_ptr@V?$tuple@P6AXXZ@std@@U?$default_delete@V?$tuple@P6AXXZ@std@@@2@@0@@Z 10049de0     RMG_SettingsDlg.obj
 0002:0000bdf0       __ehfuncinfo$??$_Uninitialized_copy_al_unchecked1@PAU?$pair@UH3ObjectAttributes@h3@@PAUH3LoadedPcx16@2@@std@@PAU12@V?$allocator@U?$pair@UH3ObjectAttributes@h3@@PAUH3LoadedPcx16@2@@std@@@2@@std@@YAPAU?$pair@UH3ObjectAttributes@h3@@PAUH3LoadedPcx16@2@@0@PAU10@00AAU?$_Wrap_alloc@V?$allocator@U?$pair@UH3ObjectAttributes@h3@@PAUH3LoadedPcx16@2@@std@@@std@@@0@U_General_ptr_iterator_tag@0@U_Any_tag@0@@Z 10049df0     RMG_SettingsDlg.obj
 0002:0000be14       __unwindtable$??$_Uninitialized_copy_al_unchecked1@PAU?$pair@UH3ObjectAttributes@h3@@PAUH3LoadedPcx16@2@@std@@PAU12@V?$allocator@U?$pair@UH3ObjectAttributes@h3@@PAUH3LoadedPcx16@2@@std@@@2@@std@@YAPAU?$pair@UH3ObjectAttributes@h3@@PAUH3LoadedPcx16@2@@0@PAU10@00AAU?$_Wrap_alloc@V?$allocator@U?$pair@UH3ObjectAttributes@h3@@PAUH3LoadedPcx16@2@@std@@@std@@@0@U_General_ptr_iterator_tag@0@U_Any_tag@0@@Z 10049e14     RMG_SettingsDlg.obj
 0002:0000be2c       __tryblocktable$??$_Uninitialized_copy_al_unchecked1@PAU?$pair@UH3ObjectAttributes@h3@@PAUH3LoadedPcx16@2@@std@@PAU12@V?$allocator@U?$pair@UH3ObjectAttributes@h3@@PAUH3LoadedPcx16@2@@std@@@2@@std@@YAPAU?$pair@UH3ObjectAttributes@h3@@PAUH3LoadedPcx16@2@@0@PAU10@00AAU?$_Wrap_alloc@V?$allocator@U?$pair@UH3ObjectAttributes@h3@@PAUH3LoadedPcx16@2@@std@@@std@@@0@U_General_ptr_iterator_tag@0@U_Any_tag@0@@Z 10049e2c     RMG_SettingsDlg.obj
 0002:0000be40       __catchsym$??$_Uninitialized_copy_al_unchecked1@PAU?$pair@UH3ObjectAttributes@h3@@PAUH3LoadedPcx16@2@@std@@PAU12@V?$allocator@U?$pair@UH3ObjectAttributes@h3@@PAUH3LoadedPcx16@2@@std@@@2@@std@@YAPAU?$pair@UH3ObjectAttributes@h3@@PAUH3LoadedPcx16@2@@0@PAU10@00AAU?$_Wrap_alloc@V?$allocator@U?$pair@UH3ObjectAttributes@h3@@PAUH3LoadedPcx16@2@@std@@@std@@@0@U_General_ptr_iterator_tag@0@U_Any_tag@0@@Z$7 10049e40     RMG_SettingsDlg.obj
 0002:0000be50       __ehfuncinfo$??$_Push_heap_by_index@PAVRMGObject@rmgdlg@@HV12@V<lambda_50df53dded5631204e54f143e779c3fc>@@@std@@YAXPAVRMGObject@rmgdlg@@HH$$QAV12@AAV<lambda_50df53dded5631204e54f143e779c3fc>@@@Z 10049e50     RMG_SettingsDlg.obj
 0002:0000be78       __unwindtable$??$_Push_heap_by_index@PAVRMGObject@rmgdlg@@HV12@V<lambda_50df53dded5631204e54f143e779c3fc>@@@std@@YAXPAVRMGObject@rmgdlg@@HH$$QAV12@AAV<lambda_50df53dded5631204e54f143e779c3fc>@@@Z 10049e78     RMG_SettingsDlg.obj
 0002:0000c068       __unwindtable$?create_stl_condition_variable@details@Concurrency@@YAXPAVstl_condition_variable_interface@12@@Z 1004a068     libcpmt:cond.obj
 0002:0000c068       __unwindtable$?create_stl_critical_section@details@Concurrency@@YAXPAVstl_critical_section_interface@12@@Z 1004a068     libcpmt:mutex.obj
 0002:0000c070       __ehfuncinfo$?create_stl_condition_variable@details@Concurrency@@YAXPAVstl_condition_variable_interface@12@@Z 1004a070     libcpmt:cond.obj
 0002:0000c070       __ehfuncinfo$?create_stl_critical_section@details@Concurrency@@YAXPAVstl_critical_section_interface@12@@Z 1004a070     libcpmt:mutex.obj
 0002:0000c094       __unwindtable$?_Makestr@_System_error@std@@CA?AV?$basic_string@DU?$char_traits@D@std@@V?$allocator@D@2@@2@Verror_code@2@V32@@Z 1004a094     libcpmt:thread0.obj
 0002:0000c0a4       __ehfuncinfo$?_Makestr@_System_error@std@@CA?AV?$basic_string@DU?$char_traits@D@std@@V?$allocator@D@2@@2@Verror_code@2@V32@@Z 1004a0a4     libcpmt:thread0.obj
 0002:0000c0c8       __unwindtable$??0system_error@std@@QAE@HABVerror_category@1@PBD@Z 1004a0c8     libcpmt:thread0.obj
 0002:0000c0d0       __ehfuncinfo$??0system_error@std@@QAE@HABVerror_category@1@PBD@Z 1004a0d0     libcpmt:thread0.obj
 0002:0000c150       __sehtable$___scrt_is_nonwritable_in_current_image 1004a150     LIBCMT:utility.obj
 0002:0000c170       __sehtable$??_M@YGXPAXIIP6EX0@Z@Z 1004a170     LIBCMT:ehvecdtr.obj
 0002:0000c190       __sehtable$?__ArrayUnwind@@YGXPAXIIP6EX0@Z@Z 1004a190     LIBCMT:ehvecdtr.obj
 0002:0000c1b0       __sehtable$??_L@YGXPAXIIP6EX0@Z1@Z 1004a1b0     LIBCMT:ehvecctr.obj
 0002:0000c1d0       __sehtable$?dllmain_crt_process_attach@@YAHQAUHINSTANCE__@@QAX@Z 1004a1d0     LIBCMT:dll_dllmain.obj
 0002:0000c1f0       __sehtable$?dllmain_crt_process_detach@@YAH_N@Z 1004a1f0     LIBCMT:dll_dllmain.obj
 0002:0000c210       __sehtable$?dllmain_dispatch@@YAHQAUHINSTANCE__@@KQAX@Z 1004a210     LIBCMT:dll_dllmain.obj
 0002:0000c268       __unwindtable$?wait@event@Concurrency@@QAEII@Z 1004a268     libconcrt:event.obj
 0002:0000c270       __ehfuncinfo$?wait@event@Concurrency@@QAEII@Z 1004a270     libconcrt:event.obj
 0002:0000c294       __unwindtable$?set@event@Concurrency@@QAEXXZ 1004a294     libconcrt:event.obj
 0002:0000c2a4       __ehfuncinfo$?set@event@Concurrency@@QAEXXZ 1004a2a4     libconcrt:event.obj
 0002:0000c2c8       __unwindtable$?wait_for_multiple@event@Concurrency@@SAIPAPAV12@I_NI@Z 1004a2c8     libconcrt:event.obj
 0002:0000c2d8       __ehfuncinfo$?wait_for_multiple@event@Concurrency@@SAIPAPAV12@I_NI@Z 1004a2d8     libconcrt:event.obj
 0002:0000c2fc       __unwindtable$?wait@_Condition_variable@details@Concurrency@@QAEXAAVcritical_section@3@@Z 1004a2fc     libconcrt:event.obj
 0002:0000c304       __ehfuncinfo$?wait@_Condition_variable@details@Concurrency@@QAEXAAVcritical_section@3@@Z 1004a304     libconcrt:event.obj
 0002:0000c328       __unwindtable$?wait_for@_Condition_variable@details@Concurrency@@QAE_NAAVcritical_section@3@I@Z 1004a328     libconcrt:event.obj
 0002:0000c338       __ehfuncinfo$?wait_for@_Condition_variable@details@Concurrency@@QAE_NAAVcritical_section@3@I@Z 1004a338     libconcrt:event.obj
 0002:0000c35c       __unwindtable$?notify_one@_Condition_variable@details@Concurrency@@QAEXXZ 1004a35c     libconcrt:event.obj
 0002:0000c364       __ehfuncinfo$?notify_one@_Condition_variable@details@Concurrency@@QAEXXZ 1004a364     libconcrt:event.obj
 0002:0000c388       __unwindtable$??0MultiWaitBlockHolder@details@Concurrency@@QAE@_NI00@Z 1004a388     libconcrt:event.obj
 0002:0000c398       __ehfuncinfo$??0MultiWaitBlockHolder@details@Concurrency@@QAE@_NI00@Z 1004a398     libconcrt:event.obj
 0002:0000c3bc       __unwindtable$?try_lock_for@critical_section@Concurrency@@QAE_NI@Z 1004a3bc     libconcrt:rtlocks.obj
 0002:0000c3c4       __ehfuncinfo$?try_lock_for@critical_section@Concurrency@@QAE_NI@Z 1004a3c4     libconcrt:rtlocks.obj
 0002:0000c3e8       __unwindtable$??0scoped_lock@critical_section@Concurrency@@QAE@AAV12@@Z 1004a3e8     libconcrt:rtlocks.obj
 0002:0000c3f0       __ehfuncinfo$??0scoped_lock@critical_section@Concurrency@@QAE@AAV12@@Z 1004a3f0     libconcrt:rtlocks.obj
 0002:0000c484       __unwindtable$?Release@ResourceManager@details@Concurrency@@UAEIXZ 1004a484     libconcrt:ResourceManager.obj
 0002:0000c494       __ehfuncinfo$?Release@ResourceManager@details@Concurrency@@UAEIXZ 1004a494     libconcrt:ResourceManager.obj
 0002:0000c4b8       __unwindtable$?CreateSingleton@ResourceManager@details@Concurrency@@SAPAV123@XZ 1004a4b8     libconcrt:ResourceManager.obj
 0002:0000c4d0       __ehfuncinfo$?CreateSingleton@ResourceManager@details@Concurrency@@SAPAV123@XZ 1004a4d0     libconcrt:ResourceManager.obj
 0002:0000c4f4       __unwindtable$?DestroyVirtualProcessorRoot@SchedulerProxy@details@Concurrency@@QAEXPAVVirtualProcessorRoot@23@@Z 1004a4f4     libconcrt:SchedulerProxy.obj
 0002:0000c4f4       __unwindtable$?RemoveExecutionResource@ResourceManager@details@Concurrency@@QAEXPAVExecutionResource@23@@Z 1004a4f4     libconcrt:ResourceManager.obj
 0002:0000c504       __ehfuncinfo$?DestroyVirtualProcessorRoot@SchedulerProxy@details@Concurrency@@QAEXPAVVirtualProcessorRoot@23@@Z 1004a504     libconcrt:SchedulerProxy.obj
 0002:0000c504       __ehfuncinfo$?RemoveExecutionResource@ResourceManager@details@Concurrency@@QAEXPAVExecutionResource@23@@Z 1004a504     libconcrt:ResourceManager.obj
 0002:0000c528       __unwindtable$?Shutdown@ResourceManager@details@Concurrency@@QAEXPAVSchedulerProxy@23@@Z 1004a528     libconcrt:ResourceManager.obj
 0002:0000c530       __ehfuncinfo$?Shutdown@ResourceManager@details@Concurrency@@QAEXPAVSchedulerProxy@23@@Z 1004a530     libconcrt:ResourceManager.obj
 0002:0000c554       __unwindtable$?RequestInitialVirtualProcessors@ResourceManager@details@Concurrency@@QAEPAUIExecutionResource@3@PAVSchedulerProxy@23@_N@Z 1004a554     libconcrt:ResourceManager.obj
 0002:0000c56c       __ehfuncinfo$?RequestInitialVirtualProcessors@ResourceManager@details@Concurrency@@QAEPAUIExecutionResource@3@PAVSchedulerProxy@23@_N@Z 1004a56c     libconcrt:ResourceManager.obj
 0002:0000c590       __unwindtable$?CurrentSubscriptionLevel@ResourceManager@details@Concurrency@@QAEIII@Z 1004a590     libconcrt:ResourceManager.obj
 0002:0000c590       __unwindtable$?DestroyExecutionResource@SchedulerProxy@details@Concurrency@@QAEXPAVExecutionResource@23@@Z 1004a590     libconcrt:SchedulerProxy.obj
 0002:0000c598       __ehfuncinfo$?DestroyExecutionResource@SchedulerProxy@details@Concurrency@@QAEXPAVExecutionResource@23@@Z 1004a598     libconcrt:SchedulerProxy.obj
 0002:0000c598       __ehfuncinfo$?CurrentSubscriptionLevel@ResourceManager@details@Concurrency@@QAEIII@Z 1004a598     libconcrt:ResourceManager.obj
 0002:0000c5bc       __unwindtable$?CreateAllocatedNodeData@ResourceManager@details@Concurrency@@QAEPAUSchedulerNode@23@XZ 1004a5bc     libconcrt:ResourceManager.obj
 0002:0000c5c4       __ehfuncinfo$?CreateAllocatedNodeData@ResourceManager@details@Concurrency@@QAEPAUSchedulerNode@23@XZ 1004a5c4     libconcrt:ResourceManager.obj
 0002:0000c5e8       __unwindtable$??0ResourceManager@details@Concurrency@@AAE@XZ 1004a5e8     libconcrt:ResourceManager.obj
 0002:0000c5f8       __ehfuncinfo$??0ResourceManager@details@Concurrency@@AAE@XZ 1004a5f8     libconcrt:ResourceManager.obj
 0002:0000c61c       __unwindtable$?CaptureProcessAffinity@ResourceManager@details@Concurrency@@CAXXZ 1004a61c     libconcrt:ResourceManager.obj
 0002:0000c624       __ehfuncinfo$?CaptureProcessAffinity@ResourceManager@details@Concurrency@@CAXXZ 1004a624     libconcrt:ResourceManager.obj
 0002:0000c648       __unwindtable$?CreateSchedulerProxy@ResourceManager@details@Concurrency@@AAEPAVSchedulerProxy@23@PAUIScheduler@3@@Z 1004a648     libconcrt:ResourceManager.obj
 0002:0000c658       __ehfuncinfo$?CreateSchedulerProxy@ResourceManager@details@Concurrency@@AAEPAVSchedulerProxy@23@PAUIScheduler@3@@Z 1004a658     libconcrt:ResourceManager.obj
 0002:0000c67c       __unwindtable$?DynamicResourceManager@ResourceManager@details@Concurrency@@AAEXXZ 1004a67c     libconcrt:ResourceManager.obj
 0002:0000c68c       __ehfuncinfo$?DynamicResourceManager@ResourceManager@details@Concurrency@@AAEXXZ 1004a68c     libconcrt:ResourceManager.obj
 0002:0000c720       __unwindtable$??_GSubAllocator@details@Concurrency@@QAEPAXI@Z 1004a720     libconcrt:SchedulerBase.obj
 0002:0000c728       __ehfuncinfo$??_GSubAllocator@details@Concurrency@@QAEPAXI@Z 1004a728     libconcrt:SchedulerBase.obj
 0002:0000c74c       __ehfuncinfo$??0SchedulerBase@details@Concurrency@@QAE@ABVSchedulerPolicy@2@@Z 1004a74c     libconcrt:SchedulerBase.obj
 0002:0000c770       __unwindtable$??0SchedulerBase@details@Concurrency@@QAE@ABVSchedulerPolicy@2@@Z 1004a770     libconcrt:SchedulerBase.obj
 0002:0000c7c8       __catchsym$?GetInternalContext@SchedulerBase@details@Concurrency@@QAEPAVInternalContextBase@23@_N@Z$2 1004a7c8     libconcrt:SchedulerBase.obj
 0002:0000c7d8       __unwindtable$?GetInternalContext@SchedulerBase@details@Concurrency@@QAEPAVInternalContextBase@23@_N@Z 1004a7d8     libconcrt:SchedulerBase.obj
 0002:0000c7e8       __tryblocktable$?GetInternalContext@SchedulerBase@details@Concurrency@@QAEPAVInternalContextBase@23@_N@Z 1004a7e8     libconcrt:SchedulerBase.obj
 0002:0000c7fc       __ehfuncinfo$?GetInternalContext@SchedulerBase@details@Concurrency@@QAEPAVInternalContextBase@23@_N@Z 1004a7fc     libconcrt:SchedulerBase.obj
 0002:0000c820       __unwindtable$?GetSubAllocator@SchedulerBase@details@Concurrency@@SAPAVSubAllocator@23@_N@Z 1004a820     libconcrt:SchedulerBase.obj
 0002:0000c828       __ehfuncinfo$?GetSubAllocator@SchedulerBase@details@Concurrency@@SAPAVSubAllocator@23@_N@Z 1004a828     libconcrt:SchedulerBase.obj
 0002:0000c84c       __unwindtable$?GetBitSet@SchedulerBase@details@Concurrency@@QAE?AVQuickBitSet@23@PBVlocation@3@@Z 1004a84c     libconcrt:SchedulerBase.obj
 0002:0000c854       __ehfuncinfo$?GetBitSet@SchedulerBase@details@Concurrency@@QAE?AVQuickBitSet@23@PBVlocation@3@@Z 1004a854     libconcrt:SchedulerBase.obj
 0002:0000c878       __unwindtable$?Version@ResourceManager@details@Concurrency@@SA?AW4OSVersion@IResourceManager@3@XZ 1004a878     libconcrt:ResourceManager.obj
 0002:0000c878       __unwindtable$?GetCoreCount@ResourceManager@details@Concurrency@@SAIXZ 1004a878     libconcrt:ResourceManager.obj
 0002:0000c878       __unwindtable$?CheckStaticConstruction@SchedulerBase@details@Concurrency@@CAXXZ 1004a878     libconcrt:SchedulerBase.obj
 0002:0000c878       __unwindtable$?_RegisterConcRTEventTracing@details@Concurrency@@YAXXZ 1004a878     libconcrt:Trace.obj
 0002:0000c878       __unwindtable$?StaticDestruction@SchedulerBase@details@Concurrency@@CAXXZ 1004a878     libconcrt:SchedulerBase.obj
 0002:0000c878       __unwindtable$?GetNodeCount@ResourceManager@details@Concurrency@@SAIXZ 1004a878     libconcrt:ResourceManager.obj
 0002:0000c880       __ehfuncinfo$?GetNodeCount@ResourceManager@details@Concurrency@@SAIXZ 1004a880     libconcrt:ResourceManager.obj
 0002:0000c880       __ehfuncinfo$?StaticDestruction@SchedulerBase@details@Concurrency@@CAXXZ 1004a880     libconcrt:SchedulerBase.obj
 0002:0000c880       __ehfuncinfo$?CheckStaticConstruction@SchedulerBase@details@Concurrency@@CAXXZ 1004a880     libconcrt:SchedulerBase.obj
 0002:0000c880       __ehfuncinfo$?Version@ResourceManager@details@Concurrency@@SA?AW4OSVersion@IResourceManager@3@XZ 1004a880     libconcrt:ResourceManager.obj
 0002:0000c880       __ehfuncinfo$?_RegisterConcRTEventTracing@details@Concurrency@@YAXXZ 1004a880     libconcrt:Trace.obj
 0002:0000c880       __ehfuncinfo$?GetCoreCount@ResourceManager@details@Concurrency@@SAIXZ 1004a880     libconcrt:ResourceManager.obj
 0002:0000c8a4       __unwindtable$?Initialize@SchedulerBase@details@Concurrency@@AAEXXZ 1004a8a4     libconcrt:SchedulerBase.obj
 0002:0000c8c4       __ehfuncinfo$?Initialize@SchedulerBase@details@Concurrency@@AAEXXZ 1004a8c4     libconcrt:SchedulerBase.obj
 0002:0000c8e8       __unwindtable$?GetExternalContext@SchedulerBase@details@Concurrency@@AAEPAVExternalContextBase@23@_N@Z 1004a8e8     libconcrt:SchedulerBase.obj
 0002:0000c8f0       __ehfuncinfo$?GetExternalContext@SchedulerBase@details@Concurrency@@AAEPAVExternalContextBase@23@_N@Z 1004a8f0     libconcrt:SchedulerBase.obj
 0002:0000c914       __unwindtable$?GetDefaultScheduler@SchedulerBase@details@Concurrency@@CAPAV123@XZ 1004a914     libconcrt:SchedulerBase.obj
 0002:0000c924       __ehfuncinfo$?GetDefaultScheduler@SchedulerBase@details@Concurrency@@CAPAV123@XZ 1004a924     libconcrt:SchedulerBase.obj
 0002:0000c948       __unwindtable$?InternalCreateScheduleGroup@SchedulerBase@details@Concurrency@@AAEPAVScheduleGroup@3@PAVlocation@3@@Z 1004a948     libconcrt:SchedulerBase.obj
 0002:0000c958       __ehfuncinfo$?InternalCreateScheduleGroup@SchedulerBase@details@Concurrency@@AAEPAVScheduleGroup@3@PAVlocation@3@@Z 1004a958     libconcrt:SchedulerBase.obj
 0002:0000c97c       __unwindtable$?Dequeue@?$SafeSQueue@VRealizedChore@details@Concurrency@@V_HyperNonReentrantLock@23@@details@Concurrency@@QAEPAVRealizedChore@23@XZ 1004a97c     libconcrt:ScheduleGroupBase.obj
 0002:0000c97c       __unwindtable$?MarkDetachment@?$WorkStealingQueue@V_UnrealizedChore@details@Concurrency@@V_CriticalNonReentrantLock@23@@details@Concurrency@@QAEXXZ 1004a97c     libconcrt:ScheduleGroupBase.obj
 0002:0000c97c       __unwindtable$?Dequeue@?$SafeSQueue@VInternalContextBase@details@Concurrency@@V_HyperNonReentrantLock@23@@details@Concurrency@@QAEPAVInternalContextBase@23@XZ 1004a97c     libconcrt:SchedulerBase.obj
 0002:0000c97c       __unwindtable$?AddTail@?$SafeRWList@VWaitNode@SchedulerBase@details@Concurrency@@VNoCount@CollectionTypes@34@V_ReaderWriterLock@34@@details@Concurrency@@QAEXPAVWaitNode@SchedulerBase@23@@Z 1004a97c     libconcrt:SchedulerBase.obj
 0002:0000c97c       __unwindtable$?AddTail@?$SafeRWList@UListEntry@details@Concurrency@@VNoCount@CollectionTypes@23@V_ReaderWriterLock@23@@details@Concurrency@@QAEXPAUListEntry@23@@Z 1004a97c     libconcrt:ContextBase.obj
 0002:0000c97c       __unwindtable$?Remove@?$SafeRWList@UListEntry@details@Concurrency@@VNoCount@CollectionTypes@23@V_ReaderWriterLock@23@@details@Concurrency@@QAEXPAUListEntry@23@@Z 1004a97c     libconcrt:ContextBase.obj
 0002:0000c97c       __unwindtable$?RemoveHead@?$SafeRWList@VWaitNode@SchedulerBase@details@Concurrency@@VNoCount@CollectionTypes@34@V_ReaderWriterLock@34@@details@Concurrency@@QAEPAVWaitNode@SchedulerBase@23@XZ 1004a97c     libconcrt:SchedulerBase.obj
 0002:0000c97c       __unwindtable$?Enqueue@?$SafeSQueue@VRealizedChore@details@Concurrency@@V_HyperNonReentrantLock@23@@details@Concurrency@@QAEXPAVRealizedChore@23@@Z 1004a97c     libconcrt:ScheduleGroupBase.obj
 0002:0000c97c       __unwindtable$?Enqueue@?$SafeSQueue@VInternalContextBase@details@Concurrency@@V_HyperNonReentrantLock@23@@details@Concurrency@@QAEXPAVInternalContextBase@23@@Z 1004a97c     libconcrt:CacheLocalScheduleGroup.obj
 0002:0000c97c       __unwindtable$?AddExecutionResource@SchedulerProxy@details@Concurrency@@QAEXPAVExecutionResource@23@@Z 1004a97c     libconcrt:SchedulerProxy.obj
 0002:0000c984       __ehfuncinfo$?Enqueue@?$SafeSQueue@VInternalContextBase@details@Concurrency@@V_HyperNonReentrantLock@23@@details@Concurrency@@QAEXPAVInternalContextBase@23@@Z 1004a984     libconcrt:CacheLocalScheduleGroup.obj
 0002:0000c984       __ehfuncinfo$?AddExecutionResource@SchedulerProxy@details@Concurrency@@QAEXPAVExecutionResource@23@@Z 1004a984     libconcrt:SchedulerProxy.obj
 0002:0000c984       __ehfuncinfo$?Enqueue@?$SafeSQueue@VRealizedChore@details@Concurrency@@V_HyperNonReentrantLock@23@@details@Concurrency@@QAEXPAVRealizedChore@23@@Z 1004a984     libconcrt:ScheduleGroupBase.obj
 0002:0000c984       __ehfuncinfo$?RemoveHead@?$SafeRWList@VWaitNode@SchedulerBase@details@Concurrency@@VNoCount@CollectionTypes@34@V_ReaderWriterLock@34@@details@Concurrency@@QAEPAVWaitNode@SchedulerBase@23@XZ 1004a984     libconcrt:SchedulerBase.obj
 0002:0000c984       __ehfuncinfo$?AddTail@?$SafeRWList@VWaitNode@SchedulerBase@details@Concurrency@@VNoCount@CollectionTypes@34@V_ReaderWriterLock@34@@details@Concurrency@@QAEXPAVWaitNode@SchedulerBase@23@@Z 1004a984     libconcrt:SchedulerBase.obj
 0002:0000c984       __ehfuncinfo$?Dequeue@?$SafeSQueue@VRealizedChore@details@Concurrency@@V_HyperNonReentrantLock@23@@details@Concurrency@@QAEPAVRealizedChore@23@XZ 1004a984     libconcrt:ScheduleGroupBase.obj
 0002:0000c984       __ehfuncinfo$?AddTail@?$SafeRWList@UListEntry@details@Concurrency@@VNoCount@CollectionTypes@23@V_ReaderWriterLock@23@@details@Concurrency@@QAEXPAUListEntry@23@@Z 1004a984     libconcrt:ContextBase.obj
 0002:0000c984       __ehfuncinfo$?Remove@?$SafeRWList@UListEntry@details@Concurrency@@VNoCount@CollectionTypes@23@V_ReaderWriterLock@23@@details@Concurrency@@QAEXPAUListEntry@23@@Z 1004a984     libconcrt:ContextBase.obj
 0002:0000c984       __ehfuncinfo$?MarkDetachment@?$WorkStealingQueue@V_UnrealizedChore@details@Concurrency@@V_CriticalNonReentrantLock@23@@details@Concurrency@@QAEXXZ 1004a984     libconcrt:ScheduleGroupBase.obj
 0002:0000c984       __ehfuncinfo$?Dequeue@?$SafeSQueue@VInternalContextBase@details@Concurrency@@V_HyperNonReentrantLock@23@@details@Concurrency@@QAEPAVInternalContextBase@23@XZ 1004a984     libconcrt:SchedulerBase.obj
 0002:0000c9a8       __unwindtable$?AllocateSegment@CacheLocalScheduleGroup@details@Concurrency@@MAEPAVScheduleGroupSegmentBase@23@PAVSchedulingRing@23@PAVlocation@3@@Z 1004a9a8     libconcrt:SchedulerBase.obj
 0002:0000c9b0       __ehfuncinfo$?AllocateSegment@CacheLocalScheduleGroup@details@Concurrency@@MAEPAVScheduleGroupSegmentBase@23@PAVSchedulingRing@23@PAVlocation@3@@Z 1004a9b0     libconcrt:SchedulerBase.obj
 0002:0000c9d4       __unwindtable$?AllocateSegment@FairScheduleGroup@details@Concurrency@@MAEPAVScheduleGroupSegmentBase@23@PAVSchedulingRing@23@PAVlocation@3@@Z 1004a9d4     libconcrt:SchedulerBase.obj
 0002:0000c9dc       __ehfuncinfo$?AllocateSegment@FairScheduleGroup@details@Concurrency@@MAEPAVScheduleGroupSegmentBase@23@PAVSchedulingRing@23@PAVlocation@3@@Z 1004a9dc     libconcrt:SchedulerBase.obj
 0002:0000ca70       __unwindtable$?SyncPop@?$WorkStealingQueue@V_UnrealizedChore@details@Concurrency@@V_CriticalNonReentrantLock@23@@details@Concurrency@@AAEPAV_UnrealizedChore@23@XZ 1004aa70     libconcrt:ContextBase.obj
 0002:0000ca88       __ehfuncinfo$?SyncPop@?$WorkStealingQueue@V_UnrealizedChore@details@Concurrency@@V_CriticalNonReentrantLock@23@@details@Concurrency@@AAEPAV_UnrealizedChore@23@XZ 1004aa88     libconcrt:ContextBase.obj
 0002:0000caac       __unwindtable$??0ContextBase@details@Concurrency@@QAE@PAVSchedulerBase@12@_N@Z 1004aaac     libconcrt:ContextBase.obj
 0002:0000cac4       __ehfuncinfo$??0ContextBase@details@Concurrency@@QAE@PAVSchedulerBase@12@_N@Z 1004aac4     libconcrt:ContextBase.obj
 0002:0000cae8       __unwindtable$?CreateWorkQueue@ContextBase@details@Concurrency@@QAEXXZ 1004aae8     libconcrt:ContextBase.obj
 0002:0000caf0       __ehfuncinfo$?CreateWorkQueue@ContextBase@details@Concurrency@@QAEXXZ 1004aaf0     libconcrt:ContextBase.obj
 0002:0000cb18       __sehtable$?DetachStealers@ContextBase@details@Concurrency@@QAEXXZ 1004ab18     libconcrt:ContextBase.obj
 0002:0000cb40       __unwindtable$?CancelStealers@ContextBase@details@Concurrency@@QAEXPAV_TaskCollectionBase@23@@Z 1004ab40     libconcrt:ContextBase.obj
 0002:0000cb50       __ehfuncinfo$?CancelStealers@ContextBase@details@Concurrency@@QAEXPAV_TaskCollectionBase@23@@Z 1004ab50     libconcrt:ContextBase.obj
 0002:0000cb74       __unwindtable$??0_TaskCollection@details@Concurrency@@AAE@PAV012@_N@Z 1004ab74     libconcrt:TaskCollection.obj
 0002:0000cb7c       __ehfuncinfo$??0_TaskCollection@details@Concurrency@@AAE@PAV012@_N@Z 1004ab7c     libconcrt:TaskCollection.obj
 0002:0000cba0       __unwindtable$?_Alias@_TaskCollection@details@Concurrency@@AAEPAV123@XZ 1004aba0     libconcrt:TaskCollection.obj
 0002:0000cba8       __ehfuncinfo$?_Alias@_TaskCollection@details@Concurrency@@AAEPAV123@XZ 1004aba8     libconcrt:TaskCollection.obj
 0002:0000cbcc       __unwindtable$?_FullAliasWait@_TaskCollection@details@Concurrency@@AAEXPAV123@@Z 1004abcc     libconcrt:TaskCollection.obj
 0002:0000cbd4       __ehfuncinfo$?_FullAliasWait@_TaskCollection@details@Concurrency@@AAEXPAV123@@Z 1004abd4     libconcrt:TaskCollection.obj
 0002:0000cbf8       __unwindtable$?_CancelStolenContexts@_TaskCollection@details@Concurrency@@AAEX_N0@Z 1004abf8     libconcrt:TaskCollection.obj
 0002:0000cc08       __ehfuncinfo$?_CancelStolenContexts@_TaskCollection@details@Concurrency@@AAEX_N0@Z 1004ac08     libconcrt:TaskCollection.obj
 0002:0000cc2c       __unwindtable$?_Initialize@_TaskCollection@details@Concurrency@@AAEXXZ 1004ac2c     libconcrt:TaskCollection.obj
 0002:0000cc34       __ehfuncinfo$?_Initialize@_TaskCollection@details@Concurrency@@AAEXXZ 1004ac34     libconcrt:TaskCollection.obj
 0002:0000cc58       __unwindtable$?_Invoke@_CancellationTokenRegistration@details@Concurrency@@AAEXXZ 1004ac58     libconcrt:TaskCollection.obj
 0002:0000cc68       __ehfuncinfo$?_Invoke@_CancellationTokenRegistration@details@Concurrency@@AAEXXZ 1004ac68     libconcrt:TaskCollection.obj
 0002:0000cc8c       __unwindtable$?_RegisterCallback@_CancellationTokenState@details@Concurrency@@QAEXPAV_CancellationTokenRegistration@23@@Z 1004ac8c     libconcrt:TaskCollection.obj
 0002:0000cc9c       __ehfuncinfo$?_RegisterCallback@_CancellationTokenState@details@Concurrency@@QAEXPAV_CancellationTokenRegistration@23@@Z 1004ac9c     libconcrt:TaskCollection.obj
 0002:0000ccc0       __unwindtable$?_DeregisterCallback@_CancellationTokenState@details@Concurrency@@QAEXPAV_CancellationTokenRegistration@23@@Z 1004acc0     libconcrt:TaskCollection.obj
 0002:0000cce0       __ehfuncinfo$?_DeregisterCallback@_CancellationTokenState@details@Concurrency@@QAEXPAV_CancellationTokenRegistration@23@@Z 1004ace0     libconcrt:TaskCollection.obj
 0002:0000cd74       __catchsym$?_Initialize@SchedulerPolicy@Concurrency@@AAEXIPAPAD@Z$2 1004ad74     libconcrt:SchedulerPolicyBase.obj
 0002:0000cd84       __unwindtable$?_Initialize@SchedulerPolicy@Concurrency@@AAEXIPAPAD@Z 1004ad84     libconcrt:SchedulerPolicyBase.obj
 0002:0000cd94       __tryblocktable$?_Initialize@SchedulerPolicy@Concurrency@@AAEXIPAPAD@Z 1004ad94     libconcrt:SchedulerPolicyBase.obj
 0002:0000cda8       __ehfuncinfo$?_Initialize@SchedulerPolicy@Concurrency@@AAEXIPAPAD@Z 1004ada8     libconcrt:SchedulerPolicyBase.obj
 0002:0000ce74       __unwindtable$??0SchedulerProxy@details@Concurrency@@QAE@PAUIScheduler@2@PAVResourceManager@12@ABVSchedulerPolicy@2@@Z 1004ae74     libconcrt:SchedulerProxy.obj
 0002:0000ce84       __ehfuncinfo$??0SchedulerProxy@details@Concurrency@@QAE@PAUIScheduler@2@PAVResourceManager@12@ABVSchedulerPolicy@2@@Z 1004ae84     libconcrt:SchedulerProxy.obj
 0002:0000cea8       __unwindtable$?CreateOversubscriber@SchedulerProxy@details@Concurrency@@UAEPAUIVirtualProcessorRoot@3@PAUIExecutionResource@3@@Z 1004aea8     libconcrt:SchedulerProxy.obj
 0002:0000ceb8       __ehfuncinfo$?CreateOversubscriber@SchedulerProxy@details@Concurrency@@UAEPAUIVirtualProcessorRoot@3@PAUIExecutionResource@3@@Z 1004aeb8     libconcrt:SchedulerProxy.obj
 0002:0000cedc       __unwindtable$?CreateVirtualProcessorRoot@SchedulerProxy@details@Concurrency@@UAEPAVVirtualProcessorRoot@23@PAUSchedulerNode@23@I@Z 1004aedc     libconcrt:SchedulerProxy.obj
 0002:0000cee4       __ehfuncinfo$?CreateVirtualProcessorRoot@SchedulerProxy@details@Concurrency@@UAEPAVVirtualProcessorRoot@23@PAUSchedulerNode@23@I@Z 1004aee4     libconcrt:SchedulerProxy.obj
 0002:0000cf08       __unwindtable$?AddVirtualProcessorRoots@SchedulerProxy@details@Concurrency@@QAEXPAPAUIVirtualProcessorRoot@3@I@Z 1004af08     libconcrt:SchedulerProxy.obj
 0002:0000cf18       __ehfuncinfo$?AddVirtualProcessorRoots@SchedulerProxy@details@Concurrency@@QAEXPAPAUIVirtualProcessorRoot@3@I@Z 1004af18     libconcrt:SchedulerProxy.obj
 0002:0000cf3c       __unwindtable$?RemoveCore@SchedulerProxy@details@Concurrency@@QAEXPAUSchedulerNode@23@I@Z 1004af3c     libconcrt:SchedulerProxy.obj
 0002:0000cf4c       __ehfuncinfo$?RemoveCore@SchedulerProxy@details@Concurrency@@QAEXPAUSchedulerNode@23@I@Z 1004af4c     libconcrt:SchedulerProxy.obj
 0002:0000cf70       __unwindtable$?SendCoreNotification@SchedulerProxy@details@Concurrency@@QAEXPAUSchedulerCore@23@_N@Z 1004af70     libconcrt:SchedulerProxy.obj
 0002:0000cf80       __ehfuncinfo$?SendCoreNotification@SchedulerProxy@details@Concurrency@@QAEXPAUSchedulerCore@23@_N@Z 1004af80     libconcrt:SchedulerProxy.obj
 0002:0000cfa4       __unwindtable$?CreateExternalThreadResource@SchedulerProxy@details@Concurrency@@QAEPAVExecutionResource@23@PAUSchedulerNode@23@I@Z 1004afa4     libconcrt:SchedulerProxy.obj
 0002:0000cfa4       __unwindtable$?GetResourceForNewSubscription@SchedulerProxy@details@Concurrency@@QAEPAVExecutionResource@23@PAV423@@Z 1004afa4     libconcrt:SchedulerProxy.obj
 0002:0000cfac       __ehfuncinfo$?CreateExternalThreadResource@SchedulerProxy@details@Concurrency@@QAEPAVExecutionResource@23@PAUSchedulerNode@23@I@Z 1004afac     libconcrt:SchedulerProxy.obj
 0002:0000cfac       __ehfuncinfo$?GetResourceForNewSubscription@SchedulerProxy@details@Concurrency@@QAEPAVExecutionResource@23@PAV423@@Z 1004afac     libconcrt:SchedulerProxy.obj
 0002:0000cfd0       __unwindtable$?Create@FreeThreadProxyFactory@details@Concurrency@@EAEPAVFreeThreadProxy@23@I@Z 1004afd0     libconcrt:ThreadProxyFactoryManager.obj
 0002:0000cfd8       __ehfuncinfo$?Create@FreeThreadProxyFactory@details@Concurrency@@EAEPAVFreeThreadProxy@23@I@Z 1004afd8     libconcrt:ThreadProxyFactoryManager.obj
 0002:0000cffc       __unwindtable$??0ThreadProxyFactoryManager@details@Concurrency@@QAE@XZ 1004affc     libconcrt:ThreadProxyFactoryManager.obj
 0002:0000d004       __ehfuncinfo$??0ThreadProxyFactoryManager@details@Concurrency@@QAE@XZ 1004b004     libconcrt:ThreadProxyFactoryManager.obj
 0002:0000d028       __unwindtable$?SubscribeCurrentThread@ResourceManager@details@Concurrency@@QAEPAVExecutionResource@23@PAVSchedulerProxy@23@@Z 1004b028     libconcrt:ResourceManager.obj
 0002:0000d028       __unwindtable$?GetFreeThreadProxyFactory@ThreadProxyFactoryManager@details@Concurrency@@QAEPAVFreeThreadProxyFactory@23@XZ 1004b028     libconcrt:ThreadProxyFactoryManager.obj
 0002:0000d038       __ehfuncinfo$?GetFreeThreadProxyFactory@ThreadProxyFactoryManager@details@Concurrency@@QAEPAVFreeThreadProxyFactory@23@XZ 1004b038     libconcrt:ThreadProxyFactoryManager.obj
 0002:0000d038       __ehfuncinfo$?SubscribeCurrentThread@ResourceManager@details@Concurrency@@QAEPAVExecutionResource@23@PAVSchedulerProxy@23@@Z 1004b038     libconcrt:ResourceManager.obj
 0002:0000d05c       __unwindtable$?Steal@WorkQueue@details@Concurrency@@QAEPAV_UnrealizedChore@23@_N@Z 1004b05c     libconcrt:WorkQueue.obj
 0002:0000d05c       __unwindtable$?Steal@?$StructuredWorkStealingQueue@VInternalContextBase@details@Concurrency@@V_HyperNonReentrantLock@23@@details@Concurrency@@QAEPAVInternalContextBase@23@_N@Z 1004b05c     libconcrt:SchedulingNode.obj
 0002:0000d06c       __ehfuncinfo$?Steal@WorkQueue@details@Concurrency@@QAEPAV_UnrealizedChore@23@_N@Z 1004b06c     libconcrt:WorkQueue.obj
 0002:0000d06c       __ehfuncinfo$?Steal@?$StructuredWorkStealingQueue@VInternalContextBase@details@Concurrency@@V_HyperNonReentrantLock@23@@details@Concurrency@@QAEPAVInternalContextBase@23@_N@Z 1004b06c     libconcrt:SchedulingNode.obj
 0002:0000d090       __unwindtable$??0SchedulingNode@details@Concurrency@@QAE@ABVQuickBitSet@12@KPAVSchedulingRing@12@@Z 1004b090     libconcrt:SchedulingNode.obj
 0002:0000d0a0       __ehfuncinfo$??0SchedulingNode@details@Concurrency@@QAE@ABVQuickBitSet@12@KPAVSchedulingRing@12@@Z 1004b0a0     libconcrt:SchedulingNode.obj
 0002:0000d0c4       __unwindtable$?GrowAndPush@?$StructuredWorkStealingQueue@VInternalContextBase@details@Concurrency@@V_HyperNonReentrantLock@23@@details@Concurrency@@AAEXPAVInternalContextBase@23@VSlot@?$Mailbox@VInternalContextBase@details@Concurrency@@@23@@Z 1004b0c4     libconcrt:InternalContextBase.obj
 0002:0000d0d4       __ehfuncinfo$?GrowAndPush@?$StructuredWorkStealingQueue@VInternalContextBase@details@Concurrency@@V_HyperNonReentrantLock@23@@details@Concurrency@@AAEXPAVInternalContextBase@23@VSlot@?$Mailbox@VInternalContextBase@details@Concurrency@@@23@@Z 1004b0d4     libconcrt:InternalContextBase.obj
 0002:0000d0f8       __unwindtable$?Dispatch@InternalContextBase@details@Concurrency@@UAEXPAUDispatchState@3@@Z 1004b0f8     libconcrt:InternalContextBase.obj
 0002:0000d100       __ehfuncinfo$?Dispatch@InternalContextBase@details@Concurrency@@UAEXPAUDispatchState@3@@Z 1004b100     libconcrt:InternalContextBase.obj
 0002:0000d124       __unwindtable$?Alloc@InternalContextBase@details@Concurrency@@UAEPAXI@Z 1004b124     libconcrt:InternalContextBase.obj
 0002:0000d134       __ehfuncinfo$?Alloc@InternalContextBase@details@Concurrency@@UAEPAXI@Z 1004b134     libconcrt:InternalContextBase.obj
 0002:0000d238       __unwindtable$??0SchedulingRing@details@Concurrency@@QAE@PAVSchedulerBase@12@H@Z 1004b238     libconcrt:SchedulingRing.obj
 0002:0000d248       __ehfuncinfo$??0SchedulingRing@details@Concurrency@@QAE@PAVSchedulerBase@12@H@Z 1004b248     libconcrt:SchedulingRing.obj
 0002:0000d26c       __unwindtable$??0?$Mailbox@V_UnrealizedChore@details@Concurrency@@@details@Concurrency@@QAE@PAVSchedulerBase@12@ABVQuickBitSet@12@_NI@Z 1004b26c     libconcrt:ScheduleGroupBase.obj
 0002:0000d27c       __ehfuncinfo$??0?$Mailbox@V_UnrealizedChore@details@Concurrency@@@details@Concurrency@@QAE@PAVSchedulerBase@12@ABVQuickBitSet@12@_NI@Z 1004b27c     libconcrt:ScheduleGroupBase.obj
 0002:0000d2a0       __unwindtable$?Grow@?$Mailbox@V_UnrealizedChore@details@Concurrency@@@details@Concurrency@@AAEPAUSegment@123@PAU4123@@Z 1004b2a0     libconcrt:ScheduleGroupBase.obj
 0002:0000d2a8       __ehfuncinfo$?Grow@?$Mailbox@V_UnrealizedChore@details@Concurrency@@@details@Concurrency@@AAEPAUSegment@123@PAU4123@@Z 1004b2a8     libconcrt:ScheduleGroupBase.obj
 0002:0000d2cc       __unwindtable$?DemandInitialize@?$Mailbox@V_UnrealizedChore@details@Concurrency@@@details@Concurrency@@AAEXXZ 1004b2cc     libconcrt:ScheduleGroupBase.obj
 0002:0000d2d4       __ehfuncinfo$?DemandInitialize@?$Mailbox@V_UnrealizedChore@details@Concurrency@@@details@Concurrency@@AAEXXZ 1004b2d4     libconcrt:ScheduleGroupBase.obj
 0002:0000d2f8       __ehfuncinfo$??0ScheduleGroupSegmentBase@details@Concurrency@@IAE@PAVScheduleGroupBase@12@PAVSchedulingRing@12@PAVlocation@2@@Z 1004b2f8     libconcrt:ScheduleGroupBase.obj
 0002:0000d31c       __unwindtable$??0ScheduleGroupSegmentBase@details@Concurrency@@IAE@PAVScheduleGroupBase@12@PAVSchedulingRing@12@PAVlocation@2@@Z 1004b31c     libconcrt:ScheduleGroupBase.obj
 0002:0000d34c       __unwindtable$??0ScheduleGroupBase@details@Concurrency@@QAE@PAVSchedulerBase@12@PAVlocation@2@@Z 1004b34c     libconcrt:ScheduleGroupBase.obj
 0002:0000d354       __ehfuncinfo$??0ScheduleGroupBase@details@Concurrency@@QAE@PAVSchedulerBase@12@PAVlocation@2@@Z 1004b354     libconcrt:ScheduleGroupBase.obj
 0002:0000d378       __unwindtable$??0Segment@?$Mailbox@V_UnrealizedChore@details@Concurrency@@@details@Concurrency@@QAE@PAVSchedulerBase@23@ABVQuickBitSet@23@II@Z 1004b378     libconcrt:ScheduleGroupBase.obj
 0002:0000d380       __ehfuncinfo$??0Segment@?$Mailbox@V_UnrealizedChore@details@Concurrency@@@details@Concurrency@@QAE@PAVSchedulerBase@23@ABVQuickBitSet@23@II@Z 1004b380     libconcrt:ScheduleGroupBase.obj
 0002:0000d3a4       __unwindtable$??0ExternalContextBase@details@Concurrency@@QAE@PAVSchedulerBase@12@_N@Z 1004b3a4     libconcrt:ExternalContextBase.obj
 0002:0000d3ac       __ehfuncinfo$??0ExternalContextBase@details@Concurrency@@QAE@PAVSchedulerBase@12@_N@Z 1004b3ac     libconcrt:ExternalContextBase.obj
 0002:0000d3d0       __unwindtable$?Create@ThreadScheduler@details@Concurrency@@SAPAV123@ABVSchedulerPolicy@3@@Z 1004b3d0     libconcrt:ThreadScheduler.obj
 0002:0000d3d8       __ehfuncinfo$?Create@ThreadScheduler@details@Concurrency@@SAPAV123@ABVSchedulerPolicy@3@@Z 1004b3d8     libconcrt:ThreadScheduler.obj
 0002:0000d3fc       __unwindtable$?CreateVirtualProcessor@ThreadScheduler@details@Concurrency@@UAEPAVVirtualProcessor@23@PAVSchedulingNode@23@PAUIVirtualProcessorRoot@3@@Z 1004b3fc     libconcrt:ThreadScheduler.obj
 0002:0000d404       __ehfuncinfo$?CreateVirtualProcessor@ThreadScheduler@details@Concurrency@@UAEPAVVirtualProcessor@23@PAVSchedulingNode@23@PAUIVirtualProcessorRoot@3@@Z 1004b404     libconcrt:ThreadScheduler.obj
 0002:0000d428       __unwindtable$?CreateInternalContext@ThreadScheduler@details@Concurrency@@MAEPAVInternalContextBase@23@XZ 1004b428     libconcrt:ThreadScheduler.obj
 0002:0000d430       __ehfuncinfo$?CreateInternalContext@ThreadScheduler@details@Concurrency@@MAEPAVInternalContextBase@23@XZ 1004b430     libconcrt:ThreadScheduler.obj
 0002:0000d454       __unwindtable$?rethrow_exception@std@@YAXVexception_ptr@1@@Z 1004b454     libconcrt:TaskCollectionBase.obj
 0002:0000d45c       __ehfuncinfo$?rethrow_exception@std@@YAXVexception_ptr@1@@Z 1004b45c     libconcrt:TaskCollectionBase.obj
 0002:0000d480       __unwindtable$?_RethrowException@_TaskCollectionBase@details@Concurrency@@IAEXXZ 1004b480     libconcrt:TaskCollectionBase.obj
 0002:0000d488       __ehfuncinfo$?_RethrowException@_TaskCollectionBase@details@Concurrency@@IAEXXZ 1004b488     libconcrt:TaskCollectionBase.obj
 0002:0000d4ac       __unwindtable$??0WorkQueue@details@Concurrency@@QAE@XZ 1004b4ac     libconcrt:WorkQueue.obj
 0002:0000d4bc       __ehfuncinfo$??0WorkQueue@details@Concurrency@@QAE@XZ 1004b4bc     libconcrt:WorkQueue.obj
 0002:0000d4e0       __sehtable$?TryToSteal@WorkQueue@details@Concurrency@@QAEPAV_UnrealizedChore@23@_NAA_N@Z 1004b4e0     libconcrt:WorkQueue.obj
 0002:0000d4fc       __unwindtable$?Sweep@?$WorkStealingQueue@V_UnrealizedChore@details@Concurrency@@V_CriticalNonReentrantLock@23@@details@Concurrency@@QAEXP6A_NPAV_UnrealizedChore@23@PAX@Z12@Z 1004b4fc     libconcrt:WorkQueue.obj
 0002:0000d50c       __ehfuncinfo$?Sweep@?$WorkStealingQueue@V_UnrealizedChore@details@Concurrency@@V_CriticalNonReentrantLock@23@@details@Concurrency@@QAEXP6A_NPAV_UnrealizedChore@23@PAX@Z12@Z 1004b50c     libconcrt:WorkQueue.obj
 0002:0000d530       __unwindtable$?_StructuredChoreWrapper@_UnrealizedChore@details@Concurrency@@CAXPAV123@@Z 1004b530     libconcrt:Chores.obj
 0002:0000d540       __tryblocktable$?_StructuredChoreWrapper@_UnrealizedChore@details@Concurrency@@CAXPAV123@@Z 1004b540     libconcrt:Chores.obj
 0002:0000d554       __catchsym$?_StructuredChoreWrapper@_UnrealizedChore@details@Concurrency@@CAXPAV123@@Z$3 1004b554     libconcrt:Chores.obj
 0002:0000d574       __ehfuncinfo$?_StructuredChoreWrapper@_UnrealizedChore@details@Concurrency@@CAXPAV123@@Z 1004b574     libconcrt:Chores.obj
 0002:0000d5d4       __unwindtable$??0ThreadVirtualProcessor@details@Concurrency@@QAE@PAVSchedulingNode@12@PAUIVirtualProcessorRoot@2@@Z 1004b5d4     libconcrt:ThreadVirtualProcessor.obj
 0002:0000d5dc       __ehfuncinfo$??0ThreadVirtualProcessor@details@Concurrency@@QAE@PAVSchedulingNode@12@PAUIVirtualProcessorRoot@2@@Z 1004b5dc     libconcrt:ThreadVirtualProcessor.obj
 0002:0000d600       __sehtable$___FrameUnwindToState 1004b600     libvcruntime:frame.obj
 0002:0000d628       __sehtable$?CallCatchBlock@@YAPAXPAUEHExceptionRecord@@PAUEHRegistrationNode@@PAU_CONTEXT@@PBU_s_FuncInfo@@PAXHK@Z 1004b628     libvcruntime:frame.obj
 0002:0000d650       __sehtable$___BuildCatchObject 1004b650     libvcruntime:frame.obj
 0002:0000d670       __sehtable$___DestructExceptionObject 1004b670     libvcruntime:frame.obj
 0002:0000d68c       __catchsym$?CallUnexpected@@YAXPBU_s_ESTypeList@@@Z$2 1004b68c     libvcruntime:frame.obj
 0002:0000d69c       __unwindtable$?CallUnexpected@@YAXPBU_s_ESTypeList@@@Z 1004b69c     libvcruntime:frame.obj
 0002:0000d6ac       __tryblocktable$?CallUnexpected@@YAXPBU_s_ESTypeList@@@Z 1004b6ac     libvcruntime:frame.obj
 0002:0000d6c0       __ehfuncinfo$?CallUnexpected@@YAXPBU_s_ESTypeList@@@Z 1004b6c0     libvcruntime:frame.obj
 0002:0000d6e8       __sehtable$___BuildCatchObjectHelper 1004b6e8     libvcruntime:frame.obj
 0002:0000d740       __sehtable$___RTDynamicCast 1004b740     libvcruntime:rtti.obj
 0002:0000d7f0       __sehtable$_terminate      1004b7f0     libucrt:terminate.obj
 0002:0000d810       __sehtable$??$thread_start@P6GIPAX@Z@@YGKQAX@Z 1004b810     libucrt:thread.obj
 0002:0000d830       __sehtable$__query_new_handler 1004b830     libucrt:new_handler.obj
 0002:0000d850       __sehtable$?common_exit@@YAXHW4_crt_exit_cleanup_mode@@W4_crt_exit_return_mode@@@Z 1004b850     libucrt:exit.obj
 0002:0000d878       __sehtable$??$?RV<lambda_800076c951b434888f4765a74a194fcc>@@AAV<lambda_4e60a939b0d047cfe11ddc22648dfba9>@@V<lambda_6dbb1268764f43b569ce7b67e331d33a>@@@?$__crt_seh_guarded_call@H@@QAEH$$QAV<lambda_800076c951b434888f4765a74a194fcc>@@AAV<lambda_4e60a939b0d047cfe11ddc22648dfba9>@@$$QAV<lambda_6dbb1268764f43b569ce7b67e331d33a>@@@Z 1004b878     libucrt:onexit.obj
 0002:0000d898       __sehtable$??$?RV<lambda_995298e7d72eb4c2aab26c0585b3abe5>@@AAV<lambda_275893d493268fdec8709772e3fcec0e>@@V<lambda_293819299cbf9a7022e18b56a874bb5c>@@@?$__crt_seh_guarded_call@H@@QAEH$$QAV<lambda_995298e7d72eb4c2aab26c0585b3abe5>@@AAV<lambda_275893d493268fdec8709772e3fcec0e>@@$$QAV<lambda_293819299cbf9a7022e18b56a874bb5c>@@@Z 1004b898     libucrt:onexit.obj
 0002:0000d8b8       __sehtable$_common_flush_all 1004b8b8     libucrt:fflush.obj
 0002:0000d8e0       __sehtable$??$?RV<lambda_9df27f884b057bc3edfc946cb5b7cf47>@@AAV<lambda_e69574bed617af4e071282c136b37893>@@V<lambda_cc0d902bcbbeb830f749456577db4721>@@@?$__crt_seh_guarded_call@X@@QAEX$$QAV<lambda_9df27f884b057bc3edfc946cb5b7cf47>@@AAV<lambda_e69574bed617af4e071282c136b37893>@@$$QAV<lambda_cc0d902bcbbeb830f749456577db4721>@@@Z 1004b8e0     libucrt:per_thread_data.obj
 0002:0000d900       __sehtable$??$?RV<lambda_3518db117f0e7cdb002338c5d3c47b6c>@@AAV<lambda_b2ea41f6bbb362cd97d94c6828d90b61>@@V<lambda_abdedf541bb04549bc734292b4a045d4>@@@?$__crt_seh_guarded_call@X@@QAEX$$QAV<lambda_3518db117f0e7cdb002338c5d3c47b6c>@@AAV<lambda_b2ea41f6bbb362cd97d94c6828d90b61>@@$$QAV<lambda_abdedf541bb04549bc734292b4a045d4>@@@Z 1004b900     libucrt:per_thread_data.obj
 0002:0000d920       __sehtable$??$?RV<lambda_51b6e8b1eb166f2a3faf91f424b38130>@@AAV<lambda_6250bd4b2a391816dd638c3bf72b0bcb>@@V<lambda_0b5a4a3e68152e1d9b943535f5f47bed>@@@?$__crt_seh_guarded_call@X@@QAEX$$QAV<lambda_51b6e8b1eb166f2a3faf91f424b38130>@@AAV<lambda_6250bd4b2a391816dd638c3bf72b0bcb>@@$$QAV<lambda_0b5a4a3e68152e1d9b943535f5f47bed>@@@Z 1004b920     libucrt:per_thread_data.obj
 0002:0000d940       __sehtable$??$?RV<lambda_5b71d36f03204c0beab531769a5b5694>@@AAV<lambda_be2b3da3f62db62e9dad5dc70221a656>@@V<lambda_8f9ce462984622f9bf76b59e2aaaf805>@@@?$__crt_seh_guarded_call@X@@QAEX$$QAV<lambda_5b71d36f03204c0beab531769a5b5694>@@AAV<lambda_be2b3da3f62db62e9dad5dc70221a656>@@$$QAV<lambda_8f9ce462984622f9bf76b59e2aaaf805>@@@Z 1004b940     libucrt:per_thread_data.obj
 0002:0000d960       __sehtable$___acrt_uninitialize_locale 1004b960     libucrt:wsetlocale.obj
 0002:0000d980       __sehtable$___acrt_initialize_lowio 1004b980     libucrt:ioinit.obj
 0002:0000d9a0       __sehtable$_raise          1004b9a0     libucrt:signal.obj
 0002:0000d9c0       __sehtable$??$?RV<lambda_a048d3beccc847880fc8490e18b82769>@@AAV<lambda_ec61778202f4f5fc7e7711acc23c3bca>@@V<lambda_f7496a158712204296dd6628a163878e>@@@?$__crt_seh_guarded_call@P6AXH@Z@@QAEP6AXH@Z$$QAV<lambda_a048d3beccc847880fc8490e18b82769>@@AAV<lambda_ec61778202f4f5fc7e7711acc23c3bca>@@$$QAV<lambda_f7496a158712204296dd6628a163878e>@@@Z 1004b9c0     libucrt:signal.obj
 0002:0000d9e0       __sehtable$__fcloseall     1004b9e0     libucrt:closeall.obj
 0002:0000da00       __sehtable$___acrt_update_thread_multibyte_data 1004ba00     libucrt:mbctype.obj
 0002:0000da20       __sehtable$??$?RV<lambda_978dc153c237d78434369da87b74ff60>@@AAV<lambda_ad1ced32f4ac17aa236e5ef05d6b3b7c>@@V<lambda_4a8533e2866a575feecb8298ce776b0d>@@@?$__crt_seh_guarded_call@X@@QAEX$$QAV<lambda_978dc153c237d78434369da87b74ff60>@@AAV<lambda_ad1ced32f4ac17aa236e5ef05d6b3b7c>@@$$QAV<lambda_4a8533e2866a575feecb8298ce776b0d>@@@Z 1004ba20     libucrt:mbctype.obj
 0002:0000da40       __sehtable$??$?RV<lambda_61cee617f5178ae960314fd4d05640a0>@@AAV<lambda_6978c1fb23f02e42e1d9e99668cc68aa>@@V<lambda_9cd88cf8ad10232537feb2133f08c833>@@@?$__crt_seh_guarded_call@H@@QAEH$$QAV<lambda_61cee617f5178ae960314fd4d05640a0>@@AAV<lambda_6978c1fb23f02e42e1d9e99668cc68aa>@@$$QAV<lambda_9cd88cf8ad10232537feb2133f08c833>@@@Z 1004ba40     libucrt:commit.obj
 0002:0000da60       __sehtable$__write         1004ba60     libucrt:write.obj
 0002:0000da80       __sehtable$___acrt_update_thread_locale_data 1004ba80     libucrt:locale_refcounting.obj
 0002:0000daa0       __sehtable$___acrt_lowio_ensure_fh_exists 1004baa0     libucrt:osfinfo.obj
 0002:0000dac0       __sehtable$_fclose         1004bac0     libucrt:fclose.obj
 0002:0000dae0       __sehtable$??$?RV<lambda_123407a5e2ac06da108355a851863b7a>@@AAV<lambda_2fe9b910cf3cbf4a0ab98a02ba45b3ec>@@V<lambda_ae55bdf541ad94d75914d381c370e64d>@@@?$__crt_seh_guarded_call@H@@QAEH$$QAV<lambda_123407a5e2ac06da108355a851863b7a>@@AAV<lambda_2fe9b910cf3cbf4a0ab98a02ba45b3ec>@@$$QAV<lambda_ae55bdf541ad94d75914d381c370e64d>@@@Z 1004bae0     libucrt:close.obj
 0002:0000dafc       __unwindtable$?_CurrentException@__ExceptionPtr@@SA?AV?$shared_ptr@V__ExceptionPtr@@@std@@XZ 1004bafc     libcpmt:excptptr.obj
 0002:0000db0c       __tryblocktable$?_CurrentException@__ExceptionPtr@@SA?AV?$shared_ptr@V__ExceptionPtr@@@std@@XZ 1004bb0c     libcpmt:excptptr.obj
 0002:0000db20       __catchsym$?_CurrentException@__ExceptionPtr@@SA?AV?$shared_ptr@V__ExceptionPtr@@@std@@XZ$8 1004bb20     libcpmt:excptptr.obj
 0002:0000db40       __ehfuncinfo$?_CurrentException@__ExceptionPtr@@SA?AV?$shared_ptr@V__ExceptionPtr@@@std@@XZ 1004bb40     libcpmt:excptptr.obj
 0002:0000db64       __unwindtable$?_CopyException@__ExceptionPtr@@SA?AV?$shared_ptr@V__ExceptionPtr@@@std@@PBXPBU_s_ThrowInfo@@_N@Z 1004bb64     libcpmt:excptptr.obj
 0002:0000db74       __tryblocktable$?_CopyException@__ExceptionPtr@@SA?AV?$shared_ptr@V__ExceptionPtr@@@std@@PBXPBU_s_ThrowInfo@@_N@Z 1004bb74     libcpmt:excptptr.obj
 0002:0000db88       __catchsym$?_CopyException@__ExceptionPtr@@SA?AV?$shared_ptr@V__ExceptionPtr@@@std@@PBXPBU_s_ThrowInfo@@_N@Z$6 1004bb88     libcpmt:excptptr.obj
 0002:0000dba8       __ehfuncinfo$?_CopyException@__ExceptionPtr@@SA?AV?$shared_ptr@V__ExceptionPtr@@@std@@PBXPBU_s_ThrowInfo@@_N@Z 1004bba8     libcpmt:excptptr.obj
 0002:0000dbcc       __unwindtable$?_InitBadAllocException@__ExceptionPtr@@CA?AV?$shared_ptr@V__ExceptionPtr@@@std@@XZ 1004bbcc     libcpmt:excptptr.obj
 0002:0000dbd4       __ehfuncinfo$?_InitBadAllocException@__ExceptionPtr@@CA?AV?$shared_ptr@V__ExceptionPtr@@@std@@XZ 1004bbd4     libcpmt:excptptr.obj
 0002:0000dbf8       __catchsym$?_CallCopyCtor@__ExceptionPtr@@ABEXPAX0IQBU_s_CatchableType@@@Z$2 1004bbf8     libcpmt:excptptr.obj
 0002:0000dc08       __unwindtable$?_CallCopyCtor@__ExceptionPtr@@ABEXPAX0IQBU_s_CatchableType@@@Z 1004bc08     libcpmt:excptptr.obj
 0002:0000dc18       __tryblocktable$?_CallCopyCtor@__ExceptionPtr@@ABEXPAX0IQBU_s_CatchableType@@@Z 1004bc18     libcpmt:excptptr.obj
 0002:0000dc2c       __ehfuncinfo$?_CallCopyCtor@__ExceptionPtr@@ABEXPAX0IQBU_s_CatchableType@@@Z 1004bc2c     libcpmt:excptptr.obj
 0002:0000dc50       __unwindtable$??$make_shared@V__ExceptionPtr@@AAPAUEHExceptionRecord@@_N@std@@YA?AV?$shared_ptr@V__ExceptionPtr@@@0@AAPAUEHExceptionRecord@@$$QA_N@Z 1004bc50     libcpmt:excptptr.obj
 0002:0000dc58       __ehfuncinfo$??$make_shared@V__ExceptionPtr@@AAPAUEHExceptionRecord@@_N@std@@YA?AV?$shared_ptr@V__ExceptionPtr@@@0@AAPAUEHExceptionRecord@@$$QA_N@Z 1004bc58     libcpmt:excptptr.obj
 0002:0000dc7c       __catchsym$??$allocate_shared@V__ExceptionPtr@@U?$_StaticAllocator@H@@AAPAUEHExceptionRecord@@_N@std@@YA?AV?$shared_ptr@V__ExceptionPtr@@@0@ABU?$_StaticAllocator@H@@AAPAUEHExceptionRecord@@$$QA_N@Z$20 1004bc7c     libcpmt:excptptr.obj
 0002:0000dc8c       __tryblocktable$??$allocate_shared@V__ExceptionPtr@@U?$_StaticAllocator@H@@AAPAUEHExceptionRecord@@_N@std@@YA?AV?$shared_ptr@V__ExceptionPtr@@@0@ABU?$_StaticAllocator@H@@AAPAUEHExceptionRecord@@$$QA_N@Z 1004bc8c     libcpmt:excptptr.obj
 0002:0000dca0       __unwindtable$??$allocate_shared@V__ExceptionPtr@@U?$_StaticAllocator@H@@AAPAUEHExceptionRecord@@_N@std@@YA?AV?$shared_ptr@V__ExceptionPtr@@@0@ABU?$_StaticAllocator@H@@AAPAUEHExceptionRecord@@$$QA_N@Z 1004bca0     libcpmt:excptptr.obj
 0002:0000dcb8       __ehfuncinfo$??$allocate_shared@V__ExceptionPtr@@U?$_StaticAllocator@H@@AAPAUEHExceptionRecord@@_N@std@@YA?AV?$shared_ptr@V__ExceptionPtr@@@0@ABU?$_StaticAllocator@H@@AAPAUEHExceptionRecord@@$$QA_N@Z 1004bcb8     libcpmt:excptptr.obj
 0002:0000dcdc       __unwindtable$??$?0AAPAUEHExceptionRecord@@_N@?$_Ref_count_obj@V__ExceptionPtr@@@std@@QAE@AAPAUEHExceptionRecord@@$$QA_N@Z 1004bcdc     libcpmt:excptptr.obj
 0002:0000dcec       __ehfuncinfo$??$?0AAPAUEHExceptionRecord@@_N@?$_Ref_count_obj@V__ExceptionPtr@@@std@@QAE@AAPAUEHExceptionRecord@@$$QA_N@Z 1004bcec     libcpmt:excptptr.obj
 0002:0000dd10       __unwindtable$??$?0AAPAUEHExceptionRecord@@_N@?$_Ref_count_obj_alloc@V__ExceptionPtr@@U?$_StaticAllocator@H@@@std@@QAE@ABU?$_StaticAllocator@H@@AAPAUEHExceptionRecord@@$$QA_N@Z 1004bd10     libcpmt:excptptr.obj
 0002:0000dd20       __ehfuncinfo$??$?0AAPAUEHExceptionRecord@@_N@?$_Ref_count_obj_alloc@V__ExceptionPtr@@U?$_StaticAllocator@H@@@std@@QAE@ABU?$_StaticAllocator@H@@AAPAUEHExceptionRecord@@$$QA_N@Z 1004bd20     libcpmt:excptptr.obj
 0002:0000dd48       __sehtable$__IsNonwritableInCurrentImage 1004bd48     LIBCMT:pesect.obj
 0002:0000dd68       __ehfuncinfo$?CrBanksTxt_AfterLoad@@YGHPAVLoHook@@PAUHookContext@@@Z 1004bd68     dllmain.obj
 0002:0000dd8c       __unwindtable$?CrBanksTxt_AfterLoad@@YGHPAVLoHook@@PAUHookContext@@@Z 1004bd8c     dllmain.obj
 0002:0000ddac       __ehfuncinfo$?ShrinkToFit@CreatureBanksExtender@cbanks@@AAEXXZ 1004bdac     CreatureBanksExtender.obj
 0002:0000ddd0       __ehfuncinfo$?Reserve@CreatureBanksExtender@cbanks@@AAEXG@Z 1004bdd0     CreatureBanksExtender.obj
 0002:0000ddf4       __ehfuncinfo$?Resize@CreatureBanksExtender@cbanks@@AAEXG@Z 1004bdf4     CreatureBanksExtender.obj
 0002:0000de18       __ehfuncinfo$?GetBanksSetupFromJson@CreatureBanksExtender@cbanks@@AAE?BHF@Z 1004be18     CreatureBanksExtender.obj
 0002:0000de3c       __ehfuncinfo$?AfterLoadingObjectTxtProc@CreatureBanksExtender@cbanks@@EAEXPBF@Z 1004be3c     CreatureBanksExtender.obj
 0002:0000de60       __unwindtable$?GetBanksSetupFromJson@CreatureBanksExtender@cbanks@@AAE?BHF@Z 1004be60     CreatureBanksExtender.obj
 0002:0000df68       __unwindtable$?AfterLoadingObjectTxtProc@CreatureBanksExtender@cbanks@@EAEXPBF@Z 1004bf68     CreatureBanksExtender.obj
 0002:0000df70       __ehfuncinfo$??0CreatureBanksExtender@cbanks@@AAE@XZ 1004bf70     CreatureBanksExtender.obj
 0002:0000df94       __unwindtable$??0CreatureBanksExtender@cbanks@@AAE@XZ 1004bf94     CreatureBanksExtender.obj
 0002:0000dfac       __ehfuncinfo$?Get@CreatureBanksExtender@cbanks@@SAAAV12@XZ 1004bfac     CreatureBanksExtender.obj
 0002:0000dfd0       __unwindtable$?Get@CreatureBanksExtender@cbanks@@SAAAV12@XZ 1004bfd0     CreatureBanksExtender.obj
 0002:0000dfd8       __ehfuncinfo$?Shrine__AtGetName@ShrinesExternder@shrines@@CGHPAVLoHook@@PAUHookContext@@@Z 1004bfd8     ShrinesExternder.obj
 0002:0000dffc       __unwindtable$?Shrine__AtGetName@ShrinesExternder@shrines@@CGHPAVLoHook@@PAUHookContext@@@Z 1004bffc     ShrinesExternder.obj
 0002:0000e00c       __ehfuncinfo$??0ShrinesExternder@shrines@@AAE@XZ 1004c00c     ShrinesExternder.obj
 0002:0000e030       __unwindtable$??0ShrinesExternder@shrines@@AAE@XZ 1004c030     ShrinesExternder.obj
 0002:0000e038       __ehfuncinfo$?Get@ShrinesExternder@shrines@@SAAAV12@XZ 1004c038     ShrinesExternder.obj
 0002:0000e05c       __unwindtable$?Get@ShrinesExternder@shrines@@SAAAV12@XZ 1004c05c     ShrinesExternder.obj
 0002:0000e064       __ehfuncinfo$?ShowHint@warehouses@@YAHPAVLoHook@@PAUHookContext@@PBD@Z 1004c064     WarehousesExtender.obj
 0002:0000e088       __unwindtable$?ShowHint@warehouses@@YAHPAVLoHook@@PAUHookContext@@PBD@Z 1004c088     WarehousesExtender.obj
 0002:0000e098       __ehfuncinfo$?ShowMessage@warehouses@@YAXPBUH3MapItem@h3@@HH@Z 1004c098     WarehousesExtender.obj
 0002:0000e0bc       __ehfuncinfo$??0WarehousesExtender@warehouses@@AAE@XZ 1004c0bc     WarehousesExtender.obj
 0002:0000e0e0       __unwindtable$?ShowMessage@warehouses@@YAXPBUH3MapItem@h3@@HH@Z 1004c0e0     WarehousesExtender.obj
 0002:0000e130       __unwindtable$??0WarehousesExtender@warehouses@@AAE@XZ 1004c130     WarehousesExtender.obj
 0002:0000e138       __ehfuncinfo$?Get@WarehousesExtender@warehouses@@SAAAV12@XZ 1004c138     WarehousesExtender.obj
 0002:0000e15c       __unwindtable$?Get@WarehousesExtender@warehouses@@SAAAV12@XZ 1004c15c     WarehousesExtender.obj
 0002:0000e164       __ehfuncinfo$?H3AdventureManager__ObjectVisit_SoundPlay@ObjectsExtender@extender@@CGHPAVLoHook@@PAUHookContext@@@Z 1004c164     ObjectsExtender.obj
 0002:0000e188       __unwindtable$?H3AdventureManager__ObjectVisit_SoundPlay@ObjectsExtender@extender@@CGHPAVLoHook@@PAUHookContext@@@Z 1004c188     ObjectsExtender.obj
 0002:0000e1c0       __ehfuncinfo$?AddObjectsToObjectGenList@ObjectsExtender@extender@@SAXPAU?$H3Vector@PAUH3RmgObjectGenerator@h3@@@h3@@@Z 1004c1c0     ObjectsExtender.obj
 0002:0000e1e4       __unwindtable$?AddObjectsToObjectGenList@ObjectsExtender@extender@@SAXPAU?$H3Vector@PAUH3RmgObjectGenerator@h3@@@h3@@@Z 1004c1e4     ObjectsExtender.obj
 0002:0000e1ec       __ehfuncinfo$?CreateRmgObjectGen@extender@@YAPAUH3RmgObjectGenerator@h3@@ABURMGObjectInfo@@@Z 1004c1ec     ObjectsExtender.obj
 0002:0000e210       __unwindtable$?CreateRmgObjectGen@extender@@YAPAUH3RmgObjectGenerator@h3@@ABURMGObjectInfo@@@Z 1004c210     ObjectsExtender.obj
 0002:0000e220       __ehfuncinfo$?H3GameMainSetup__LoadObjects@ObjectsExtender@extender@@CGXPAVHiHook@@PBUH3MainSetup@h3@@@Z 1004c220     ObjectsExtender.obj
 0002:0000e244       __unwindtable$?H3GameMainSetup__LoadObjects@ObjectsExtender@extender@@CGXPAVHiHook@@PBUH3MainSetup@h3@@@Z 1004c244     ObjectsExtender.obj
 0002:0000e27c       __ehfuncinfo$?LoadObjectsTxt@ObjectsExtender@extender@@CGHPAVLoHook@@PAUHookContext@@@Z 1004c27c     ObjectsExtender.obj
 0002:0000e2a0       __unwindtable$?LoadObjectsTxt@ObjectsExtender@extender@@CGHPAVLoHook@@PAUHookContext@@@Z 1004c2a0     ObjectsExtender.obj
 0002:0000e2a8       __ehfuncinfo$?GetObjectName@RMGObjectInfo@@SAPBDHH@Z 1004c2a8     RMGObjectsEditor.obj
 0002:0000e2cc       __unwindtable$?GetObjectName@RMGObjectInfo@@SAPBDHH@Z 1004c2cc     RMGObjectsEditor.obj
 0002:0000e2d4       __ehfuncinfo$?GetName@RMGObjectInfo@@QBEPBDXZ 1004c2d4     RMGObjectsEditor.obj
 0002:0000e2f8       __ehfuncinfo$??1RMGObjectsEditor@editor@@EAE@XZ 1004c2f8     RMGObjectsEditor.obj
 0002:0000e31c       __unwindtable$??1RMGObjectsEditor@editor@@EAE@XZ 1004c31c     RMGObjectsEditor.obj
 0002:0000e324       __ehfuncinfo$?InitLoading@RMGObjectsEditor@editor@@AAEXPBF@Z 1004c324     RMGObjectsEditor.obj
 0002:0000e348       __unwindtable$?InitLoading@RMGObjectsEditor@editor@@AAEXPBF@Z 1004c348     RMGObjectsEditor.obj
 0002:0000e358       __ehfuncinfo$?InitDefaults@RMGObjectsEditor@editor@@AAEXPBF@Z 1004c358     RMGObjectsEditor.obj
 0002:0000e37c       __unwindtable$?InitDefaults@RMGObjectsEditor@editor@@AAEXPBF@Z 1004c37c     RMGObjectsEditor.obj
 0002:0000e39c       __ehfuncinfo$??0RMGObjectsEditor@editor@@AAE@XZ 1004c39c     RMGObjectsEditor.obj
 0002:0000e3c0       __unwindtable$??0RMGObjectsEditor@editor@@AAE@XZ 1004c3c0     RMGObjectsEditor.obj
 0002:0000e3e0       __ehfuncinfo$?Init@RMGObjectsEditor@editor@@SAXPBF@Z 1004c3e0     RMGObjectsEditor.obj
 0002:0000e404       __unwindtable$?Init@RMGObjectsEditor@editor@@SAXPBF@Z 1004c404     RMGObjectsEditor.obj
 0002:0000e40c       __ehfuncinfo$?Get@RMGObjectsEditor@editor@@SAAAV12@XZ 1004c40c     RMGObjectsEditor.obj
 0002:0000e430       __ehfuncinfo$?GameStart@rmgdlg@@YGXPAVHiHook@@K@Z 1004c430     RMG_SettingsDlg.obj
 0002:0000e454       __unwindtable$?GameStart@rmgdlg@@YGXPAVHiHook@@K@Z 1004c454     RMG_SettingsDlg.obj
 0002:0000e464       __ehfuncinfo$?CreateGraphics@rmgdlg@@YAXABU?$H3Vector@PAUH3RmgObjectGenerator@h3@@@h3@@@Z 1004c464     RMG_SettingsDlg.obj
 0002:0000e488       __unwindtable$?CreateGraphics@rmgdlg@@YAXABU?$H3Vector@PAUH3RmgObjectGenerator@h3@@@h3@@@Z 1004c488     RMG_SettingsDlg.obj
 0002:0000e490       __ehfuncinfo$?CreateResizedObjectPcx@rmgdlg@@YAXXZ 1004c490     RMG_SettingsDlg.obj
 0002:0000e4b4       __unwindtable$?CreateResizedObjectPcx@rmgdlg@@YAXXZ 1004c4b4     RMG_SettingsDlg.obj
 0002:0000e4bc       __ehfuncinfo$?NewScenarioDlg_Create@RMG_SettingsDlg@rmgdlg@@CGXPAVHiHook@@PAUH3SelectScenarioDialog@h3@@K@Z 1004c4bc     RMG_SettingsDlg.obj
 0002:0000e4e0       __unwindtable$?NewScenarioDlg_Create@RMG_SettingsDlg@rmgdlg@@CGXPAVHiHook@@PAUH3SelectScenarioDialog@h3@@K@Z 1004c4e0     RMG_SettingsDlg.obj
 0002:0000e500       __ehfuncinfo$?SelectScenarioDlgRandomizeProc@rmgdlg@@YIHPAUH3Msg@h3@@@Z 1004c500     RMG_SettingsDlg.obj
 0002:0000e524       __unwindtable$?SelectScenarioDlgRandomizeProc@rmgdlg@@YIHPAUH3Msg@h3@@@Z 1004c524     RMG_SettingsDlg.obj
 0002:0000e534       __ehfuncinfo$?Dlg_SelectScenario_Proc@RMG_SettingsDlg@rmgdlg@@CGHPAVLoHook@@PAUHookContext@@@Z 1004c534     RMG_SettingsDlg.obj
 0002:0000e558       __unwindtable$?Dlg_SelectScenario_Proc@RMG_SettingsDlg@rmgdlg@@CGHPAVLoHook@@PAUHookContext@@@Z 1004c558     RMG_SettingsDlg.obj
 0002:0000e560       __ehfuncinfo$?GetObjectPrototypesLists@rmgdlg@@YAXXZ 1004c560     RMG_SettingsDlg.obj
 0002:0000e584       __unwindtable$?GetObjectPrototypesLists@rmgdlg@@YAXXZ 1004c584     RMG_SettingsDlg.obj
 0002:0000e5ac       __ehfuncinfo$?FindDataInObjectGeneratorsList@rmgdlg@@YAXAAV?$vector@U?$pair@UH3ObjectAttributes@h3@@PAUH3LoadedPcx16@2@@std@@V?$allocator@U?$pair@UH3ObjectAttributes@h3@@PAUH3LoadedPcx16@2@@std@@@2@@std@@@Z 1004c5ac     RMG_SettingsDlg.obj
 0002:0000e5d0       __unwindtable$?FindDataInObjectGeneratorsList@rmgdlg@@YAXAAV?$vector@U?$pair@UH3ObjectAttributes@h3@@PAUH3LoadedPcx16@2@@std@@V?$allocator@U?$pair@UH3ObjectAttributes@h3@@PAUH3LoadedPcx16@2@@std@@@2@@std@@@Z 1004c5d0     RMG_SettingsDlg.obj
 0002:0000e5e0       __ehfuncinfo$?GetObjectPrototypesByTypes@rmgdlg@@YAXAAV?$vector@U?$pair@UH3ObjectAttributes@h3@@PAUH3LoadedPcx16@2@@std@@V?$allocator@U?$pair@UH3ObjectAttributes@h3@@PAUH3LoadedPcx16@2@@std@@@2@@std@@PBHI@Z 1004c5e0     RMG_SettingsDlg.obj
 0002:0000e604       __unwindtable$?GetObjectPrototypesByTypes@rmgdlg@@YAXAAV?$vector@U?$pair@UH3ObjectAttributes@h3@@PAUH3LoadedPcx16@2@@std@@V?$allocator@U?$pair@UH3ObjectAttributes@h3@@PAUH3LoadedPcx16@2@@std@@@2@@std@@PBHI@Z 1004c604     RMG_SettingsDlg.obj
 0002:0000e614       __ehfuncinfo$??0PageHeader@ObjectsPage@RMG_SettingsDlg@rmgdlg@@QAE@HHHHH@Z 1004c614     RMG_SettingsDlg.obj
 0002:0000e638       __unwindtable$??0PageHeader@ObjectsPage@RMG_SettingsDlg@rmgdlg@@QAE@HHHHH@Z 1004c638     RMG_SettingsDlg.obj
 0002:0000e6d8       __ehfuncinfo$??0RMGObject@rmgdlg@@QAE@ABUH3ObjectAttributes@h3@@PAUH3LoadedPcx16@3@@Z 1004c6d8     RMG_SettingsDlg.obj
 0002:0000e6fc       __unwindtable$??0RMGObject@rmgdlg@@QAE@ABUH3ObjectAttributes@h3@@PAUH3LoadedPcx16@3@@Z 1004c6fc     RMG_SettingsDlg.obj
 0002:0000e71c       __ehfuncinfo$?SetActivePage@RMG_SettingsDlg@rmgdlg@@AAEHPAUPage@12@@Z 1004c71c     RMG_SettingsDlg.obj
 0002:0000e740       __ehfuncinfo$?ShowObjectExtendedInfo@BanksPage@RMG_SettingsDlg@rmgdlg@@UBEHPBUObjectsPanel@23@ABUH3Msg@h3@@@Z 1004c740     RMG_SettingsDlg.obj
 0002:0000e764       __unwindtable$?ShowObjectExtendedInfo@BanksPage@RMG_SettingsDlg@rmgdlg@@UBEHPBUObjectsPanel@23@ABUH3Msg@h3@@@Z 1004c764     RMG_SettingsDlg.obj
 0002:0000e76c       __ehfuncinfo$?ShowObjectExtendedInfo@ObjectsPage@RMG_SettingsDlg@rmgdlg@@MBEHPBUObjectsPanel@23@ABUH3Msg@h3@@@Z 1004c76c     RMG_SettingsDlg.obj
 0002:0000e790       __unwindtable$?ShowObjectExtendedInfo@ObjectsPage@RMG_SettingsDlg@rmgdlg@@MBEHPBUObjectsPanel@23@ABUH3Msg@h3@@@Z 1004c790     RMG_SettingsDlg.obj
 0002:0000e7b8       __ehfuncinfo$?FillObjects@ObjectsPage@RMG_SettingsDlg@rmgdlg@@MAEXH@Z 1004c7b8     RMG_SettingsDlg.obj
 0002:0000e7dc       __unwindtable$?FillObjects@ObjectsPage@RMG_SettingsDlg@rmgdlg@@MAEXH@Z 1004c7dc     RMG_SettingsDlg.obj
 0002:0000e7ec       __ehfuncinfo$??0ObjectsPage@RMG_SettingsDlg@rmgdlg@@QAE@PAUH3DlgCaptionButton@h3@@ABV?$vector@U?$pair@UH3ObjectAttributes@h3@@PAUH3LoadedPcx16@2@@std@@V?$allocator@U?$pair@UH3ObjectAttributes@h3@@PAUH3LoadedPcx16@2@@std@@@2@@std@@H@Z 1004c7ec     RMG_SettingsDlg.obj
 0002:0000e810       __unwindtable$??0ObjectsPage@RMG_SettingsDlg@rmgdlg@@QAE@PAUH3DlgCaptionButton@h3@@ABV?$vector@U?$pair@UH3ObjectAttributes@h3@@PAUH3LoadedPcx16@2@@std@@V?$allocator@U?$pair@UH3ObjectAttributes@h3@@PAUH3LoadedPcx16@2@@std@@@2@@std@@H@Z 1004c810     RMG_SettingsDlg.obj
 0002:0000e840       __ehfuncinfo$??1RMG_SettingsDlg@rmgdlg@@EAE@XZ 1004c840     RMG_SettingsDlg.obj
 0002:0000e864       __unwindtable$??1RMG_SettingsDlg@rmgdlg@@EAE@XZ 1004c864     RMG_SettingsDlg.obj
 0002:0000e874       __ehfuncinfo$?PanelInfoToObjectInfo@ObjectsPanel@RMG_SettingsDlg@rmgdlg@@QAEXXZ 1004c874     RMG_SettingsDlg.obj
 0002:0000e898       __ehfuncinfo$?ObjectInfoToPanelInfo@ObjectsPanel@RMG_SettingsDlg@rmgdlg@@QAEXXZ 1004c898     RMG_SettingsDlg.obj
 0002:0000e8bc       __ehfuncinfo$?SetObject@ObjectsPanel@RMG_SettingsDlg@rmgdlg@@QAEXPAVRMGObject@3@@Z 1004c8bc     RMG_SettingsDlg.obj
 0002:0000e8e0       __unwindtable$?SetObject@ObjectsPanel@RMG_SettingsDlg@rmgdlg@@QAEXPAVRMGObject@3@@Z 1004c8e0     RMG_SettingsDlg.obj
 0002:0000e8e8       __ehfuncinfo$??0ObjectsPanel@RMG_SettingsDlg@rmgdlg@@QAE@HHPAUPage@12@@Z 1004c8e8     RMG_SettingsDlg.obj
 0002:0000e90c       __ehfuncinfo$?CreateHorizontalScrollBar@ObjectsPage@RMG_SettingsDlg@rmgdlg@@IAEXXZ 1004c90c     RMG_SettingsDlg.obj
 0002:0000e930       __unwindtable$??0ObjectsPanel@RMG_SettingsDlg@rmgdlg@@QAE@HHPAUPage@12@@Z 1004c930     RMG_SettingsDlg.obj
 0002:0000e988       __unwindtable$?CreateHorizontalScrollBar@ObjectsPage@RMG_SettingsDlg@rmgdlg@@IAEXXZ 1004c988     RMG_SettingsDlg.obj
 0002:0000e990       __ehfuncinfo$?CreateVerticalScrollBar@ObjectsPage@RMG_SettingsDlg@rmgdlg@@IAEXXZ 1004c990     RMG_SettingsDlg.obj
 0002:0000e9b4       __unwindtable$?CreateVerticalScrollBar@ObjectsPage@RMG_SettingsDlg@rmgdlg@@IAEXXZ 1004c9b4     RMG_SettingsDlg.obj
 0002:0000e9bc       __ehfuncinfo$?SaveObjects@RMG_SettingsDlg@rmgdlg@@AAEHH@Z 1004c9bc     RMG_SettingsDlg.obj
 0002:0000e9e0       __unwindtable$?SaveObjects@RMG_SettingsDlg@rmgdlg@@AAEHH@Z 1004c9e0     RMG_SettingsDlg.obj
 0002:0000e9f8       __ehfuncinfo$?WriteIniDlgSettings@RMG_SettingsDlg@rmgdlg@@ABE?BHXZ 1004c9f8     RMG_SettingsDlg.obj
 0002:0000ea1c       __ehfuncinfo$?ReadIniDlgSettings@RMG_SettingsDlg@rmgdlg@@AAE?BHXZ 1004ca1c     RMG_SettingsDlg.obj
 0002:0000ea40       __ehfuncinfo$?OnOK@RMG_SettingsDlg@rmgdlg@@EAEXXZ 1004ca40     RMG_SettingsDlg.obj
 0002:0000ea64       __unwindtable$?OnOK@RMG_SettingsDlg@rmgdlg@@EAEXXZ 1004ca64     RMG_SettingsDlg.obj
 0002:0000ea6c       __ehfuncinfo$?RemoveEditsFocus@RMG_SettingsDlg@rmgdlg@@ABE?BHH@Z 1004ca6c     RMG_SettingsDlg.obj
 0002:0000ea90       __ehfuncinfo$?OnHelp@RMG_SettingsDlg@rmgdlg@@AAEXXZ 1004ca90     RMG_SettingsDlg.obj
 0002:0000eab4       __unwindtable$?OnHelp@RMG_SettingsDlg@rmgdlg@@AAEXXZ 1004cab4     RMG_SettingsDlg.obj
 0002:0000eaec       __ehfuncinfo$??0RMG_SettingsDlg@rmgdlg@@QAE@HHHH@Z 1004caec     RMG_SettingsDlg.obj
 0002:0000eb10       __unwindtable$??0RMG_SettingsDlg@rmgdlg@@QAE@HHHH@Z 1004cb10     RMG_SettingsDlg.obj
 0002:0000ebf0       .edata                     1004cbf0     RMG_CustomizeObjectProperties.exp
 0002:0000ec18       rgpv                       1004cc18     RMG_CustomizeObjectProperties.exp
 0002:0000ec20       rgszName                   1004cc20     RMG_CustomizeObjectProperties.exp
 0002:0000ec28       rgwOrd                     1004cc28     RMG_CustomizeObjectProperties.exp
 0002:0000ec2c       szName                     1004cc2c     RMG_CustomizeObjectProperties.exp
 0002:0000ec4e       $N00001                    1004cc4e     RMG_CustomizeObjectProperties.exp
 0002:0000ec53       $N00002                    1004cc53     RMG_CustomizeObjectProperties.exp
 0002:0000ee76       .idata$6                   1004ce76     kernel32:KERNEL32.dll
 0003:00000000       ?init@std@@3JA             1004e000     libcpmt:xlock.obj
 0003:00000034       ?g_CommitFrequency@details@Concurrency@@3HA 1004e034     libconcrt:utils.obj
 0003:0000009c       ?eventGuidRegistration@?4??_RegisterConcRTEventTracing@details@Concurrency@@YAXXZ@4PAU_TRACE_GUID_REGISTRATION@@A 1004e09c     libconcrt:Trace.obj
 0003:000000e0       ?__vcrt_flsindex@@3KA      1004e0e0     libvcruntime:per_thread_data.obj
 0003:000001b0       _errno_no_memory           1004e1b0     libucrt:errno.obj
 0003:000001b4       _doserrno_no_memory        1004e1b4     libucrt:errno.obj
 0003:000001b8       ___acrt_flsindex           1004e1b8     libucrt:per_thread_data.obj
 0003:00000284       ___rgctypeflag             1004e284     libucrt:mbctype.obj
 0003:00000288       ___rgcode_page_info        1004e288     libucrt:mbctype.obj
 0003:00000820       ?_StaticAllocStorageLeft@@3IA 1004e820     libcpmt:excptptr.obj
 0003:00000840       ?firstLaunch@?7??SelectScenarioDlgRandomizeProc@rmgdlg@@YIHPAUH3Msg@h3@@@Z@4_NA 1004e840     RMG_SettingsDlg.obj
 0003:00001ea0       _thread_exit_data          1004fea0     libcpmt:xnotify.obj
 0003:000020d8       ?initlocks@std@@3V_Init_locks@1@A 100500d8     libcpmt:xlock.obj
 0003:000020e0       ?mtx@std@@3PAU_RTL_CRITICAL_SECTION@@A 100500e0     libcpmt:xlock.obj
 0003:000021a0       ?_Tss_mutex@@3U_RTL_CRITICAL_SECTION@@A 100501a0     LIBCMT:thread_safe_statics.obj
 0003:000021b8       ?_Tss_cv@@3U_RTL_CONDITION_VARIABLE@@A 100501b8     LIBCMT:thread_safe_statics.obj
 0003:000021bc       ?_Tss_event@@3PAXA         100501bc     LIBCMT:thread_safe_statics.obj
 0003:000021c0       ?encoded_sleep_condition_variable_cs@@3P6GHPAU_RTL_CONDITION_VARIABLE@@PAU_RTL_CRITICAL_SECTION@@K@ZA 100501c0     LIBCMT:thread_safe_statics.obj
 0003:000021c4       ?encoded_wake_all_condition_variable@@3P6GXPAU_RTL_CONDITION_VARIABLE@@@ZA 100501c4     LIBCMT:thread_safe_statics.obj
 0003:000021d0       ?module_local_atexit_table@@3U_onexit_table_t@@A 100501d0     LIBCMT:utility.obj
 0003:000021dc       ?module_local_at_quick_exit_table@@3U_onexit_table_t@@A 100501dc     LIBCMT:utility.obj
 0003:000021e8       ?is_initialized_as_dll@@3_NA 100501e8     LIBCMT:utility.obj
 0003:000021ec       ?__proc_attached@@3HA      100501ec     LIBCMT:dll_dllmain.obj
 0003:00002210       _GS_ExceptionRecord        10050210     LIBCMT:gs_report.obj
 0003:00002260       _GS_ContextRecord          10050260     LIBCMT:gs_report.obj
 0003:00002534       ?s_waiterPool@platform@details@Concurrency@@3PAVWaiterThreadPool@123@A 10050534     libconcrt:Platform.obj
 0003:00002538       ?s_pfnGetCurrentProcessorNumberEx@platform@details@Concurrency@@3P6GXPAU_PROCESSOR_NUMBER@@@ZA 10050538     libconcrt:Platform.obj
 0003:0000253c       ?s_pfnSetThreadGroupAffinity@platform@details@Concurrency@@3P6GHPAXPBU_GROUP_AFFINITY@@PAU4@@ZA 1005053c     libconcrt:Platform.obj
 0003:00002540       ?s_pfnGetThreadGroupAffinity@platform@details@Concurrency@@3P6GHPAXPAU_GROUP_AFFINITY@@@ZA 10050540     libconcrt:Platform.obj
 0003:00002544       ?s_defaultWaiterPool@platform@details@Concurrency@@3VDefaultWaiterPool@123@A 10050544     libconcrt:Platform.obj
 0003:00002548       ?g_TraceInitialized@details@Concurrency@@3_NA 10050548     libconcrt:utils.obj
 0003:0000254c       ?g_DesiredTraceLevel@details@Concurrency@@3HA 1005054c     libconcrt:utils.obj
 0003:00002550       ?g_TraceCount@details@Concurrency@@3_KA 10050550     libconcrt:utils.obj
 0003:00002560       ?g_DebugOutFilePtr@details@Concurrency@@3PAU_iobuf@@A 10050560     libconcrt:utils.obj
 0003:0000265c       ?module_handles@@3PAPAUHINSTANCE__@@A 1005065c     libvcruntime:winapi_downlevel.obj
 0003:0000266c       ?encoded_function_pointers@@3PAPAXA 1005066c     libvcruntime:winapi_downlevel.obj
 0003:00002690       ?__vcrt_startup_thread_ptd@@3U__vcrt_ptd@@A 10050690     libvcruntime:per_thread_data.obj
 0003:000026bc       ___vcrt_lock_table         100506bc     libvcruntime:locks.obj
 0003:000026d4       ___vcrt_locks_initialized  100506d4     libvcruntime:locks.obj
 0003:00002700       ?heap@@3V_HeapManager@@A   10050700     libvcruntime:undname.obj
 0003:00002714       ___acrt_invalid_parameter_handler 10050714     libucrt:invalid_parameter.obj
 0003:00002720       ___acrt_lock_table         10050720     libucrt:locks.obj
 0003:00002858       ___acrt_locks_initialized  10050858     libucrt:locks.obj
 0003:0000285c       ___acrt_new_handler        1005085c     libucrt:new_handler.obj
 0003:00002860       _c_termination_complete    10050860     libucrt:exit.obj
 0003:00002864       _thread_local_exit_callback_func 10050864     libucrt:exit.obj
 0003:00002868       ?c_exit_complete@?5??common_exit@@YAXHW4_crt_exit_cleanup_mode@@W4_crt_exit_return_mode@@@Z@4_NA 10050868     libucrt:exit.obj
 0003:00002870       ?program_name@?5???$common_configure_argv@D@@YAHW4_crt_argv_mode@@@Z@4PADA 10050870     libucrt:argv_parsing.obj
 0003:000029a0       _enable_percent_n          100509a0     libucrt:printf_count_output.obj
 0003:00002bbc       ___acrt_global_new_mode    10050bbc     libucrt:new_mode.obj
 0003:00002bc4       _ctrlc_action              10050bc4     libucrt:signal.obj
 0003:00002bc8       _ctrlbreak_action          10050bc8     libucrt:signal.obj
 0003:00002bcc       _abort_action              10050bcc     libucrt:signal.obj
 0003:00002bd0       _term_action               10050bd0     libucrt:signal.obj
 0003:00002bd8       _module_handles            10050bd8     libucrt:winapi_thunks.obj
 0003:00002c28       _encoded_function_pointers 10050c28     libucrt:winapi_thunks.obj
 0003:00002ca8       ?state_cache@?1??__acrt_is_packaged_app@@9@4JA 10050ca8     libucrt:winapi_thunks.obj
 0003:00002cc4       _fSystemSet                10050cc4     libucrt:mbctype.obj
 0003:00002cc8       ?initialized@?1??__acrt_initialize_multibyte@@9@4_NA 10050cc8     libucrt:mbctype.obj
 0003:00002ce4       _user_matherr              10050ce4     libucrt:matherr.obj
 0003:00002cf4       __pmatherr_set             10050cf4     libucrt:libm_error.obj
 0003:00002cf8       ___acrt_app_type           10050cf8     libucrt:report_runtime_error.obj
 0003:00002cfc       ?s_asyncId@platform@details@Concurrency@@3IA 10050cfc     libcpmt:ppltasks.obj
 0003:00002d08       ?_StaticAllocStorage@@3PADA 10050d08     libcpmt:excptptr.obj
 0003:00002f54       ?plugin_On@?1??DllMain@@9@12@4HA 10050f54     dllmain.obj
 0003:00002f58       ?assetsCreated@?1??GameStart@rmgdlg@@YGXPAVHiHook@@K@Z@4_NA 10050f58     RMG_SettingsDlg.obj
 0003:00002f5c       ?$TSS0@?1??Get@CreatureBanksExtender@cbanks@@SAAAV23@XZ@4HA 10050f5c     CreatureBanksExtender.obj
 0003:00002f60       ?_instance@?1??Get@CreatureBanksExtender@cbanks@@SAAAV23@XZ@4V23@A 10050f60     CreatureBanksExtender.obj
 0003:00002fd0       ?$TSS0@?1??Get@ShrinesExternder@shrines@@SAAAV23@XZ@4HA 10050fd0     ShrinesExternder.obj
 0003:00002fd4       ?_instance@?1??Get@ShrinesExternder@shrines@@SAAAV23@XZ@4V23@A 10050fd4     ShrinesExternder.obj
 0003:00002fe4       ?_instance@?1??Get@WarehousesExtender@warehouses@@SAAAV23@XZ@4V23@A 10050fe4     WarehousesExtender.obj
 0003:00002ff4       ?$TSS0@?1??Get@WarehousesExtender@warehouses@@SAAAV23@XZ@4HA 10050ff4     WarehousesExtender.obj
 0003:00003000       ?instance@?1??Get@RMGObjectsEditor@editor@@SAAAV23@XZ@4V23@A 10051000     RMGObjectsEditor.obj
 0003:00004898       ?$TSS0@?1??Get@RMGObjectsEditor@editor@@SAAAV23@XZ@4HA 10052898     RMGObjectsEditor.obj
 0004:00000000       __guard_fids___beginthreadex 10053000     libucrt:thread.obj
 0004:00000004       __guard_fids____dcrt_uninitialize_environments_nolock 10053004     libucrt:environment_initialization.obj
 0004:0000000c       __guard_fids__             1005300c     libucrt:initialization.obj
 0004:0000006c       __guard_fids____acrt_initialize_ptd 1005306c     libucrt:per_thread_data.obj
 0004:00000070       __guard_fids__             10053070     libucrt:stdio_initializer.obj
 0004:00000074       __guard_fids__             10053074     libucrt:stdio_initializer.obj
 0004:00000078       __guard_fids_??$expand_argument_wildcards@D@@YAHQAD0AAV?$argument_list@D@?A0xb0e4b824@@@Z 10053078     libucrt:argv_wildcards.obj
 0004:0000007c       __guard_fids__             1005307c     libucrt:locale_initializer.obj
 0004:00000080       __guard_fids__             10053080     libucrt:multibyte_initializer.obj
 0004:00000084       __guard_fids__             10053084     libucrt:sse2_initializer.obj
 0004:00000088       __guard_fids____libm_error_support 10053088     libucrt:libm_error.obj
 0004:0000008c       __guard_fids__             1005308c     libucrt:console_output_initializer.obj
 0004:00000090       __guard_fids__             10053090     libcpmt:xthrow.obj
 0004:00000098       __guard_fids__             10053098     libcpmt:xthrow.obj
 0004:000000a0       __guard_fids__             100530a0     libcpmt:xthrow.obj
 0004:000000a8       __guard_fids__             100530a8     libcpmt:xthrow.obj
 0004:000000b0       __guard_fids__             100530b0     libcpmt:xthrow.obj
 0004:000000b8       __guard_fids__             100530b8     libcpmt:xthrow.obj
 0004:000000c0       __guard_fids__             100530c0     libcpmt:xthrow.obj
 0004:000000c8       __guard_fids__             100530c8     libcpmt:xthrow.obj
 0004:000000cc       __guard_fids__             100530cc     libcpmt:xthrow.obj
 0004:000000d0       __guard_fids__             100530d0     libcpmt:xthrow.obj
 0004:000000d4       __guard_fids__             100530d4     libcpmt:xthrow.obj
 0004:000000d8       __guard_fids__             100530d8     libcpmt:xthrow.obj
 0004:000000dc       __guard_fids__             100530dc     libcpmt:xthrow.obj
 0004:000000e0       __guard_fids__             100530e0     libcpmt:xthrow.obj
 0004:000000e4       __guard_fids__             100530e4     libcpmt:xthrow.obj
 0004:000000e8       __guard_fids__             100530e8     libcpmt:xthrow.obj
 0004:000000ec       __guard_fids__             100530ec     libcpmt:xthrow.obj
 0004:000000f0       __guard_fids__             100530f0     libcpmt:xthrow.obj
 0004:000000f4       __guard_fids_??_EGlobalCore@details@Concurrency@@QAEPAXI@Z 100530f4     libcpmt:cond.obj
 0004:000000f8       __guard_fids__             100530f8     libcpmt:cond.obj
 0004:0000010c       __guard_fids__             1005310c     libcpmt:cond.obj
 0004:00000120       __guard_fids__             10053120     libcpmt:cond.obj
 0004:00000134       __guard_fids_??$_Immortalize@V_Generic_error_category@std@@@std@@YAAAV_Generic_error_category@0@XZ 10053134     libcpmt:thread0.obj
 0004:00000138       __guard_fids__             10053138     libcpmt:thread0.obj
 0004:00000150       __guard_fids__             10053150     libcpmt:thread0.obj
 0004:00000158       __guard_fids__             10053158     libcpmt:thread0.obj
 0004:00000160       __guard_fids__             10053160     libcpmt:thread0.obj
 0004:00000178       __guard_fids__             10053178     libcpmt:thread0.obj
 0004:0000017c       __guard_fids__             1005317c     libcpmt:thread0.obj
 0004:00000180       __guard_fids__             10053180     libcpmt:thread0.obj
 0004:00000184       __guard_fids__             10053184     libcpmt:mutex.obj
 0004:00000198       __guard_fids__             10053198     libcpmt:mutex.obj
 0004:000001ac       __guard_fids__             100531ac     libcpmt:mutex.obj
 0004:000001c0       __guard_fids__             100531c0     libcpmt:winapisupp.obj
 0004:000001c4       __guard_fids_??__Einitlocks@std@@YAXXZ 100531c4     libcpmt:xlock.obj
 0004:000001c8       __guard_fids__             100531c8     libcpmt:xlock.obj
 0004:000001cc       __guard_fids__             100531cc     LIBCMT:thread_safe_statics.obj
 0004:000001d0       __guard_fids_?__scrt_initialize_thread_safe_statics@@YAHXZ 100531d0     LIBCMT:thread_safe_statics.obj
 0004:000001d4       __guard_fids__             100531d4     LIBCMT:std_type_info_static.obj
 0004:000001d8       __guard_fids_?dllmain_crt_process_attach@@YAHQAUHINSTANCE__@@QAX@Z 100531d8     LIBCMT:dll_dllmain.obj
 0004:000001e0       __guard_fids_?dllmain_dispatch@@YAHQAUHINSTANCE__@@KQAX@Z 100531e0     LIBCMT:dll_dllmain.obj
 0004:000001e4       __guard_fids__             100531e4     LIBCMT:throw_bad_alloc.obj
 0004:000001ec       __guard_fids__             100531ec     LIBCMT:throw_bad_alloc.obj
 0004:000001f0       __guard_fids__             100531f0     LIBCMT:throw_bad_alloc.obj
 0004:000001f4       __guard_fids__             100531f4     LIBCMT:guard_support.obj
 0004:000001f8       __guard_fids_?wait@event@Concurrency@@QAEII@Z 100531f8     libconcrt:event.obj
 0004:000001fc       __guard_fids_?wait_for_multiple@event@Concurrency@@SAIPAPAV12@I_NI@Z 100531fc     libconcrt:event.obj
 0004:00000204       __guard_fids_?GetSharedTimerQueue@details@Concurrency@@YAPAXXZ 10053204     libconcrt:event.obj
 0004:00000208       __guard_fids_?createTimer@TimedSingleWaitBlock@details@Concurrency@@QAE_NI@Z 10053208     libconcrt:event.obj
 0004:00000210       __guard_fids__             10053210     libconcrt:event.obj
 0004:00000224       __guard_fids__             10053224     libconcrt:event.obj
 0004:00000238       __guard_fids__             10053238     libconcrt:event.obj
 0004:00000250       __guard_fids__             10053250     libconcrt:event.obj
 0004:00000268       __guard_fids__             10053268     libconcrt:event.obj
 0004:00000280       __guard_fids__             10053280     libconcrt:event.obj
 0004:00000294       __guard_fids__             10053294     libconcrt:event.obj
 0004:00000298       __guard_fids_??0LockQueueNode@details@Concurrency@@QAE@I@Z 10053298     libconcrt:rtlocks.obj
 0004:000002a0       __guard_fids_?Block@LockQueueNode@details@Concurrency@@QAEXI@Z 100532a0     libconcrt:rtlocks.obj
 0004:000002a4       __guard_fids_?WaitForNextNode@LockQueueNode@details@Concurrency@@QAEPAV123@XZ 100532a4     libconcrt:rtlocks.obj
 0004:000002a8       __guard_fids__             100532a8     libconcrt:rtlocks.obj
 0004:000002b0       __guard_fids__             100532b0     libconcrt:rtlocks.obj
 0004:000002b4       __guard_fids__             100532b4     libconcrt:rtlocks.obj
 0004:000002b8       __guard_fids_??__Es_defaultWaiterPool@platform@details@Concurrency@@YAXXZ 100532b8     libconcrt:Platform.obj
 0004:000002bc       __guard_fids__             100532bc     libconcrt:Platform.obj
 0004:000002c4       __guard_fids__             100532c4     libconcrt:Platform.obj
 0004:000002c8       __guard_fids__             100532c8     libconcrt:Platform.obj
 0004:000002cc       __guard_fids__             100532cc     libconcrt:Platform.obj
 0004:000002d0       __guard_fids__             100532d0     libconcrt:utils.obj
 0004:000002d4       __guard_fids__             100532d4     libconcrt:utils.obj
 0004:000002d8       __guard_fids_?_Acquire@_NonReentrantLock@details@Concurrency@@QAEXXZ 100532d8     libconcrt:utils.obj
 0004:000002dc       __guard_fids_??_EGlobalNode@details@Concurrency@@QAEPAXI@Z 100532dc     libconcrt:ResourceManager.obj
 0004:000002e0       __guard_fids_?CreateAllocatedNodeData@ResourceManager@details@Concurrency@@QAEPAUSchedulerNode@23@XZ 100532e0     libconcrt:ResourceManager.obj
 0004:000002e4       __guard_fids_?CreateDynamicRMWorker@ResourceManager@details@Concurrency@@AAEXXZ 100532e4     libconcrt:ResourceManager.obj
 0004:000002e8       __guard_fids__             100532e8     libconcrt:ResourceManager.obj
 0004:000002f0       __guard_fids__             100532f0     libconcrt:ResourceManager.obj
 0004:000002f8       __guard_fids__             100532f8     libconcrt:ResourceManager.obj
 0004:00000300       __guard_fids__             10053300     libconcrt:ResourceManager.obj
 0004:00000314       __guard_fids__             10053314     libconcrt:ResourceManager.obj
 0004:0000032c       __guard_fids__             1005332c     libconcrt:ResourceManager.obj
 0004:00000330       __guard_fids__             10053330     libconcrt:ResourceManager.obj
 0004:00000334       __guard_fids__             10053334     libconcrt:ResourceManager.obj
 0004:00000338       __guard_fids__             10053338     libconcrt:ResourceManager.obj
 0004:0000033c       __guard_fids_?SpinUntilBitsSet@details@Concurrency@@YAJPCJJ@Z 1005333c     libconcrt:SchedulerBase.obj
 0004:00000340       __guard_fids_?SpinUntilBitsReset@details@Concurrency@@YAJPCJJ@Z 10053340     libconcrt:SchedulerBase.obj
 0004:00000344       __guard_fids_??_GSubAllocator@details@Concurrency@@QAEPAXI@Z 10053344     libconcrt:SchedulerBase.obj
 0004:00000348       __guard_fids_??_ENumaInformation@SchedulerBase@details@Concurrency@@QAEPAXI@Z 10053348     libconcrt:SchedulerBase.obj
 0004:0000034c       __guard_fids_??0SchedulerBase@details@Concurrency@@QAE@ABVSchedulerPolicy@2@@Z 1005334c     libconcrt:SchedulerBase.obj
 0004:00000358       __guard_fids_?GetSubAllocator@SchedulerBase@details@Concurrency@@SAPAVSubAllocator@23@_N@Z 10053358     libconcrt:SchedulerBase.obj
 0004:00000360       __guard_fids_?Add@?$ListArray@VScheduleGroupBase@details@Concurrency@@@details@Concurrency@@QAEHPAVScheduleGroupBase@23@@Z 10053360     libconcrt:SchedulerBase.obj
 0004:00000364       __guard_fids_?Remove@?$ListArray@VScheduleGroupBase@details@Concurrency@@@details@Concurrency@@QAE_NPAVScheduleGroupBase@23@H_N@Z 10053364     libconcrt:SchedulerBase.obj
 0004:00000368       __guard_fids_?Remove@?$ListArray@VExternalStatistics@details@Concurrency@@@details@Concurrency@@QAE_NPAVExternalStatistics@23@H_N@Z 10053368     libconcrt:SchedulerBase.obj
 0004:0000036c       __guard_fids_?RemoveVirtualProcessors@SchedulerBase@details@Concurrency@@IAEXPAPAUIVirtualProcessorRoot@3@I@Z 1005336c     libconcrt:SchedulerBase.obj
 0004:00000370       __guard_fids_?Initialize@SchedulerBase@details@Concurrency@@AAEXXZ 10053370     libconcrt:SchedulerBase.obj
 0004:00000378       __guard_fids__             10053378     libconcrt:SchedulerBase.obj
 0004:00000380       __guard_fids__             10053380     libconcrt:SchedulerBase.obj
 0004:00000388       __guard_fids__             10053388     libconcrt:SchedulerBase.obj
 0004:0000039c       __guard_fids__             1005339c     libconcrt:SchedulerBase.obj
 0004:000003d0       __guard_fids__             100533d0     libconcrt:SchedulerBase.obj
 0004:000003d4       __guard_fids__             100533d4     libconcrt:SchedulerBase.obj
 0004:000003d8       __guard_fids__             100533d8     libconcrt:SchedulerBase.obj
 0004:00000438       __guard_fids__             10053438     libconcrt:SchedulerBase.obj
 0004:00000448       __guard_fids__             10053448     libconcrt:SchedulerBase.obj
 0004:00000470       __guard_fids__             10053470     libconcrt:SchedulerBase.obj
 0004:00000480       __guard_fids__             10053480     libconcrt:SchedulerBase.obj
 0004:000004a8       __guard_fids__             100534a8     libconcrt:SchedulerBase.obj
 0004:000004ac       __guard_fids__             100534ac     libconcrt:SchedulerBase.obj
 0004:000004b0       __guard_fids__             100534b0     libconcrt:SchedulerBase.obj
 0004:000004b4       __guard_fids__             100534b4     libconcrt:SchedulerBase.obj
 0004:000004b8       __guard_fids__             100534b8     libconcrt:Exceptions.obj
 0004:000004c0       __guard_fids__             100534c0     libconcrt:Exceptions.obj
 0004:000004c8       __guard_fids__             100534c8     libconcrt:Exceptions.obj
 0004:000004d0       __guard_fids__             100534d0     libconcrt:Exceptions.obj
 0004:000004d8       __guard_fids__             100534d8     libconcrt:Exceptions.obj
 0004:000004e0       __guard_fids__             100534e0     libconcrt:Exceptions.obj
 0004:000004e8       __guard_fids__             100534e8     libconcrt:Exceptions.obj
 0004:000004f0       __guard_fids__             100534f0     libconcrt:Exceptions.obj
 0004:000004f8       __guard_fids__             100534f8     libconcrt:Exceptions.obj
 0004:00000500       __guard_fids_?DetachStealers@ContextBase@details@Concurrency@@QAEXXZ 10053500     libconcrt:ContextBase.obj
 0004:00000504       __guard_fids_?Add@?$ListArray@VWorkQueue@details@Concurrency@@@details@Concurrency@@QAEHPAVWorkQueue@23@@Z 10053504     libconcrt:ContextBase.obj
 0004:00000508       __guard_fids_?Remove@?$ListArray@VWorkQueue@details@Concurrency@@@details@Concurrency@@QAE_NPAVWorkQueue@23@H_N@Z 10053508     libconcrt:ContextBase.obj
 0004:0000050c       __guard_fids_?Dereference@Segment@?$Mailbox@V_UnrealizedChore@details@Concurrency@@@details@Concurrency@@QAEXXZ 1005350c     libconcrt:ContextBase.obj
 0004:00000510       __guard_fids__             10053510     libconcrt:ContextBase.obj
 0004:00000528       __guard_fids__             10053528     libconcrt:ContextBase.obj
 0004:00000570       __guard_fids__             10053570     libconcrt:staticinits.obj
 0004:00000574       __guard_fids__             10053574     libconcrt:staticinits.obj
 0004:00000578       __guard_fids_?_Initialize@_StructuredTaskCollection@details@Concurrency@@AAEXXZ 10053578     libconcrt:TaskCollection.obj
 0004:0000057c       __guard_fids_?_Reset@_TaskCollection@details@Concurrency@@AAEXPAV123@@Z 1005357c     libconcrt:TaskCollection.obj
 0004:00000584       __guard_fids_?_AbortiveSweep@_TaskCollection@details@Concurrency@@AAEXPAX@Z 10053584     libconcrt:TaskCollection.obj
 0004:0000058c       __guard_fids__             1005358c     libconcrt:TaskCollection.obj
 0004:00000594       __guard_fids__             10053594     libconcrt:TaskCollection.obj
 0004:0000059c       __guard_fids__             1005359c     libconcrt:TaskCollection.obj
 0004:000005a8       __guard_fids__             100535a8     libconcrt:TaskCollection.obj
 0004:000005b4       __guard_fids__             100535b4     libconcrt:TaskCollection.obj
 0004:000005b8       __guard_fids__             100535b8     libconcrt:TaskCollection.obj
 0004:000005bc       __guard_fids__             100535bc     libconcrt:TaskCollection.obj
 0004:000005c0       __guard_fids__             100535c0     libconcrt:TaskCollection.obj
 0004:000005c4       __guard_fids__             100535c4     libconcrt:TaskCollection.obj
 0004:000005c8       __guard_fids__             100535c8     libconcrt:SchedulerPolicyBase.obj
 0004:000005cc       __guard_fids__             100535cc     libconcrt:SchedulerPolicyBase.obj
 0004:000005d0       __guard_fids__             100535d0     libconcrt:SchedulerPolicyBase.obj
 0004:000005d4       __guard_fids__             100535d4     libconcrt:SchedulerPolicyBase.obj
 0004:000005d8       __guard_fids__             100535d8     libconcrt:SchedulerPolicyBase.obj
 0004:000005dc       __guard_fids__             100535dc     libconcrt:SchedulerPolicyBase.obj
 0004:000005e0       __guard_fids__             100535e0     libconcrt:ExecutionResource.obj
 0004:000005f0       __guard_fids__             100535f0     libconcrt:SchedulerProxy.obj
 0004:00000618       __guard_fids__             10053618     libconcrt:ThreadProxyFactoryManager.obj
 0004:00000630       __guard_fids__             10053630     libconcrt:ThreadProxyFactoryManager.obj
 0004:00000648       __guard_fids__             10053648     libconcrt:ThreadProxyFactoryManager.obj
 0004:00000670       __guard_fids__             10053670     libconcrt:ThreadProxyFactoryManager.obj
 0004:00000698       __guard_fids_?_RegisterConcRTEventTracing@details@Concurrency@@YAXXZ 10053698     libconcrt:Trace.obj
 0004:0000069c       __guard_fids_?SpinUntilClear@QuickBitSet@details@Concurrency@@QBEXI@Z 1005369c     libconcrt:VirtualProcessor.obj
 0004:000006a0       __guard_fids_?SpinUntilSet@QuickBitSet@details@Concurrency@@QBEXI@Z 100536a0     libconcrt:VirtualProcessor.obj
 0004:000006a4       __guard_fids_?StartupWorkerContext@VirtualProcessor@details@Concurrency@@EAE_NPAVScheduleGroupSegmentBase@23@PAVInternalContextBase@23@@Z 100536a4     libconcrt:VirtualProcessor.obj
 0004:000006a8       __guard_fids_?Remove@?$ListArray@VVirtualProcessor@details@Concurrency@@@details@Concurrency@@QAE_NPAVVirtualProcessor@23@H_N@Z 100536a8     libconcrt:VirtualProcessor.obj
 0004:000006ac       __guard_fids_?Dereference@Segment@?$Mailbox@VInternalContextBase@details@Concurrency@@@details@Concurrency@@QAEXXZ 100536ac     libconcrt:VirtualProcessor.obj
 0004:000006b0       __guard_fids__             100536b0     libconcrt:VirtualProcessor.obj
 0004:000006d4       __guard_fids_?Add@?$ListArray@VVirtualProcessor@details@Concurrency@@@details@Concurrency@@QAEHPAVVirtualProcessor@23@@Z 100536d4     libconcrt:SchedulingNode.obj
 0004:000006d8       __guard_fids_?SpinUntilValueEquals@details@Concurrency@@YAXPCJJ@Z 100536d8     libconcrt:InternalContextBase.obj
 0004:000006dc       __guard_fids_?GrowAndPush@?$StructuredWorkStealingQueue@VInternalContextBase@details@Concurrency@@V_HyperNonReentrantLock@23@@details@Concurrency@@AAEXPAVInternalContextBase@23@VSlot@?$Mailbox@VInternalContextBase@details@Concurrency@@@23@@Z 100536dc     libconcrt:InternalContextBase.obj
 0004:000006e0       __guard_fids_?SpinUntilBlocked@InternalContextBase@details@Concurrency@@IAEXXZ 100536e0     libconcrt:InternalContextBase.obj
 0004:000006e4       __guard_fids__             100536e4     libconcrt:InternalContextBase.obj
 0004:000006f8       __guard_fids__             100536f8     libconcrt:InternalContextBase.obj
 0004:0000071c       __guard_fids__             1005371c     libconcrt:InternalContextBase.obj
 0004:00000764       __guard_fids__             10053764     libconcrt:InternalContextBase.obj
 0004:00000768       __guard_fids__             10053768     libconcrt:InternalContextBase.obj
 0004:0000076c       __guard_fids__             1005376c     libconcrt:InternalContextBase.obj
 0004:00000770       __guard_fids__             10053770     libconcrt:InternalContextBase.obj
 0004:00000774       __guard_fids__             10053774     libconcrt:InternalContextBase.obj
 0004:00000778       __guard_fids__             10053778     libconcrt:InternalContextBase.obj
 0004:0000077c       __guard_fids__             1005377c     libconcrt:InternalContextBase.obj
 0004:00000780       __guard_fids__             10053780     libconcrt:InternalContextBase.obj
 0004:00000784       __guard_fids_?Remove@?$ListArray@VScheduleGroupSegmentBase@details@Concurrency@@@details@Concurrency@@QAE_NPAVScheduleGroupSegmentBase@23@H_N@Z 10053784     libconcrt:SchedulingRing.obj
 0004:00000788       __guard_fids_?DemandInitialize@?$Mailbox@V_UnrealizedChore@details@Concurrency@@@details@Concurrency@@AAEXXZ 10053788     libconcrt:ScheduleGroupBase.obj
 0004:0000078c       __guard_fids_?Add@?$ListArray@VExternalStatistics@details@Concurrency@@@details@Concurrency@@QAEHPAVExternalStatistics@23@@Z 1005378c     libconcrt:ScheduleGroupBase.obj
 0004:00000790       __guard_fids_?Add@?$ListArray@VScheduleGroupSegmentBase@details@Concurrency@@@details@Concurrency@@QAEHPAVScheduleGroupSegmentBase@23@@Z 10053790     libconcrt:ScheduleGroupBase.obj
 0004:00000794       __guard_fids_?Add@?$ListArray@U?$ListArrayInlineLink@VWorkQueue@details@Concurrency@@@details@Concurrency@@@details@Concurrency@@QAEHPAU?$ListArrayInlineLink@VWorkQueue@details@Concurrency@@@23@@Z 10053794     libconcrt:ScheduleGroupBase.obj
 0004:00000798       __guard_fids_?Remove@?$ListArray@U?$ListArrayInlineLink@VWorkQueue@details@Concurrency@@@details@Concurrency@@@details@Concurrency@@QAE_NPAU?$ListArrayInlineLink@VWorkQueue@details@Concurrency@@@23@H_N@Z 10053798     libconcrt:ScheduleGroupBase.obj
 0004:0000079c       __guard_fids_?SetDeletionReferences@Segment@?$Mailbox@V_UnrealizedChore@details@Concurrency@@@details@Concurrency@@QAEXI@Z 1005379c     libconcrt:ScheduleGroupBase.obj
 0004:000007a0       __guard_fids__             100537a0     libconcrt:ScheduleGroupBase.obj
 0004:000007b0       __guard_fids__             100537b0     libconcrt:ScheduleGroupBase.obj
 0004:000007d8       __guard_fids_?PrepareForUse@ExternalContextBase@details@Concurrency@@QAEX_N@Z 100537d8     libconcrt:ExternalContextBase.obj
 0004:000007e0       __guard_fids__             100537e0     libconcrt:ExternalContextBase.obj
 0004:00000828       __guard_fids__             10053828     libconcrt:ThreadScheduler.obj
 0004:00000844       __guard_fids__             10053844     libconcrt:ThreadScheduler.obj
 0004:00000868       __guard_fids__             10053868     libconcrt:ThreadScheduler.obj
 0004:000008b0       __guard_fids__             100538b0     libconcrt:ThreadScheduler.obj
 0004:000008cc       __guard_fids__             100538cc     libconcrt:ThreadScheduler.obj
 0004:0000092c       __guard_fids_?RetireAtSafePoint@WorkQueue@details@Concurrency@@QAEXPAVScheduleGroupSegmentBase@23@@Z 1005392c     libconcrt:WorkQueue.obj
 0004:00000930       __guard_fids_?RedetachFromScheduleGroupAtSafePoint@WorkQueue@details@Concurrency@@QAEXPAVScheduleGroupSegmentBase@23@@Z 10053930     libconcrt:WorkQueue.obj
 0004:00000934       __guard_fids_?_PrepareSteal@_UnrealizedChore@details@Concurrency@@QAEXPAVContextBase@23@@Z 10053934     libconcrt:Chores.obj
 0004:00000938       __guard_fids_?_StructuredChoreWrapper@_UnrealizedChore@details@Concurrency@@CAXPAV123@@Z 10053938     libconcrt:Chores.obj
 0004:0000093c       __guard_fids__             1005393c     libconcrt:VirtualProcessorRoot.obj
 0004:00000964       __guard_fids_?AcquireActivatedContext@VirtualProcessorRoot@details@Concurrency@@QAEPAUIExecutionContext@3@XZ 10053964     libconcrt:FreeVirtualProcessorRoot.obj
 0004:00000968       __guard_fids_?SpinUntilIdle@FreeVirtualProcessorRoot@details@Concurrency@@IAEXXZ 10053968     libconcrt:FreeVirtualProcessorRoot.obj
 0004:0000096c       __guard_fids__             1005396c     libconcrt:FreeVirtualProcessorRoot.obj
 0004:00000994       __guard_fids_??0ThreadProxy@details@Concurrency@@QAE@PAUIThreadProxyFactory@12@I@Z 10053994     libconcrt:ThreadProxy.obj
 0004:00000998       __guard_fids_?SpinUntilBlocked@ThreadProxy@details@Concurrency@@QAEXXZ 10053998     libconcrt:ThreadProxy.obj
 0004:0000099c       __guard_fids__             1005399c     libconcrt:ThreadProxy.obj
 0004:000009b4       __guard_fids__             100539b4     libconcrt:ThreadProxy.obj
 0004:000009b8       __guard_fids__             100539b8     libconcrt:ThreadProxy.obj
 0004:000009bc       __guard_fids_?Reset@WorkSearchContext@details@Concurrency@@QAEXPAVVirtualProcessor@23@W4Algorithm@123@@Z 100539bc     libconcrt:SearchAlgorithms.obj
 0004:000009cc       __guard_fids__             100539cc     libconcrt:ThreadVirtualProcessor.obj
 0004:000009f0       __guard_fids__             100539f0     libvcruntime:frame.obj
 0004:000009f4       __guard_fids__             100539f4     libvcruntime:frame.obj
 0004:000009fc       __guard_fids__             100539fc     libvcruntime:frame.obj
 0004:00000a00       __guard_fids__             10053a00     libvcruntime:frame.obj
 0004:00000a04       __guard_fids__             10053a04     libvcruntime:rtti.obj
 0004:00000a0c       __guard_fids__             10053a0c     libvcruntime:rtti.obj
 0004:00000a14       __guard_fids__             10053a14     libvcruntime:rtti.obj
 0004:00000a1c       __guard_fids__             10053a1c     libvcruntime:rtti.obj
 0004:00000a20       __guard_fids__             10053a20     libvcruntime:rtti.obj
 0004:00000a24       __guard_fids__             10053a24     libvcruntime:rtti.obj
 0004:00000a28       __guard_fids__             10053a28     libvcruntime:rtti.obj
 0004:00000a2c       __guard_fids__             10053a2c     libvcruntime:rtti.obj
 0004:00000a30       __guard_fids____vcrt_initialize_ptd 10053a30     libvcruntime:per_thread_data.obj
 0004:00000a34       __guard_fids_??__E?m_badAllocExceptionPtr@__ExceptionPtr@@0V?$shared_ptr@V__ExceptionPtr@@@std@@A@@YAXXZ 10053a34     libcpmt:excptptr.obj
 0004:00000a38       __guard_fids__             10053a38     libcpmt:excptptr.obj
 0004:00000a48       __guard_fids__             10053a48     libcpmt:excptptr.obj
 0004:00000a58       __guard_fids__             10053a58     libcpmt:excptptr.obj
 0004:00000a68       __guard_fids__             10053a68     libcpmt:excptptr.obj
 0006:00000060       $R000000                   10055060     * linker generated manifest res *
