 RMG_CustomizeObjectProperties

 Timestamp is 67e8e7fc (Sun Mar 30 09:43:08 2025)

 Preferred load address is 10000000

 Start         Length     Name                   Class
 0001:00000000 00000f20H .text$di                CODE
 0001:00000f20 00044210H .text$mn                CODE
 0001:00045130 00001c70H .text$x                 CODE
 0001:00046da0 0000052cH .text$yd                CODE
 0002:00000000 00000154H .idata$5                DATA
 0002:00000154 00000008H .00cfg                  DATA
 0002:0000015c 00000004H .CRT$XCA                DATA
 0002:00000160 0000000cH .CRT$XCC                DATA
 0002:0000016c 00000008H .CRT$XCL                DATA
 0002:00000174 0000018cH .CRT$XCU                DATA
 0002:00000300 00000004H .CRT$XCZ                DATA
 0002:00000304 00000004H .CRT$XIA                DATA
 0002:00000308 00000014H .CRT$XIC                DATA
 0002:0000031c 00000004H .CRT$XIZ                DATA
 0002:00000320 00000004H .CRT$XLA                DATA
 0002:00000324 00000004H .CRT$XLZ                DATA
 0002:00000328 00000004H .CRT$XPA                DATA
 0002:0000032c 00000008H .CRT$XPX                DATA
 0002:00000334 00000004H .CRT$XPXA               DATA
 0002:00000338 00000004H .CRT$XPZ                DATA
 0002:0000033c 00000004H .CRT$XTA                DATA
 0002:00000340 00000020H .CRT$XTZ                DATA
 0002:00000344 00000000H .gfids$y                DATA
 0002:00000360 0000a5e0H .rdata                  DATA
 0002:0000a940 00000000H .rdata$CastGuardVftablesA DATA
 0002:0000a940 00000000H .rdata$CastGuardVftablesC DATA
 0002:0000a940 00000018H .rdata$T                DATA
 0002:0000a958 00001390H .rdata$r                DATA
 0002:0000bce8 00000420H .rdata$sxdata           DATA
 0002:0000c108 00000108H .rdata$voltmd           DATA
 0002:0000c210 0000041cH .rdata$zzzdbg           DATA
 0002:0000c62c 00000004H .rtc$IAA                DATA
 0002:0000c630 00000004H .rtc$IZZ                DATA
 0002:0000c634 00000004H .rtc$TAA                DATA
 0002:0000c638 00000004H .rtc$TZZ                DATA
 0002:0000c63c 00000004H .tls                    DATA
 0002:0000c640 00000004H .tls$                   DATA
 0002:0000c644 00000004H .tls$ZZZ                DATA
 0002:0000c648 00004f78H .xdata$x                DATA
 0002:000115c0 00000070H .edata                  DATA
 0002:00011630 00000014H .idata$2                DATA
 0002:00011644 00000014H .idata$3                DATA
 0002:00011658 00000154H .idata$4                DATA
 0002:000117ac 00000662H .idata$6                DATA
 0003:00000000 00000b30H .data                   DATA
 0003:00000b30 00000268H .data$r                 DATA
 0003:00000d98 000007e8H .data$rs                DATA
 0003:00001580 000045bcH .bss                    DATA
 0004:00000000 00000060H .rsrc$01                DATA
 0004:00000060 00000098H .rsrc$02                DATA

  Address         Publics by Value              Rva+Base       Lib:Object

 0000:00000000       ___AbsoluteZero            00000000     <absolute>
 0000:00000000       ___arm64x_extra_rfe_table  00000000     <absolute>
 0000:00000000       ___arm64x_extra_rfe_table_size 00000000     <absolute>
 0000:00000000       ___arm64x_native_entrypoint 00000000     <absolute>
 0000:00000000       ___arm64x_redirection_metadata 00000000     <absolute>
 0000:00000000       ___arm64x_redirection_metadata_count 00000000     <absolute>
 0000:00000000       ___dynamic_value_reloc_table 00000000     <absolute>
 0000:00000000       ___enclave_config          00000000     <absolute>
 0000:00000000       ___guard_check_icall_a64n_fptr 00000000     <absolute>
 0000:00000000       ___guard_eh_cont_count     00000000     <absolute>
 0000:00000000       ___guard_eh_cont_table     00000000     <absolute>
 0000:00000000       ___guard_fids_count        00000000     <absolute>
 0000:00000000       ___guard_fids_table        00000000     <absolute>
 0000:00000000       ___guard_iat_count         00000000     <absolute>
 0000:00000000       ___guard_iat_table         00000000     <absolute>
 0000:00000000       ___guard_longjmp_count     00000000     <absolute>
 0000:00000000       ___guard_longjmp_table     00000000     <absolute>
 0000:00000000       ___hybrid_auxiliary_delayload_iat 00000000     <absolute>
 0000:00000000       ___hybrid_auxiliary_delayload_iat_copy 00000000     <absolute>
 0000:00000000       ___hybrid_auxiliary_iat    00000000     <absolute>
 0000:00000000       ___hybrid_auxiliary_iat_copy 00000000     <absolute>
 0000:00000000       ___hybrid_code_map         00000000     <absolute>
 0000:00000000       ___hybrid_code_map_count   00000000     <absolute>
 0000:00000000       ___hybrid_image_info_bitfield 00000000     <absolute>
 0000:00000000       ___x64_code_ranges_to_entry_points 00000000     <absolute>
 0000:00000000       ___x64_code_ranges_to_entry_points_count 00000000     <absolute>
 0000:00000000       __except_list              00000000     <absolute>
 0000:0000002c       __tls_array                0000002c     <absolute>
 0000:00000100       ___guard_flags             00000100     <absolute>
 0000:00000108       ___safe_se_handler_count   00000108     <absolute>
 0000:00000000       ___ImageBase               10000000     <linker-defined>
 0001:00000f20       ?OnCancel@H3Dlg@h3@@UAEXXZ 10001f20 f i RMG_SettingsDlg.obj
 0001:00000f20       ?OnOK@H3Dlg@h3@@UAEXXZ     10001f20 f i RMG_SettingsDlg.obj
 0001:00000f20       ?_Lock@?$basic_streambuf@DU?$char_traits@D@std@@@std@@UAEXXZ 10001f20 f i ObjectsExtender.obj
 0001:00000f20       ?_Unlock@?$basic_streambuf@DU?$char_traits@D@std@@@std@@UAEXXZ 10001f20 f i ObjectsExtender.obj
 0001:00000f20       ?__empty_global_delete@@YAXPAXI@Z 10001f20 f i DrawPcx16ResizedBicubic.obj
 0001:00000f20       ?__global_delete@@YAXPAXI@Z 10001f20 f i * CIL library *:* CIL module *
 0001:00000f20       @_guard_check_icall_nop@4  10001f20 f i LIBCMT:guard_support.obj
 0001:00000f30       ___local_stdio_printf_options 10001f30 f i era.obj
 0001:00000f40       _sprintf_s                 10001f40 f i era.obj
 0001:00000f70       ??0exception@std@@QAE@ABV01@@Z 10001f70 f i era.obj
 0001:00000fa0       ?what@exception@std@@UBEPBDXZ 10001fa0 f i era.obj
 0001:00000fb0       ??_Ebad_alloc@std@@UAEPAXI@Z 10001fb0 f i * CIL library *:* CIL module *
 0001:00000fb0       ??_Ebad_array_new_length@std@@UAEPAXI@Z 10001fb0 f i * CIL library *:* CIL module *
 0001:00000fb0       ??_Ebad_cast@std@@UAEPAXI@Z 10001fb0 f i * CIL library *:* CIL module *
 0001:00000fb0       ??_Eexception@std@@UAEPAXI@Z 10001fb0 f i * CIL library *:* CIL module *
 0001:00000fb0       ??_Eruntime_error@std@@UAEPAXI@Z 10001fb0 f i * CIL library *:* CIL module *
 0001:00000fb0       ??_Gbad_alloc@std@@UAEPAXI@Z 10001fb0 f i era.obj
 0001:00000fb0       ??_Gbad_array_new_length@std@@UAEPAXI@Z 10001fb0 f i era.obj
 0001:00000fb0       ??_Gbad_cast@std@@UAEPAXI@Z 10001fb0 f i ObjectsExtender.obj
 0001:00000fb0       ??_Gexception@std@@UAEPAXI@Z 10001fb0 f i era.obj
 0001:00000fb0       ??_Gruntime_error@std@@UAEPAXI@Z 10001fb0 f i ObjectsExtender.obj
 0001:00000fe0       ??1__non_rtti_object@std@@UAE@XZ 10001fe0 f i libvcruntime:rtti.obj
 0001:00000fe0       ??1bad_alloc@std@@UAE@XZ   10001fe0 f i era.obj
 0001:00000fe0       ??1bad_array_new_length@std@@UAE@XZ 10001fe0 f i era.obj
 0001:00000fe0       ??1bad_cast@std@@UAE@XZ    10001fe0 f i ObjectsExtender.obj
 0001:00000fe0       ??1bad_exception@std@@UAE@XZ 10001fe0 f i libvcruntime:frame.obj
 0001:00000fe0       ??1failure@ios_base@std@@UAE@XZ 10001fe0 f i ObjectsExtender.obj
 0001:00000fe0       ??1length_error@std@@UAE@XZ 10001fe0 f i libcpmt:xthrow.obj
 0001:00000fe0       ??1out_of_range@std@@UAE@XZ 10001fe0 f i libcpmt:xthrow.obj
 0001:00000fe0       ??1runtime_error@std@@UAE@XZ 10001fe0 f i ObjectsExtender.obj
 0001:00000fe0       ??1system_error@std@@UAE@XZ 10001fe0 f i ObjectsExtender.obj
 0001:00001000       ??0bad_array_new_length@std@@QAE@XZ 10002000 f i era.obj
 0001:00001020       ?_Throw_bad_array_new_length@std@@YAXXZ 10002020 f i era.obj
 0001:00001040       ??0bad_array_new_length@std@@QAE@ABV01@@Z 10002040 f i era.obj
 0001:00001080       ??0bad_alloc@std@@QAE@ABV01@@Z 10002080 f i era.obj
 0001:000010c0       ?_Xlen_string@std@@YAXXZ   100020c0 f i era.obj
 0001:000010d0       ??1?$basic_string@DU?$char_traits@D@std@@V?$allocator@D@2@@std@@QAE@XZ 100020d0 f i era.obj
 0001:000010d0       ??1?$pair@V?$basic_string@DU?$char_traits@D@std@@V?$allocator@D@2@@std@@I@std@@QAE@XZ 100020d0 f i SoundManager.obj
 0001:000010d0       ?_Tidy_deallocate@?$basic_string@DU?$char_traits@D@std@@V?$allocator@D@2@@std@@AAEXXZ 100020d0 f i era.obj
 0001:00001120       ??0?$basic_string@DU?$char_traits@D@std@@V?$allocator@D@2@@std@@QAE@QBD@Z 10002120 f i era.obj
 0001:00001160       ?deallocate@?$allocator@D@std@@QAEXQADI@Z 10002160 f i era.obj
 0001:000011a0       ??$_Construct@$00PBD@?$basic_string@DU?$char_traits@D@std@@V?$allocator@D@2@@std@@AAEXQBDI@Z 100021a0 f i era.obj
 0001:00001240       ??0?$basic_string@DU?$char_traits@D@std@@V?$allocator@D@2@@std@@QAE@U_String_constructor_concat_tag@1@AAV01@1@Z 10002240 f i era.obj
 0001:000013d0       ??$_Allocate@$07U_Default_allocate_traits@std@@@std@@YAPAXI@Z 100023d0 f i era.obj
 0001:00001440       __vsnprintf_l              10002440 f i dllmain.obj
 0001:00001480       _sprintf                   10002480 f i dllmain.obj
 0001:000014a0       ??1H3String@h3@@QAE@XZ     100024a0 f i AncientLampExtender.obj
 0001:000014e0       ?Format@H3String@h3@@SA?AU12@PBDZZ 100024e0 f i AncientLampExtender.obj
 0001:00001580       ??_EAncientLampExtender@ancientLamp@@EAEPAXI@Z 10002580 f i * CIL library *:* CIL module *
 0001:00001580       ??_EColosseumOfTheMagiExtender@colosseumOfTheMagi@@EAEPAXI@Z 10002580 f i * CIL library *:* CIL module *
 0001:00001580       ??_EDreamTeacherExtender@dreamTeacher@@EAEPAXI@Z 10002580 f i * CIL library *:* CIL module *
 0001:00001580       ??_EGazeboExtender@gazebo@@EAEPAXI@Z 10002580 f i * CIL library *:* CIL module *
 0001:00001580       ??_EGraveExtender@grave@@EAEPAXI@Z 10002580 f i * CIL library *:* CIL module *
 0001:00001580       ??_EHermitsShackExtender@hermitsShack@@EAEPAXI@Z 10002580 f i * CIL library *:* CIL module *
 0001:00001580       ??_EHillFortExtender@hillFort@@EAEPAXI@Z 10002580 f i * CIL library *:* CIL module *
 0001:00001580       ??_EJunkmanExtender@junkman@@EAEPAXI@Z 10002580 f i * CIL library *:* CIL module *
 0001:00001580       ??_EMineralSpringExtender@mineralSpring@@EAEPAXI@Z 10002580 f i * CIL library *:* CIL module *
 0001:00001580       ??_EObjectsExtender@extender@@MAEPAXI@Z 10002580 f i * CIL library *:* CIL module *
 0001:00001580       ??_EObservatoryExtender@observatory@@EAEPAXI@Z 10002580 f i * CIL library *:* CIL module *
 0001:00001580       ??_EShrinesExternder@shrines@@EAEPAXI@Z 10002580 f i * CIL library *:* CIL module *
 0001:00001580       ??_ESkeletonTransformerExtender@skeletonTransformer@@EAEPAXI@Z 10002580 f i * CIL library *:* CIL module *
 0001:00001580       ??_ETempleOfLoyaltyExtender@templeOfLoyalty@@EAEPAXI@Z 10002580 f i * CIL library *:* CIL module *
 0001:00001580       ??_ETrailblazerExtender@trailblazer@@EAEPAXI@Z 10002580 f i * CIL library *:* CIL module *
 0001:00001580       ??_EWarehousesExtender@warehouses@@EAEPAXI@Z 10002580 f i * CIL library *:* CIL module *
 0001:00001580       ??_EWateringPlaceExtender@wateringPlace@@EAEPAXI@Z 10002580 f i * CIL library *:* CIL module *
 0001:00001580       ??_EWoGObjectsExtender@wog@@EAEPAXI@Z 10002580 f i * CIL library *:* CIL module *
 0001:00001580       ??_GAncientLampExtender@ancientLamp@@EAEPAXI@Z 10002580 f i AncientLampExtender.obj
 0001:00001580       ??_GColosseumOfTheMagiExtender@colosseumOfTheMagi@@EAEPAXI@Z 10002580 f i ColosseumOfTheMagiExtender.obj
 0001:00001580       ??_GDreamTeacherExtender@dreamTeacher@@EAEPAXI@Z 10002580 f i DreamTeacherExtender.obj
 0001:00001580       ??_GGazeboExtender@gazebo@@EAEPAXI@Z 10002580 f i GazeboExtender.obj
 0001:00001580       ??_GGraveExtender@grave@@EAEPAXI@Z 10002580 f i GraveExtender.obj
 0001:00001580       ??_GHermitsShackExtender@hermitsShack@@EAEPAXI@Z 10002580 f i HermitsShackExtender.obj
 0001:00001580       ??_GHillFortExtender@hillFort@@EAEPAXI@Z 10002580 f i HillFortExtender.obj
 0001:00001580       ??_GJunkmanExtender@junkman@@EAEPAXI@Z 10002580 f i JunkmanExtender.obj
 0001:00001580       ??_GMineralSpringExtender@mineralSpring@@EAEPAXI@Z 10002580 f i MineralSpringExtender.obj
 0001:00001580       ??_GObjectsExtender@extender@@MAEPAXI@Z 10002580 f i ObjectsExtender.obj
 0001:00001580       ??_GObservatoryExtender@observatory@@EAEPAXI@Z 10002580 f i ObservatoryExtender.obj
 0001:00001580       ??_GShrinesExternder@shrines@@EAEPAXI@Z 10002580 f i ShrinesExternder.obj
 0001:00001580       ??_GSkeletonTransformerExtender@skeletonTransformer@@EAEPAXI@Z 10002580 f i SkeletonTransformerExtender.obj
 0001:00001580       ??_GTempleOfLoyaltyExtender@templeOfLoyalty@@EAEPAXI@Z 10002580 f i TempleOfLoyaltyExtender.obj
 0001:00001580       ??_GTrailblazerExtender@trailblazer@@EAEPAXI@Z 10002580 f i TrailblazerExtender.obj
 0001:00001580       ??_GWarehousesExtender@warehouses@@EAEPAXI@Z 10002580 f i WarehousesExtender.obj
 0001:00001580       ??_GWateringPlaceExtender@wateringPlace@@EAEPAXI@Z 10002580 f i WateringPlaceExtender.obj
 0001:00001580       ??_GWoGObjectsExtender@wog@@EAEPAXI@Z 10002580 f i WoGObjectsExtender.obj
 0001:000015b0       ?Show@H3Messagebox@h3@@SAXPBDABUH3PictureCategories@2@11@Z 100025b0 f i ColosseumOfTheMagiExtender.obj
 0001:000015e0       _ceilf                     100025e0 f i CreatureBanksExtender.obj
 0001:00001620       ?sprintf@libc@h3@@YAHPADPBDZZ 10002620 f i CreatureBanksExtender.obj
 0001:00001640       ??_ECreatureBanksExtender@cbanks@@EAEPAXI@Z 10002640 f i * CIL library *:* CIL module *
 0001:00001640       ??_GCreatureBanksExtender@cbanks@@EAEPAXI@Z 10002640 f i CreatureBanksExtender.obj
 0001:00001680       ??1CreatureBankManager@CreatureBanksExtender@cbanks@@QAE@XZ 10002680 f i CreatureBanksExtender.obj
 0001:00001750       ??$emplace_back@UCustomCreatureBank@CreatureBanksExtender@cbanks@@@?$vector@UCustomCreatureBank@CreatureBanksExtender@cbanks@@V?$allocator@UCustomCreatureBank@CreatureBanksExtender@cbanks@@@std@@@std@@QAE?A_T$$QAUCustomCreatureBank@CreatureBanksExtender@cbanks@@@Z 10002750 f i CreatureBanksExtender.obj
 0001:00001790       ??0H3CreatureBankSetup@h3@@QAE@XZ 10002790 f i CreatureBanksExtender.obj
 0001:00001840       ??1?$pair@UH3ObjectAttributes@h3@@$$T@std@@QAE@XZ 10002840 f i RMG_SettingsDlg.obj
 0001:00001840       ??1H3CreatureBankSetup@h3@@QAE@XZ 10002840 f i CreatureBanksExtender.obj
 0001:00001880       ??4H3CreatureBankSetup@h3@@QAEAAU01@ABU01@@Z 10002880 f i CreatureBanksExtender.obj
 0001:000019a0       ??1?$unordered_set@EU?$hash@E@std@@U?$equal_to@E@2@V?$allocator@E@2@@std@@QAE@XZ 100029a0 f i UniversityExtender.obj
 0001:000019a0       ??1?$unordered_set@HU?$hash@H@std@@U?$equal_to@H@2@V?$allocator@H@2@@std@@QAE@XZ 100029a0 f i CreatureBanksExtender.obj
 0001:000019a0       ??1?$unordered_set@IU?$hash@I@std@@U?$equal_to@I@2@V?$allocator@I@2@@std@@QAE@XZ 100029a0 f i RMGObjectsEditor.obj
 0001:000019a0       ??1?$unordered_set@PBDU?$hash@PBD@std@@U?$equal_to@PBD@2@V?$allocator@PBD@2@@std@@QAE@XZ 100029a0 f i ObjectsExtender.obj
 0001:000019b0       ??1?$_Hash@V?$_Uset_traits@EV?$_Uhash_compare@EU?$hash@E@std@@U?$equal_to@E@2@@std@@V?$allocator@E@2@$0A@@std@@@std@@QAE@XZ 100029b0 f i UniversityExtender.obj
 0001:000019b0       ??1?$_Hash@V?$_Uset_traits@HV?$_Uhash_compare@HU?$hash@H@std@@U?$equal_to@H@2@@std@@V?$allocator@H@2@$0A@@std@@@std@@QAE@XZ 100029b0 f i CreatureBanksExtender.obj
 0001:000019b0       ??1?$_Hash@V?$_Uset_traits@IV?$_Uhash_compare@IU?$hash@I@std@@U?$equal_to@I@2@@std@@V?$allocator@I@2@$0A@@std@@@std@@QAE@XZ 100029b0 f i RMGObjectsEditor.obj
 0001:000019b0       ??1?$_Hash@V?$_Uset_traits@PBDV?$_Uhash_compare@PBDU?$hash@PBD@std@@U?$equal_to@PBD@2@@std@@V?$allocator@PBD@2@$0A@@std@@@std@@QAE@XZ 100029b0 f i ObjectsExtender.obj
 0001:00001a40       ??1?$vector@HV?$allocator@H@std@@@std@@QAE@XZ 10002a40 f i CreatureBanksExtender.obj
 0001:00001a40       ??1?$vector@IV?$allocator@I@std@@@std@@QAE@XZ 10002a40 f i CreatureBanksExtender.obj
 0001:00001a40       ??1?$vector@PADV?$allocator@PAD@std@@@std@@QAE@XZ 10002a40 f i SoundManager.obj
 0001:00001a40       ??1?$vector@PAUH3DlgCaptionButton@h3@@V?$allocator@PAUH3DlgCaptionButton@h3@@@std@@@std@@QAE@XZ 10002a40 f i RMG_SettingsDlg.obj
 0001:00001a40       ??1?$vector@PAUH3DlgDef@h3@@V?$allocator@PAUH3DlgDef@h3@@@std@@@std@@QAE@XZ 10002a40 f i RMG_SettingsDlg.obj
 0001:00001a40       ??1?$vector@PAUH3DlgItem@h3@@V?$allocator@PAUH3DlgItem@h3@@@std@@@std@@QAE@XZ 10002a40 f i RMG_SettingsDlg.obj
 0001:00001a40       ??1?$vector@PAUH3WavFile@h3@@V?$allocator@PAUH3WavFile@h3@@@std@@@std@@QAE@XZ 10002a40 f i SoundManager.obj
 0001:00001a40       ??1?$vector@PAUObjectsPanel@RMG_SettingsDlg@rmgdlg@@V?$allocator@PAUObjectsPanel@RMG_SettingsDlg@rmgdlg@@@std@@@std@@QAE@XZ 10002a40 f i RMG_SettingsDlg.obj
 0001:00001a40       ??1?$vector@PAUPage@RMG_SettingsDlg@rmgdlg@@V?$allocator@PAUPage@RMG_SettingsDlg@rmgdlg@@@std@@@std@@QAE@XZ 10002a40 f i RMG_SettingsDlg.obj
 0001:00001a40       ?_Tidy@?$vector@HV?$allocator@H@std@@@std@@AAEXXZ 10002a40 f i CreatureBanksExtender.obj
 0001:00001a40       ?_Tidy@?$vector@PADV?$allocator@PAD@std@@@std@@AAEXXZ 10002a40 f i SoundManager.obj
 0001:00001aa0       ??1?$_Hash_vec@V?$allocator@V?$_List_unchecked_const_iterator@V?$_List_val@U?$_List_simple_types@E@std@@@std@@U_Iterator_base0@2@@std@@@std@@@std@@QAE@XZ 10002aa0 f i UniversityExtender.obj
 0001:00001aa0       ??1?$_Hash_vec@V?$allocator@V?$_List_unchecked_const_iterator@V?$_List_val@U?$_List_simple_types@H@std@@@std@@U_Iterator_base0@2@@std@@@std@@@std@@QAE@XZ 10002aa0 f i CreatureBanksExtender.obj
 0001:00001aa0       ??1?$_Hash_vec@V?$allocator@V?$_List_unchecked_const_iterator@V?$_List_val@U?$_List_simple_types@I@std@@@std@@U_Iterator_base0@2@@std@@@std@@@std@@QAE@XZ 10002aa0 f i RMGObjectsEditor.obj
 0001:00001aa0       ??1?$_Hash_vec@V?$allocator@V?$_List_unchecked_const_iterator@V?$_List_val@U?$_List_simple_types@PBD@std@@@std@@U_Iterator_base0@2@@std@@@std@@@std@@QAE@XZ 10002aa0 f i ObjectsExtender.obj
 0001:00001aa0       ??1?$_Hash_vec@V?$allocator@V?$_List_unchecked_const_iterator@V?$_List_val@U?$_List_simple_types@URMGObjectSetable@extender@@@std@@@std@@U_Iterator_base0@2@@std@@@std@@@std@@QAE@XZ 10002aa0 f i ObjectsExtender.obj
 0001:00001aa0       ??1?$_Hash_vec@V?$allocator@V?$_List_unchecked_iterator@V?$_List_val@U?$_List_simple_types@U?$pair@$$CBKH@std@@@std@@@std@@@std@@@std@@@std@@QAE@XZ 10002aa0 f i SoundManager.obj
 0001:00001aa0       ??1?$_Hash_vec@V?$allocator@V?$_List_unchecked_iterator@V?$_List_val@U?$_List_simple_types@U?$pair@$$CBV?$basic_string@DU?$char_traits@D@std@@V?$allocator@D@2@@std@@I@std@@@std@@@std@@@std@@@std@@@std@@QAE@XZ 10002aa0 f i SoundManager.obj
 0001:00001aa0       ??1?$_Hash_vec@V?$allocator@V?$_List_unchecked_iterator@V?$_List_val@U?$_List_simple_types@U?$pair@$$CBV?$basic_string@DU?$char_traits@D@std@@V?$allocator@D@2@@std@@V12@@std@@@std@@@std@@@std@@@std@@@std@@QAE@XZ 10002aa0 f i ObjectsExtender.obj
 0001:00001b00       ?clear@?$_Hash@V?$_Uset_traits@HV?$_Uhash_compare@HU?$hash@H@std@@U?$equal_to@H@2@@std@@V?$allocator@H@2@$0A@@std@@@std@@QAEXXZ 10002b00 f i CreatureBanksExtender.obj
 0001:00001b90       ??1?$list@EV?$allocator@E@std@@@std@@QAE@XZ 10002b90 f i UniversityExtender.obj
 0001:00001b90       ??1?$list@HV?$allocator@H@std@@@std@@QAE@XZ 10002b90 f i CreatureBanksExtender.obj
 0001:00001b90       ??1?$list@IV?$allocator@I@std@@@std@@QAE@XZ 10002b90 f i RMGObjectsEditor.obj
 0001:00001b90       ??1?$list@PBDV?$allocator@PBD@std@@@std@@QAE@XZ 10002b90 f i ObjectsExtender.obj
 0001:00001bd0       ??1?$vector@UCustomCreatureBank@CreatureBanksExtender@cbanks@@V?$allocator@UCustomCreatureBank@CreatureBanksExtender@cbanks@@@std@@@std@@QAE@XZ 10002bd0 f i CreatureBanksExtender.obj
 0001:00001bd0       ?_Tidy@?$vector@VRMGObject@rmgdlg@@V?$allocator@VRMGObject@rmgdlg@@@std@@@std@@AAEXXZ 10002bd0 f i RMG_SettingsDlg.obj
 0001:00001c30       ?_Xlength@?$vector@HV?$allocator@H@std@@@std@@CAXXZ 10002c30 f i CreatureBanksExtender.obj
 0001:00001c30       ?_Xlength@?$vector@IV?$allocator@I@std@@@std@@CAXXZ 10002c30 f i CreatureBanksExtender.obj
 0001:00001c30       ?_Xlength@?$vector@PADV?$allocator@PAD@std@@@std@@CAXXZ 10002c30 f i SoundManager.obj
 0001:00001c30       ?_Xlength@?$vector@PAUH3DlgDef@h3@@V?$allocator@PAUH3DlgDef@h3@@@std@@@std@@CAXXZ 10002c30 f i RMG_SettingsDlg.obj
 0001:00001c30       ?_Xlength@?$vector@PAUH3DlgItem@h3@@V?$allocator@PAUH3DlgItem@h3@@@std@@@std@@CAXXZ 10002c30 f i RMG_SettingsDlg.obj
 0001:00001c30       ?_Xlength@?$vector@PAUH3WavFile@h3@@V?$allocator@PAUH3WavFile@h3@@@std@@@std@@CAXXZ 10002c30 f i SoundManager.obj
 0001:00001c30       ?_Xlength@?$vector@PAUObjectsPanel@RMG_SettingsDlg@rmgdlg@@V?$allocator@PAUObjectsPanel@RMG_SettingsDlg@rmgdlg@@@std@@@std@@CAXXZ 10002c30 f i RMG_SettingsDlg.obj
 0001:00001c30       ?_Xlength@?$vector@PAUPage@RMG_SettingsDlg@rmgdlg@@V?$allocator@PAUPage@RMG_SettingsDlg@rmgdlg@@@std@@@std@@CAXXZ 10002c30 f i RMG_SettingsDlg.obj
 0001:00001c30       ?_Xlength@?$vector@PAV?$vector@U?$pair@UH3ObjectAttributes@h3@@PAUH3LoadedPcx16@2@@std@@V?$allocator@U?$pair@UH3ObjectAttributes@h3@@PAUH3LoadedPcx16@2@@std@@@2@@std@@V?$allocator@PAV?$vector@U?$pair@UH3ObjectAttributes@h3@@PAUH3LoadedPcx16@2@@std@@V?$allocator@U?$pair@UH3ObjectAttributes@h3@@PAUH3LoadedPcx16@2@@std@@@2@@std@@@2@@std@@CAXXZ 10002c30 f i RMG_SettingsDlg.obj
 0001:00001c30       ?_Xlength@?$vector@PAVObjectsExtender@extender@@V?$allocator@PAVObjectsExtender@extender@@@std@@@std@@CAXXZ 10002c30 f i ObjectsExtender.obj
 0001:00001c30       ?_Xlength@?$vector@U?$pair@UH3ObjectAttributes@h3@@PAUH3LoadedPcx16@2@@std@@V?$allocator@U?$pair@UH3ObjectAttributes@h3@@PAUH3LoadedPcx16@2@@std@@@2@@std@@CAXXZ 10002c30 f i RMG_SettingsDlg.obj
 0001:00001c30       ?_Xlength@?$vector@UCustomCreatureBank@CreatureBanksExtender@cbanks@@V?$allocator@UCustomCreatureBank@CreatureBanksExtender@cbanks@@@std@@@std@@CAXXZ 10002c30 f i CreatureBanksExtender.obj
 0001:00001c30       ?_Xlength@?$vector@UH3CreatureBankSetup@h3@@V?$allocator@UH3CreatureBankSetup@h3@@@std@@@std@@CAXXZ 10002c30 f i CreatureBanksExtender.obj
 0001:00001c30       ?_Xlength@?$vector@UObjectSound@SoundManager@sound@@V?$allocator@UObjectSound@SoundManager@sound@@@std@@@std@@CAXXZ 10002c30 f i ObjectsExtender.obj
 0001:00001c30       ?_Xlength@?$vector@URMGObjectInfo@@V?$allocator@URMGObjectInfo@@@std@@@std@@CAXXZ 10002c30 f i ObjectsExtender.obj
 0001:00001c30       ?_Xlength@?$vector@UUniversityData@UniversityExtender@university@@V?$allocator@UUniversityData@UniversityExtender@university@@@std@@@std@@CAXXZ 10002c30 f i UniversityExtender.obj
 0001:00001c30       ?_Xlength@?$vector@V?$array@H$04@std@@V?$allocator@V?$array@H$04@std@@@2@@std@@CAXXZ 10002c30 f i CreatureBanksExtender.obj
 0001:00001c30       ?_Xlength@?$vector@V?$array@H$0O@@std@@V?$allocator@V?$array@H$0O@@std@@@2@@std@@CAXXZ 10002c30 f i CreatureBanksExtender.obj
 0001:00001c30       ?_Xlength@?$vector@V?$array@UCustomRewardSetupState@CreatureBanksExtender@cbanks@@$03@std@@V?$allocator@V?$array@UCustomRewardSetupState@CreatureBanksExtender@cbanks@@$03@std@@@2@@std@@CAXXZ 10002c30 f i CreatureBanksExtender.obj
 0001:00001c30       ?_Xlength@?$vector@V?$basic_string@DU?$char_traits@D@std@@V?$allocator@D@2@@std@@V?$allocator@V?$basic_string@DU?$char_traits@D@std@@V?$allocator@D@2@@std@@@2@@std@@CAXXZ 10002c30 f i ObjectsExtender.obj
 0001:00001c30       ?_Xlength@?$vector@VRMGObject@rmgdlg@@V?$allocator@VRMGObject@rmgdlg@@@std@@@std@@CAXXZ 10002c30 f i RMG_SettingsDlg.obj
 0001:00001c40       ?_Unchecked_erase@?$_Hash@V?$_Uset_traits@HV?$_Uhash_compare@HU?$hash@H@std@@U?$equal_to@H@2@@std@@V?$allocator@H@2@$0A@@std@@@std@@AAEPAU?$_List_node@HPAX@2@PAU32@QAU32@@Z 10002c40 f i CreatureBanksExtender.obj
 0001:00001dd0       ?_Tidy@?$vector@V?$array@UCustomRewardSetupState@CreatureBanksExtender@cbanks@@$03@std@@V?$allocator@V?$array@UCustomRewardSetupState@CreatureBanksExtender@cbanks@@$03@std@@@2@@std@@AAEXXZ 10002dd0 f i CreatureBanksExtender.obj
 0001:00001e40       ?_Tidy@?$vector@V?$array@H$0O@@std@@V?$allocator@V?$array@H$0O@@std@@@2@@std@@AAEXXZ 10002e40 f i CreatureBanksExtender.obj
 0001:00001eb0       ?_Tidy@?$vector@UH3CreatureBankSetup@h3@@V?$allocator@UH3CreatureBankSetup@h3@@@std@@@std@@AAEXXZ 10002eb0 f i CreatureBanksExtender.obj
 0001:00001f20       ?_Tidy@?$vector@V?$array@H$04@std@@V?$allocator@V?$array@H$04@std@@@2@@std@@AAEXXZ 10002f20 f i CreatureBanksExtender.obj
 0001:00001f90       ?_Assign_grow@?$_Hash_vec@V?$allocator@V?$_List_unchecked_const_iterator@V?$_List_val@U?$_List_simple_types@E@std@@@std@@U_Iterator_base0@2@@std@@@std@@@std@@QAEXIV?$_List_unchecked_const_iterator@V?$_List_val@U?$_List_simple_types@E@std@@@std@@U_Iterator_base0@2@@2@@Z 10002f90 f i UniversityExtender.obj
 0001:00001f90       ?_Assign_grow@?$_Hash_vec@V?$allocator@V?$_List_unchecked_const_iterator@V?$_List_val@U?$_List_simple_types@H@std@@@std@@U_Iterator_base0@2@@std@@@std@@@std@@QAEXIV?$_List_unchecked_const_iterator@V?$_List_val@U?$_List_simple_types@H@std@@@std@@U_Iterator_base0@2@@2@@Z 10002f90 f i CreatureBanksExtender.obj
 0001:00001f90       ?_Assign_grow@?$_Hash_vec@V?$allocator@V?$_List_unchecked_const_iterator@V?$_List_val@U?$_List_simple_types@I@std@@@std@@U_Iterator_base0@2@@std@@@std@@@std@@QAEXIV?$_List_unchecked_const_iterator@V?$_List_val@U?$_List_simple_types@I@std@@@std@@U_Iterator_base0@2@@2@@Z 10002f90 f i RMGObjectsEditor.obj
 0001:00001f90       ?_Assign_grow@?$_Hash_vec@V?$allocator@V?$_List_unchecked_const_iterator@V?$_List_val@U?$_List_simple_types@URMGObjectSetable@extender@@@std@@@std@@U_Iterator_base0@2@@std@@@std@@@std@@QAEXIV?$_List_unchecked_const_iterator@V?$_List_val@U?$_List_simple_types@URMGObjectSetable@extender@@@std@@@std@@U_Iterator_base0@2@@2@@Z 10002f90 f i ObjectsExtender.obj
 0001:00001f90       ?_Assign_grow@?$_Hash_vec@V?$allocator@V?$_List_unchecked_iterator@V?$_List_val@U?$_List_simple_types@U?$pair@$$CBKH@std@@@std@@@std@@@std@@@std@@@std@@QAEXIV?$_List_unchecked_iterator@V?$_List_val@U?$_List_simple_types@U?$pair@$$CBKH@std@@@std@@@std@@@2@@Z 10002f90 f i SoundManager.obj
 0001:00001f90       ?_Assign_grow@?$_Hash_vec@V?$allocator@V?$_List_unchecked_iterator@V?$_List_val@U?$_List_simple_types@U?$pair@$$CBV?$basic_string@DU?$char_traits@D@std@@V?$allocator@D@2@@std@@I@std@@@std@@@std@@@std@@@std@@@std@@QAEXIV?$_List_unchecked_iterator@V?$_List_val@U?$_List_simple_types@U?$pair@$$CBV?$basic_string@DU?$char_traits@D@std@@V?$allocator@D@2@@std@@I@std@@@std@@@std@@@2@@Z 10002f90 f i SoundManager.obj
 0001:00001f90       ?_Assign_grow@?$_Hash_vec@V?$allocator@V?$_List_unchecked_iterator@V?$_List_val@U?$_List_simple_types@U?$pair@$$CBV?$basic_string@DU?$char_traits@D@std@@V?$allocator@D@2@@std@@V12@@std@@@std@@@std@@@std@@@std@@@std@@QAEXIV?$_List_unchecked_iterator@V?$_List_val@U?$_List_simple_types@U?$pair@$$CBV?$basic_string@DU?$char_traits@D@std@@V?$allocator@D@2@@std@@V12@@std@@@std@@@std@@@2@@Z 10002f90 f i ObjectsExtender.obj
 0001:00002050       ?deallocate@?$allocator@UH3CreatureBankSetup@h3@@@std@@QAEXQAUH3CreatureBankSetup@h3@@I@Z 10003050 f i CreatureBanksExtender.obj
 0001:00002090       ?Add@?$H3Vector@UH3PictureCategories@h3@@@h3@@QAEPAUH3PictureCategories@2@ABU32@@Z 10003090 f i CreatureBanksExtender.obj
 0001:000020e0       ??$_Reallocate@$00@?$vector@HV?$allocator@H@std@@@std@@AAEXAAI@Z 100030e0 f i CreatureBanksExtender.obj
 0001:000020e0       ??$_Reallocate@$00@?$vector@PADV?$allocator@PAD@std@@@std@@AAEXAAI@Z 100030e0 f i SoundManager.obj
 0001:000020e0       ??$_Reallocate@$0A@@?$vector@HV?$allocator@H@std@@@std@@AAEXAAI@Z 100030e0 f i CreatureBanksExtender.obj
 0001:000020e0       ??$_Reallocate@$0A@@?$vector@IV?$allocator@I@std@@@std@@AAEXAAI@Z 100030e0 f i CreatureBanksExtender.obj
 0001:000020e0       ??$_Reallocate@$0A@@?$vector@PAUH3DlgItem@h3@@V?$allocator@PAUH3DlgItem@h3@@@std@@@std@@AAEXAAI@Z 100030e0 f i RMG_SettingsDlg.obj
 0001:00002180       ??$fill@PAV?$_List_unchecked_const_iterator@V?$_List_val@U?$_List_simple_types@E@std@@@std@@U_Iterator_base0@2@@std@@V12@@std@@YAXQAV?$_List_unchecked_const_iterator@V?$_List_val@U?$_List_simple_types@E@std@@@std@@U_Iterator_base0@2@@0@0ABV10@@Z 10003180 f i UniversityExtender.obj
 0001:00002180       ??$fill@PAV?$_List_unchecked_const_iterator@V?$_List_val@U?$_List_simple_types@H@std@@@std@@U_Iterator_base0@2@@std@@V12@@std@@YAXQAV?$_List_unchecked_const_iterator@V?$_List_val@U?$_List_simple_types@H@std@@@std@@U_Iterator_base0@2@@0@0ABV10@@Z 10003180 f i CreatureBanksExtender.obj
 0001:00002180       ??$fill@PAV?$_List_unchecked_const_iterator@V?$_List_val@U?$_List_simple_types@I@std@@@std@@U_Iterator_base0@2@@std@@V12@@std@@YAXQAV?$_List_unchecked_const_iterator@V?$_List_val@U?$_List_simple_types@I@std@@@std@@U_Iterator_base0@2@@0@0ABV10@@Z 10003180 f i RMGObjectsEditor.obj
 0001:00002180       ??$fill@PAV?$_List_unchecked_const_iterator@V?$_List_val@U?$_List_simple_types@PBD@std@@@std@@U_Iterator_base0@2@@std@@V12@@std@@YAXQAV?$_List_unchecked_const_iterator@V?$_List_val@U?$_List_simple_types@PBD@std@@@std@@U_Iterator_base0@2@@0@0ABV10@@Z 10003180 f i ObjectsExtender.obj
 0001:00002180       ??$fill@PAV?$_List_unchecked_const_iterator@V?$_List_val@U?$_List_simple_types@URMGObjectSetable@extender@@@std@@@std@@U_Iterator_base0@2@@std@@V12@@std@@YAXQAV?$_List_unchecked_const_iterator@V?$_List_val@U?$_List_simple_types@URMGObjectSetable@extender@@@std@@@std@@U_Iterator_base0@2@@0@0ABV10@@Z 10003180 f i ObjectsExtender.obj
 0001:00002180       ??$fill@PAV?$_List_unchecked_iterator@V?$_List_val@U?$_List_simple_types@U?$pair@$$CBKH@std@@@std@@@std@@@std@@V12@@std@@YAXQAV?$_List_unchecked_iterator@V?$_List_val@U?$_List_simple_types@U?$pair@$$CBKH@std@@@std@@@std@@@0@0ABV10@@Z 10003180 f i SoundManager.obj
 0001:00002180       ??$fill@PAV?$_List_unchecked_iterator@V?$_List_val@U?$_List_simple_types@U?$pair@$$CBV?$basic_string@DU?$char_traits@D@std@@V?$allocator@D@2@@std@@I@std@@@std@@@std@@@std@@V12@@std@@YAXQAV?$_List_unchecked_iterator@V?$_List_val@U?$_List_simple_types@U?$pair@$$CBV?$basic_string@DU?$char_traits@D@std@@V?$allocator@D@2@@std@@I@std@@@std@@@std@@@0@0ABV10@@Z 10003180 f i SoundManager.obj
 0001:00002180       ??$fill@PAV?$_List_unchecked_iterator@V?$_List_val@U?$_List_simple_types@U?$pair@$$CBV?$basic_string@DU?$char_traits@D@std@@V?$allocator@D@2@@std@@V12@@std@@@std@@@std@@@std@@V12@@std@@YAXQAV?$_List_unchecked_iterator@V?$_List_val@U?$_List_simple_types@U?$pair@$$CBV?$basic_string@DU?$char_traits@D@std@@V?$allocator@D@2@@std@@V12@@std@@@std@@@std@@@0@0ABV10@@Z 10003180 f i ObjectsExtender.obj
 0001:000021f0       ??$emplace@H@?$_Hash@V?$_Uset_traits@HV?$_Uhash_compare@HU?$hash@H@std@@U?$equal_to@H@2@@std@@V?$allocator@H@2@$0A@@std@@@std@@QAE?AU?$pair@V?$_List_const_iterator@V?$_List_val@U?$_List_simple_types@H@std@@@std@@@std@@_N@1@$$QAH@Z 100031f0 f i CreatureBanksExtender.obj
 0001:000021f0       ??$emplace@I@?$_Hash@V?$_Uset_traits@IV?$_Uhash_compare@IU?$hash@I@std@@U?$equal_to@I@2@@std@@V?$allocator@I@2@$0A@@std@@@std@@QAE?AU?$pair@V?$_List_const_iterator@V?$_List_val@U?$_List_simple_types@I@std@@@std@@@std@@_N@1@$$QAI@Z 100031f0 f i RMGObjectsEditor.obj
 0001:000023c0       ??$_Reallocate@$00@?$vector@V?$array@UCustomRewardSetupState@CreatureBanksExtender@cbanks@@$03@std@@V?$allocator@V?$array@UCustomRewardSetupState@CreatureBanksExtender@cbanks@@$03@std@@@2@@std@@AAEXAAI@Z 100033c0 f i CreatureBanksExtender.obj
 0001:000023c0       ??$_Reallocate@$0A@@?$vector@V?$array@UCustomRewardSetupState@CreatureBanksExtender@cbanks@@$03@std@@V?$allocator@V?$array@UCustomRewardSetupState@CreatureBanksExtender@cbanks@@$03@std@@@2@@std@@AAEXAAI@Z 100033c0 f i CreatureBanksExtender.obj
 0001:00002430       ??$_Reallocate@$00@?$vector@V?$array@H$0O@@std@@V?$allocator@V?$array@H$0O@@std@@@2@@std@@AAEXAAI@Z 10003430 f i CreatureBanksExtender.obj
 0001:00002430       ??$_Reallocate@$0A@@?$vector@V?$array@H$0O@@std@@V?$allocator@V?$array@H$0O@@std@@@2@@std@@AAEXAAI@Z 10003430 f i CreatureBanksExtender.obj
 0001:000024a0       ??$_Reallocate@$00@?$vector@UH3CreatureBankSetup@h3@@V?$allocator@UH3CreatureBankSetup@h3@@@std@@@std@@AAEXAAI@Z 100034a0 f i CreatureBanksExtender.obj
 0001:000024a0       ??$_Reallocate@$0A@@?$vector@UH3CreatureBankSetup@h3@@V?$allocator@UH3CreatureBankSetup@h3@@@std@@@std@@AAEXAAI@Z 100034a0 f i CreatureBanksExtender.obj
 0001:00002580       ??$_Reallocate@$00@?$vector@V?$array@H$04@std@@V?$allocator@V?$array@H$04@std@@@2@@std@@AAEXAAI@Z 10003580 f i CreatureBanksExtender.obj
 0001:00002580       ??$_Reallocate@$0A@@?$vector@V?$array@H$04@std@@V?$allocator@V?$array@H$04@std@@@2@@std@@AAEXAAI@Z 10003580 f i CreatureBanksExtender.obj
 0001:000025f0       ??$_Destroy_range@V?$allocator@UH3CreatureBankSetup@h3@@@std@@@std@@YAXPAUH3CreatureBankSetup@h3@@QAU12@AAV?$allocator@UH3CreatureBankSetup@h3@@@0@@Z 100035f0 f i CreatureBanksExtender.obj
 0001:00002660       ??$uninitialized_fill@PAV?$_List_unchecked_const_iterator@V?$_List_val@U?$_List_simple_types@E@std@@@std@@U_Iterator_base0@2@@std@@V12@@std@@YAXQAV?$_List_unchecked_const_iterator@V?$_List_val@U?$_List_simple_types@E@std@@@std@@U_Iterator_base0@2@@0@0ABV10@@Z 10003660 f i UniversityExtender.obj
 0001:00002660       ??$uninitialized_fill@PAV?$_List_unchecked_const_iterator@V?$_List_val@U?$_List_simple_types@H@std@@@std@@U_Iterator_base0@2@@std@@V12@@std@@YAXQAV?$_List_unchecked_const_iterator@V?$_List_val@U?$_List_simple_types@H@std@@@std@@U_Iterator_base0@2@@0@0ABV10@@Z 10003660 f i CreatureBanksExtender.obj
 0001:00002660       ??$uninitialized_fill@PAV?$_List_unchecked_const_iterator@V?$_List_val@U?$_List_simple_types@I@std@@@std@@U_Iterator_base0@2@@std@@V12@@std@@YAXQAV?$_List_unchecked_const_iterator@V?$_List_val@U?$_List_simple_types@I@std@@@std@@U_Iterator_base0@2@@0@0ABV10@@Z 10003660 f i RMGObjectsEditor.obj
 0001:00002660       ??$uninitialized_fill@PAV?$_List_unchecked_const_iterator@V?$_List_val@U?$_List_simple_types@PBD@std@@@std@@U_Iterator_base0@2@@std@@V12@@std@@YAXQAV?$_List_unchecked_const_iterator@V?$_List_val@U?$_List_simple_types@PBD@std@@@std@@U_Iterator_base0@2@@0@0ABV10@@Z 10003660 f i ObjectsExtender.obj
 0001:00002660       ??$uninitialized_fill@PAV?$_List_unchecked_const_iterator@V?$_List_val@U?$_List_simple_types@URMGObjectSetable@extender@@@std@@@std@@U_Iterator_base0@2@@std@@V12@@std@@YAXQAV?$_List_unchecked_const_iterator@V?$_List_val@U?$_List_simple_types@URMGObjectSetable@extender@@@std@@@std@@U_Iterator_base0@2@@0@0ABV10@@Z 10003660 f i ObjectsExtender.obj
 0001:00002660       ??$uninitialized_fill@PAV?$_List_unchecked_iterator@V?$_List_val@U?$_List_simple_types@U?$pair@$$CBKH@std@@@std@@@std@@@std@@V12@@std@@YAXQAV?$_List_unchecked_iterator@V?$_List_val@U?$_List_simple_types@U?$pair@$$CBKH@std@@@std@@@std@@@0@0ABV10@@Z 10003660 f i SoundManager.obj
 0001:00002660       ??$uninitialized_fill@PAV?$_List_unchecked_iterator@V?$_List_val@U?$_List_simple_types@U?$pair@$$CBV?$basic_string@DU?$char_traits@D@std@@V?$allocator@D@2@@std@@I@std@@@std@@@std@@@std@@V12@@std@@YAXQAV?$_List_unchecked_iterator@V?$_List_val@U?$_List_simple_types@U?$pair@$$CBV?$basic_string@DU?$char_traits@D@std@@V?$allocator@D@2@@std@@I@std@@@std@@@std@@@0@0ABV10@@Z 10003660 f i SoundManager.obj
 0001:00002660       ??$uninitialized_fill@PAV?$_List_unchecked_iterator@V?$_List_val@U?$_List_simple_types@U?$pair@$$CBV?$basic_string@DU?$char_traits@D@std@@V?$allocator@D@2@@std@@V12@@std@@@std@@@std@@@std@@V12@@std@@YAXQAV?$_List_unchecked_iterator@V?$_List_val@U?$_List_simple_types@U?$pair@$$CBV?$basic_string@DU?$char_traits@D@std@@V?$allocator@D@2@@std@@V12@@std@@@std@@@std@@@0@0ABV10@@Z 10003660 f i ObjectsExtender.obj
 0001:00002680       ??1?$_Alloc_construct_ptr@V?$allocator@U?$_List_node@EPAX@std@@@std@@@std@@QAE@XZ 10003680 f i UniversityExtender.obj
 0001:00002680       ??1?$_Alloc_construct_ptr@V?$allocator@U?$_List_node@HPAX@std@@@std@@@std@@QAE@XZ 10003680 f i CreatureBanksExtender.obj
 0001:00002680       ??1?$_Alloc_construct_ptr@V?$allocator@U?$_List_node@IPAX@std@@@std@@@std@@QAE@XZ 10003680 f i RMGObjectsEditor.obj
 0001:00002680       ??1?$_Alloc_construct_ptr@V?$allocator@U?$_List_node@PBDPAX@std@@@std@@@std@@QAE@XZ 10003680 f i ObjectsExtender.obj
 0001:00002680       ??1?$_List_node_emplace_op2@V?$allocator@U?$_List_node@EPAX@std@@@std@@@std@@QAE@XZ 10003680 f i UniversityExtender.obj
 0001:00002680       ??1?$_List_node_emplace_op2@V?$allocator@U?$_List_node@HPAX@std@@@std@@@std@@QAE@XZ 10003680 f i CreatureBanksExtender.obj
 0001:00002680       ??1?$_List_node_emplace_op2@V?$allocator@U?$_List_node@IPAX@std@@@std@@@std@@QAE@XZ 10003680 f i RMGObjectsEditor.obj
 0001:00002680       ??1?$_List_node_emplace_op2@V?$allocator@U?$_List_node@PBDPAX@std@@@std@@@std@@QAE@XZ 10003680 f i ObjectsExtender.obj
 0001:000026a0       ?_Change_array@?$vector@HV?$allocator@H@std@@@std@@AAEXQAHII@Z 100036a0 f i CreatureBanksExtender.obj
 0001:000026a0       ?_Change_array@?$vector@IV?$allocator@I@std@@@std@@AAEXQAIII@Z 100036a0 f i CreatureBanksExtender.obj
 0001:000026a0       ?_Change_array@?$vector@PADV?$allocator@PAD@std@@@std@@AAEXQAPADII@Z 100036a0 f i SoundManager.obj
 0001:000026a0       ?_Change_array@?$vector@PAUH3DlgItem@h3@@V?$allocator@PAUH3DlgItem@h3@@@std@@@std@@AAEXQAPAUH3DlgItem@h3@@II@Z 100036a0 f i RMG_SettingsDlg.obj
 0001:000026a0       ?_Change_array@?$vector@PAUPage@RMG_SettingsDlg@rmgdlg@@V?$allocator@PAUPage@RMG_SettingsDlg@rmgdlg@@@std@@@std@@AAEXQAPAUPage@RMG_SettingsDlg@rmgdlg@@II@Z 100036a0 f i RMG_SettingsDlg.obj
 0001:00002700       ?_Change_array@?$vector@V?$array@UCustomRewardSetupState@CreatureBanksExtender@cbanks@@$03@std@@V?$allocator@V?$array@UCustomRewardSetupState@CreatureBanksExtender@cbanks@@$03@std@@@2@@std@@AAEXQAV?$array@UCustomRewardSetupState@CreatureBanksExtender@cbanks@@$03@2@II@Z 10003700 f i CreatureBanksExtender.obj
 0001:00002780       ?_Change_array@?$vector@V?$array@H$0O@@std@@V?$allocator@V?$array@H$0O@@std@@@2@@std@@AAEXQAV?$array@H$0O@@2@II@Z 10003780 f i CreatureBanksExtender.obj
 0001:00002810       ?_Change_array@?$vector@UH3CreatureBankSetup@h3@@V?$allocator@UH3CreatureBankSetup@h3@@@std@@@std@@AAEXQAUH3CreatureBankSetup@h3@@II@Z 10003810 f i CreatureBanksExtender.obj
 0001:00002890       ?_Change_array@?$vector@V?$array@H$04@std@@V?$allocator@V?$array@H$04@std@@@2@@std@@AAEXQAV?$array@H$04@2@II@Z 10003890 f i CreatureBanksExtender.obj
 0001:00002910       ?_Forced_rehash@?$_Hash@V?$_Uset_traits@HV?$_Uhash_compare@HU?$hash@H@std@@U?$equal_to@H@2@@std@@V?$allocator@H@2@$0A@@std@@@std@@IAEXI@Z 10003910 f i CreatureBanksExtender.obj
 0001:00002910       ?_Forced_rehash@?$_Hash@V?$_Uset_traits@IV?$_Uhash_compare@IU?$hash@I@std@@U?$equal_to@I@2@@std@@V?$allocator@I@2@$0A@@std@@@std@@IAEXI@Z 10003910 f i RMGObjectsEditor.obj
 0001:00002a70       ??$_Emplace_reallocate@UCustomCreatureBank@CreatureBanksExtender@cbanks@@@?$vector@UCustomCreatureBank@CreatureBanksExtender@cbanks@@V?$allocator@UCustomCreatureBank@CreatureBanksExtender@cbanks@@@std@@@std@@AAEPAUCustomCreatureBank@CreatureBanksExtender@cbanks@@QAU234@$$QAU234@@Z 10003a70 f i CreatureBanksExtender.obj
 0001:00002be0       ??$_Emplace_reallocate@AAUH3CreatureBankSetup@h3@@@?$vector@UH3CreatureBankSetup@h3@@V?$allocator@UH3CreatureBankSetup@h3@@@std@@@std@@AAEPAUH3CreatureBankSetup@h3@@QAU23@AAU23@@Z 10003be0 f i CreatureBanksExtender.obj
 0001:00002d50       ??$_Emplace_reallocate@AAV?$array@UCustomRewardSetupState@CreatureBanksExtender@cbanks@@$03@std@@@?$vector@V?$array@UCustomRewardSetupState@CreatureBanksExtender@cbanks@@$03@std@@V?$allocator@V?$array@UCustomRewardSetupState@CreatureBanksExtender@cbanks@@$03@std@@@2@@std@@AAEPAV?$array@UCustomRewardSetupState@CreatureBanksExtender@cbanks@@$03@1@QAV21@AAV21@@Z 10003d50 f i CreatureBanksExtender.obj
 0001:00002e80       ??$_Emplace_reallocate@AB_N@?$vector@HV?$allocator@H@std@@@std@@AAEPAHQAHAB_N@Z 10003e80 f i CreatureBanksExtender.obj
 0001:00002f70       ??$_Emplace_reallocate@AAV?$array@H$0O@@std@@@?$vector@V?$array@H$0O@@std@@V?$allocator@V?$array@H$0O@@std@@@2@@std@@AAEPAV?$array@H$0O@@1@QAV21@AAV21@@Z 10003f70 f i CreatureBanksExtender.obj
 0001:000030c0       ??$_Emplace_reallocate@AAH@?$vector@HV?$allocator@H@std@@@std@@AAEPAHQAHAAH@Z 100040c0 f i CreatureBanksExtender.obj
 0001:000030c0       ??$_Emplace_reallocate@AAH@?$vector@IV?$allocator@I@std@@@std@@AAEPAIQAIAAH@Z 100040c0 f i CreatureBanksExtender.obj
 0001:000030c0       ??$_Emplace_reallocate@AAPAD@?$vector@PADV?$allocator@PAD@std@@@std@@AAEPAPADQAPADAAPAD@Z 100040c0 f i SoundManager.obj
 0001:000030c0       ??$_Emplace_reallocate@AAPAUH3DlgDef@h3@@@?$vector@PAUH3DlgItem@h3@@V?$allocator@PAUH3DlgItem@h3@@@std@@@std@@AAEPAPAUH3DlgItem@h3@@QAPAU23@AAPAUH3DlgDef@3@@Z 100040c0 f i RMG_SettingsDlg.obj
 0001:000030c0       ??$_Emplace_reallocate@AAPAUH3DlgDefButton@h3@@@?$vector@PAUH3DlgItem@h3@@V?$allocator@PAUH3DlgItem@h3@@@std@@@std@@AAEPAPAUH3DlgItem@h3@@QAPAU23@AAPAUH3DlgDefButton@3@@Z 100040c0 f i RMG_SettingsDlg.obj
 0001:000030c0       ??$_Emplace_reallocate@AAPAUH3DlgEdit@h3@@@?$vector@PAUH3DlgItem@h3@@V?$allocator@PAUH3DlgItem@h3@@@std@@@std@@AAEPAPAUH3DlgItem@h3@@QAPAU23@AAPAUH3DlgEdit@3@@Z 100040c0 f i RMG_SettingsDlg.obj
 0001:000030c0       ??$_Emplace_reallocate@AAPAUH3DlgFrame@h3@@@?$vector@PAUH3DlgItem@h3@@V?$allocator@PAUH3DlgItem@h3@@@std@@@std@@AAEPAPAUH3DlgItem@h3@@QAPAU23@AAPAUH3DlgFrame@3@@Z 100040c0 f i RMG_SettingsDlg.obj
 0001:000030c0       ??$_Emplace_reallocate@AAPAUH3DlgPcx16@h3@@@?$vector@PAUH3DlgItem@h3@@V?$allocator@PAUH3DlgItem@h3@@@std@@@std@@AAEPAPAUH3DlgItem@h3@@QAPAU23@AAPAUH3DlgPcx16@3@@Z 100040c0 f i RMG_SettingsDlg.obj
 0001:000030c0       ??$_Emplace_reallocate@AAPAUH3DlgText@h3@@@?$vector@PAUH3DlgItem@h3@@V?$allocator@PAUH3DlgItem@h3@@@std@@@std@@AAEPAPAUH3DlgItem@h3@@QAPAU23@AAPAUH3DlgText@3@@Z 100040c0 f i RMG_SettingsDlg.obj
 0001:000030c0       ??$_Emplace_reallocate@PAUBanksPage@RMG_SettingsDlg@rmgdlg@@@?$vector@PAUPage@RMG_SettingsDlg@rmgdlg@@V?$allocator@PAUPage@RMG_SettingsDlg@rmgdlg@@@std@@@std@@AAEPAPAUPage@RMG_SettingsDlg@rmgdlg@@QAPAU234@$$QAPAUBanksPage@34@@Z 100040c0 f i RMG_SettingsDlg.obj
 0001:000030c0       ??$_Emplace_reallocate@PAUH3DlgFrame@h3@@@?$vector@PAUH3DlgItem@h3@@V?$allocator@PAUH3DlgItem@h3@@@std@@@std@@AAEPAPAUH3DlgItem@h3@@QAPAU23@$$QAPAUH3DlgFrame@3@@Z 100040c0 f i RMG_SettingsDlg.obj
 0001:000030c0       ??$_Emplace_reallocate@PAUObjectsPage@RMG_SettingsDlg@rmgdlg@@@?$vector@PAUPage@RMG_SettingsDlg@rmgdlg@@V?$allocator@PAUPage@RMG_SettingsDlg@rmgdlg@@@std@@@std@@AAEPAPAUPage@RMG_SettingsDlg@rmgdlg@@QAPAU234@$$QAPAUObjectsPage@34@@Z 100040c0 f i RMG_SettingsDlg.obj
 0001:000031b0       ??$_Emplace_reallocate@AAV?$array@H$04@std@@@?$vector@V?$array@H$04@std@@V?$allocator@V?$array@H$04@std@@@2@@std@@AAEPAV?$array@H$04@1@QAV21@AAV21@@Z 100041b0 f i CreatureBanksExtender.obj
 0001:000032d0       ??$_Find_last@H@?$_Hash@V?$_Uset_traits@HV?$_Uhash_compare@HU?$hash@H@std@@U?$equal_to@H@2@@std@@V?$allocator@H@2@$0A@@std@@@std@@IBE?AU?$_Hash_find_last_result@PAU?$_List_node@HPAX@std@@@1@ABHI@Z 100042d0 f i CreatureBanksExtender.obj
 0001:000032d0       ??$_Find_last@I@?$_Hash@V?$_Uset_traits@IV?$_Uhash_compare@IU?$hash@I@std@@U?$equal_to@I@2@@std@@V?$allocator@I@2@$0A@@std@@@std@@IBE?AU?$_Hash_find_last_result@PAU?$_List_node@IPAX@std@@@1@ABII@Z 100042d0 f i RMGObjectsEditor.obj
 0001:000032d0       ??$_Find_last@K@?$_Hash@V?$_Umap_traits@KHV?$_Uhash_compare@KU?$hash@K@std@@U?$equal_to@K@2@@std@@V?$allocator@U?$pair@$$CBKH@std@@@2@$0A@@std@@@std@@IBE?AU?$_Hash_find_last_result@PAU?$_List_node@U?$pair@$$CBKH@std@@PAX@std@@@1@ABKI@Z 100042d0 f i SoundManager.obj
 0001:000032d0       ??$_Find_last@PBD@?$_Hash@V?$_Uset_traits@PBDV?$_Uhash_compare@PBDU?$hash@PBD@std@@U?$equal_to@PBD@2@@std@@V?$allocator@PBD@2@$0A@@std@@@std@@IBE?AU?$_Hash_find_last_result@PAU?$_List_node@PBDPAX@std@@@1@ABQBDI@Z 100042d0 f i ObjectsExtender.obj
 0001:00003340       ??$_Resize_reallocate@U_Value_init_tag@std@@@?$vector@V?$array@UCustomRewardSetupState@CreatureBanksExtender@cbanks@@$03@std@@V?$allocator@V?$array@UCustomRewardSetupState@CreatureBanksExtender@cbanks@@$03@std@@@2@@std@@AAEXIABU_Value_init_tag@1@@Z 10004340 f i CreatureBanksExtender.obj
 0001:00003410       ??$_Uninitialized_value_construct_n@V?$allocator@V?$array@UCustomRewardSetupState@CreatureBanksExtender@cbanks@@$03@std@@@std@@@std@@YAPAV?$array@UCustomRewardSetupState@CreatureBanksExtender@cbanks@@$03@0@PAV10@IAAV?$allocator@V?$array@UCustomRewardSetupState@CreatureBanksExtender@cbanks@@$03@std@@@0@@Z 10004410 f i CreatureBanksExtender.obj
 0001:00003460       ??$_Resize_reallocate@U_Value_init_tag@std@@@?$vector@V?$array@H$0O@@std@@V?$allocator@V?$array@H$0O@@std@@@2@@std@@AAEXIABU_Value_init_tag@1@@Z 10004460 f i CreatureBanksExtender.obj
 0001:00003560       ??$_Uninitialized_copy@PAUH3CreatureBankSetup@h3@@PAU12@V?$allocator@UH3CreatureBankSetup@h3@@@std@@@std@@YAPAUH3CreatureBankSetup@h3@@PAU12@00AAV?$allocator@UH3CreatureBankSetup@h3@@@0@@Z 10004560 f i CreatureBanksExtender.obj
 0001:000035e0       ??$_Resize_reallocate@U_Value_init_tag@std@@@?$vector@UH3CreatureBankSetup@h3@@V?$allocator@UH3CreatureBankSetup@h3@@@std@@@std@@AAEXIABU_Value_init_tag@1@@Z 100045e0 f i CreatureBanksExtender.obj
 0001:00003740       ??$_Uninitialized_value_construct_n@V?$allocator@UH3CreatureBankSetup@h3@@@std@@@std@@YAPAUH3CreatureBankSetup@h3@@PAU12@IAAV?$allocator@UH3CreatureBankSetup@h3@@@0@@Z 10004740 f i CreatureBanksExtender.obj
 0001:000037b0       ??$_Resize_reallocate@U_Value_init_tag@std@@@?$vector@V?$array@H$04@std@@V?$allocator@V?$array@H$04@std@@@2@@std@@AAEXIABU_Value_init_tag@1@@Z 100047b0 f i CreatureBanksExtender.obj
 0001:00003890       ??$_Resize_reallocate@U_Value_init_tag@std@@@?$vector@HV?$allocator@H@std@@@std@@AAEXIABU_Value_init_tag@1@@Z 10004890 f i CreatureBanksExtender.obj
 0001:00003940       ??1?$_Uninitialized_backout_al@V?$allocator@UH3CreatureBankSetup@h3@@@std@@@std@@QAE@XZ 10004940 f i CreatureBanksExtender.obj
 0001:000039b0       ?Reserve@?$H3Vector@UH3PictureCategories@h3@@@h3@@QAEHI@Z 100049b0 f i CreatureBanksExtender.obj
 0001:00003ad0       ??$construct@UH3CreatureBankSetup@h3@@AAU12@@?$_Default_allocator_traits@V?$allocator@UH3CreatureBankSetup@h3@@@std@@@std@@SAXAAV?$allocator@UH3CreatureBankSetup@h3@@@1@QAUH3CreatureBankSetup@h3@@AAU34@@Z 10004ad0 f i CreatureBanksExtender.obj
 0001:00003c10       ??$_Uninitialized_move@PAUH3CreatureBankSetup@h3@@V?$allocator@UH3CreatureBankSetup@h3@@@std@@@std@@YAPAUH3CreatureBankSetup@h3@@QAU12@0PAU12@AAV?$allocator@UH3CreatureBankSetup@h3@@@0@@Z 10004c10 f i CreatureBanksExtender.obj
 0001:00003dc0       ?Reserve@?$H3Vector@V?$array@H$01@std@@@h3@@QAEHI@Z 10004dc0 f i CreatureBanksExtender.obj
 0001:00003eb0       ??0H3CreatureInformation@h3@@QAE@ABU01@@Z 10004eb0 f i HillFortExtender.obj
 0001:00004150       ??_EUniversityExtender@university@@EAEPAXI@Z 10005150 f i * CIL library *:* CIL module *
 0001:00004150       ??_GUniversityExtender@university@@EAEPAXI@Z 10005150 f i UniversityExtender.obj
 0001:00004190       ??1?$vector@UUniversityData@UniversityExtender@university@@V?$allocator@UUniversityData@UniversityExtender@university@@@std@@@std@@QAE@XZ 10005190 f i UniversityExtender.obj
 0001:000041f0       ??$emplace@E@?$_Hash@V?$_Uset_traits@EV?$_Uhash_compare@EU?$hash@E@std@@U?$equal_to@E@2@@std@@V?$allocator@E@2@$0A@@std@@@std@@QAE?AU?$pair@V?$_List_const_iterator@V?$_List_val@U?$_List_simple_types@E@std@@@std@@@std@@_N@1@$$QAE@Z 100051f0 f i UniversityExtender.obj
 0001:000043a0       ?_Forced_rehash@?$_Hash@V?$_Uset_traits@EV?$_Uhash_compare@EU?$hash@E@std@@U?$equal_to@E@2@@std@@V?$allocator@E@2@$0A@@std@@@std@@IAEXI@Z 100053a0 f i UniversityExtender.obj
 0001:000044e0       ??$_Find_last@E@?$_Hash@V?$_Uset_traits@EV?$_Uhash_compare@EU?$hash@E@std@@U?$equal_to@E@2@@std@@V?$allocator@E@2@$0A@@std@@@std@@IBE?AU?$_Hash_find_last_result@PAU?$_List_node@EPAX@std@@@1@ABEI@Z 100054e0 f i UniversityExtender.obj
 0001:00004550       ??$_Resize_reallocate@U_Value_init_tag@std@@@?$vector@UUniversityData@UniversityExtender@university@@V?$allocator@UUniversityData@UniversityExtender@university@@@std@@@std@@AAEXIABU_Value_init_tag@1@@Z 10005550 f i UniversityExtender.obj
 0001:00004690       ??$_Uninitialized_value_construct_n@V?$allocator@UUniversityData@UniversityExtender@university@@@std@@@std@@YAPAUUniversityData@UniversityExtender@university@@PAU123@IAAV?$allocator@UUniversityData@UniversityExtender@university@@@0@@Z 10005690 f i UniversityExtender.obj
 0001:000046c0       ??0exception@std@@QAE@QBD@Z 100056c0 f i ObjectsExtender.obj
 0001:00004700       ??0runtime_error@std@@QAE@ABV01@@Z 10005700 f i ObjectsExtender.obj
 0001:00004740       ?default_error_condition@error_category@std@@UBE?AVerror_condition@2@H@Z 10005740 f i ObjectsExtender.obj
 0001:00004760       ?equivalent@error_category@std@@UBE_NHABVerror_condition@2@@Z 10005760 f i ObjectsExtender.obj
 0001:000047a0       ?equivalent@error_category@std@@UBE_NABVerror_code@2@H@Z 100057a0 f i ObjectsExtender.obj
 0001:000047d0       ?make_error_code@std@@YA?AVerror_code@1@W4io_errc@1@@Z 100057d0 f i ObjectsExtender.obj
 0001:000047f0       ??0_System_error@std@@IAE@Verror_code@1@ABV?$basic_string@DU?$char_traits@D@std@@V?$allocator@D@2@@1@@Z 100057f0 f i ObjectsExtender.obj
 0001:00004980       ??_E_System_error@std@@UAEPAXI@Z 10005980 f i * CIL library *:* CIL module *
 0001:00004980       ??_Efailure@ios_base@std@@UAEPAXI@Z 10005980 f i * CIL library *:* CIL module *
 0001:00004980       ??_Esystem_error@std@@UAEPAXI@Z 10005980 f i * CIL library *:* CIL module *
 0001:00004980       ??_G_System_error@std@@UAEPAXI@Z 10005980 f i ObjectsExtender.obj
 0001:00004980       ??_Gfailure@ios_base@std@@UAEPAXI@Z 10005980 f i ObjectsExtender.obj
 0001:00004980       ??_Gsystem_error@std@@UAEPAXI@Z 10005980 f i ObjectsExtender.obj
 0001:000049b0       ??0system_error@std@@QAE@ABV01@@Z 100059b0 f i ObjectsExtender.obj
 0001:00004a00       ??0_System_error@std@@QAE@ABV01@@Z 10005a00 f i ObjectsExtender.obj
 0001:00004a50       ?name@_Iostream_error_category2@std@@UBEPBDXZ 10005a50 f i ObjectsExtender.obj
 0001:00004a60       ?message@_Iostream_error_category2@std@@UBE?AV?$basic_string@DU?$char_traits@D@std@@V?$allocator@D@2@@2@H@Z 10005a60 f i ObjectsExtender.obj
 0001:00004b10       ??_E_Iostream_error_category2@std@@UAEPAXI@Z 10005b10 f i * CIL library *:* CIL module *
 0001:00004b10       ??_G_Iostream_error_category2@std@@UAEPAXI@Z 10005b10 f i ObjectsExtender.obj
 0001:00004b30       ??0bad_cast@std@@QAE@XZ    10005b30 f i ObjectsExtender.obj
 0001:00004b50       ?_Throw_bad_cast@std@@YAXXZ 10005b50 f i ObjectsExtender.obj
 0001:00004b70       ??0bad_cast@std@@QAE@ABV01@@Z 10005b70 f i ObjectsExtender.obj
 0001:00004bb0       ??_E_Facet_base@std@@UAEPAXI@Z 10005bb0 f i * CIL library *:* CIL module *
 0001:00004bb0       ??_G_Facet_base@std@@UAEPAXI@Z 10005bb0 f i ObjectsExtender.obj
 0001:00004be0       ?_Incref@facet@locale@std@@UAEXXZ 10005be0 f i ObjectsExtender.obj
 0001:00004bf0       ?_Decref@facet@locale@std@@UAEPAV_Facet_base@3@XZ 10005bf0 f i ObjectsExtender.obj
 0001:00004c10       ??1locale@std@@QAE@XZ      10005c10 f i ObjectsExtender.obj
 0001:00004c30       ?_Getcat@?$ctype@D@std@@SAIPAPBVfacet@locale@2@PBV42@@Z 10005c30 f i ObjectsExtender.obj
 0001:00004e20       ?do_tolower@?$ctype@D@std@@MBEDD@Z 10005e20 f i ObjectsExtender.obj
 0001:00004e40       ?do_tolower@?$ctype@D@std@@MBEPBDPADPBD@Z 10005e40 f i ObjectsExtender.obj
 0001:00004e70       ?do_toupper@?$ctype@D@std@@MBEDD@Z 10005e70 f i ObjectsExtender.obj
 0001:00004e90       ?do_toupper@?$ctype@D@std@@MBEPBDPADPBD@Z 10005e90 f i ObjectsExtender.obj
 0001:00004ec0       ?do_widen@?$ctype@D@std@@MBEDD@Z 10005ec0 f i ObjectsExtender.obj
 0001:00004ed0       ?do_widen@?$ctype@D@std@@MBEPBDPBD0PAD@Z 10005ed0 f i ObjectsExtender.obj
 0001:00004ef0       ?do_narrow@?$ctype@D@std@@MBEDDD@Z 10005ef0 f i ObjectsExtender.obj
 0001:00004f00       ?do_narrow@?$ctype@D@std@@MBEPBDPBD0DPAD@Z 10005f00 f i ObjectsExtender.obj
 0001:00004f20       ??_E?$ctype@D@std@@MAEPAXI@Z 10005f20 f i * CIL library *:* CIL module *
 0001:00004f20       ??_G?$ctype@D@std@@MAEPAXI@Z 10005f20 f i ObjectsExtender.obj
 0001:00004fb0       ??0failure@ios_base@std@@QAE@PBDABVerror_code@2@@Z 10005fb0 f i ObjectsExtender.obj
 0001:00005090       ?clear@ios_base@std@@QAEXH_N@Z 10006090 f i ObjectsExtender.obj
 0001:00005110       ??0failure@ios_base@std@@QAE@ABV012@@Z 10006110 f i ObjectsExtender.obj
 0001:00005160       ??_Eios_base@std@@UAEPAXI@Z 10006160 f i * CIL library *:* CIL module *
 0001:00005160       ??_Gios_base@std@@UAEPAXI@Z 10006160 f i ObjectsExtender.obj
 0001:000051c0       ?GetEraModList@modList@@YAHAAV?$vector@V?$basic_string@DU?$char_traits@D@std@@V?$allocator@D@2@@std@@V?$allocator@V?$basic_string@DU?$char_traits@D@std@@V?$allocator@D@2@@std@@@2@@std@@H@Z 100061c0 f i ObjectsExtender.obj
 0001:00005720       ??_D?$basic_istringstream@DU?$char_traits@D@std@@V?$allocator@D@2@@std@@QAEXXZ 10006720 f i ObjectsExtender.obj
 0001:000057b0       ??1thread@std@@QAE@XZ      100067b0 f i ObjectsExtender.obj
 0001:000057c0       ??1?$unordered_set@URMGObjectSetable@extender@@UHashFunction@12@U?$equal_to@URMGObjectSetable@extender@@@std@@V?$allocator@URMGObjectSetable@extender@@@5@@std@@QAE@XZ 100067c0 f i ObjectsExtender.obj
 0001:000057d0       ??1?$_Hash@V?$_Umap_traits@KHV?$_Uhash_compare@KU?$hash@K@std@@U?$equal_to@K@2@@std@@V?$allocator@U?$pair@$$CBKH@std@@@2@$0A@@std@@@std@@QAE@XZ 100067d0 f i SoundManager.obj
 0001:000057d0       ??1?$_Hash@V?$_Uset_traits@URMGObjectSetable@extender@@V?$_Uhash_compare@URMGObjectSetable@extender@@UHashFunction@12@U?$equal_to@URMGObjectSetable@extender@@@std@@@std@@V?$allocator@URMGObjectSetable@extender@@@4@$0A@@std@@@std@@QAE@XZ 100067d0 f i ObjectsExtender.obj
 0001:00005860       ??1?$list@U?$pair@$$CBKH@std@@V?$allocator@U?$pair@$$CBKH@std@@@2@@std@@QAE@XZ 10006860 f i SoundManager.obj
 0001:00005860       ??1?$list@URMGObjectSetable@extender@@V?$allocator@URMGObjectSetable@extender@@@std@@@std@@QAE@XZ 10006860 f i ObjectsExtender.obj
 0001:000058a0       ??1?$vector@UObjectSound@SoundManager@sound@@V?$allocator@UObjectSound@SoundManager@sound@@@std@@@std@@QAE@XZ 100068a0 f i ObjectsExtender.obj
 0001:00005900       ??1?$list@U?$pair@$$CBV?$basic_string@DU?$char_traits@D@std@@V?$allocator@D@2@@std@@V12@@std@@V?$allocator@U?$pair@$$CBV?$basic_string@DU?$char_traits@D@std@@V?$allocator@D@2@@std@@V12@@std@@@2@@std@@QAE@XZ 10006900 f i ObjectsExtender.obj
 0001:00005950       ??1?$vector@URMGObjectInfo@@V?$allocator@URMGObjectInfo@@@std@@@std@@QAE@XZ 10006950 f i ObjectsExtender.obj
 0001:000059c0       ??0?$vector@URMGObjectInfo@@V?$allocator@URMGObjectInfo@@@std@@@std@@QAE@XZ 100069c0 f i ObjectsExtender.obj
 0001:000059e0       ?seekpos@?$basic_stringbuf@DU?$char_traits@D@std@@V?$allocator@D@2@@std@@MAE?AV?$fpos@U_Mbstatet@@@2@V32@H@Z 100069e0 f i ObjectsExtender.obj
 0001:00005b50       ?seekoff@?$basic_stringbuf@DU?$char_traits@D@std@@V?$allocator@D@2@@std@@MAE?AV?$fpos@U_Mbstatet@@@2@_JHH@Z 10006b50 f i ObjectsExtender.obj
 0001:00005d40       ?underflow@?$basic_stringbuf@DU?$char_traits@D@std@@V?$allocator@D@2@@std@@MAEHXZ 10006d40 f i ObjectsExtender.obj
 0001:00005db0       ?pbackfail@?$basic_stringbuf@DU?$char_traits@D@std@@V?$allocator@D@2@@std@@MAEHH@Z 10006db0 f i ObjectsExtender.obj
 0001:00005e10       ?overflow@?$basic_stringbuf@DU?$char_traits@D@std@@V?$allocator@D@2@@std@@MAEHH@Z 10006e10 f i ObjectsExtender.obj
 0001:00005f60       ??1?$basic_stringbuf@DU?$char_traits@D@std@@V?$allocator@D@2@@std@@UAE@XZ 10006f60 f i ObjectsExtender.obj
 0001:00006080       ?OnClose@H3Dlg@h3@@UAEXH@Z 10007080 f i RMG_SettingsDlg.obj
 0001:00006080       ?imbue@?$basic_streambuf@DU?$char_traits@D@std@@@std@@MAEXABVlocale@2@@Z 10007080 f i ObjectsExtender.obj
 0001:00006080       ?vParentActivate_10@H3Dlg@h3@@MAEXPAUH3DlgItem@2@@Z 10007080 f i RMG_SettingsDlg.obj
 0001:00006090       ?sync@?$basic_streambuf@DU?$char_traits@D@std@@@std@@MAEHXZ 10007090 f i ObjectsExtender.obj
 0001:00006090       ?vGetStatusBar@H3Dlg@h3@@MAEPAUH3DlgTextPcx@2@XZ 10007090 f i RMG_SettingsDlg.obj
 0001:000060a0       ?setbuf@?$basic_streambuf@DU?$char_traits@D@std@@@std@@MAEPAV12@PAD_J@Z 100070a0 f i ObjectsExtender.obj
 0001:000060b0       ?seekpos@?$basic_streambuf@DU?$char_traits@D@std@@@std@@MAE?AV?$fpos@U_Mbstatet@@@2@V32@H@Z 100070b0 f i ObjectsExtender.obj
 0001:000060e0       ?seekoff@?$basic_streambuf@DU?$char_traits@D@std@@@std@@MAE?AV?$fpos@U_Mbstatet@@@2@_JHH@Z 100070e0 f i ObjectsExtender.obj
 0001:00006110       ?xsputn@?$basic_streambuf@DU?$char_traits@D@std@@@std@@MAE_JPBD_J@Z 10007110 f i ObjectsExtender.obj
 0001:000061f0       ?xsgetn@?$basic_streambuf@DU?$char_traits@D@std@@@std@@MAE_JPAD_J@Z 100071f0 f i ObjectsExtender.obj
 0001:000062d0       ?uflow@?$basic_streambuf@DU?$char_traits@D@std@@@std@@MAEHXZ 100072d0 f i ObjectsExtender.obj
 0001:00006300       ?underflow@?$basic_streambuf@DU?$char_traits@D@std@@@std@@MAEHXZ 10007300 f i ObjectsExtender.obj
 0001:00006310       ?showmanyc@?$basic_streambuf@DU?$char_traits@D@std@@@std@@MAE_JXZ 10007310 f i ObjectsExtender.obj
 0001:00006320       ?overflow@?$basic_streambuf@DU?$char_traits@D@std@@@std@@MAEHH@Z 10007320 f i ObjectsExtender.obj
 0001:00006320       ?pbackfail@?$basic_streambuf@DU?$char_traits@D@std@@@std@@MAEHH@Z 10007320 f i ObjectsExtender.obj
 0001:00006330       ??1?$basic_streambuf@DU?$char_traits@D@std@@@std@@UAE@XZ 10007330 f i ObjectsExtender.obj
 0001:00006370       ??0?$basic_istringstream@DU?$char_traits@D@std@@V?$allocator@D@2@@std@@QAE@ABV?$basic_string@DU?$char_traits@D@std@@V?$allocator@D@2@@1@H@Z 10007370 f i ObjectsExtender.obj
 0001:00006670       ??1?$basic_istream@DU?$char_traits@D@std@@@std@@UAE@XZ 10007670 f i ObjectsExtender.obj
 0001:00006690       ??1?$basic_ios@DU?$char_traits@D@std@@@std@@UAE@XZ 10007690 f i ObjectsExtender.obj
 0001:000066e0       ??1?$vector@V?$basic_string@DU?$char_traits@D@std@@V?$allocator@D@2@@std@@V?$allocator@V?$basic_string@DU?$char_traits@D@std@@V?$allocator@D@2@@std@@@2@@std@@QAE@XZ 100076e0 f i ObjectsExtender.obj
 0001:00006750       ??1?$_Yarn@D@std@@QAE@XZ   10007750 f i ObjectsExtender.obj
 0001:00006750       ??1?$_Yarn@_W@std@@QAE@XZ  10007750 f i ObjectsExtender.obj
 0001:00006770       ?find@?$basic_string@DU?$char_traits@D@std@@V?$allocator@D@2@@std@@QBEIQBDI@Z 10007770 f i ObjectsExtender.obj
 0001:00006880       ??0?$basic_string@DU?$char_traits@D@std@@V?$allocator@D@2@@std@@QAE@ABV01@@Z 10007880 f i ObjectsExtender.obj
 0001:00006930       ??_E?$basic_stringbuf@DU?$char_traits@D@std@@V?$allocator@D@2@@std@@UAEPAXI@Z 10007930 f i * CIL library *:* CIL module *
 0001:00006930       ??_G?$basic_stringbuf@DU?$char_traits@D@std@@V?$allocator@D@2@@std@@UAEPAXI@Z 10007930 f i ObjectsExtender.obj
 0001:00006960       ??_E?$basic_streambuf@DU?$char_traits@D@std@@@std@@UAEPAXI@Z 10007960 f i * CIL library *:* CIL module *
 0001:00006960       ??_G?$basic_streambuf@DU?$char_traits@D@std@@@std@@UAEPAXI@Z 10007960 f i ObjectsExtender.obj
 0001:000069b0       ??_E?$basic_istringstream@DU?$char_traits@D@std@@V?$allocator@D@2@@std@@UAEPAXI@Z 100079b0 f i * CIL library *:* CIL module *
 0001:000069b0       ??_G?$basic_istringstream@DU?$char_traits@D@std@@V?$allocator@D@2@@std@@UAEPAXI@Z 100079b0 f i ObjectsExtender.obj
 0001:00006a50       ??_E?$basic_istream@DU?$char_traits@D@std@@@std@@UAEPAXI@Z 10007a50 f i * CIL library *:* CIL module *
 0001:00006a50       ??_G?$basic_istream@DU?$char_traits@D@std@@@std@@UAEPAXI@Z 10007a50 f i ObjectsExtender.obj
 0001:00006ad0       ??_E?$basic_ios@DU?$char_traits@D@std@@@std@@UAEPAXI@Z 10007ad0 f i * CIL library *:* CIL module *
 0001:00006ad0       ??_G?$basic_ios@DU?$char_traits@D@std@@@std@@UAEPAXI@Z 10007ad0 f i ObjectsExtender.obj
 0001:00006b30       ??0?$fpos@U_Mbstatet@@@std@@QAE@_J@Z 10007b30 f i ObjectsExtender.obj
 0001:00006b60       ??0?$basic_ios@DU?$char_traits@D@std@@@std@@IAE@XZ 10007b60 f i ObjectsExtender.obj
 0001:00006bd0       ?append@?$basic_string@DU?$char_traits@D@std@@V?$allocator@D@2@@std@@QAEAAV12@QBDI@Z 10007bd0 f i ObjectsExtender.obj
 0001:00006d30       ?deallocate@?$allocator@V?$basic_string@DU?$char_traits@D@std@@V?$allocator@D@2@@std@@@std@@QAEXQAV?$basic_string@DU?$char_traits@D@std@@V?$allocator@D@2@@2@I@Z 10007d30 f i ObjectsExtender.obj
 0001:00006d70       ?setstate@?$basic_ios@DU?$char_traits@D@std@@@std@@QAEXH_N@Z 10007d70 f i ObjectsExtender.obj
 0001:00006da0       ?_Xran@?$_String_val@U?$_Simple_types@D@std@@@std@@SAXXZ 10007da0 f i ObjectsExtender.obj
 0001:00006db0       ??$use_facet@V?$ctype@D@std@@@std@@YAABV?$ctype@D@0@ABVlocale@0@@Z 10007db0 f i ObjectsExtender.obj
 0001:00006ed0       ??$getline@DU?$char_traits@D@std@@V?$allocator@D@2@@std@@YAAAV?$basic_istream@DU?$char_traits@D@std@@@0@AAV10@AAV?$basic_string@DU?$char_traits@D@std@@V?$allocator@D@2@@0@@Z 10007ed0 f i ObjectsExtender.obj
 0001:00006f70       ??$?5DU?$char_traits@D@std@@V?$allocator@D@1@@std@@YAAAV?$basic_istream@DU?$char_traits@D@std@@@0@AAV10@AAV?$basic_string@DU?$char_traits@D@std@@V?$allocator@D@2@@0@@Z 10007f70 f i ObjectsExtender.obj
 0001:00007150       ??$emplace@URMGObjectSetable@extender@@@?$_Hash@V?$_Uset_traits@URMGObjectSetable@extender@@V?$_Uhash_compare@URMGObjectSetable@extender@@UHashFunction@12@U?$equal_to@URMGObjectSetable@extender@@@std@@@std@@V?$allocator@URMGObjectSetable@extender@@@4@$0A@@std@@@std@@QAE?AU?$pair@V?$_List_const_iterator@V?$_List_val@U?$_List_simple_types@URMGObjectSetable@extender@@@std@@@std@@@std@@_N@1@$$QAURMGObjectSetable@extender@@@Z 10008150 f i ObjectsExtender.obj
 0001:00007300       ??$_Destroy_range@V?$allocator@V?$basic_string@DU?$char_traits@D@std@@V?$allocator@D@2@@std@@@std@@@std@@YAXPAV?$basic_string@DU?$char_traits@D@std@@V?$allocator@D@2@@0@QAV10@AAV?$allocator@V?$basic_string@DU?$char_traits@D@std@@V?$allocator@D@2@@std@@@0@@Z 10008300 f i ObjectsExtender.obj
 0001:00007360       ??$_Reallocate@$0A@@?$vector@V?$basic_string@DU?$char_traits@D@std@@V?$allocator@D@2@@std@@V?$allocator@V?$basic_string@DU?$char_traits@D@std@@V?$allocator@D@2@@std@@@2@@std@@AAEXAAI@Z 10008360 f i ObjectsExtender.obj
 0001:000073d0       ??1sentry@?$basic_istream@DU?$char_traits@D@std@@@std@@QAE@XZ 100083d0 f i ObjectsExtender.obj
 0001:00007420       ??1?$_Alloc_construct_ptr@V?$allocator@U?$_List_node@U?$pair@$$CBKH@std@@PAX@std@@@std@@@std@@QAE@XZ 10008420 f i SoundManager.obj
 0001:00007420       ??1?$_Alloc_construct_ptr@V?$allocator@U?$_List_node@URMGObjectSetable@extender@@PAX@std@@@std@@@std@@QAE@XZ 10008420 f i ObjectsExtender.obj
 0001:00007420       ??1?$_List_node_emplace_op2@V?$allocator@U?$_List_node@U?$pair@$$CBKH@std@@PAX@std@@@std@@@std@@QAE@XZ 10008420 f i SoundManager.obj
 0001:00007420       ??1?$_List_node_emplace_op2@V?$allocator@U?$_List_node@URMGObjectSetable@extender@@PAX@std@@@std@@@std@@QAE@XZ 10008420 f i ObjectsExtender.obj
 0001:00007440       ??1_Sentry_base@?$basic_istream@DU?$char_traits@D@std@@@std@@QAE@XZ 10008440 f i ObjectsExtender.obj
 0001:00007440       ??1_Sentry_base@?$basic_ostream@DU?$char_traits@D@std@@@std@@QAE@XZ 10008440 f i ObjectsExtender.obj
 0001:00007480       ??1?$unique_ptr@V_Facet_base@std@@U?$default_delete@V_Facet_base@std@@@2@@std@@QAE@XZ 10008480 f i ObjectsExtender.obj
 0001:00007490       ?_Rehash_for_1@?$_Hash@V?$_Uset_traits@PBDV?$_Uhash_compare@PBDU?$hash@PBD@std@@U?$equal_to@PBD@2@@std@@V?$allocator@PBD@2@$0A@@std@@@std@@IAEXXZ 10008490 f i ObjectsExtender.obj
 0001:000074f0       ?snextc@?$basic_streambuf@DU?$char_traits@D@std@@@std@@QAEHXZ 100084f0 f i ObjectsExtender.obj
 0001:00007560       ?_Change_array@?$vector@V?$basic_string@DU?$char_traits@D@std@@V?$allocator@D@2@@std@@V?$allocator@V?$basic_string@DU?$char_traits@D@std@@V?$allocator@D@2@@std@@@2@@std@@AAEXQAV?$basic_string@DU?$char_traits@D@std@@V?$allocator@D@2@@2@II@Z 10008560 f i ObjectsExtender.obj
 0001:000075e0       ?push_back@?$basic_string@DU?$char_traits@D@std@@V?$allocator@D@2@@std@@QAEXD@Z 100085e0 f i ObjectsExtender.obj
 0001:000076f0       ?_Forced_rehash@?$_Hash@V?$_Uset_traits@URMGObjectSetable@extender@@V?$_Uhash_compare@URMGObjectSetable@extender@@UHashFunction@12@U?$equal_to@URMGObjectSetable@extender@@@std@@@std@@V?$allocator@URMGObjectSetable@extender@@@4@$0A@@std@@@std@@IAEXI@Z 100086f0 f i ObjectsExtender.obj
 0001:00007830       ?_Assign_grow@?$_Hash_vec@V?$allocator@V?$_List_unchecked_const_iterator@V?$_List_val@U?$_List_simple_types@PBD@std@@@std@@U_Iterator_base0@2@@std@@@std@@@std@@QAEXIV?$_List_unchecked_const_iterator@V?$_List_val@U?$_List_simple_types@PBD@std@@@std@@U_Iterator_base0@2@@2@@Z 10008830 f i ObjectsExtender.obj
 0001:000078f0       ?_Forced_rehash@?$_Hash@V?$_Uset_traits@PBDV?$_Uhash_compare@PBDU?$hash@PBD@std@@U?$equal_to@PBD@2@@std@@V?$allocator@PBD@2@$0A@@std@@@std@@IAEXI@Z 100088f0 f i ObjectsExtender.obj
 0001:00007a50       ?_Ipfx@?$basic_istream@DU?$char_traits@D@std@@@std@@QAE_N_N@Z 10008a50 f i ObjectsExtender.obj
 0001:00007be0       ?flush@?$basic_ostream@DU?$char_traits@D@std@@@std@@QAEAAV12@XZ 10008be0 f i ObjectsExtender.obj
 0001:00007d20       ??1sentry@?$basic_ostream@DU?$char_traits@D@std@@@std@@QAE@XZ 10008d20 f i ObjectsExtender.obj
 0001:00007d80       ?_Osfx@?$basic_ostream@DU?$char_traits@D@std@@@std@@QAEXXZ 10008d80 f i ObjectsExtender.obj
 0001:00007e00       ??$getline@DU?$char_traits@D@std@@V?$allocator@D@2@@std@@YAAAV?$basic_istream@DU?$char_traits@D@std@@@0@$$QAV10@AAV?$basic_string@DU?$char_traits@D@std@@V?$allocator@D@2@@0@D@Z 10008e00 f i ObjectsExtender.obj
 0001:00007fb0       ??$_Emplace_reallocate@AAV?$basic_string@DU?$char_traits@D@std@@V?$allocator@D@2@@std@@@?$vector@V?$basic_string@DU?$char_traits@D@std@@V?$allocator@D@2@@std@@V?$allocator@V?$basic_string@DU?$char_traits@D@std@@V?$allocator@D@2@@std@@@2@@std@@AAEPAV?$basic_string@DU?$char_traits@D@std@@V?$allocator@D@2@@1@QAV21@AAV21@@Z 10008fb0 f i ObjectsExtender.obj
 0001:00008110       ??$_Emplace_reallocate@PAVObjectsExtender@extender@@@?$vector@PAVObjectsExtender@extender@@V?$allocator@PAVObjectsExtender@extender@@@std@@@std@@AAEPAPAVObjectsExtender@extender@@QAPAV23@$$QAPAV23@@Z 10009110 f i ObjectsExtender.obj
 0001:00008250       ??$_Emplace_reallocate@AAURMGObjectInfo@@@?$vector@URMGObjectInfo@@V?$allocator@URMGObjectInfo@@@std@@@std@@AAEPAURMGObjectInfo@@QAU2@AAU2@@Z 10009250 f i ObjectsExtender.obj
 0001:00008390       ??$_Emplace_reallocate@UObjectSound@SoundManager@sound@@@?$vector@UObjectSound@SoundManager@sound@@V?$allocator@UObjectSound@SoundManager@sound@@@std@@@std@@AAEPAUObjectSound@SoundManager@sound@@QAU234@$$QAU234@@Z 10009390 f i ObjectsExtender.obj
 0001:000084c0       ??$emplace@U?$pair@V?$basic_string@DU?$char_traits@D@std@@V?$allocator@D@2@@std@@V12@@std@@@?$_Hash@V?$_Umap_traits@V?$basic_string@DU?$char_traits@D@std@@V?$allocator@D@2@@std@@V12@V?$_Uhash_compare@V?$basic_string@DU?$char_traits@D@std@@V?$allocator@D@2@@std@@U?$hash@V?$basic_string@DU?$char_traits@D@std@@V?$allocator@D@2@@std@@@2@U?$equal_to@V?$basic_string@DU?$char_traits@D@std@@V?$allocator@D@2@@std@@@2@@2@V?$allocator@U?$pair@$$CBV?$basic_string@DU?$char_traits@D@std@@V?$allocator@D@2@@std@@V12@@std@@@2@$0A@@std@@@std@@QAE?AU?$pair@V?$_List_iterator@V?$_List_val@U?$_List_simple_types@U?$pair@$$CBV?$basic_string@DU?$char_traits@D@std@@V?$allocator@D@2@@std@@V12@@std@@@std@@@std@@@std@@_N@1@$$QAU?$pair@V?$basic_string@DU?$char_traits@D@std@@V?$allocator@D@2@@std@@V12@@1@@Z 100094c0 f i ObjectsExtender.obj
 0001:00008710       ??$?RURMGObjectSetable@extender@@@?$_Uhash_compare@URMGObjectSetable@extender@@UHashFunction@12@U?$equal_to@URMGObjectSetable@extender@@@std@@@std@@QBEIABURMGObjectSetable@extender@@@Z 10009710 f i ObjectsExtender.obj
 0001:00008790       ??$_Find_last@URMGObjectSetable@extender@@@?$_Hash@V?$_Uset_traits@URMGObjectSetable@extender@@V?$_Uhash_compare@URMGObjectSetable@extender@@UHashFunction@12@U?$equal_to@URMGObjectSetable@extender@@@std@@@std@@V?$allocator@URMGObjectSetable@extender@@@4@$0A@@std@@@std@@IBE?AU?$_Hash_find_last_result@PAU?$_List_node@URMGObjectSetable@extender@@PAX@std@@@1@ABURMGObjectSetable@extender@@I@Z 10009790 f i ObjectsExtender.obj
 0001:00008800       ??$_Uninitialized_move@PAV?$basic_string@DU?$char_traits@D@std@@V?$allocator@D@2@@std@@V?$allocator@V?$basic_string@DU?$char_traits@D@std@@V?$allocator@D@2@@std@@@2@@std@@YAPAV?$basic_string@DU?$char_traits@D@std@@V?$allocator@D@2@@0@QAV10@0PAV10@AAV?$allocator@V?$basic_string@DU?$char_traits@D@std@@V?$allocator@D@2@@std@@@0@@Z 10009800 f i ObjectsExtender.obj
 0001:00008870       ??1?$_List_node_emplace_op2@V?$allocator@U?$_List_node@U?$pair@$$CBV?$basic_string@DU?$char_traits@D@std@@V?$allocator@D@2@@std@@V12@@std@@PAX@std@@@std@@@std@@QAE@XZ 10009870 f i ObjectsExtender.obj
 0001:000088a0       ??1?$unique_ptr@V?$tuple@P6AXABV?$vector@UObjectSound@SoundManager@sound@@V?$allocator@UObjectSound@SoundManager@sound@@@std@@@std@@@ZV12@@std@@U?$default_delete@V?$tuple@P6AXABV?$vector@UObjectSound@SoundManager@sound@@V?$allocator@UObjectSound@SoundManager@sound@@@std@@@std@@@ZV12@@std@@@2@@std@@QAE@XZ 100098a0 f i ObjectsExtender.obj
 0001:00008900       ?_Change_array@?$vector@URMGObjectInfo@@V?$allocator@URMGObjectInfo@@@std@@@std@@AAEXQAURMGObjectInfo@@II@Z 10009900 f i ObjectsExtender.obj
 0001:00008980       ??1?$_Alloc_construct_ptr@V?$allocator@U?$_List_node@U?$pair@$$CBV?$basic_string@DU?$char_traits@D@std@@V?$allocator@D@2@@std@@V12@@std@@PAX@std@@@std@@@std@@QAE@XZ 10009980 f i ObjectsExtender.obj
 0001:000089a0       ?_Forced_rehash@?$_Hash@V?$_Umap_traits@V?$basic_string@DU?$char_traits@D@std@@V?$allocator@D@2@@std@@V12@V?$_Uhash_compare@V?$basic_string@DU?$char_traits@D@std@@V?$allocator@D@2@@std@@U?$hash@V?$basic_string@DU?$char_traits@D@std@@V?$allocator@D@2@@std@@@2@U?$equal_to@V?$basic_string@DU?$char_traits@D@std@@V?$allocator@D@2@@std@@@2@@2@V?$allocator@U?$pair@$$CBV?$basic_string@DU?$char_traits@D@std@@V?$allocator@D@2@@std@@V12@@std@@@2@$0A@@std@@@std@@IAEXI@Z 100099a0 f i ObjectsExtender.obj
 0001:00008d20       ?Reserve@?$H3Vector@H@h3@@QAEHI@Z 10009d20 f i RMG_SettingsDlg.obj
 0001:00008d20       ?Reserve@?$H3Vector@PAUH3DlgItem@h3@@@h3@@QAEHI@Z 10009d20 f i RMG_SettingsDlg.obj
 0001:00008d20       ?Reserve@?$H3Vector@PAUH3RmgObjectGenerator@h3@@@h3@@QAEHI@Z 10009d20 f i ObjectsExtender.obj
 0001:00008d20       ?Reserve@?$H3Vector@PBD@h3@@QAEHI@Z 10009d20 f i ObjectsExtender.obj
 0001:00008e10       ??$_Insert_range_unchecked@PAPBDPAPBD@?$_Hash@V?$_Uset_traits@PBDV?$_Uhash_compare@PBDU?$hash@PBD@std@@U?$equal_to@PBD@2@@std@@V?$allocator@PBD@2@$0A@@std@@@std@@IAEXPAPBDQAPBD@Z 10009e10 f i ObjectsExtender.obj
 0001:00008fc0       ??$_Invoke@V?$tuple@P6AXABV?$vector@UObjectSound@SoundManager@sound@@V?$allocator@UObjectSound@SoundManager@sound@@@std@@@std@@@ZV12@@std@@$0A@$00@thread@std@@CGIPAX@Z 10009fc0 f i ObjectsExtender.obj
 0001:00009010       ??$_Find_last@V?$basic_string@DU?$char_traits@D@std@@V?$allocator@D@2@@std@@@?$_Hash@V?$_Umap_traits@V?$basic_string@DU?$char_traits@D@std@@V?$allocator@D@2@@std@@V12@V?$_Uhash_compare@V?$basic_string@DU?$char_traits@D@std@@V?$allocator@D@2@@std@@U?$hash@V?$basic_string@DU?$char_traits@D@std@@V?$allocator@D@2@@std@@@2@U?$equal_to@V?$basic_string@DU?$char_traits@D@std@@V?$allocator@D@2@@std@@@2@@2@V?$allocator@U?$pair@$$CBV?$basic_string@DU?$char_traits@D@std@@V?$allocator@D@2@@std@@V12@@std@@@2@$0A@@std@@@std@@IBE?AU?$_Hash_find_last_result@PAU?$_List_node@U?$pair@$$CBV?$basic_string@DU?$char_traits@D@std@@V?$allocator@D@2@@std@@V12@@std@@PAX@std@@@1@ABV?$basic_string@DU?$char_traits@D@std@@V?$allocator@D@2@@1@I@Z 1000a010 f i ObjectsExtender.obj
 0001:00009100       ??$destroy@U?$pair@$$CBV?$basic_string@DU?$char_traits@D@std@@V?$allocator@D@2@@std@@V12@@std@@@?$_Default_allocator_traits@V?$allocator@U?$_List_node@U?$pair@$$CBV?$basic_string@DU?$char_traits@D@std@@V?$allocator@D@2@@std@@V12@@std@@PAX@std@@@std@@@std@@SAXAAV?$allocator@U?$_List_node@U?$pair@$$CBV?$basic_string@DU?$char_traits@D@std@@V?$allocator@D@2@@std@@V12@@std@@PAX@std@@@1@QAU?$pair@$$CBV?$basic_string@DU?$char_traits@D@std@@V?$allocator@D@2@@std@@V12@@1@@Z 1000a100 f i ObjectsExtender.obj
 0001:0000918d       ??_E?$basic_istream@DU?$char_traits@D@std@@@std@@$4PPPPPPPM@A@AEPAXI@Z 1000a18d f i ObjectsExtender.obj
 0001:00009195       ??_E?$basic_istringstream@DU?$char_traits@D@std@@V?$allocator@D@2@@std@@$4PPPPPPPM@A@AEPAXI@Z 1000a195 f i ObjectsExtender.obj
 0001:000091a0       ??_ERMGObjectsEditor@editor@@EAEPAXI@Z 1000a1a0 f i * CIL library *:* CIL module *
 0001:000091a0       ??_GRMGObjectsEditor@editor@@EAEPAXI@Z 1000a1a0 f i RMGObjectsEditor.obj
 0001:00009230       ??1PseudoH3RmgRandomMapGenerator@editor@@QAE@XZ 1000a230 f i RMGObjectsEditor.obj
 0001:00009300       ?resize@?$vector@URMGObjectInfo@@V?$allocator@URMGObjectInfo@@@std@@@std@@QAEXI@Z 1000a300 f i RMGObjectsEditor.obj
 0001:00009370       ??0?$H3Vector@UH3ObjectAttributes@h3@@@h3@@QAE@XZ 1000a370 f i RMGObjectsEditor.obj
 0001:00009390       ??1?$H3Vector@UH3ObjectAttributes@h3@@@h3@@QAE@XZ 1000a390 f i RMGObjectsEditor.obj
 0001:00009420       ??1?$H3Vector@PAUH3RmgObjectGenerator@h3@@@h3@@QAE@XZ 1000a420 f i RMGObjectsEditor.obj
 0001:00009480       ??$fill@PAHH@std@@YAXQAH0ABH@Z 1000a480 f i RMGObjectsEditor.obj
 0001:00009480       ??$fill@PAHI@std@@YAXQAH0ABI@Z 1000a480 f i RMGObjectsEditor.obj
 0001:00009500       ??$swap@U?$H3Vector@PAUH3RmgObjectGenerator@h3@@@h3@@$0A@@std@@YAXAAU?$H3Vector@PAUH3RmgObjectGenerator@h3@@@h3@@0@Z 1000a500 f i RMGObjectsEditor.obj
 0001:000095d0       ??$_Assign_counted_range@PAURMGObjectInfo@@@?$vector@URMGObjectInfo@@V?$allocator@URMGObjectInfo@@@std@@@std@@AAEXPAURMGObjectInfo@@I@Z 1000a5d0 f i RMGObjectsEditor.obj
 0001:00009770       ??$?0PAD$0A@@?$basic_string@DU?$char_traits@D@std@@V?$allocator@D@2@@std@@QAE@PAD0ABV?$allocator@D@1@@Z 1000a770 f i RMGObjectsEditor.obj
 0001:00009830       ??$_Resize_reallocate@U_Value_init_tag@std@@@?$vector@URMGObjectInfo@@V?$allocator@URMGObjectInfo@@@std@@@std@@AAEXIABU_Value_init_tag@1@@Z 1000a830 f i RMGObjectsEditor.obj
 0001:00009900       ??$_Uninitialized_value_construct_n@V?$allocator@URMGObjectInfo@@@std@@@std@@YAPAURMGObjectInfo@@PAU1@IAAV?$allocator@URMGObjectInfo@@@0@@Z 1000a900 f i RMGObjectsEditor.obj
 0001:00009950       ??1?$unique_ptr@V?$tuple@P6AXPBF@ZPBF@std@@U?$default_delete@V?$tuple@P6AXPBF@ZPBF@std@@@2@@std@@QAE@XZ 1000a950 f i RMGObjectsEditor.obj
 0001:00009970       ??$_Invoke@V?$tuple@P6AXPBF@ZPBF@std@@$0A@$00@thread@std@@CGIPAX@Z 1000a970 f i RMGObjectsEditor.obj
 0001:000099d0       ??1H3BasePalette565@h3@@QAE@XZ 1000a9d0 f i RMG_SettingsDlg.obj
 0001:00009a10       ?FrameRegion@H3LoadedPcx16@h3@@QAEHHHHHHHH@Z 1000aa10 f i RMG_SettingsDlg.obj
 0001:00009cb0       ?AddItem@H3BaseDlg@h3@@QAEPAUH3DlgItem@2@PAU32@H@Z 1000acb0 f i RMG_SettingsDlg.obj
 0001:00009d10       ?CreateText@H3BaseDlg@h3@@QAEPAUH3DlgText@2@HHHHPBD0HHW4eTextAlignment@NTextAlignment@NH3Dlg@2@H@Z 1000ad10 f i RMG_SettingsDlg.obj
 0001:00009dd0       ??0H3Dlg@h3@@QAE@HHHHHHH@Z 1000add0 f i RMG_SettingsDlg.obj
 0001:00009f30       ??1H3NetworkDlg@h3@@QAE@XZ 1000af30 f i RMG_SettingsDlg.obj
 0001:00009f90       ??1H3Dlg@h3@@QAE@XZ        1000af90 f i RMG_SettingsDlg.obj
 0001:0000a020       ?AddBackground@H3Dlg@h3@@QAEHHHHHHHHH@Z 1000b020 f i RMG_SettingsDlg.obj
 0001:0000a250       ?vDestroy@H3Dlg@h3@@MAEPAU12@XZ 1000b250 f i RMG_SettingsDlg.obj
 0001:0000a260       ?vShow@H3Dlg@h3@@MAEHHD@Z  1000b260 f i RMG_SettingsDlg.obj
 0001:0000a270       ?vHide@H3Dlg@h3@@MAEHD@Z   1000b270 f i RMG_SettingsDlg.obj
 0001:0000a280       ?vPreProcess@H3Dlg@h3@@MAEHAAUH3Msg@2@@Z 1000b280 f i RMG_SettingsDlg.obj
 0001:0000a290       ?vRedraw@H3Dlg@h3@@MAEDDHH@Z 1000b290 f i RMG_SettingsDlg.obj
 0001:0000a2a0       ?vShowAndRun@H3Dlg@h3@@MAEHD@Z 1000b2a0 f i RMG_SettingsDlg.obj
 0001:0000a2b0       ?vInitiateItems@H3Dlg@h3@@MAEHXZ 1000b2b0 f i RMG_SettingsDlg.obj
 0001:0000a2c0       ?vActivateItems@H3Dlg@h3@@MAEHD@Z 1000b2c0 f i RMG_SettingsDlg.obj
 0001:0000a2d0       ?vOnMouseMove@H3Dlg@h3@@MAEDHH@Z 1000b2d0 f i RMG_SettingsDlg.obj
 0001:0000a2e0       ?vOnRightClick@H3Dlg@h3@@MAEDH@Z 1000b2e0 f i RMG_SettingsDlg.obj
 0001:0000a2f0       ?vOnLeftClick@H3Dlg@h3@@MAEDHAAD@Z 1000b2f0 f i RMG_SettingsDlg.obj
 0001:0000a300       ?vEndDialogOnTimeExpired@H3Dlg@h3@@MAEHAAUH3Msg@2@@Z 1000b300 f i RMG_SettingsDlg.obj
 0001:0000a310       ?vDialogProc@H3Dlg@h3@@MAEHAAUH3Msg@2@@Z 1000b310 f i RMG_SettingsDlg.obj
 0001:0000a590       ?OnDoubleClick@H3Dlg@h3@@UAEHHAAUH3Msg@2@@Z 1000b590 f i RMG_SettingsDlg.obj
 0001:0000a590       ?OnKeyHeld@H3Dlg@h3@@UAEHW4eVirtualKeys@NH3VKey@2@W4eMessageMsgFlag@NMessageMsgFlag@NH3Messages@2@@Z 1000b590 f i RMG_SettingsDlg.obj
 0001:0000a590       ?OnKeyPress@H3Dlg@h3@@UAEHW4eVirtualKeys@NH3VKey@2@W4eMessageMsgFlag@NMessageMsgFlag@NH3Messages@2@@Z 1000b590 f i RMG_SettingsDlg.obj
 0001:0000a590       ?OnLeftClick@H3Dlg@h3@@UAEHHAAUH3Msg@2@@Z 1000b590 f i RMG_SettingsDlg.obj
 0001:0000a590       ?OnMouseHover@H3Dlg@h3@@UAEHHH@Z 1000b590 f i RMG_SettingsDlg.obj
 0001:0000a590       ?OnNotify@H3Dlg@h3@@UAEHPAUH3DlgItem@2@AAUH3Msg@2@@Z 1000b590 f i RMG_SettingsDlg.obj
 0001:0000a5a0       ?DialogProc@H3Dlg@h3@@UAEHAAUH3Msg@2@@Z 1000b5a0 f i RMG_SettingsDlg.obj
 0001:0000a5a0       ?OnMouseHover@H3Dlg@h3@@UAEHPAUH3DlgItem@2@@Z 1000b5a0 f i RMG_SettingsDlg.obj
 0001:0000a5a0       ?OnMouseWheel@H3Dlg@h3@@UAEHH@Z 1000b5a0 f i RMG_SettingsDlg.obj
 0001:0000a5a0       ?OnRightClick@H3Dlg@h3@@UAEHPAUH3DlgItem@2@@Z 1000b5a0 f i RMG_SettingsDlg.obj
 0001:0000a5a0       ?OnWheelButton@H3Dlg@h3@@UAEHPAUH3DlgItem@2@@Z 1000b5a0 f i RMG_SettingsDlg.obj
 0001:0000a5b0       ?OnCreate@H3Dlg@h3@@UAEHXZ 1000b5b0 f i RMG_SettingsDlg.obj
 0001:0000a5b0       ?OnLeftClickOutside@H3Dlg@h3@@UAEHXZ 1000b5b0 f i RMG_SettingsDlg.obj
 0001:0000a5b0       ?OnRightClickOutside@H3Dlg@h3@@UAEHXZ 1000b5b0 f i RMG_SettingsDlg.obj
 0001:0000a5c0       ?ClickSound@H3SoundManager@h3@@QAEXXZ 1000b5c0 f i RMG_SettingsDlg.obj
 0001:0000a600       ??_ERMG_SettingsDlg@rmgdlg@@EAEPAXI@Z 1000b600 f i * CIL library *:* CIL module *
 0001:0000a600       ??_GRMG_SettingsDlg@rmgdlg@@EAEPAXI@Z 1000b600 f i RMG_SettingsDlg.obj
 0001:0000a680       ??_EBanksPage@RMG_SettingsDlg@rmgdlg@@UAEPAXI@Z 1000b680 f i * CIL library *:* CIL module *
 0001:0000a680       ??_GBanksPage@RMG_SettingsDlg@rmgdlg@@UAEPAXI@Z 1000b680 f i RMG_SettingsDlg.obj
 0001:0000a6b0       ??_EObjectsPanel@RMG_SettingsDlg@rmgdlg@@UAEPAXI@Z 1000b6b0 f i * CIL library *:* CIL module *
 0001:0000a6b0       ??_GObjectsPanel@RMG_SettingsDlg@rmgdlg@@UAEPAXI@Z 1000b6b0 f i RMG_SettingsDlg.obj
 0001:0000a740       ??_EPage@RMG_SettingsDlg@rmgdlg@@UAEPAXI@Z 1000b740 f i * CIL library *:* CIL module *
 0001:0000a740       ??_GPage@RMG_SettingsDlg@rmgdlg@@UAEPAXI@Z 1000b740 f i RMG_SettingsDlg.obj
 0001:0000a770       ??_EObjectsPage@RMG_SettingsDlg@rmgdlg@@UAEPAXI@Z 1000b770 f i * CIL library *:* CIL module *
 0001:0000a770       ??_GObjectsPage@RMG_SettingsDlg@rmgdlg@@UAEPAXI@Z 1000b770 f i RMG_SettingsDlg.obj
 0001:0000a7a0       ??_EMiscPage@RMG_SettingsDlg@rmgdlg@@UAEPAXI@Z 1000b7a0 f i * CIL library *:* CIL module *
 0001:0000a7a0       ??_GMiscPage@RMG_SettingsDlg@rmgdlg@@UAEPAXI@Z 1000b7a0 f i RMG_SettingsDlg.obj
 0001:0000a7d0       ??1?$array@V?$vector@HV?$allocator@H@std@@@std@@$03@std@@QAE@XZ 1000b7d0 f i RMG_SettingsDlg.obj
 0001:0000a810       ??1?$vector@U?$pair@UH3ObjectAttributes@h3@@PAUH3LoadedPcx16@2@@std@@V?$allocator@U?$pair@UH3ObjectAttributes@h3@@PAUH3LoadedPcx16@2@@std@@@2@@std@@QAE@XZ 1000b810 f i RMG_SettingsDlg.obj
 0001:0000a820       ??1?$vector@VRMGObject@rmgdlg@@V?$allocator@VRMGObject@rmgdlg@@@std@@@std@@QAE@XZ 1000b820 f i RMG_SettingsDlg.obj
 0001:0000a830       ??0?$vector@HV?$allocator@H@std@@@std@@QAE@V?$initializer_list@H@1@ABV?$allocator@H@1@@Z 1000b830 f i RMG_SettingsDlg.obj
 0001:0000a8b0       ?_Tidy@?$vector@U?$pair@UH3ObjectAttributes@h3@@PAUH3LoadedPcx16@2@@std@@V?$allocator@U?$pair@UH3ObjectAttributes@h3@@PAUH3LoadedPcx16@2@@std@@@2@@std@@AAEXXZ 1000b8b0 f i RMG_SettingsDlg.obj
 0001:0000a970       ?deallocate@?$allocator@U?$pair@UH3ObjectAttributes@h3@@PAUH3LoadedPcx16@2@@std@@@std@@QAEXQAU?$pair@UH3ObjectAttributes@h3@@PAUH3LoadedPcx16@2@@2@I@Z 1000b970 f i RMG_SettingsDlg.obj
 0001:0000a9b0       ??1?$H3BinaryLoader@UH3LoadedDef@h3@@@h3@@QAE@XZ 1000b9b0 f i RMG_SettingsDlg.obj
 0001:0000a9b0       ??1?$H3BinaryLoader@UH3LoadedPcx@h3@@@h3@@QAE@XZ 1000b9b0 f i RMG_SettingsDlg.obj
 0001:0000a9f0       ??$_Destroy_range@V?$allocator@U?$pair@UH3ObjectAttributes@h3@@PAUH3LoadedPcx16@2@@std@@@std@@@std@@YAXPAU?$pair@UH3ObjectAttributes@h3@@PAUH3LoadedPcx16@2@@0@QAU10@AAV?$allocator@U?$pair@UH3ObjectAttributes@h3@@PAUH3LoadedPcx16@2@@std@@@0@@Z 1000b9f0 f i RMG_SettingsDlg.obj
 0001:0000aa50       ??$_Reallocate@$00@?$vector@U?$pair@UH3ObjectAttributes@h3@@PAUH3LoadedPcx16@2@@std@@V?$allocator@U?$pair@UH3ObjectAttributes@h3@@PAUH3LoadedPcx16@2@@std@@@2@@std@@AAEXAAI@Z 1000ba50 f i RMG_SettingsDlg.obj
 0001:0000aa50       ??$_Reallocate@$0A@@?$vector@U?$pair@UH3ObjectAttributes@h3@@PAUH3LoadedPcx16@2@@std@@V?$allocator@U?$pair@UH3ObjectAttributes@h3@@PAUH3LoadedPcx16@2@@std@@@2@@std@@AAEXAAI@Z 1000ba50 f i RMG_SettingsDlg.obj
 0001:0000ab00       ??$_Assign_counted_range@PAU?$pair@UH3ObjectAttributes@h3@@PAUH3LoadedPcx16@2@@std@@@?$vector@U?$pair@UH3ObjectAttributes@h3@@PAUH3LoadedPcx16@2@@std@@V?$allocator@U?$pair@UH3ObjectAttributes@h3@@PAUH3LoadedPcx16@2@@std@@@2@@std@@AAEXPAU?$pair@UH3ObjectAttributes@h3@@PAUH3LoadedPcx16@2@@1@I@Z 1000bb00 f i RMG_SettingsDlg.obj
 0001:0000adc0       ??$_Reallocate@$00@?$vector@VRMGObject@rmgdlg@@V?$allocator@VRMGObject@rmgdlg@@@std@@@std@@AAEXAAI@Z 1000bdc0 f i RMG_SettingsDlg.obj
 0001:0000adc0       ??$_Reallocate@$0A@@?$vector@VRMGObject@rmgdlg@@V?$allocator@VRMGObject@rmgdlg@@@std@@@std@@AAEXAAI@Z 1000bdc0 f i RMG_SettingsDlg.obj
 0001:0000ae30       ??0H3ObjectAttributes@h3@@QAE@$$QAU01@@Z 1000be30 f i RMG_SettingsDlg.obj
 0001:0000aed0       ?_Change_array@?$vector@U?$pair@UH3ObjectAttributes@h3@@PAUH3LoadedPcx16@2@@std@@V?$allocator@U?$pair@UH3ObjectAttributes@h3@@PAUH3LoadedPcx16@2@@std@@@2@@std@@AAEXQAU?$pair@UH3ObjectAttributes@h3@@PAUH3LoadedPcx16@2@@2@II@Z 1000bed0 f i RMG_SettingsDlg.obj
 0001:0000afa0       ?_Change_array@?$vector@VRMGObject@rmgdlg@@V?$allocator@VRMGObject@rmgdlg@@@std@@@std@@AAEXQAVRMGObject@rmgdlg@@II@Z 1000bfa0 f i RMG_SettingsDlg.obj
 0001:0000b160       ??$_Emplace_reallocate@ABUH3ObjectAttributes@h3@@ABQAUH3LoadedPcx16@2@@?$vector@VRMGObject@rmgdlg@@V?$allocator@VRMGObject@rmgdlg@@@std@@@std@@AAEPAVRMGObject@rmgdlg@@QAV23@ABUH3ObjectAttributes@h3@@ABQAUH3LoadedPcx16@5@@Z 1000c160 f i RMG_SettingsDlg.obj
 0001:0000b300       ??$_Emplace_reallocate@AAPAUH3DlgDef@h3@@@?$vector@PAUH3DlgDef@h3@@V?$allocator@PAUH3DlgDef@h3@@@std@@@std@@AAEPAPAUH3DlgDef@h3@@QAPAU23@AAPAU23@@Z 1000c300 f i RMG_SettingsDlg.obj
 0001:0000b300       ??$_Emplace_reallocate@PAUObjectsPanel@RMG_SettingsDlg@rmgdlg@@@?$vector@PAUObjectsPanel@RMG_SettingsDlg@rmgdlg@@V?$allocator@PAUObjectsPanel@RMG_SettingsDlg@rmgdlg@@@std@@@std@@AAEPAPAUObjectsPanel@RMG_SettingsDlg@rmgdlg@@QAPAU234@$$QAPAU234@@Z 1000c300 f i RMG_SettingsDlg.obj
 0001:0000b420       ??0H3ObjectAttributes@h3@@QAE@ABU01@@Z 1000c420 f i RMG_SettingsDlg.obj
 0001:0000b4c0       ??$_Emplace_reallocate@U?$pair@UH3ObjectAttributes@h3@@$$T@std@@@?$vector@U?$pair@UH3ObjectAttributes@h3@@PAUH3LoadedPcx16@2@@std@@V?$allocator@U?$pair@UH3ObjectAttributes@h3@@PAUH3LoadedPcx16@2@@std@@@2@@std@@AAEPAU?$pair@UH3ObjectAttributes@h3@@PAUH3LoadedPcx16@2@@1@QAU21@$$QAU?$pair@UH3ObjectAttributes@h3@@$$T@1@@Z 1000c4c0 f i RMG_SettingsDlg.obj
 0001:0000b640       ??$_Emplace_reallocate@AAU?$pair@UH3ObjectAttributes@h3@@PAUH3LoadedPcx16@2@@std@@@?$vector@U?$pair@UH3ObjectAttributes@h3@@PAUH3LoadedPcx16@2@@std@@V?$allocator@U?$pair@UH3ObjectAttributes@h3@@PAUH3LoadedPcx16@2@@std@@@2@@std@@AAEPAU?$pair@UH3ObjectAttributes@h3@@PAUH3LoadedPcx16@2@@1@QAU21@AAU21@@Z 1000c640 f i RMG_SettingsDlg.obj
 0001:0000b800       ??$?4U?$pair@UH3ObjectAttributes@h3@@PAUH3LoadedPcx16@2@@std@@$0A@@?$pair@UH3ObjectAttributes@h3@@PAUH3LoadedPcx16@2@@std@@QAEAAU01@ABU01@@Z 1000c800 f i RMG_SettingsDlg.obj
 0001:0000b890       ??$_Resize_reallocate@U_Value_init_tag@std@@@?$vector@PAUH3DlgCaptionButton@h3@@V?$allocator@PAUH3DlgCaptionButton@h3@@@std@@@std@@AAEXIABU_Value_init_tag@1@@Z 1000c890 f i RMG_SettingsDlg.obj
 0001:0000b970       ??1?$_Uninitialized_backout_al@V?$allocator@U?$pair@UH3ObjectAttributes@h3@@PAUH3LoadedPcx16@2@@std@@@std@@@std@@QAE@XZ 1000c970 f i RMG_SettingsDlg.obj
 0001:0000b9d0       ??1?$unique_ptr@V?$tuple@P6AXXZ@std@@U?$default_delete@V?$tuple@P6AXXZ@std@@@2@@std@@QAE@XZ 1000c9d0 f i RMG_SettingsDlg.obj
 0001:0000d830       ??$_Invoke@V?$tuple@P6AXXZ@std@@$0A@@thread@std@@CGIPAX@Z 1000e830 f i RMG_SettingsDlg.obj
 0001:0000df50       ??1?$unordered_map@V?$basic_string@DU?$char_traits@D@std@@V?$allocator@D@2@@std@@IU?$hash@V?$basic_string@DU?$char_traits@D@std@@V?$allocator@D@2@@std@@@2@U?$equal_to@V?$basic_string@DU?$char_traits@D@std@@V?$allocator@D@2@@std@@@2@V?$allocator@U?$pair@$$CBV?$basic_string@DU?$char_traits@D@std@@V?$allocator@D@2@@std@@I@std@@@2@@std@@QAE@XZ 1000ef50 f i SoundManager.obj
 0001:0000df60       ??1?$_Hash@V?$_Umap_traits@V?$basic_string@DU?$char_traits@D@std@@V?$allocator@D@2@@std@@IV?$_Uhash_compare@V?$basic_string@DU?$char_traits@D@std@@V?$allocator@D@2@@std@@U?$hash@V?$basic_string@DU?$char_traits@D@std@@V?$allocator@D@2@@std@@@2@U?$equal_to@V?$basic_string@DU?$char_traits@D@std@@V?$allocator@D@2@@std@@@2@@2@V?$allocator@U?$pair@$$CBV?$basic_string@DU?$char_traits@D@std@@V?$allocator@D@2@@std@@I@std@@@2@$0A@@std@@@std@@QAE@XZ 1000ef60 f i SoundManager.obj
 0001:0000dfd0       ??1?$list@U?$pair@$$CBV?$basic_string@DU?$char_traits@D@std@@V?$allocator@D@2@@std@@I@std@@V?$allocator@U?$pair@$$CBV?$basic_string@DU?$char_traits@D@std@@V?$allocator@D@2@@std@@I@std@@@2@@std@@QAE@XZ 1000efd0 f i SoundManager.obj
 0001:0000dff0       ??$_Free_non_head@V?$allocator@U?$_List_node@U?$pair@$$CBV?$basic_string@DU?$char_traits@D@std@@V?$allocator@D@2@@std@@I@std@@PAX@std@@@std@@@?$_List_node@U?$pair@$$CBV?$basic_string@DU?$char_traits@D@std@@V?$allocator@D@2@@std@@I@std@@PAX@std@@SAXAAV?$allocator@U?$_List_node@U?$pair@$$CBV?$basic_string@DU?$char_traits@D@std@@V?$allocator@D@2@@std@@I@std@@PAX@std@@@1@PAU01@@Z 1000eff0 f i SoundManager.obj
 0001:0000e060       ??$emplace@U?$pair@V?$basic_string@DU?$char_traits@D@std@@V?$allocator@D@2@@std@@I@std@@@?$_Hash@V?$_Umap_traits@V?$basic_string@DU?$char_traits@D@std@@V?$allocator@D@2@@std@@IV?$_Uhash_compare@V?$basic_string@DU?$char_traits@D@std@@V?$allocator@D@2@@std@@U?$hash@V?$basic_string@DU?$char_traits@D@std@@V?$allocator@D@2@@std@@@2@U?$equal_to@V?$basic_string@DU?$char_traits@D@std@@V?$allocator@D@2@@std@@@2@@2@V?$allocator@U?$pair@$$CBV?$basic_string@DU?$char_traits@D@std@@V?$allocator@D@2@@std@@I@std@@@2@$0A@@std@@@std@@QAE?AU?$pair@V?$_List_iterator@V?$_List_val@U?$_List_simple_types@U?$pair@$$CBV?$basic_string@DU?$char_traits@D@std@@V?$allocator@D@2@@std@@I@std@@@std@@@std@@@std@@_N@1@$$QAU?$pair@V?$basic_string@DU?$char_traits@D@std@@V?$allocator@D@2@@std@@I@1@@Z 1000f060 f i SoundManager.obj
 0001:0000e240       ??$emplace@U?$pair@PBDI@std@@@?$_Hash@V?$_Umap_traits@V?$basic_string@DU?$char_traits@D@std@@V?$allocator@D@2@@std@@IV?$_Uhash_compare@V?$basic_string@DU?$char_traits@D@std@@V?$allocator@D@2@@std@@U?$hash@V?$basic_string@DU?$char_traits@D@std@@V?$allocator@D@2@@std@@@2@U?$equal_to@V?$basic_string@DU?$char_traits@D@std@@V?$allocator@D@2@@std@@@2@@2@V?$allocator@U?$pair@$$CBV?$basic_string@DU?$char_traits@D@std@@V?$allocator@D@2@@std@@I@std@@@2@$0A@@std@@@std@@QAE?AU?$pair@V?$_List_iterator@V?$_List_val@U?$_List_simple_types@U?$pair@$$CBV?$basic_string@DU?$char_traits@D@std@@V?$allocator@D@2@@std@@I@std@@@std@@@std@@@std@@_N@1@$$QAU?$pair@PBDI@1@@Z 1000f240 f i SoundManager.obj
 0001:0000e480       ??$emplace@U?$pair@KH@std@@@?$_Hash@V?$_Umap_traits@KHV?$_Uhash_compare@KU?$hash@K@std@@U?$equal_to@K@2@@std@@V?$allocator@U?$pair@$$CBKH@std@@@2@$0A@@std@@@std@@QAE?AU?$pair@V?$_List_iterator@V?$_List_val@U?$_List_simple_types@U?$pair@$$CBKH@std@@@std@@@std@@@std@@_N@1@$$QAU?$pair@KH@1@@Z 1000f480 f i SoundManager.obj
 0001:0000e650       ??$_Resize_reallocate@H@?$vector@HV?$allocator@H@std@@@std@@AAEXIABH@Z 1000f650 f i SoundManager.obj
 0001:0000e700       ??$_Uninitialized_fill_n@V?$allocator@H@std@@@std@@YAPAHPAHIABHAAV?$allocator@H@0@@Z 1000f700 f i SoundManager.obj
 0001:0000e700       ??$_Uninitialized_fill_n@V?$allocator@PAUH3WavFile@h3@@@std@@@std@@YAPAPAUH3WavFile@h3@@PAPAU12@IABQAU12@AAV?$allocator@PAUH3WavFile@h3@@@0@@Z 1000f700 f i SoundManager.obj
 0001:0000e760       ??$_Resize_reallocate@PAUH3WavFile@h3@@@?$vector@PAUH3WavFile@h3@@V?$allocator@PAUH3WavFile@h3@@@std@@@std@@AAEXIABQAUH3WavFile@h3@@@Z 1000f760 f i SoundManager.obj
 0001:0000e850       ??$_Resize_reallocate@U_Value_init_tag@std@@@?$vector@PADV?$allocator@PAD@std@@@std@@AAEXIABU_Value_init_tag@1@@Z 1000f850 f i SoundManager.obj
 0001:0000e8f0       ??1?$_List_node_emplace_op2@V?$allocator@U?$_List_node@U?$pair@$$CBV?$basic_string@DU?$char_traits@D@std@@V?$allocator@D@2@@std@@I@std@@PAX@std@@@std@@@std@@QAE@XZ 1000f8f0 f i SoundManager.obj
 0001:0000e960       ?_Rehash_for_1@?$_Hash@V?$_Umap_traits@V?$basic_string@DU?$char_traits@D@std@@V?$allocator@D@2@@std@@IV?$_Uhash_compare@V?$basic_string@DU?$char_traits@D@std@@V?$allocator@D@2@@std@@U?$hash@V?$basic_string@DU?$char_traits@D@std@@V?$allocator@D@2@@std@@@2@U?$equal_to@V?$basic_string@DU?$char_traits@D@std@@V?$allocator@D@2@@std@@@2@@2@V?$allocator@U?$pair@$$CBV?$basic_string@DU?$char_traits@D@std@@V?$allocator@D@2@@std@@I@std@@@2@$0A@@std@@@std@@IAEXXZ 1000f960 f i SoundManager.obj
 0001:0000e9c0       ??1?$_Alloc_construct_ptr@V?$allocator@U?$_List_node@U?$pair@$$CBV?$basic_string@DU?$char_traits@D@std@@V?$allocator@D@2@@std@@I@std@@PAX@std@@@std@@@std@@QAE@XZ 1000f9c0 f i SoundManager.obj
 0001:0000e9e0       ?_Forced_rehash@?$_Hash@V?$_Umap_traits@V?$basic_string@DU?$char_traits@D@std@@V?$allocator@D@2@@std@@IV?$_Uhash_compare@V?$basic_string@DU?$char_traits@D@std@@V?$allocator@D@2@@std@@U?$hash@V?$basic_string@DU?$char_traits@D@std@@V?$allocator@D@2@@std@@@2@U?$equal_to@V?$basic_string@DU?$char_traits@D@std@@V?$allocator@D@2@@std@@@2@@2@V?$allocator@U?$pair@$$CBV?$basic_string@DU?$char_traits@D@std@@V?$allocator@D@2@@std@@I@std@@@2@$0A@@std@@@std@@IAEXI@Z 1000f9e0 f i SoundManager.obj
 0001:0000ed00       ?_Forced_rehash@?$_Hash@V?$_Umap_traits@KHV?$_Uhash_compare@KU?$hash@K@std@@U?$equal_to@K@2@@std@@V?$allocator@U?$pair@$$CBKH@std@@@2@$0A@@std@@@std@@IAEXI@Z 1000fd00 f i SoundManager.obj
 0001:0000ee70       ??$_Find_last@V?$basic_string@DU?$char_traits@D@std@@V?$allocator@D@2@@std@@@?$_Hash@V?$_Umap_traits@V?$basic_string@DU?$char_traits@D@std@@V?$allocator@D@2@@std@@IV?$_Uhash_compare@V?$basic_string@DU?$char_traits@D@std@@V?$allocator@D@2@@std@@U?$hash@V?$basic_string@DU?$char_traits@D@std@@V?$allocator@D@2@@std@@@2@U?$equal_to@V?$basic_string@DU?$char_traits@D@std@@V?$allocator@D@2@@std@@@2@@2@V?$allocator@U?$pair@$$CBV?$basic_string@DU?$char_traits@D@std@@V?$allocator@D@2@@std@@I@std@@@2@$0A@@std@@@std@@IBE?AU?$_Hash_find_last_result@PAU?$_List_node@U?$pair@$$CBV?$basic_string@DU?$char_traits@D@std@@V?$allocator@D@2@@std@@I@std@@PAX@std@@@1@ABV?$basic_string@DU?$char_traits@D@std@@V?$allocator@D@2@@1@I@Z 1000fe70 f i SoundManager.obj
 0001:0000ef5f       ??0bad_alloc@std@@QAE@XZ   1000ff5f f i libcpmt:xthrow.obj
 0001:0000ef77       ??0length_error@std@@QAE@ABV01@@Z 1000ff77 f i libcpmt:xthrow.obj
 0001:0000ef92       ??0length_error@std@@QAE@PBD@Z 1000ff92 f i libcpmt:xthrow.obj
 0001:0000efb1       ??0logic_error@std@@QAE@ABV01@@Z 1000ffb1 f i libcpmt:xthrow.obj
 0001:0000efcc       ??0out_of_range@std@@QAE@ABV01@@Z 1000ffcc f i libcpmt:xthrow.obj
 0001:0000efe7       ??0out_of_range@std@@QAE@PBD@Z 1000ffe7 f i libcpmt:xthrow.obj
 0001:0000f006       ??0runtime_error@std@@QAE@PBD@Z 10010006 f i libcpmt:xthrow.obj
 0001:0000f025       ??_E__non_rtti_object@std@@UAEPAXI@Z 10010025 f i libvcruntime:rtti.obj
 0001:0000f025       ??_Ebad_exception@std@@UAEPAXI@Z 10010025 f i libvcruntime:frame.obj
 0001:0000f025       ??_Ebad_typeid@std@@UAEPAXI@Z 10010025 f i libvcruntime:rtti.obj
 0001:0000f025       ??_Elength_error@std@@UAEPAXI@Z 10010025 f i libcpmt:xthrow.obj
 0001:0000f025       ??_Elogic_error@std@@UAEPAXI@Z 10010025 f i libcpmt:xthrow.obj
 0001:0000f025       ??_Eout_of_range@std@@UAEPAXI@Z 10010025 f i libcpmt:xthrow.obj
 0001:0000f025       ??_G__non_rtti_object@std@@UAEPAXI@Z 10010025 f i libvcruntime:rtti.obj
 0001:0000f025       ??_Gbad_exception@std@@UAEPAXI@Z 10010025 f i libvcruntime:frame.obj
 0001:0000f025       ??_Gbad_typeid@std@@UAEPAXI@Z 10010025 f i libvcruntime:rtti.obj
 0001:0000f025       ??_Glength_error@std@@UAEPAXI@Z 10010025 f i libcpmt:xthrow.obj
 0001:0000f025       ??_Glogic_error@std@@UAEPAXI@Z 10010025 f i libcpmt:xthrow.obj
 0001:0000f025       ??_Gout_of_range@std@@UAEPAXI@Z 10010025 f i libcpmt:xthrow.obj
 0001:0000f052       ?_Xbad_alloc@std@@YAXXZ    10010052 f   libcpmt:xthrow.obj
 0001:0000f06f       ?_Xlength_error@std@@YAXPBD@Z 1001006f f   libcpmt:xthrow.obj
 0001:0000f08f       ?_Xout_of_range@std@@YAXPBD@Z 1001008f f   libcpmt:xthrow.obj
 0001:0000f0af       ?_Xruntime_error@std@@YAXPBD@Z 100100af f   libcpmt:xthrow.obj
 0001:0000f0cf       ??0_Init_locks@std@@QAE@XZ 100100cf f   libcpmt:xlock.obj
 0001:0000f0fc       ??0_Lockit@std@@QAE@H@Z    100100fc f   libcpmt:xlock.obj
 0001:0000f12d       ??1_Init_locks@std@@QAE@XZ 1001012d f   libcpmt:xlock.obj
 0001:0000f154       ??1_Lockit@std@@QAE@XZ     10010154 f   libcpmt:xlock.obj
 0001:0000f173       ??0system_error@std@@QAE@HABVerror_category@1@PBD@Z 10010173 f i libcpmt:thread0.obj
 0001:0000f1c0       ??_E_Generic_error_category@std@@UAEPAXI@Z 100101c0 f i libcpmt:thread0.obj
 0001:0000f1c0       ??_G_Generic_error_category@std@@UAEPAXI@Z 100101c0 f i libcpmt:thread0.obj
 0001:0000f1dd       ?_Throw_Cpp_error@std@@YAXH@Z 100101dd f   libcpmt:thread0.obj
 0001:0000f212       ?generic_category@std@@YAABVerror_category@1@XZ 10010212 f i libcpmt:thread0.obj
 0001:0000f218       ?message@_Generic_error_category@std@@UBE?AV?$basic_string@DU?$char_traits@D@std@@V?$allocator@D@2@@2@H@Z 10010218 f i libcpmt:thread0.obj
 0001:0000f235       ?name@_Generic_error_category@std@@UBEPBDXZ 10010235 f i libcpmt:thread0.obj
 0001:0000f23b       ??0_Locimp@locale@std@@AAE@_N@Z 1001023b f i libcpmt:locale0.obj
 0001:0000f27c       ??1_Fac_node@std@@QAE@XZ   1001027c f i libcpmt:locale0.obj
 0001:0000f2ad       ??1_Fac_tidy_reg_t@std@@QAE@XZ 100102ad f i libcpmt:locale0.obj
 0001:0000f2d1       ??1_Locimp@locale@std@@MAE@XZ 100102d1 f i libcpmt:locale0.obj
 0001:0000f2fc       ??4?$_Yarn@D@std@@QAEAAV01@PBD@Z 100102fc f i libcpmt:locale0.obj
 0001:0000f350       ??_E_Locimp@locale@std@@MAEPAXI@Z 10010350 f i libcpmt:locale0.obj
 0001:0000f350       ??_G_Locimp@locale@std@@MAEPAXI@Z 10010350 f i libcpmt:locale0.obj
 0001:0000f372       ?_Facet_Register@std@@YAXPAV_Facet_base@1@@Z 10010372 f   libcpmt:locale0.obj
 0001:0000f39f       ?_Getgloballocale@locale@std@@CAPAV_Locimp@12@XZ 1001039f f   libcpmt:locale0.obj
 0001:0000f3a5       ?_Init@locale@std@@CAPAV_Locimp@12@_N@Z 100103a5 f   libcpmt:locale0.obj
 0001:0000f432       ?_Locimp_dtor@_Locimp@locale@std@@CAXPAV123@@Z 10010432 f   libcpmt:locale0.obj
 0001:0000f4a3       ?_Locinfo_ctor@_Locinfo@std@@SAXPAV12@PBD@Z 100104a3 f   libcpmt:locale0.obj
 0001:0000f4ef       ?_Locinfo_dtor@_Locinfo@std@@SAXPAV12@@Z 100104ef f   libcpmt:locale0.obj
 0001:0000f509       ?_New_Locimp@_Locimp@locale@std@@CAPAV123@_N@Z 10010509 f   libcpmt:locale0.obj
 0001:0000f52c       ?_Setgloballocale@locale@std@@CAXPAX@Z 1001052c f   libcpmt:locale0.obj
 0001:0000f554       __Deletegloballocale       10010554 f   libcpmt:locale0.obj
 0001:0000f5b9       ?uncaught_exception@std@@YA_NXZ 100105b9 f   libcpmt:uncaught_exception.obj
 0001:0000f5be       ?_Callfns@ios_base@std@@AAEXW4event@12@@Z 100105be f i libcpmt:ios.obj
 0001:0000f5f1       ?_Ios_base_dtor@ios_base@std@@CAXPAV12@@Z 100105f1 f   libcpmt:ios.obj
 0001:0000f631       ?_Tidy@ios_base@std@@AAEXXZ 10010631 f i libcpmt:ios.obj
 0001:0000f6ac       ?_Syserror_map@std@@YAPBDH@Z 100106ac f   libcpmt:syserror.obj
 0001:0000f6d1       __Getctype                 100106d1 f   libcpmt:_tolower.obj
 0001:0000f73c       __Tolower                  1001073c f   libcpmt:_tolower.obj
 0001:0000f82b       ?_Verify_ownership_levels@_Mutex_base@std@@IAE_NXZ 1001082b f i libcpmt:xnotify.obj
 0001:0000f841       ?lock@_Mutex_base@std@@QAEXXZ 10010841 f i libcpmt:xnotify.obj
 0001:0000f868       __Cnd_do_broadcast_at_thread_exit 10010868 f   libcpmt:xnotify.obj
 0001:0000f929       __Toupper                  10010929 f   libcpmt:_toupper.obj
 0001:0000fa18       __Thrd_detach              10010a18 f   libcpmt:cthread.obj
 0001:0000fa30       __Thrd_id                  10010a30 f   libcpmt:cthread.obj
 0001:0000fb30       ___std_find_trivial_4@12   10010b30 f   libcpmt:vector_algorithms.obj
 0001:0000fb39       __Mtxdst                   10010b39 f   libcpmt:xmtx.obj
 0001:0000fb47       __Mtxinit                  10010b47 f   libcpmt:xmtx.obj
 0001:0000fb5c       __Mtxlock                  10010b5c f   libcpmt:xmtx.obj
 0001:0000fb6a       __Mtxunlock                10010b6a f   libcpmt:xmtx.obj
 0001:0000fb78       ??1_Init_atexit@@QAE@XZ    10010b78 f i libcpmt:iosptrs.obj
 0001:0000fbe0       ?_Atexit@@YAXP6AXXZ@Z      10010be0 f   libcpmt:iosptrs.obj
 0001:0000fc0f       ??1?$__crt_scoped_stack_ptr@_W@@QAE@XZ 10010c0f f i libcpmt:StlLCMapStringA.obj
 0001:0000fc28       ___crtLCMapStringA         10010c28 f   libcpmt:StlLCMapStringA.obj
 0001:0000fdf2       __freea_crt                10010df2 f i libcpmt:StlLCMapStringA.obj
 0001:0000fe10       __Mtx_lock                 10010e10 f   libcpmt:mutex.obj
 0001:0000fe21       __Mtx_unlock               10010e21 f   libcpmt:mutex.obj
 0001:0000ff6c       __Cnd_broadcast            10010f6c f   libcpmt:cond.obj
 0001:0000ff80       __Timespec64_get_sys       10010f80 f   libcpmt:xtime.obj
 0001:0000ffbe       __Xtime_get_ticks          10010fbe f   libcpmt:xtime.obj
 0001:00010019       ___crtGetSystemTimePreciseAsFileTime 10011019 f   libcpmt:winapisupp.obj
 0001:0001006e       ??3@YAXPAXI@Z              1001106e f   LIBCMT:delete_scalar_size.obj
 0001:0001007c       ??_Etype_info@@UAEPAXI@Z   1001107c f i LIBCMT:std_type_info_static.obj
 0001:0001007c       ??_Gtype_info@@UAEPAXI@Z   1001107c f i LIBCMT:std_type_info_static.obj
 0001:0001009f       __Init_thread_abort        1001109f f   LIBCMT:thread_safe_statics.obj
 0001:000100ca       __Init_thread_footer       100110ca f   LIBCMT:thread_safe_statics.obj
 0001:0001011b       __Init_thread_header       1001111b f   LIBCMT:thread_safe_statics.obj
 0001:0001016a       __Init_thread_wait_v2      1001116a f   LIBCMT:thread_safe_statics.obj
 0001:000101c1       ___scrt_acquire_startup_lock 100111c1 f   LIBCMT:utility.obj
 0001:000101f3       ___scrt_dllmain_after_initialize_c 100111f3 f   LIBCMT:utility.obj
 0001:0001021e       ___scrt_dllmain_before_initialize_c 1001121e f   LIBCMT:utility.obj
 0001:0001022c       ___scrt_dllmain_crt_thread_attach 1001122c f   LIBCMT:utility.obj
 0001:0001024b       ___scrt_dllmain_crt_thread_detach 1001124b f   LIBCMT:utility.obj
 0001:00010258       ___scrt_dllmain_exception_filter 10011258 f   LIBCMT:utility.obj
 0001:0001028c       ___scrt_dllmain_uninitialize_c 1001128c f   LIBCMT:utility.obj
 0001:000102af       ___scrt_dllmain_uninitialize_critical 100112af f   LIBCMT:utility.obj
 0001:000102bc       ___scrt_initialize_crt     100112bc f   LIBCMT:utility.obj
 0001:000102f5       ___scrt_initialize_onexit_tables 100112f5 f   LIBCMT:utility.obj
 0001:0001037c       ___scrt_is_nonwritable_in_current_image 1001137c f   LIBCMT:utility.obj
 0001:00010410       ___scrt_release_startup_lock 10011410 f   LIBCMT:utility.obj
 0001:0001042d       ___scrt_uninitialize_crt   1001142d f   LIBCMT:utility.obj
 0001:00010455       __onexit                   10011455 f   LIBCMT:utility.obj
 0001:00010483       _atexit                    10011483 f   LIBCMT:utility.obj
 0001:00010498       ??_M@YGXPAXIIP6EX0@Z@Z     10011498 f   LIBCMT:ehvecdtr.obj
 0001:0001051d       ?__ArrayUnwind@@YGXPAXIIP6EX0@Z@Z 1001151d f   LIBCMT:ehvecdtr.obj
 0001:000105ad       ??_L@YGXPAXIIP6EX0@Z1@Z    100115ad f   LIBCMT:ehvecctr.obj
 0001:0001095f       __DllMainCRTStartup@12     1001195f f   LIBCMT:dll_dllmain.obj
 0001:00010982       @__security_check_cookie@4 10011982 f   LIBCMT:secchk.obj
 0001:00010990       __EH_epilog3               10011990 f   LIBCMT:ehprolg3.obj
 0001:000109a4       __EH_epilog3_GS            100119a4 f   LIBCMT:ehprolg3.obj
 0001:000109b3       __EH_prolog3               100119b3 f   LIBCMT:ehprolg3.obj
 0001:000109e6       __EH_prolog3_GS            100119e6 f   LIBCMT:ehprolg3.obj
 0001:00010a1c       __EH_prolog3_catch         10011a1c f   LIBCMT:ehprolg3.obj
 0001:00010a52       ___isa_available_init      10011a52 f   LIBCMT:cpu_disp.obj
 0001:00010d80       __alloca_probe_16          10011d80 f   LIBCMT:alloca16.obj
 0001:00010d96       __alloca_probe_8           10011d96     LIBCMT:alloca16.obj
 0001:00010db0       __aulldiv                  10011db0 f   LIBCMT:ulldiv.obj
 0001:00010e20       __aullrem                  10011e20 f   LIBCMT:ullrem.obj
 0001:00010ea0       __allmul                   10011ea0 f   LIBCMT:llmul.obj
 0001:00010ed4       __get_startup_argv_mode    10011ed4 f   LIBCMT:argv_mode.obj
 0001:00010ed8       ___scrt_is_ucrt_dll_in_use 10011ed8 f   LIBCMT:ucrt_detection.obj
 0001:00010ee4       ___scrt_fastfail           10011ee4 f   LIBCMT:utility_desktop.obj
 0001:00010ff9       __crt_debugger_hook        10011ff9 f   LIBCMT:utility_desktop.obj
 0001:00011010       __SEH_prolog4              10012010 f   LIBCMT:sehprolg4.obj
 0001:000110a2       ___security_init_cookie    100120a2 f   LIBCMT:gs_support.obj
 0001:000110ed       ?__scrt_initialize_type_info@@YAXXZ 100120ed f   LIBCMT:tncleanup.obj
 0001:000110f9       ?__scrt_uninitialize_type_info@@YAXXZ 100120f9 f   LIBCMT:tncleanup.obj
 0001:00011105       ___local_stdio_scanf_options 10012105 f i LIBCMT:default_local_stdio_options.obj
 0001:0001110b       ___scrt_initialize_default_local_stdio_options 1001210b f   LIBCMT:default_local_stdio_options.obj
 0001:00011128       ___scrt_get_dyn_tls_init_callback 10012128 f   LIBCMT:dyn_tls_init.obj
 0001:0001112e       __RTC_Initialize           1001212e f   LIBCMT:initsect.obj
 0001:0001115a       __RTC_Terminate            1001215a f   LIBCMT:initsect.obj
 0001:00011186       ___raise_securityfailure   10012186 f   LIBCMT:gs_report.obj
 0001:000111ae       ___report_gsfailure        100121ae f   LIBCMT:gs_report.obj
 0001:000112a9       ___report_rangecheckfailure 100122a9 f   LIBCMT:gs_report.obj
 0001:000112b6       ___report_securityfailure  100122b6 f   LIBCMT:gs_report.obj
 0001:00011390       __alloca_probe             10012390 f   LIBCMT:chkstk.obj
 0001:00011390       __chkstk                   10012390 f   LIBCMT:chkstk.obj
 0001:000113bb       ?GetRangeOfTrysToCheck@__FrameHandler3@@SA?AU?$pair@Viterator@TryBlockMap@__FrameHandler3@@V123@@std@@AAVTryBlockMap@1@HPAXPBU_s_FuncInfo@@H@Z 100123bb f   libvcruntime:trnsctrl.obj
 0001:0001142a       ?_CallCatchBlock2@@YAPAXPAUEHRegistrationNode@@PBU_s_FuncInfo@@PAXHK@Z 1001242a f   libvcruntime:trnsctrl.obj
 0001:00011487       ?_CallSETranslator@@YAHPAUEHExceptionRecord@@PAUEHRegistrationNode@@PAX2PBU_s_FuncInfo@@H1@Z 10012487 f   libvcruntime:trnsctrl.obj
 0001:00011577       ?_JumpToContinuation@@YGXPAXPAUEHRegistrationNode@@@Z 10012577 f   libvcruntime:trnsctrl.obj
 0001:000115a7       ?_UnwindNestedFrames@@YGXPAUEHRegistrationNode@@PAUEHExceptionRecord@@@Z 100125a7 f   libvcruntime:trnsctrl.obj
 0001:000115fb       __CatchGuardHandler        100125fb f   libvcruntime:trnsctrl.obj
 0001:0001162c       __CreateFrameInfo          1001262c f   libvcruntime:trnsctrl.obj
 0001:00011650       __FindAndUnlinkFrame       10012650 f   libvcruntime:trnsctrl.obj
 0001:00011698       __TranslatorGuardHandler   10012698 f   libvcruntime:trnsctrl.obj
 0001:00011737       ___CxxFrameHandler3        10012737 f   libvcruntime:trnsctrl.obj
 0001:0001176d       ___DestructExceptionObject 1001276d f   libvcruntime:ehhelpers.obj
 0001:0001180e       ?_CallMemberFunction0@@YGXQAX0@Z 1001280e f i libvcruntime:ehhelpers.obj
 0001:00011873       __IsExceptionObjectToBeDestroyed 10012873 f   libvcruntime:ehhelpers.obj
 0001:00011899       ___AdjustPointer           10012899 f   libvcruntime:ehhelpers.obj
 0001:000118be       ___FrameUnwindFilter       100128be f   libvcruntime:ehhelpers.obj
 0001:00011914       ___current_exception       10012914 f   libvcruntime:ehhelpers.obj
 0001:0001191d       ___current_exception_context 1001291d f   libvcruntime:ehhelpers.obj
 0001:00011926       ___std_terminate           10012926 f   libvcruntime:ehhelpers.obj
 0001:0001192b       ___std_exception_copy      1001292b f   libvcruntime:std_exception.obj
 0001:0001198e       ___std_exception_destroy   1001298e f   libvcruntime:std_exception.obj
 0001:000119ad       __get_purecall_handler     100129ad f   libvcruntime:purevirt.obj
 0001:000119b4       __purecall                 100129b4 f   libvcruntime:purevirt.obj
 0001:000119d0       __CxxThrowException@8      100129d0 f   libvcruntime:throw.obj
 0001:00011a40       _memcpy                    10012a40 f   libvcruntime:memcpy.obj
 0001:00011a40       _memmove                   10012a40 f   libvcruntime:memmove.obj
 0001:00011fc0       ___uncaught_exception      10012fc0 f   libvcruntime:uncaught_exception.obj
 0001:00011fe0       _memchr                    10012fe0 f   libvcruntime:memchr.obj
 0001:00012090       _memset                    10013090 f   libvcruntime:memset.obj
 0001:000121ea       _memcmp                    100131ea f   libvcruntime:memcmp.obj
 0001:000135ae       ___vcrt_initialize         100145ae f   libvcruntime:initialization.obj
 0001:000135cd       ___vcrt_thread_attach      100145cd f   libvcruntime:initialization.obj
 0001:000135d8       ___vcrt_thread_detach      100145d8 f   libvcruntime:initialization.obj
 0001:000135e0       ___vcrt_uninitialize       100145e0 f   libvcruntime:initialization.obj
 0001:000135f7       ___vcrt_uninitialize_critical 100145f7 f   libvcruntime:initialization.obj
 0001:00013640       __except_handler4          10014640 f   libvcruntime:chandler4.obj
 0001:0001379e       ___std_type_info_compare   1001479e f   libvcruntime:std_type_info.obj
 0001:000137da       ___std_type_info_destroy_list 100147da f   libvcruntime:std_type_info.obj
 0001:000137fd       ___vcrt_freefls@4          100147fd f   libvcruntime:per_thread_data.obj
 0001:00013819       ___vcrt_freeptd_for_this_thread 10014819 f   libvcruntime:per_thread_data.obj
 0001:00013844       ___vcrt_getptd             10014844 f   libvcruntime:per_thread_data.obj
 0001:00013852       ___vcrt_getptd_noexit      10014852 f   libvcruntime:per_thread_data.obj
 0001:000138e4       ___vcrt_getptd_noinit      100148e4 f   libvcruntime:per_thread_data.obj
 0001:0001391c       ___vcrt_initialize_ptd     1001491c f   libvcruntime:per_thread_data.obj
 0001:0001394f       ___vcrt_uninitialize_ptd   1001494f f   libvcruntime:per_thread_data.obj
 0001:0001409b       ??$TypeMatchHelper@V__FrameHandler3@@@@YAHPBU_s_HandlerType@@PBU_s_CatchableType@@PBU_s_ThrowInfo@@@Z 1001509b f i libvcruntime:frame.obj
 0001:00014129       ??$__InternalCxxFrameHandler@V__FrameHandler3@@@@YA?AW4_EXCEPTION_DISPOSITION@@PAUEHExceptionRecord@@PAUEHRegistrationNode@@PAU_CONTEXT@@PAXPBU_s_FuncInfo@@H1E@Z 10015129 f i libvcruntime:frame.obj
 0001:0001422b       ??$__InternalCxxFrameHandlerWrapper@V__FrameHandler3@@@@YA?AW4_EXCEPTION_DISPOSITION@@PAUEHExceptionRecord@@PAUEHRegistrationNode@@PAU_CONTEXT@@PAXPBU_s_FuncInfo@@H1E@Z 1001522b f i libvcruntime:frame.obj
 0001:00014234       ??0bad_exception@std@@QAE@ABV01@@Z 10015234 f i libvcruntime:frame.obj
 0001:0001424f       ??0bad_exception@std@@QAE@XZ 1001524f f i libvcruntime:frame.obj
 0001:00014267       ??8type_info@@QBE_NABV0@@Z 10015267 f i libvcruntime:frame.obj
 0001:000144de       ?FrameUnwindToEmptyState@__FrameHandler3@@SAXPAUEHRegistrationNode@@PAXPBU_s_FuncInfo@@@Z 100154de f   libvcruntime:frame.obj
 0001:000144f6       ?FrameUnwindToState@__FrameHandler3@@SAXPAUEHRegistrationNode@@PAXPBU_s_FuncInfo@@H@Z 100154f6 f   libvcruntime:frame.obj
 0001:00014678       ?_CallMemberFunction1@@YGXQAX00@Z 10015678 f i libvcruntime:frame.obj
 0001:00014688       ?_CallMemberFunction2@@YGXQAX00H@Z 10015688 f i libvcruntime:frame.obj
 0001:0001469b       ?getESTypes@__FrameHandler3@@SAPBU_s_ESTypeList@@PBU_s_FuncInfo@@@Z 1001569b f i libvcruntime:frame.obj
 0001:000146b0       __CallSettingFrame@12      100156b0 f   libvcruntime:lowhelpr.obj
 0001:000146d7       __NLG_Return               100156d7     libvcruntime:lowhelpr.obj
 0001:000146fc       ___except_validate_context_record 100156fc f   libvcruntime:jbcxrval.obj
 0001:0001472c       ___vcrt_initialize_locks   1001572c f   libvcruntime:locks.obj
 0001:00014768       ___vcrt_uninitialize_locks 10015768 f   libvcruntime:locks.obj
 0001:000147a0       __local_unwind4            100157a0 f   libvcruntime:exsup4.obj
 0001:00014890       @_EH4_CallFilterFunc@8     10015890 f   libvcruntime:exsup4.obj
 0001:000148b0       @_EH4_TransferToHandler@8  100158b0 f   libvcruntime:exsup4.obj
 0001:000148d0       @_EH4_GlobalUnwind2@8      100158d0 f   libvcruntime:exsup4.obj
 0001:000148f0       @_EH4_LocalUnwind@16       100158f0 f   libvcruntime:exsup4.obj
 0001:000149f2       ___vcrt_FlsAlloc           100159f2 f   libvcruntime:winapi_downlevel.obj
 0001:00014a2d       ___vcrt_FlsFree            10015a2d f   libvcruntime:winapi_downlevel.obj
 0001:00014a68       ___vcrt_FlsGetValue        10015a68 f   libvcruntime:winapi_downlevel.obj
 0001:00014aa3       ___vcrt_FlsSetValue        10015aa3 f   libvcruntime:winapi_downlevel.obj
 0001:00014ae1       ___vcrt_InitializeCriticalSectionEx 10015ae1 f   libvcruntime:winapi_downlevel.obj
 0001:00014b28       _unexpected                10015b28 f   libvcruntime:unexpected.obj
 0001:00014b45       ?GetCurrentState@__FrameHandler3@@SAHPAUEHRegistrationNode@@PAXPBU_s_FuncInfo@@@Z 10015b45 f   libvcruntime:ehstate.obj
 0001:00014b62       ?SetState@__FrameHandler3@@SAXPAUEHRegistrationNode@@PBU_s_FuncInfo@@H@Z 10015b62 f   libvcruntime:ehstate.obj
 0001:00014b70       __NLG_Notify1              10015b70 f   libvcruntime:exsup.obj
 0001:00014b80       __NLG_Notify               10015b80 f   libvcruntime:exsup.obj
 0001:00014b97       __NLG_Dispatch             10015b97     libvcruntime:exsup.obj
 0001:00014b97       __NLG_Dispatch2            10015b97     libvcruntime:exsup.obj
 0001:00014ba0       __NLG_Call                 10015ba0 f   libvcruntime:exsup.obj
 0001:00014ba2       __NLG_Return2              10015ba2     libvcruntime:exsup.obj
 0001:00014f17       ??$count@D@formatting_buffer@__crt_stdio_output@@QBEIXZ 10015f17 f i libucrt:output.obj
 0001:00014f2f       ??$ensure_buffer_is_big_enough@D@formatting_buffer@__crt_stdio_output@@QAE_NI@Z 10015f2f f i libucrt:output.obj
 0001:00014fac       ??$is_wide_character_specifier@D@__crt_stdio_output@@YA_N_KDW4length_modifier@0@@Z 10015fac f i libucrt:output.obj
 0001:00014fdd       ??$scratch_data@D@formatting_buffer@__crt_stdio_output@@QAEPADXZ 10015fdd f i libucrt:output.obj
 0001:00014ffb       ??$type_case_integer_parse_into_buffer@I@?$output_processor@DV?$string_output_adapter@D@__crt_stdio_output@@V?$format_validation_base@DV?$string_output_adapter@D@__crt_stdio_output@@@2@@__crt_stdio_output@@AAEXII_N@Z 10015ffb f i libucrt:output.obj
 0001:00014ffb       ??$type_case_integer_parse_into_buffer@I@?$output_processor@DV?$string_output_adapter@D@__crt_stdio_output@@V?$standard_base@DV?$string_output_adapter@D@__crt_stdio_output@@@2@@__crt_stdio_output@@AAEXII_N@Z 10015ffb f i libucrt:output.obj
 0001:0001506e       ??$type_case_integer_parse_into_buffer@_K@?$output_processor@DV?$string_output_adapter@D@__crt_stdio_output@@V?$format_validation_base@DV?$string_output_adapter@D@__crt_stdio_output@@@2@@__crt_stdio_output@@AAEX_KI_N@Z 1001606e f i libucrt:output.obj
 0001:0001506e       ??$type_case_integer_parse_into_buffer@_K@?$output_processor@DV?$string_output_adapter@D@__crt_stdio_output@@V?$standard_base@DV?$string_output_adapter@D@__crt_stdio_output@@@2@@__crt_stdio_output@@AAEX_KI_N@Z 1001606e f i libucrt:output.obj
 0001:000150fc       ??$write_multiple_characters@V?$string_output_adapter@D@__crt_stdio_output@@D@__crt_stdio_output@@YAXABV?$string_output_adapter@D@0@DHQAH@Z 100160fc f i libucrt:output.obj
 0001:00015128       ??0?$common_data@D@__crt_stdio_output@@IAE@XZ 10016128 f i libucrt:output.obj
 0001:0001516d       ??0?$output_adapter_data@DV?$string_output_adapter@D@__crt_stdio_output@@@__crt_stdio_output@@IAE@ABV?$string_output_adapter@D@1@_KQBDQAU__crt_locale_pointers@@QAD@Z 1001616d f i libucrt:output.obj
 0001:000151a9       ??0_LocaleUpdate@@QAE@QAU__crt_locale_pointers@@@Z 100161a9 f i libucrt:output.obj
 0001:0001522c       ??1_LocaleUpdate@@QAE@XZ   1001622c f i libucrt:output.obj
 0001:0001523c       ??1formatting_buffer@__crt_stdio_output@@QAE@XZ 1001623c f i libucrt:output.obj
 0001:00015256       ??4?$__crt_unique_heap_ptr@DU__crt_internal_free_policy@@@@QAEAAV0@$$QAV0@@Z 10016256 f i libucrt:output.obj
 0001:00015280       ?crop_zeroes@__crt_stdio_output@@YAXPADQAU__crt_locale_pointers@@@Z 10016280 f i libucrt:output.obj
 0001:00015301       ?find_next_state@?$output_processor@DV?$string_output_adapter@D@__crt_stdio_output@@V?$format_validation_base@DV?$string_output_adapter@D@__crt_stdio_output@@@2@@__crt_stdio_output@@ABE?AW4state@2@DW432@@Z 10016301 f i libucrt:output.obj
 0001:00015338       ?find_next_state@?$output_processor@DV?$string_output_adapter@D@__crt_stdio_output@@V?$standard_base@DV?$string_output_adapter@D@__crt_stdio_output@@@2@@__crt_stdio_output@@ABE?AW4state@2@DW432@@Z 10016338 f i libucrt:output.obj
 0001:00015370       ?force_decimal_point@__crt_stdio_output@@YAXPADQAU__crt_locale_pointers@@@Z 10016370 f i libucrt:output.obj
 0001:000153d5       ?parse_int_from_format_string@?$output_processor@DV?$string_output_adapter@D@__crt_stdio_output@@V?$format_validation_base@DV?$string_output_adapter@D@__crt_stdio_output@@@2@@__crt_stdio_output@@AAE_NQAH@Z 100163d5 f i libucrt:output.obj
 0001:000153d5       ?parse_int_from_format_string@?$output_processor@DV?$string_output_adapter@D@__crt_stdio_output@@V?$standard_base@DV?$string_output_adapter@D@__crt_stdio_output@@@2@@__crt_stdio_output@@AAE_NQAH@Z 100163d5 f i libucrt:output.obj
 0001:00015449       ?process@?$output_processor@DV?$string_output_adapter@D@__crt_stdio_output@@V?$format_validation_base@DV?$string_output_adapter@D@__crt_stdio_output@@@2@@__crt_stdio_output@@QAEHXZ 10016449 f i libucrt:output.obj
 0001:0001556d       ?process@?$output_processor@DV?$string_output_adapter@D@__crt_stdio_output@@V?$standard_base@DV?$string_output_adapter@D@__crt_stdio_output@@@2@@__crt_stdio_output@@QAEHXZ 1001656d f i libucrt:output.obj
 0001:00015681       ?state_case_flag@?$output_processor@DV?$string_output_adapter@D@__crt_stdio_output@@V?$format_validation_base@DV?$string_output_adapter@D@__crt_stdio_output@@@2@@__crt_stdio_output@@AAE_NXZ 10016681 f i libucrt:output.obj
 0001:00015681       ?state_case_flag@?$output_processor@DV?$string_output_adapter@D@__crt_stdio_output@@V?$standard_base@DV?$string_output_adapter@D@__crt_stdio_output@@@2@@__crt_stdio_output@@AAE_NXZ 10016681 f i libucrt:output.obj
 0001:000156be       ?state_case_normal@?$output_processor@DV?$string_output_adapter@D@__crt_stdio_output@@V?$format_validation_base@DV?$string_output_adapter@D@__crt_stdio_output@@@2@@__crt_stdio_output@@AAE_NXZ 100166be f i libucrt:output.obj
 0001:000156be       ?state_case_normal@?$output_processor@DV?$string_output_adapter@D@__crt_stdio_output@@V?$standard_base@DV?$string_output_adapter@D@__crt_stdio_output@@@2@@__crt_stdio_output@@AAE_NXZ 100166be f i libucrt:output.obj
 0001:000156dd       ?state_case_normal_common@?$output_processor@DV?$string_output_adapter@D@__crt_stdio_output@@V?$format_validation_base@DV?$string_output_adapter@D@__crt_stdio_output@@@2@@__crt_stdio_output@@AAE_NXZ 100166dd f i libucrt:output.obj
 0001:000156dd       ?state_case_normal_common@?$output_processor@DV?$string_output_adapter@D@__crt_stdio_output@@V?$standard_base@DV?$string_output_adapter@D@__crt_stdio_output@@@2@@__crt_stdio_output@@AAE_NXZ 100166dd f i libucrt:output.obj
 0001:00015707       ?state_case_normal_tchar@?$output_processor@DV?$string_output_adapter@D@__crt_stdio_output@@V?$format_validation_base@DV?$string_output_adapter@D@__crt_stdio_output@@@2@@__crt_stdio_output@@AAE_ND@Z 10016707 f i libucrt:output.obj
 0001:00015707       ?state_case_normal_tchar@?$output_processor@DV?$string_output_adapter@D@__crt_stdio_output@@V?$standard_base@DV?$string_output_adapter@D@__crt_stdio_output@@@2@@__crt_stdio_output@@AAE_ND@Z 10016707 f i libucrt:output.obj
 0001:0001576b       ?state_case_precision@?$output_processor@DV?$string_output_adapter@D@__crt_stdio_output@@V?$format_validation_base@DV?$string_output_adapter@D@__crt_stdio_output@@@2@@__crt_stdio_output@@AAE_NXZ 1001676b f i libucrt:output.obj
 0001:0001576b       ?state_case_precision@?$output_processor@DV?$string_output_adapter@D@__crt_stdio_output@@V?$standard_base@DV?$string_output_adapter@D@__crt_stdio_output@@@2@@__crt_stdio_output@@AAE_NXZ 1001676b f i libucrt:output.obj
 0001:00015791       ?state_case_size@?$output_processor@DV?$string_output_adapter@D@__crt_stdio_output@@V?$format_validation_base@DV?$string_output_adapter@D@__crt_stdio_output@@@2@@__crt_stdio_output@@AAE_NXZ 10016791 f i libucrt:output.obj
 0001:00015791       ?state_case_size@?$output_processor@DV?$string_output_adapter@D@__crt_stdio_output@@V?$standard_base@DV?$string_output_adapter@D@__crt_stdio_output@@@2@@__crt_stdio_output@@AAE_NXZ 10016791 f i libucrt:output.obj
 0001:000158df       ?state_case_type@?$output_processor@DV?$string_output_adapter@D@__crt_stdio_output@@V?$format_validation_base@DV?$string_output_adapter@D@__crt_stdio_output@@@2@@__crt_stdio_output@@AAE_NXZ 100168df f i libucrt:output.obj
 0001:000158df       ?state_case_type@?$output_processor@DV?$string_output_adapter@D@__crt_stdio_output@@V?$standard_base@DV?$string_output_adapter@D@__crt_stdio_output@@@2@@__crt_stdio_output@@AAE_NXZ 100168df f i libucrt:output.obj
 0001:00015b11       ?state_case_width@?$output_processor@DV?$string_output_adapter@D@__crt_stdio_output@@V?$format_validation_base@DV?$string_output_adapter@D@__crt_stdio_output@@@2@@__crt_stdio_output@@AAE_NXZ 10016b11 f i libucrt:output.obj
 0001:00015b11       ?state_case_width@?$output_processor@DV?$string_output_adapter@D@__crt_stdio_output@@V?$standard_base@DV?$string_output_adapter@D@__crt_stdio_output@@@2@@__crt_stdio_output@@AAE_NXZ 10016b11 f i libucrt:output.obj
 0001:00015b40       ?to_integer_size@__crt_stdio_output@@YAIW4length_modifier@1@@Z 10016b40 f i libucrt:output.obj
 0001:00015b9c       ?type_case_Z@?$output_processor@DV?$string_output_adapter@D@__crt_stdio_output@@V?$format_validation_base@DV?$string_output_adapter@D@__crt_stdio_output@@@2@@__crt_stdio_output@@AAE_NXZ 10016b9c f i libucrt:output.obj
 0001:00015b9c       ?type_case_Z@?$output_processor@DV?$string_output_adapter@D@__crt_stdio_output@@V?$standard_base@DV?$string_output_adapter@D@__crt_stdio_output@@@2@@__crt_stdio_output@@AAE_NXZ 10016b9c f i libucrt:output.obj
 0001:00015bf6       ?type_case_a@?$output_processor@DV?$string_output_adapter@D@__crt_stdio_output@@V?$format_validation_base@DV?$string_output_adapter@D@__crt_stdio_output@@@2@@__crt_stdio_output@@AAE_NXZ 10016bf6 f i libucrt:output.obj
 0001:00015bf6       ?type_case_a@?$output_processor@DV?$string_output_adapter@D@__crt_stdio_output@@V?$standard_base@DV?$string_output_adapter@D@__crt_stdio_output@@@2@@__crt_stdio_output@@AAE_NXZ 10016bf6 f i libucrt:output.obj
 0001:00015d47       ?type_case_c_tchar@?$output_processor@DV?$string_output_adapter@D@__crt_stdio_output@@V?$format_validation_base@DV?$string_output_adapter@D@__crt_stdio_output@@@2@@__crt_stdio_output@@AAE_ND@Z 10016d47 f i libucrt:output.obj
 0001:00015d47       ?type_case_c_tchar@?$output_processor@DV?$string_output_adapter@D@__crt_stdio_output@@V?$standard_base@DV?$string_output_adapter@D@__crt_stdio_output@@@2@@__crt_stdio_output@@AAE_ND@Z 10016d47 f i libucrt:output.obj
 0001:00015dda       ?type_case_integer@?$output_processor@DV?$string_output_adapter@D@__crt_stdio_output@@V?$format_validation_base@DV?$string_output_adapter@D@__crt_stdio_output@@@2@@__crt_stdio_output@@AAE_NI_N@Z 10016dda f i libucrt:output.obj
 0001:00015dda       ?type_case_integer@?$output_processor@DV?$string_output_adapter@D@__crt_stdio_output@@V?$standard_base@DV?$string_output_adapter@D@__crt_stdio_output@@@2@@__crt_stdio_output@@AAE_NI_N@Z 10016dda f i libucrt:output.obj
 0001:00015f2b       ?type_case_n@?$output_processor@DV?$string_output_adapter@D@__crt_stdio_output@@V?$format_validation_base@DV?$string_output_adapter@D@__crt_stdio_output@@@2@@__crt_stdio_output@@AAE_NXZ 10016f2b f i libucrt:output.obj
 0001:00015f2b       ?type_case_n@?$output_processor@DV?$string_output_adapter@D@__crt_stdio_output@@V?$standard_base@DV?$string_output_adapter@D@__crt_stdio_output@@@2@@__crt_stdio_output@@AAE_NXZ 10016f2b f i libucrt:output.obj
 0001:00015f9f       ?type_case_o@?$output_processor@DV?$string_output_adapter@D@__crt_stdio_output@@V?$format_validation_base@DV?$string_output_adapter@D@__crt_stdio_output@@@2@@__crt_stdio_output@@AAE_NXZ 10016f9f f i libucrt:output.obj
 0001:00015f9f       ?type_case_o@?$output_processor@DV?$string_output_adapter@D@__crt_stdio_output@@V?$standard_base@DV?$string_output_adapter@D@__crt_stdio_output@@@2@@__crt_stdio_output@@AAE_NXZ 10016f9f f i libucrt:output.obj
 0001:00015fbe       ?type_case_p@?$output_processor@DV?$string_output_adapter@D@__crt_stdio_output@@V?$format_validation_base@DV?$string_output_adapter@D@__crt_stdio_output@@@2@@__crt_stdio_output@@AAE_NXZ 10016fbe f i libucrt:output.obj
 0001:00015fbe       ?type_case_p@?$output_processor@DV?$string_output_adapter@D@__crt_stdio_output@@V?$standard_base@DV?$string_output_adapter@D@__crt_stdio_output@@@2@@__crt_stdio_output@@AAE_NXZ 10016fbe f i libucrt:output.obj
 0001:00015fd6       ?type_case_s@?$output_processor@DV?$string_output_adapter@D@__crt_stdio_output@@V?$format_validation_base@DV?$string_output_adapter@D@__crt_stdio_output@@@2@@__crt_stdio_output@@AAE_NXZ 10016fd6 f i libucrt:output.obj
 0001:00015fd6       ?type_case_s@?$output_processor@DV?$string_output_adapter@D@__crt_stdio_output@@V?$standard_base@DV?$string_output_adapter@D@__crt_stdio_output@@@2@@__crt_stdio_output@@AAE_NXZ 10016fd6 f i libucrt:output.obj
 0001:00016047       ?validate@?$c_string_character_source@D@__crt_strtox@@QBE_NXZ 10017047 f i libucrt:atox.obj
 0001:00016047       ?validate@?$c_string_character_source@_W@__crt_strtox@@QBE_NXZ 10017047 f i libucrt:atox.obj
 0001:00016047       ?validate@?$string_output_adapter@D@__crt_stdio_output@@QBE_NXZ 10017047 f i libucrt:output.obj
 0001:00016062       ?validate_and_update_state_at_end_of_format_string@?$format_validation_base@DV?$string_output_adapter@D@__crt_stdio_output@@@__crt_stdio_output@@IBE_NXZ 10017062 f i libucrt:output.obj
 0001:00016084       ?write_character@?$string_output_adapter@D@__crt_stdio_output@@QBE_NDQAH@Z 10017084 f i libucrt:output.obj
 0001:000160c6       ?write_stored_string_tchar@?$output_processor@DV?$string_output_adapter@D@__crt_stdio_output@@V?$format_validation_base@DV?$string_output_adapter@D@__crt_stdio_output@@@2@@__crt_stdio_output@@AAE_ND@Z 100170c6 f i libucrt:output.obj
 0001:000160c6       ?write_stored_string_tchar@?$output_processor@DV?$string_output_adapter@D@__crt_stdio_output@@V?$standard_base@DV?$string_output_adapter@D@__crt_stdio_output@@@2@@__crt_stdio_output@@AAE_ND@Z 100170c6 f i libucrt:output.obj
 0001:0001616b       ?write_string@?$string_output_adapter@D@__crt_stdio_output@@QBEXQBDHQAHAAV__crt_deferred_errno_cache@@@Z 1001716b f i libucrt:output.obj
 0001:000161d2       ___acrt_locale_get_ctype_array_value 100171d2 f i libucrt:output.obj
 0001:000161f4       ___stdio_common_vsprintf   100171f4 f   libucrt:output.obj
 0001:00016218       ___stdio_common_vsprintf_s 10017218 f   libucrt:output.obj
 0001:0001623c       ___acrt_call_reportfault   1001723c f   libucrt:invalid_parameter.obj
 0001:00016375       ___acrt_initialize_invalid_parameter_handler 10017375 f   libucrt:invalid_parameter.obj
 0001:00016384       __invalid_parameter        10017384 f   libucrt:invalid_parameter.obj
 0001:000163e8       __invalid_parameter_noinfo 100173e8 f   libucrt:invalid_parameter.obj
 0001:000163f8       __invalid_parameter_noinfo_noreturn 100173f8 f   libucrt:invalid_parameter.obj
 0001:00016415       __invoke_watson            10017415 f   libucrt:invalid_parameter.obj
 0001:00016449       _rand                      10017449 f   libucrt:rand.obj
 0001:0001646a       ??$is_overflow_condition@K@__crt_strtox@@YA_NIK@Z 1001746a f i libucrt:atox.obj
 0001:0001649b       ??$parse_integer@KV?$c_string_character_source@D@__crt_strtox@@@__crt_strtox@@YAKQAU__crt_locale_pointers@@V?$c_string_character_source@D@0@H_N@Z 1001749b f i libucrt:atox.obj
 0001:000166be       ??$parse_integer@KV?$c_string_character_source@_W@__crt_strtox@@@__crt_strtox@@YAKQAU__crt_locale_pointers@@V?$c_string_character_source@_W@0@H_N@Z 100176be f i libucrt:atox.obj
 0001:00016cc6       ?unget@?$c_string_character_source@D@__crt_strtox@@QAEXD@Z 10017cc6 f i libucrt:atox.obj
 0001:00016cef       ?unget@?$c_string_character_source@_W@__crt_strtox@@QAEX_W@Z 10017cef f i libucrt:atox.obj
 0001:00016d1d       __ischartype_l             10017d1d f i libucrt:atox.obj
 0001:00016d71       __wtol                     10017d71 f   libucrt:atox.obj
 0001:00016d94       _atoi                      10017d94 f   libucrt:atox.obj
 0001:00016d94       _atol                      10017d94 f   libucrt:atox.obj
 0001:00016f13       __beginthreadex            10017f13 f   libucrt:thread.obj
 0001:00016f96       __endthreadex              10017f96 f   libucrt:thread.obj
 0001:00016fa4       __tolower_l                10017fa4 f   libucrt:tolower_toupper.obj
 0001:000170a8       _tolower                   100180a8 f   libucrt:tolower_toupper.obj
 0001:000170d8       _terminate                 100180d8 f   libucrt:terminate.obj
 0001:00017114       _free                      10018114 f   libucrt:free.obj
 0001:0001712f       ??$assemble_floating_point_snan@N@__crt_strtox@@YAX_NAAN@Z 1001812f f i libucrt:atof.obj
 0001:00017150       ??$assemble_floating_point_value_t@M@__crt_strtox@@YA?AW4SLD_STATUS@@_NH_KAAM@Z 10018150 f i libucrt:atof.obj
 0001:00017180       ??$assemble_floating_point_value_t@N@__crt_strtox@@YA?AW4SLD_STATUS@@_NH_KAAN@Z 10018180 f i libucrt:atof.obj
 0001:00017226       ??$convert_decimal_string_to_floating_type@N@__crt_strtox@@YA?AW4SLD_STATUS@@ABUfloating_point_string@0@AAN@Z 10018226 f i libucrt:atof.obj
 0001:00017247       ??$convert_hexadecimal_string_to_floating_type@N@__crt_strtox@@YA?AW4SLD_STATUS@@ABUfloating_point_string@0@AAN@Z 10018247 f i libucrt:atof.obj
 0001:00017268       ??$parse_floating_point@V?$c_string_character_source@D@__crt_strtox@@N@__crt_strtox@@YA?AW4SLD_STATUS@@QAU__crt_locale_pointers@@V?$c_string_character_source@D@0@QAN@Z 10018268 f i libucrt:atof.obj
 0001:000172dc       ??$parse_floating_point_from_source@V?$c_string_character_source@D@__crt_strtox@@@__crt_strtox@@YA?AW4floating_point_parse_result@0@QAU__crt_locale_pointers@@AAV?$c_string_character_source@D@0@AAUfloating_point_string@0@@Z 100182dc f i libucrt:atof.obj
 0001:000176c5       ??$parse_floating_point_possible_infinity@DV?$c_string_character_source@D@__crt_strtox@@PBD@__crt_strtox@@YA?AW4floating_point_parse_result@0@AADAAV?$c_string_character_source@D@0@PBD@Z 100186c5 f i libucrt:atof.obj
 0001:00017767       ??$parse_floating_point_possible_nan@DV?$c_string_character_source@D@__crt_strtox@@PBD@__crt_strtox@@YA?AW4floating_point_parse_result@0@AADAAV?$c_string_character_source@D@0@PBD@Z 10018767 f i libucrt:atof.obj
 0001:00017876       ??$parse_floating_point_possible_nan_is_ind@DV?$c_string_character_source@D@__crt_strtox@@@__crt_strtox@@YA_NAADAAV?$c_string_character_source@D@0@@Z 10018876 f i libucrt:atof.obj
 0001:000178b2       ??$parse_floating_point_possible_nan_is_snan@DV?$c_string_character_source@D@__crt_strtox@@@__crt_strtox@@YA_NAADAAV?$c_string_character_source@D@0@@Z 100188b2 f i libucrt:atof.obj
 0001:000178ee       ??$parse_floating_point_write_result@N@__crt_strtox@@YA?AW4SLD_STATUS@@W4floating_point_parse_result@0@ABUfloating_point_string@0@QAN@Z 100188ee f i libucrt:atof.obj
 0001:00017a38       ?as_double@floating_point_value@__crt_strtox@@QBEAANXZ 10018a38 f i libucrt:atof.obj
 0001:00017a5d       ?as_float@floating_point_value@__crt_strtox@@QBEAAMXZ 10018a5d f i libucrt:atof.obj
 0001:00017a82       ?assemble_floating_point_infinity@__crt_strtox@@YAX_NABVfloating_point_value@1@@Z 10018a82 f i libucrt:atof.obj
 0001:00017ac2       ?assemble_floating_point_value@__crt_strtox@@YA?AW4SLD_STATUS@@_KH_N1ABVfloating_point_value@1@@Z 10018ac2 f i libucrt:atof.obj
 0001:00017e17       ?assemble_floating_point_value_from_big_integer@__crt_strtox@@YA?AW4SLD_STATUS@@ABUbig_integer@1@I_N1ABVfloating_point_value@1@@Z 10018e17 f i libucrt:atof.obj
 0001:00017fab       ?assemble_floating_point_zero@__crt_strtox@@YAX_NABVfloating_point_value@1@@Z 10018fab f i libucrt:atof.obj
 0001:00017fe0       ?convert_decimal_string_to_floating_type_common@__crt_strtox@@YA?AW4SLD_STATUS@@ABUfloating_point_string@1@ABVfloating_point_value@1@@Z 10018fe0 f i libucrt:atof.obj
 0001:00019cb4       ?convert_hexadecimal_string_to_floating_type_common@__crt_strtox@@YA?AW4SLD_STATUS@@ABUfloating_point_string@1@ABVfloating_point_value@1@@Z 1001acb4 f i libucrt:atof.obj
 0001:00019d5a       ?denormal_mantissa_mask@floating_point_value@__crt_strtox@@QBE_KXZ 1001ad5a f i libucrt:atof.obj
 0001:00019d80       ?divide@__crt_strtox@@YA_KAAUbig_integer@1@ABU21@@Z 1001ad80 f i libucrt:atof.obj
 0001:0001a218       ?normal_mantissa_mask@floating_point_value@__crt_strtox@@QBE_KXZ 1001b218 f i libucrt:atof.obj
 0001:0001a22f       _atof                      1001b22f f   libucrt:atof.obj
 0001:0001a2c3       ___acrt_initialize_locks   1001b2c3 f   libucrt:locks.obj
 0001:0001a304       ___acrt_lock               1001b304 f   libucrt:locks.obj
 0001:0001a31b       ___acrt_uninitialize_locks 1001b31b f   libucrt:locks.obj
 0001:0001a34c       ___acrt_unlock             1001b34c f   libucrt:locks.obj
 0001:0001a363       __lock_locales             1001b363 f   libucrt:locks.obj
 0001:0001a371       __unlock_locales           1001b371 f   libucrt:locks.obj
 0001:0001a37a       _abort                     1001b37a f   libucrt:abort.obj
 0001:0001a3be       _malloc                    1001b3be f   libucrt:malloc.obj
 0001:0001a61e       _setlocale                 1001b61e f   libucrt:setlocale.obj
 0001:0001a656       ___pctype_func             1001b656 f   libucrt:ctype.obj
 0001:0001a680       _islower                   1001b680 f   libucrt:_ctype.obj
 0001:0001a710       _isupper                   1001b710 f   libucrt:_ctype.obj
 0001:0001a794       ____lc_codepage_func       1001b794 f   libucrt:initctype.obj
 0001:0001a7b9       ____lc_locale_name_func    1001b7b9 f   libucrt:initctype.obj
 0001:0001a7e0       ___acrt_locale_initialize_ctype 1001b7e0 f   libucrt:initctype.obj
 0001:0001ac3e       _calloc                    1001bc3e f   libucrt:calloc.obj
 0001:0001ac49       __wcsdup                   1001bc49 f   libucrt:wcsdup.obj
 0001:0001aca8       ___acrt_errno_from_os_error 1001bca8 f   libucrt:errno.obj
 0001:0001aceb       ___acrt_errno_map_os_error 1001bceb f   libucrt:errno.obj
 0001:0001ad0e       ___doserrno                1001bd0e f   libucrt:errno.obj
 0001:0001ad21       __errno                    1001bd21 f   libucrt:errno.obj
 0001:0001ad34       ??$make_c_string_character_source@DPAPAD@__crt_strtox@@YA?AV?$c_string_character_source@D@0@QBDQAPAD@Z 1001bd34 f i libucrt:strtod.obj
 0001:0001ad50       _strcspn                   1001bd50 f   libucrt:strcspn.obj
 0001:0001ad96       ___strncnt                 1001bd96 f   libucrt:strncnt.obj
 0001:0001adb2       ___acrt_initialize_stdio   1001bdb2 f   libucrt:_file.obj
 0001:0001ae7a       ___acrt_uninitialize_stdio 1001be7a f   libucrt:_file.obj
 0001:0001aec6       __lock_file                1001bec6 f   libucrt:_file.obj
 0001:0001aeda       __unlock_file              1001beda f   libucrt:_file.obj
 0001:0001afa0       ??$__acrt_mbs_to_wcs_cp@U__crt_win32_buffer_internal_dynamic_resizing@@@@YAHQBDAAV?$__crt_win32_buffer@_WU__crt_win32_buffer_internal_dynamic_resizing@@@@I@Z 1001bfa0 f i libucrt:strftime.obj
 0001:0001afbd       ?_deallocate@?$__crt_win32_buffer@DU__crt_win32_buffer_internal_dynamic_resizing@@@@AAEXXZ 1001bfbd f i libucrt:argv_wildcards.obj
 0001:0001afbd       ?_deallocate@?$__crt_win32_buffer@_WU__crt_win32_buffer_internal_dynamic_resizing@@@@AAEXXZ 1001bfbd f i libucrt:strftime.obj
 0001:0001afd7       ?allocate@?$__crt_win32_buffer@DU__crt_win32_buffer_no_resizing@@@@QAEHI@Z 1001bfd7 f i libucrt:strftime.obj
 0001:0001affe       ?allocate@?$__crt_win32_buffer@_WU__crt_win32_buffer_internal_dynamic_resizing@@@@QAEHI@Z 1001bffe f i libucrt:strftime.obj
 0001:0001b03d       ?allocate@__crt_win32_buffer_internal_dynamic_resizing@@SAHQAPAXIABV__crt_win32_buffer_empty_debug_info@@@Z 1001c03d f i libucrt:strftime.obj
 0001:0001b05c       ?set_to_nullptr@?$__crt_win32_buffer@DU__crt_win32_buffer_no_resizing@@@@QAEXXZ 1001c05c f i libucrt:strftime.obj
 0001:0001b070       _strnlen                   1001c070 f   libucrt:strnlen.obj
 0001:0001b192       _wcsnlen                   1001c192 f   libucrt:strnlen.obj
 0001:0001b342       __seh_filter_dll           1001c342 f   libucrt:exception_filter.obj
 0001:0001b362       __seh_filter_exe           1001c362 f   libucrt:exception_filter.obj
 0001:0001b730       ___acrt_initialize_thread_local_exit_callback 1001c730 f   libucrt:exit.obj
 0001:0001b73f       __cexit                    1001c73f f   libucrt:exit.obj
 0001:0001b74e       __exit                     1001c74e f   libucrt:exit.obj
 0001:0001b764       __is_c_termination_complete 1001c764 f   libucrt:exit.obj
 0001:0001ba15       ___acrt_allocate_buffer_for_argv 1001ca15 f   libucrt:argv_parsing.obj
 0001:0001ba64       __configure_narrow_argv    1001ca64 f   libucrt:argv_parsing.obj
 0001:0001bbc1       ??$uninitialize@A6AXAAPAPAD@Z@?$dual_state_global@PAPAD@__crt_state_management@@QAEXA6AXAAPAPAD@Z@Z 1001cbc1 f i libucrt:environment_initialization.obj
 0001:0001bbc1       ??$uninitialize@A6AXAAPAPA_W@Z@?$dual_state_global@PAPA_W@__crt_state_management@@QAEXA6AXAAPAPA_W@Z@Z 1001cbc1 f i libucrt:environment_initialization.obj
 0001:0001bc20       ___dcrt_uninitialize_environments_nolock 1001cc20 f   libucrt:environment_initialization.obj
 0001:0001bc57       __initialize_narrow_environment 1001cc57 f   libucrt:environment_initialization.obj
 0001:0001bd12       ??$__crt_fast_encode_pointer@P6AHXZ@@YAP6AHXZQ6AHXZ@Z 1001cd12 f i libucrt:onexit.obj
 0001:0001bd12       ??$__crt_fast_encode_pointer@P6GHPA_WKJ@Z@@YAP6GHPA_WKJ@ZQ6GH0KJ@Z@Z 1001cd12 f i libucrt:winapi_thunks.obj
 0001:0001bd12       ??$__crt_fast_encode_pointer@PAP6AXXZ@@YAPAP6AXXZQAP6AXXZ@Z 1001cd12 f i libucrt:onexit.obj
 0001:0001bd12       ??$__crt_fast_encode_pointer@PAX@@YAPAXQAX@Z 1001cd12 f i libucrt:initialization.obj
 0001:0001bf34       __crt_atexit               1001cf34 f   libucrt:onexit.obj
 0001:0001bf4a       __execute_onexit_table     1001cf4a f   libucrt:onexit.obj
 0001:0001bf77       __initialize_onexit_table  1001cf77 f   libucrt:onexit.obj
 0001:0001bfa0       __register_onexit_function 1001cfa0 f   libucrt:onexit.obj
 0001:0001bffa       ___acrt_uninitialize_command_line 1001cffa f   libucrt:argv_data.obj
 0001:0001c0d1       ___acrt_initialize         1001d0d1 f   libucrt:initialization.obj
 0001:0001c0e3       ___acrt_thread_attach      1001d0e3 f   libucrt:initialization.obj
 0001:0001c0ee       ___acrt_thread_detach      1001d0ee f   libucrt:initialization.obj
 0001:0001c0f6       ___acrt_uninitialize       1001d0f6 f   libucrt:initialization.obj
 0001:0001c126       ___acrt_uninitialize_critical 1001d126 f   libucrt:initialization.obj
 0001:0001c138       __initterm                 1001d138 f   libucrt:initterm.obj
 0001:0001c17d       __initterm_e               1001d17d f   libucrt:initterm.obj
 0001:0001c1ab       _strcpy_s                  1001d1ab f   libucrt:strcpy_s.obj
 0001:0001c210       _strncmp                   1001d210 f   libucrt:strncmp.obj
 0001:0001c288       _wcsncmp                   1001d288 f   libucrt:wcsncmp.obj
 0001:0001c2c2       __free_base                1001d2c2 f   libucrt:free_base.obj
 0001:0001c2fc       __malloc_base              1001d2fc f   libucrt:malloc_base.obj
 0001:0001c34a       _strtol                    1001d34a f   libucrt:strtox.obj
 0001:0001c374       __mbtowc_l                 1001d374 f   libucrt:mbtowc.obj
 0001:0001c4b6       _mbtowc                    1001d4b6 f   libucrt:mbtowc.obj
 0001:0001c4d0       __wctomb_s_l               1001d4d0 f   libucrt:wctomb.obj
 0001:0001c969       ___acrt_freeptd            1001d969 f   libucrt:per_thread_data.obj
 0001:0001c995       ___acrt_getptd             1001d995 f   libucrt:per_thread_data.obj
 0001:0001ca52       ___acrt_getptd_head        1001da52 f   libucrt:per_thread_data.obj
 0001:0001caec       ___acrt_getptd_noexit      1001daec f   libucrt:per_thread_data.obj
 0001:0001cba1       ___acrt_initialize_ptd     1001dba1 f   libucrt:per_thread_data.obj
 0001:0001cbcd       ___acrt_uninitialize_ptd   1001dbcd f   libucrt:per_thread_data.obj
 0001:0001cbe7       ___acrt_update_locale_info 1001dbe7 f   libucrt:locale_update.obj
 0001:0001cc14       ___acrt_update_multibyte_info 1001dc14 f   libucrt:locale_update.obj
 0001:0001cc41       ?__acrt_fp_classify@@YA?AW4__acrt_fp_class@@ABN@Z 1001dc41 f i libucrt:cvt.obj
 0001:0001d5f4       ___acrt_fp_format          1001e5f4 f   libucrt:cvt.obj
 0001:0001d750       __fileno                   1001e750 f   libucrt:fileno.obj
 0001:0001d777       __get_printf_count_output  1001e777 f   libucrt:printf_count_output.obj
 0001:0001d88c       ??0_expandlocale_locale_name_cache@@QAE@QA_WIQAU__crt_qualified_locale_data@@@Z 1001e88c f i libucrt:wsetlocale.obj
 0001:0001d8d6       ??1_expandlocale_locale_name_cache@@QAE@XZ 1001e8d6 f i libucrt:wsetlocale.obj
 0001:0001da6e       ?commit_locale_name@_expandlocale_locale_name_cache@@QAEXQB_WI@Z 1001ea6e f i libucrt:wsetlocale.obj
 0001:0001dab2       ?commit_locale_name_cache_already_updated@_expandlocale_locale_name_cache@@QAEXQB_WI@Z 1001eab2 f i libucrt:wsetlocale.obj
 0001:0001dae7       ___acrt_copy_locale_name   1001eae7 f   libucrt:wsetlocale.obj
 0001:0001db47       ___acrt_set_locale_changed 1001eb47 f   libucrt:wsetlocale.obj
 0001:0001db52       ___acrt_uninitialize_locale 1001eb52 f   libucrt:wsetlocale.obj
 0001:0001db79       ___lc_lctowcs              1001eb79 f   libucrt:wsetlocale.obj
 0001:0001dbe9       ___lc_wcstolc              1001ebe9 f   libucrt:wsetlocale.obj
 0001:0001e12e       __wcscats                  1001f12e f   libucrt:wsetlocale.obj
 0001:0001e16f       __wsetlocale               1001f16f f   libucrt:wsetlocale.obj
 0001:0001efbc       ___acrt_initialize_lowio   1001ffbc f   libucrt:ioinit.obj
 0001:0001f01c       ___acrt_uninitialize_lowio 1002001c f   libucrt:ioinit.obj
 0001:0001f048       _iswctype                  10020048 f   libucrt:iswctype.obj
 0001:0001f0b1       __isctype_l                100200b1 f   libucrt:isctype.obj
 0001:0001f17c       __calloc_base              1002017c f   libucrt:calloc_base.obj
 0001:0001f4f9       ___acrt_AppPolicyGetProcessTerminationMethodInternal@4 100204f9 f   libucrt:winapi_thunks.obj
 0001:0001f539       ___acrt_AppPolicyGetThreadInitializationTypeInternal@4 10020539 f   libucrt:winapi_thunks.obj
 0001:0001f579       ___acrt_AreFileApisANSI@0  10020579 f   libucrt:winapi_thunks.obj
 0001:0001f598       ___acrt_EnumSystemLocalesEx@16 10020598 f   libucrt:winapi_thunks.obj
 0001:0001f5ec       ___acrt_FlsAlloc@4         100205ec f   libucrt:winapi_thunks.obj
 0001:0001f62b       ___acrt_FlsFree@4          1002062b f   libucrt:winapi_thunks.obj
 0001:0001f66a       ___acrt_FlsGetValue@4      1002066a f   libucrt:winapi_thunks.obj
 0001:0001f6a9       ___acrt_FlsSetValue@8      100206a9 f   libucrt:winapi_thunks.obj
 0001:0001f6eb       ___acrt_GetLocaleInfoEx@16 100206eb f   libucrt:winapi_thunks.obj
 0001:0001f72a       ___acrt_GetUserDefaultLocaleName@8 1002072a f   libucrt:winapi_thunks.obj
 0001:0001f766       ___acrt_InitializeCriticalSectionEx@12 10020766 f   libucrt:winapi_thunks.obj
 0001:0001f7b1       ___acrt_IsValidLocaleName@4 100207b1 f   libucrt:winapi_thunks.obj
 0001:0001f7e9       ___acrt_LCIDToLocaleName@16 100207e9 f   libucrt:winapi_thunks.obj
 0001:0001f828       ___acrt_LCMapStringEx@36   10020828 f   libucrt:winapi_thunks.obj
 0001:0001f885       ___acrt_LocaleNameToLCID@8 10020885 f   libucrt:winapi_thunks.obj
 0001:0001f8b6       ___acrt_RoInitialize@4     100208b6 f   libucrt:winapi_thunks.obj
 0001:0001f8f1       ___acrt_RoUninitialize@0   100208f1 f   libucrt:winapi_thunks.obj
 0001:0001f91f       ___acrt_can_use_vista_locale_apis 1002091f f   libucrt:winapi_thunks.obj
 0001:0001f92a       ___acrt_eagerly_load_locale_apis 1002092a f   libucrt:winapi_thunks.obj
 0001:0001f961       ___acrt_initialize_winapi_thunks 10020961 f   libucrt:winapi_thunks.obj
 0001:0001f98c       ___acrt_uninitialize_winapi_thunks 1002098c f   libucrt:winapi_thunks.obj
 0001:0001f9c2       ___acrt_get_begin_thread_init_policy 100209c2 f   libucrt:win_policies.obj
 0001:0001fa06       ___acrt_get_process_end_policy 10020a06 f   libucrt:win_policies.obj
 0001:0001fa37       __isleadbyte_l             10020a37 f i libucrt:_wctype.obj
 0001:0001fc5b       ___acrt_LCMapStringA       10020c5b f   libucrt:lcmapstringa.obj
 0001:0001fca4       _fegetround                10020ca4 f   libucrt:fegetround.obj
 0001:0001fd7f       ___acrt_get_sigabrt_handler 10020d7f f   libucrt:signal.obj
 0001:0001fda6       ___acrt_initialize_signal_handlers 10020da6 f   libucrt:signal.obj
 0001:0001fdc4       _raise                     10020dc4 f   libucrt:signal.obj
 0001:0002015a       __mbstowcs_s_l             1002115a f   libucrt:mbstowcs.obj
 0001:0002023a       _mbstowcs_s                1002123a f   libucrt:mbstowcs.obj
 0001:000204f9       __wcstombs_s_l             100214f9 f   libucrt:wcstombs.obj
 0001:0002069f       ___acrt_GetLocaleInfoA     1002169f f   libucrt:getlocaleinfoa.obj
 0001:0002084f       ___acrt_GetStringTypeA     1002184f f   libucrt:getstringtypea.obj
 0001:00020952       _wcscpy_s                  10021952 f   libucrt:wcscpy_s.obj
 0001:000209b6       __errcode                  100219b6 f   libucrt:fpexcept.obj
 0001:000209ea       __except1                  100219ea f   libucrt:fpexcept.obj
 0001:00020ab8       __handle_exc               10021ab8 f   libucrt:fpexcept.obj
 0001:00020ca3       __raise_exc                10021ca3 f   libucrt:fpexcept.obj
 0001:00020cc6       __raise_exc_ex             10021cc6 f   libucrt:fpexcept.obj
 0001:00020fbc       __set_errno_from_matherr   10021fbc f   libucrt:fpexcept.obj
 0001:00020fee       __umatherr                 10021fee f   libucrt:fpexcept.obj
 0001:0002108e       __decomp                   1002208e f   libucrt:util.obj
 0001:00021160       __set_exp                  10022160 f   libucrt:util.obj
 0001:0002118d       __sptype                   1002218d f   libucrt:util.obj
 0001:000211eb       ___set_fpsr_sse2           100221eb f   libucrt:fpctrl.obj
 0001:0002126b       __clrfp                    1002226b f   libucrt:fpctrl.obj
 0001:0002127c       __ctrlfp                   1002227c f   libucrt:fpctrl.obj
 0001:000212a6       __set_statfp               100222a6 f   libucrt:fpctrl.obj
 0001:000212ff       __statfp                   100222ff f   libucrt:fpctrl.obj
 0001:0002130f       __realloc_base             1002230f f   libucrt:realloc_base.obj
 0001:00021378       __fcloseall                10022378 f   libucrt:closeall.obj
 0001:00021600       ___acrt_stdio_flush_nolock 10022600 f   libucrt:fflush.obj
 0001:00021665       __fflush_nolock            10022665 f   libucrt:fflush.obj
 0001:000216ad       __flushall                 100226ad f   libucrt:fflush.obj
 0001:000216b6       ___acrt_stdio_free_buffer_nolock 100226b6 f   libucrt:_freebuf.obj
 0001:000216f6       ___acrt_MultiByteToWideChar 100226f6 f   libucrt:multibytetowidechar.obj
 0001:00021772       ___acrt_WideCharToMultiByte 10022772 f   libucrt:widechartomultibyte.obj
 0001:00021829       ___ascii_wcsicmp           10022829 f   libucrt:wcsicmp.obj
 0001:00021866       __towlower_internal        10022866 f i libucrt:wcsicmp.obj
 0001:000218a5       __wcsicmp                  100228a5 f   libucrt:wcsicmp.obj
 0001:000218ee       __wcsicmp_l                100228ee f   libucrt:wcsicmp.obj
 0001:000219a6       ___acrt_initialize_timeset 100229a6 f   libucrt:timeset.obj
 0001:000219db       ?__acrt_get_utf8_acp_compatibility_codepage@@YAIXZ 100229db f i libucrt:tzset.obj
 0001:00021ff8       ?allocate@?$__crt_win32_buffer@DU__crt_win32_buffer_internal_dynamic_resizing@@@@QAEHI@Z 10022ff8 f i libucrt:argv_wildcards.obj
 0001:000220bb       ___acrt_expand_narrow_argv_wildcards 100230bb f   libucrt:argv_wildcards.obj
 0001:0002218d       ___acrt_GetModuleFileNameA 1002318d f   libucrt:getmodulefilenamea.obj
 0001:00022746       ___acrt_initialize_multibyte 10023746 f   libucrt:mbctype.obj
 0001:0002278e       ___acrt_update_thread_multibyte_data 1002378e f   libucrt:mbctype.obj
 0001:000227a1       __setmbcp_nolock           100237a1 f   libucrt:mbctype.obj
 0001:000229eb       __ismbblead                100239eb f   libucrt:ismbbyte.obj
 0001:00022a03       ___acrt_initialize_command_line 10023a03 f   libucrt:argv_data.obj
 0001:00022a53       ___dcrt_get_narrow_environment_from_os 10023a53 f   libucrt:get_environment_from_os.obj
 0001:00022ad7       __recalloc_base            10023ad7 f   libucrt:recalloc.obj
 0001:00022b44       ___acrt_initialize_heap    10023b44 f   libucrt:heap_handle.obj
 0001:00022b55       ___acrt_uninitialize_heap  10023b55 f   libucrt:heap_handle.obj
 0001:00022b5f       ___acrt_execute_initializers 10023b5f f   libucrt:shared_initialization.obj
 0001:00022bc7       ___acrt_execute_uninitializers 10023bc7 f   libucrt:shared_initialization.obj
 0001:00022bf8       ___acrt_initialize_new_handler 10023bf8 f   libucrt:new_handler.obj
 0001:00022c07       __callnewh                 10023c07 f   libucrt:new_handler.obj
 0001:00022c34       __query_new_handler        10023c34 f   libucrt:new_handler.obj
 0001:00022c90       ___acrt_has_user_matherr   10023c90 f   libucrt:matherr.obj
 0001:00022ca8       ___acrt_initialize_user_matherr 10023ca8 f   libucrt:matherr.obj
 0001:00022cb7       ___acrt_invoke_user_matherr 10023cb7 f   libucrt:matherr.obj
 0001:00022ce9       __query_new_mode           10023ce9 f   libucrt:new_mode.obj
 0001:00022d1c       ?__mbrtowc_utf8@__crt_mbstring@@YAIPA_WPBDIPAU_Mbstatet@@@Z 10023d1c f   libucrt:mbrtowc.obj
 0001:00022d5c       ?__mbsrtowcs_utf8@__crt_mbstring@@YAIPA_WPAPBDIPAU_Mbstatet@@@Z 10023d5c f   libucrt:mbrtowc.obj
 0001:00022e57       ?__c32rtomb_utf8@__crt_mbstring@@YAIPAD_UPAU_Mbstatet@@@Z 10023e57 f   libucrt:c32rtomb.obj
 0001:00022f02       ?return_illegal_sequence@__crt_mbstring@@YAIPAU_Mbstatet@@@Z 10023f02 f i libucrt:c32rtomb.obj
 0001:00022f21       _c32rtomb                  10023f21 f   libucrt:c32rtomb.obj
 0001:00022f2c       ___acrt_add_locale_ref     10023f2c f   libucrt:locale_refcounting.obj
 0001:00022fa9       ___acrt_free_locale        10023fa9 f   libucrt:locale_refcounting.obj
 0001:000230f1       ___acrt_locale_add_lc_time_reference 100240f1 f   libucrt:locale_refcounting.obj
 0001:0002311a       ___acrt_locale_free_lc_time_if_unreferenced 1002411a f   libucrt:locale_refcounting.obj
 0001:0002314b       ___acrt_locale_release_lc_time_reference 1002414b f   libucrt:locale_refcounting.obj
 0001:00023174       ___acrt_release_locale_ref 10024174 f   libucrt:locale_refcounting.obj
 0001:000231f5       ___acrt_update_thread_locale_data 100241f5 f   libucrt:locale_refcounting.obj
 0001:00023276       __updatetlocinfoEx_nolock  10024276 f   libucrt:locale_refcounting.obj
 0001:00023340       ___acrt_fp_strflt_to_string 10024340 f   libucrt:_fptostr.obj
 0001:0002341c       ___acrt_fltout             1002441c f   libucrt:cfout.obj
 0001:00024923       __isatty                   10025923 f   libucrt:isatty.obj
 0001:00024979       ___acrt_locale_free_monetary 10025979 f   libucrt:initmon.obj
 0001:00024a77       ___acrt_locale_initialize_monetary 10025a77 f   libucrt:initmon.obj
 0001:00024e2d       ___acrt_locale_free_numeric 10025e2d f   libucrt:initnum.obj
 0001:00024e96       ___acrt_locale_initialize_numeric 10025e96 f   libucrt:initnum.obj
 0001:00025358       ___acrt_locale_free_time   10026358 f   libucrt:inittime.obj
 0001:0002543c       ___acrt_locale_initialize_time 1002643c f   libucrt:inittime.obj
 0001:000254b7       _wcscat_s                  100264b7 f   libucrt:wcscat_s.obj
 0001:00025613       _wcsncat_s                 10026613 f   libucrt:wcsncat_s.obj
 0001:000256e9       _wcsncpy_s                 100266e9 f   libucrt:wcsncpy_s.obj
 0001:000256f4       _wcscspn                   100266f4 f   libucrt:wcscspn.obj
 0001:0002574d       _wcspbrk                   1002674d f   libucrt:wcspbrk.obj
 0001:00025e97       ___acrt_get_qualified_locale 10026e97 f   libucrt:get_qualified_locale.obj
 0001:000267f8       ___acrt_get_qualified_locale_downlevel 100277f8 f   libucrt:getqloc_downlevel.obj
 0001:000269ed       ___acrt_lowio_create_handle_array 100279ed f   libucrt:osfinfo.obj
 0001:00026a68       ___acrt_lowio_destroy_handle_array 10027a68 f   libucrt:osfinfo.obj
 0001:00026a9d       ___acrt_lowio_ensure_fh_exists 10027a9d f   libucrt:osfinfo.obj
 0001:00026b3b       ___acrt_lowio_lock_fh      10027b3b f   libucrt:osfinfo.obj
 0001:00026b5e       ___acrt_lowio_unlock_fh    10027b5e f   libucrt:osfinfo.obj
 0001:00026b81       __free_osfhnd              10027b81 f   libucrt:osfinfo.obj
 0001:00026c12       __get_osfhandle            10027c12 f   libucrt:osfinfo.obj
 0001:00026c7c       ___acrt_GetStringTypeW     10027c7c f   libucrt:getstringtypew.obj
 0001:00026ce5       ___acrt_DownlevelLCIDToLocaleName 10027ce5 f   libucrt:lcidtoname_downlevel.obj
 0001:00026d8f       ___acrt_DownlevelLocaleNameToLCID 10027d8f f   libucrt:lcidtoname_downlevel.obj
 0001:000270d8       ___acrt_fenv_get_common_round_control 100280d8 f   libucrt:_fenvutils.obj
 0001:000270fa       ___acrt_fenv_get_control   100280fa f   libucrt:_fenvutils.obj
 0001:0002717a       ___acrt_fenv_get_status    1002817a f   libucrt:_fenvutils.obj
 0001:00027232       ___acrt_fenv_set_control   10028232 f   libucrt:_fenvutils.obj
 0001:0002729a       ___acrt_fenv_set_status    1002829a f   libucrt:_fenvutils.obj
 0001:00027391       ?__wcsrtombs_utf8@__crt_mbstring@@YAIPADPAPB_WIPAU_Mbstatet@@@Z 10028391 f   libucrt:wcrtomb.obj
 0001:00027542       _strncpy_s                 10028542 f   libucrt:strncpy_s.obj
 0001:0002754d       __fclose_nolock            1002854d f   libucrt:fclose.obj
 0001:000275c4       _fclose                    100285c4 f   libucrt:fclose.obj
 0001:000276ea       __commit                   100286ea f   libucrt:commit.obj
 0001:00027ee2       __write                    10028ee2 f   libucrt:write.obj
 0001:00027fd4       __write_nolock             10028fd4 f   libucrt:write.obj
 0001:0002822a       __lseeki64_nolock          1002922a f   libucrt:lseek.obj
 0001:00028245       __towlower_l               10029245 f   libucrt:towlower.obj
 0001:000282f0       _qsort                     100292f0 f   libucrt:qsort.obj
 0001:000287e0       _strpbrk                   100297e0 f   libucrt:strpbrk.obj
 0001:00028820       __mbsdec                   10029820 f   libucrt:mbsdec.obj
 0001:00028837       __mbsdec_l                 10029837 f   libucrt:mbsdec.obj
 0001:000288d3       __msize_base               100298d3 f   libucrt:msize.obj
 0001:00028906       ?__mbrtoc32_utf8@__crt_mbstring@@YAIPA_UPBDIPAU_Mbstatet@@@Z 10029906 f   libucrt:mbrtoc32.obj
 0001:00028aad       __controlfp_s              10029aad f   libucrt:contrlfp.obj
 0001:00028b0c       _fegetenv                  10029b0c f   libucrt:fegetenv.obj
 0001:00028b29       _fesetenv                  10029b29 f   libucrt:fesetenv.obj
 0001:00028b74       _feholdexcept              10029b74 f   libucrt:feholdexcept.obj
 0001:00028bd0       __CIlog10                  10029bd0 f   libucrt:log10_impl.obj
 0001:00028c0b       __CIlog10_default          10029c0b f   libucrt:log10_impl.obj
 0001:00028c1f       __log10_default            10029c1f     libucrt:log10_impl.obj
 0001:00028ce0       _ceil                      10029ce0 f   libucrt:ceil_pentium4.obj
 0001:00028d20       __ceil_pentium4            10029d20 f   libucrt:ceil_pentium4.obj
 0001:00028f22       __itow_s                   10029f22 f   libucrt:xtoa.obj
 0001:00028f55       ___ascii_wcsnicmp          10029f55 f   libucrt:wcsnicmp.obj
 0001:00028fa4       __wcsnicmp                 10029fa4 f   libucrt:wcsnicmp.obj
 0001:00028ff0       __wcsnicmp_l               10029ff0 f   libucrt:wcsnicmp.obj
 0001:000290c3       __query_app_type           1002a0c3 f   libucrt:report_runtime_error.obj
 0001:000290c9       ?__c16rtomb_utf8@__crt_mbstring@@YAIPAD_SPAU_Mbstatet@@@Z 1002a0c9 f   libucrt:c16rtomb.obj
 0001:000291ef       __close                    1002a1ef f   libucrt:close.obj
 0001:0002927c       __close_nolock             1002a27c f   libucrt:close.obj
 0001:00029318       ?__acrt_stdio_free_stream@@YAXV__crt_stdio_stream@@@Z 1002a318 f   libucrt:stream.obj
 0001:00029353       __putwch_nolock            1002a353 f   libucrt:putwch.obj
 0001:00029385       ___acrt_LCMapStringW       1002a385 f   libucrt:lcmapstringw.obj
 0001:0002946a       __clearfp                  1002a46a f   libucrt:ieee87.obj
 0001:00029548       __control87                1002a548 f   libucrt:ieee87.obj
 0001:000298e7       ___acrt_initialize_sse2    1002a8e7 f   libucrt:mathfcns.obj
 0001:00029900       __CIlog10_pentium4         1002a900 f   libucrt:log10_pentium4.obj
 0001:00029918       __log10_pentium4           1002a918     libucrt:log10_pentium4.obj
 0001:00029bb0       __fFEXP                    1002abb0 f   libucrt:87tran.obj
 0001:00029c07       __rtinfpopse               1002ac07     libucrt:87tran.obj
 0001:00029c09       __rtinfnpopse              1002ac09     libucrt:87tran.obj
 0001:00029c19       __fFLN                     1002ac19     libucrt:87tran.obj
 0001:00029cce       __rtinfpop                 1002acce     libucrt:87tran.obj
 0001:00029cd0       __rtinfnpop                1002acd0     libucrt:87tran.obj
 0001:00029ce0       __rtforexpinf              1002ace0 f   libucrt:87tran.obj
 0001:00029ced       __ffexpm1                  1002aced     libucrt:87tran.obj
 0001:00029da0       __trandisp1                1002ada0 f   libucrt:87disp.obj
 0001:00029e15       __trandisp2                1002ae15 f   libucrt:87disp.obj
 0001:00029eaf       __rttospopde               1002aeaf     libucrt:87disp.obj
 0001:00029eb4       __rttospop                 1002aeb4     libucrt:87disp.obj
 0001:00029ec0       __rtnospop                 1002aec0 f   libucrt:87disp.obj
 0001:00029ed0       __rttosnpop                1002aed0 f   libucrt:87disp.obj
 0001:00029ed1       __rtnospopde               1002aed1     libucrt:87disp.obj
 0001:00029ed8       __rtzeropop                1002aed8     libucrt:87disp.obj
 0001:00029eda       __rtzeronpop               1002aeda     libucrt:87disp.obj
 0001:00029ee0       __rtzerospop               1002aee0 f   libucrt:87disp.obj
 0001:00029eed       __rtonepop                 1002aeed     libucrt:87disp.obj
 0001:00029ef0       __rtonenpop                1002aef0 f   libucrt:87disp.obj
 0001:00029f00       __tosnan1                  1002af00 f   libucrt:87disp.obj
 0001:00029f30       __nosnan2                  1002af30 f   libucrt:87disp.obj
 0001:00029f40       __tosnan2                  1002af40 f   libucrt:87disp.obj
 0001:00029f70       __nan2                     1002af70 f   libucrt:87disp.obj
 0001:00029fb0       __rtindfpop                1002afb0 f   libucrt:87disp.obj
 0001:00029fb2       __rtindfnpop               1002afb2     libucrt:87disp.obj
 0001:00029fc3       __rttosnpopde              1002afc3     libucrt:87disp.obj
 0001:00029fd0       __rtatan2inf               1002afd0 f   libucrt:87disp.obj
 0001:00029fed       __rtchsifneg               1002afed     libucrt:87disp.obj
 0001:0002a000       __twoToTOS                 1002b000 f   libucrt:common.obj
 0001:0002a015       __load_CW                  1002b015 f   libucrt:common.obj
 0001:0002a02c       __convertTOStoQNaN         1002b02c f   libucrt:common.obj
 0001:0002a045       __fload_withFB             1002b045 f   libucrt:common.obj
 0001:0002a088       __checkTOS_withFB          1002b088 f   libucrt:common.obj
 0001:0002a09e       __fast_exit                1002b09e f   libucrt:common.obj
 0001:0002a0ab       __math_exit                1002b0ab f   libucrt:common.obj
 0001:0002a0d5       __check_overflow_exit      1002b0d5 f   libucrt:common.obj
 0001:0002a0e9       __check_range_exit         1002b0e9 f   libucrt:common.obj
 0001:0002a190       __startTwoArgErrorHandling 1002b190 f   libucrt:genexcep.obj
 0001:0002a1a7       __startOneArgErrorHandling 1002b1a7 f   libucrt:genexcep.obj
 0001:0002a1e3       ___libm_error_support      1002b1e3 f   libucrt:libm_error.obj
 0001:0002a3d7       __ceil_default             1002b3d7 f   libucrt:ceil.obj
 0001:0002a4ab       ___dcrt_lowio_ensure_console_output_initialized 1002b4ab f   libucrt:initcon.obj
 0001:0002a4ca       ___dcrt_terminate_console_output 1002b4ca f   libucrt:initcon.obj
 0001:0002a4e1       ___dcrt_write_console      1002b4e1 f   libucrt:initcon.obj
 0001:0002a540       ___ascii_strnicmp          1002b540 f   libucrt:_strnicm.obj
 0001:0002a5a1       __d_inttype                1002b5a1 f   libucrt:powhlp.obj
 0001:0002a609       __powhlp                   1002b609 f   libucrt:powhlp.obj
 0001:0002a734       __87except                 1002b734 f   libucrt:87except.obj
 0001:0002a83e       __frnd                     1002b83e f   libucrt:frnd.obj
 0001:0002a852       __fpclass                  1002b852 f   libucrt:ieeemisc.obj
 0001:0002a8f6       @_guard_check_icall@4      1002b8f6 f i LIBCMT:checkcfg.obj
 0001:0002a900       __FindPESection            1002b900 f   LIBCMT:pesect.obj
 0001:0002a950       __IsNonwritableInCurrentImage 1002b950 f   LIBCMT:pesect.obj
 0001:0002aa10       __ValidateImageBase        1002ba10 f   LIBCMT:pesect.obj
 0001:0002aa50       __aulldvrm                 1002ba50 f   LIBCMT:ulldvrm.obj
 0001:0002aaf0       __allshl                   1002baf0 f   LIBCMT:llshl.obj
 0001:0002ab10       __aullshr                  1002bb10 f   LIBCMT:ullshr.obj
 0001:0002ab30       __alldvrm                  1002bb30 f   LIBCMT:lldvrm.obj
 0001:0002ac10       __ftol2_sse                1002bc10 f   LIBCMT:ftol2.obj
 0001:0002ac20       __ftoi2                    1002bc20 f   LIBCMT:ftol2.obj
 0001:0002aca0       _strrchr                   1002bca0 f   libvcruntime:strrchr.obj
 0001:0002ade0       _wcschr                    1002bde0 f   libvcruntime:wcschr.obj
 0001:0002ae7a       __filter_x86_sse2_floating_point_exception 1002be7a f   LIBCMT:x86_exception_filter.obj
 0001:0002ae7a       __filter_x86_sse2_floating_point_exception_default 1002be7a f   LIBCMT:x86_exception_filter.obj
 0001:0002af00       ?DrawPcx16ResizedBicubic@H3LoadedPcx16Resized@resized@@SAXPAUH3LoadedPcx16@h3@@0HHHHHH@Z 1002bf00 f   DrawPcx16ResizedBicubic.obj
 0001:0002b710       ?BiCubicKernel@resized@@YANN@Z 1002c710 f   DrawPcx16ResizedBicubic.obj
 0001:0002b7d0       ??_V@YAXPAX@Z              1002c7d0 f   era.obj
 0001:0002b810       ??_U@YAPAXI@Z              1002c810 f   era.obj
 0001:0002b830       ??3@YAXPAX@Z               1002c830 f   era.obj
 0001:0002b870       ??2@YAPAXI@Z               1002c870 f   era.obj
 0001:0002b890       ?InitMemoryManager@EraMemory@@YAXXZ 1002c890 f   era.obj
 0001:0002b980       ?GetCurrentModuleHandle@EraMemory@@YAPAUHINSTANCE__@@XZ 1002c980 f   era.obj
 0001:0002b9b0       ?IntToStr@Era@@YA?AV?$basic_string@DU?$char_traits@D@std@@V?$allocator@D@2@@std@@H@Z 1002c9b0 f   era.obj
 0001:0002ba10       ?tr@Era@@YAPADPBD@Z        1002ca10 f   era.obj
 0001:0002ba20       ?ConnectEra@Era@@YAXPAUHINSTANCE__@@PBD@Z 1002ca20 f   era.obj
 0001:0002bcd0       ?GetModuleFileNameA@Era@@YA?AV?$basic_string@DU?$char_traits@D@std@@V?$allocator@D@2@@std@@PAUHINSTANCE__@@@Z 1002ccd0 f   era.obj
 0001:0002bda0       _DllMain@12                1002cda0 f   dllmain.obj
 0001:0002be30       ?CrBanksTxt_AfterLoad@@YGHPAVLoHook@@PAUHookContext@@@Z 1002ce30 f   dllmain.obj
 0001:0002cb70       ?OnReportVersion@@YGXPAUTEvent@Era@@@Z 1002db70 f   dllmain.obj
 0001:0002cc50       ?Reset@H3MapItemAncientLamp@ancientLamp@@QAEXXZ 1002dc50 f   AncientLampExtender.obj
 0001:0002cc60       ?CreateRMGObjectGen@AncientLampExtender@ancientLamp@@EBEPAUH3RmgObjectGenerator@h3@@ABURMGObjectInfo@@@Z 1002dc60 f   AncientLampExtender.obj
 0001:0002ccf0       ?CreatePatches@AncientLampExtender@ancientLamp@@EAEXXZ 1002dcf0 f   AncientLampExtender.obj
 0001:0002cd00       ?SetHintInH3TextBuffer@AncientLampExtender@ancientLamp@@EBEHPAUH3MapItem@h3@@PBUH3Hero@4@PBUH3Player@4@H@Z 1002dd00 f   AncientLampExtender.obj
 0001:0002cf40       ?InitNewGameMapItemSetup@AncientLampExtender@ancientLamp@@EBEHPAUH3MapItem@h3@@@Z 1002df40 f   AncientLampExtender.obj
 0001:0002cfb0       ?VisitMapItem@AncientLampExtender@ancientLamp@@EBEHPAUH3Hero@h3@@PAUH3MapItem@4@UH3Position@4@H@Z 1002dfb0 f   AncientLampExtender.obj
 0001:0002d0f0       ?AskQuestion@ancientLamp@@YAHPBUH3MapItem@h3@@@Z 1002e0f0 f   AncientLampExtender.obj
 0001:0002d250       ?SetAiMapItemWeight@AncientLampExtender@ancientLamp@@EBEHPAUH3MapItem@h3@@PAUH3Hero@4@PBUH3Player@4@AAHPAHUH3Position@4@@Z 1002e250 f   AncientLampExtender.obj
 0001:0002d2d0       ??1AncientLampExtender@ancientLamp@@EAE@XZ 1002e2d0 f   AncientLampExtender.obj
 0001:0002d2e0       ??0AncientLampExtender@ancientLamp@@AAE@XZ 1002e2e0 f   AncientLampExtender.obj
 0001:0002d330       ?Get@AncientLampExtender@ancientLamp@@SAAAV12@XZ 1002e330 f   AncientLampExtender.obj
 0001:0002d3f0       ?CreateRMGObjectGen@ColosseumOfTheMagiExtender@colosseumOfTheMagi@@EBEPAUH3RmgObjectGenerator@h3@@ABURMGObjectInfo@@@Z 1002e3f0 f   ColosseumOfTheMagiExtender.obj
 0001:0002d480       ?CreatePatches@ColosseumOfTheMagiExtender@colosseumOfTheMagi@@EAEXXZ 1002e480 f   ColosseumOfTheMagiExtender.obj
 0001:0002d4b0       ?SetHintInH3TextBuffer@ColosseumOfTheMagiExtender@colosseumOfTheMagi@@EBEHPAUH3MapItem@h3@@PBUH3Hero@4@PBUH3Player@4@H@Z 1002e4b0 f   ColosseumOfTheMagiExtender.obj
 0001:0002d640       ?Game__NewGameBeforeSetObjectsInitialParameters@colosseumOfTheMagi@@YGHPAVLoHook@@PAUHookContext@@@Z 1002e640 f   ColosseumOfTheMagiExtender.obj
 0001:0002d660       ?InitNewGameMapItemSetup@ColosseumOfTheMagiExtender@colosseumOfTheMagi@@EBEHPAUH3MapItem@h3@@@Z 1002e660 f   ColosseumOfTheMagiExtender.obj
 0001:0002d6a0       ?VisitMapItem@ColosseumOfTheMagiExtender@colosseumOfTheMagi@@EBEHPAUH3Hero@h3@@PAUH3MapItem@4@UH3Position@4@H@Z 1002e6a0 f   ColosseumOfTheMagiExtender.obj
 0001:0002d940       ?AskQuestionWithTwoOptions@colosseumOfTheMagi@@YA?AW4ePick@H3Messagebox@h3@@PBUH3MapItem@4@@Z 1002e940 f   ColosseumOfTheMagiExtender.obj
 0001:0002da60       ?ShowMessage@colosseumOfTheMagi@@YAXPBUH3MapItem@h3@@@Z 1002ea60 f   ColosseumOfTheMagiExtender.obj
 0001:0002dbb0       ?SetAiMapItemWeight@ColosseumOfTheMagiExtender@colosseumOfTheMagi@@EBEHPAUH3MapItem@h3@@PAUH3Hero@4@PBUH3Player@4@AAHPAHUH3Position@4@@Z 1002ebb0 f   ColosseumOfTheMagiExtender.obj
 0001:0002dc70       ??1ColosseumOfTheMagiExtender@colosseumOfTheMagi@@EAE@XZ 1002ec70 f   ColosseumOfTheMagiExtender.obj
 0001:0002dc80       ??0ColosseumOfTheMagiExtender@colosseumOfTheMagi@@AAE@XZ 1002ec80 f   ColosseumOfTheMagiExtender.obj
 0001:0002dd10       ?Get@ColosseumOfTheMagiExtender@colosseumOfTheMagi@@SAAAV12@XZ 1002ed10 f   ColosseumOfTheMagiExtender.obj
 0001:0002ddf0       ?CreatePatches@CreatureBanksExtender@cbanks@@EAEXXZ 1002edf0 f   CreatureBanksExtender.obj
 0001:0002e080       ?OnGameLeave@CreatureBanksExtender@cbanks@@CGXPAUTEvent@Era@@@Z 1002f080 f   CreatureBanksExtender.obj
 0001:0002e0b0       ?OnAfterSaveOrLoadGame@CreatureBanksExtender@cbanks@@CGXPAUTEvent@Era@@@Z 1002f0b0 f   CreatureBanksExtender.obj
 0001:0002e140       ?OnBeforeSaveGame@CreatureBanksExtender@cbanks@@CGXPAUTEvent@Era@@@Z 1002f140 f   CreatureBanksExtender.obj
 0001:0002e2d0       ??0CustomCreatureBank@CreatureBanksExtender@cbanks@@QAE@H@Z 1002f2d0 f   CreatureBanksExtender.obj
 0001:0002e4b0       ?WriteSaveData@CustomCreatureBank@CreatureBanksExtender@cbanks@@QBEXXZ 1002f4b0 f   CreatureBanksExtender.obj
 0001:0002e620       ??0CustomCreatureBank@CreatureBanksExtender@cbanks@@QAE@ABUCustomRewardSetupState@12@I@Z 1002f620 f   CreatureBanksExtender.obj
 0001:0002e6c0       ?GenerateSpells@CustomCreatureBank@CreatureBanksExtender@cbanks@@AAEXABUCustomRewardSetupState@23@@Z 1002f6c0 f   CreatureBanksExtender.obj
 0001:0002ea10       ?GetCustomCreatureBank@CreatureBanksExtender@cbanks@@AAEPBUCustomCreatureBank@12@PBUH3MapItem@h3@@@Z 1002fa10 f   CreatureBanksExtender.obj
 0001:0002ea30       ?ShrinkToFit@CreatureBankManager@CreatureBanksExtender@cbanks@@AAEXXZ 1002fa30 f   CreatureBanksExtender.obj
 0001:0002eba0       ?Reserve@CreatureBankManager@CreatureBanksExtender@cbanks@@AAEXI@Z 1002fba0 f   CreatureBanksExtender.obj
 0001:0002ed10       ?Resize@CreatureBankManager@CreatureBanksExtender@cbanks@@AAEXI@Z 1002fd10 f   CreatureBanksExtender.obj
 0001:0002f040       ??1CreatureBanksExtender@cbanks@@EAE@XZ 10030040 f   CreatureBanksExtender.obj
 0001:0002f060       ?CopyDefaultData@CreatureBankManager@CreatureBanksExtender@cbanks@@AAEXIABV?$array@H$0O@@std@@@Z 10030060 f   CreatureBanksExtender.obj
 0001:0002f1c0       ?LoadCreatureBanksFromJson@CreatureBankManager@CreatureBanksExtender@cbanks@@QAEHFF@Z 100301c0 f   CreatureBanksExtender.obj
 0001:0002fe80       ??0CustomRewardSetupState@CreatureBanksExtender@cbanks@@QAE@HI@Z 10030e80 f   CreatureBanksExtender.obj
 0001:00030410       ?CreateRMGObjectGen@CreatureBanksExtender@cbanks@@MBEPAUH3RmgObjectGenerator@h3@@ABURMGObjectInfo@@@Z 10031410 f   CreatureBanksExtender.obj
 0001:00030490       ?AfterLoadingObjectTxtProc@CreatureBanksExtender@cbanks@@EAEXPBF@Z 10031490 f   CreatureBanksExtender.obj
 0001:000304f0       ?GetCreatureBankObjectType@CreatureBanksExtender@cbanks@@SA?AW4eObjectTypes@NObjectTypes@NH3Objects@h3@@H@Z 100314f0 f   CreatureBanksExtender.obj
 0001:00030540       ?GetCreatureBankType@CreatureBanksExtender@cbanks@@SAHHH@Z 10031540 f   CreatureBanksExtender.obj
 0001:00030670       ?GetCreatureBankType@CreatureBanksExtender@cbanks@@SAHPBUH3MapItem@h3@@@Z 10031670 f   CreatureBanksExtender.obj
 0001:00030680       ?CrBank_AskForVisitMessage@CreatureBanksExtender@cbanks@@CGXPAVHiHook@@PADHHHHHHHHHHH@Z 10031680 f   CreatureBanksExtender.obj
 0001:00030930       ?CrBank_CombatStart@CreatureBanksExtender@cbanks@@CGHPAVHiHook@@IIPBUH3Hero@h3@@IHIIIHHH@Z 10031930 f   CreatureBanksExtender.obj
 0001:00030a00       ?SpecialCrBank_DisplayPreCombatMessage@CreatureBanksExtender@cbanks@@CGHPAVLoHook@@PAUHookContext@@@Z 10031a00 f   CreatureBanksExtender.obj
 0001:00030a80       ?CustomAskForCombatStartDlg@cbanks@@YAXPADPAUH3MapItem@h3@@HHH@Z 10031a80 f   CreatureBanksExtender.obj
 0001:00030ab0       ?CrBank_BeforeCombatStart@CreatureBanksExtender@cbanks@@CGHPAVLoHook@@PAUHookContext@@@Z 10031ab0 f   CreatureBanksExtender.obj
 0001:00030ae0       ?CrBank_DisplayPreCombatMessage@CreatureBanksExtender@cbanks@@CGHPAVLoHook@@PAUHookContext@@@Z 10031ae0 f   CreatureBanksExtender.obj
 0001:00030b50       ?CrBank_AddToGameList@CreatureBanksExtender@cbanks@@CGXPAVHiHook@@PAU?$H3Vector@UH3CreatureBank@h3@@@h3@@PBUH3CreatureBank@5@I2@Z 10031b50 f   CreatureBanksExtender.obj
 0001:00030bf0       ?CrBank_BeforeSetupFromState@CreatureBanksExtender@cbanks@@CGHPAVLoHook@@PAUHookContext@@@Z 10031bf0 f   CreatureBanksExtender.obj
 0001:00030cc0       ?CrBank_BeforeGivingResources@CreatureBanksExtender@cbanks@@CGHPAVLoHook@@PAUHookContext@@@Z 10031cc0 f   CreatureBanksExtender.obj
 0001:00030d50       ?CrBank_BeforeEndingText@CreatureBanksExtender@cbanks@@CGHPAVHiHook@@PAUH3String@h3@@IKK@Z 10031d50 f   CreatureBanksExtender.obj
 0001:00030e00       ?CrBank_BeforeShowingRewardMessage@CreatureBanksExtender@cbanks@@CGHPAVLoHook@@PAUHookContext@@@Z 10031e00 f   CreatureBanksExtender.obj
 0001:000312d0       ?CrBank_AfterDrawingResources@CreatureBanksExtender@cbanks@@CGHPAVLoHook@@PAUHookContext@@@Z 100322d0 f   CreatureBanksExtender.obj
 0001:00031320       ?CrBank_AfterCombatWon@CreatureBanksExtender@cbanks@@CGHPAVLoHook@@PAUHookContext@@@Z 10032320 f   CreatureBanksExtender.obj
 0001:00031580       ?AIHero_GetMapItemWeight@CreatureBanksExtender@cbanks@@CG_JPAVHiHook@@PAUH3Hero@h3@@PAHI@Z 10032580 f   CreatureBanksExtender.obj
 0001:00031770       ?OnAfterReloadLanguageData@CreatureBanksExtender@cbanks@@CGXPAUTEvent@Era@@@Z 10032770 f   CreatureBanksExtender.obj
 0001:00031900       ??0CreatureBanksExtender@cbanks@@AAE@XZ 10032900 f   CreatureBanksExtender.obj
 0001:00031a30       ?ShowMultiplePicsArmyMessage@cbanks@@YAHPBDHHHPAUH3Army@h3@@@Z 10032a30 f   CreatureBanksExtender.obj
 0001:00031e10       ?GetArmyMessage@cbanks@@YAHPBUH3CreatureBank@h3@@AAUH3String@3@_N@Z 10032e10 f   CreatureBanksExtender.obj
 0001:00031e60       ?Get@CreatureBanksExtender@cbanks@@SAAAV12@XZ 10032e60 f   CreatureBanksExtender.obj
 0001:00031f70       ?CreateRMGObjectGen@DreamTeacherExtender@dreamTeacher@@EBEPAUH3RmgObjectGenerator@h3@@ABURMGObjectInfo@@@Z 10032f70 f   DreamTeacherExtender.obj
 0001:00032000       ?CreatePatches@DreamTeacherExtender@dreamTeacher@@EAEXXZ 10033000 f   DreamTeacherExtender.obj
 0001:00032030       ?SetHintInH3TextBuffer@DreamTeacherExtender@dreamTeacher@@EBEHPAUH3MapItem@h3@@PBUH3Hero@4@PBUH3Player@4@H@Z 10033030 f   DreamTeacherExtender.obj
 0001:000321c0       ?Game__NewGameBeforeSetObjectsInitialParameters@dreamTeacher@@YGHPAVLoHook@@PAUHookContext@@@Z 100331c0 f   DreamTeacherExtender.obj
 0001:000321e0       ?InitNewGameMapItemSetup@DreamTeacherExtender@dreamTeacher@@EBEHPAUH3MapItem@h3@@@Z 100331e0 f   DreamTeacherExtender.obj
 0001:00032220       ?VisitMapItem@DreamTeacherExtender@dreamTeacher@@EBEHPAUH3Hero@h3@@PAUH3MapItem@4@UH3Position@4@H@Z 10033220 f   DreamTeacherExtender.obj
 0001:000323e0       ?ShowMessage@dreamTeacher@@YAXPBUH3MapItem@h3@@H_N@Z 100333e0 f   DreamTeacherExtender.obj
 0001:000325c0       ?SetAiMapItemWeight@DreamTeacherExtender@dreamTeacher@@EBEHPAUH3MapItem@h3@@PAUH3Hero@4@PBUH3Player@4@AAHPAHUH3Position@4@@Z 100335c0 f   DreamTeacherExtender.obj
 0001:000326e0       ??1DreamTeacherExtender@dreamTeacher@@EAE@XZ 100336e0 f   DreamTeacherExtender.obj
 0001:000326f0       ??0DreamTeacherExtender@dreamTeacher@@AAE@XZ 100336f0 f   DreamTeacherExtender.obj
 0001:00032780       ?Get@DreamTeacherExtender@dreamTeacher@@SAAAV12@XZ 10033780 f   DreamTeacherExtender.obj
 0001:00032860       ?CreateRMGObjectGen@GazeboExtender@gazebo@@EBEPAUH3RmgObjectGenerator@h3@@ABURMGObjectInfo@@@Z 10033860 f   GazeboExtender.obj
 0001:000328f0       ?CreatePatches@GazeboExtender@gazebo@@EAEXXZ 100338f0 f   GazeboExtender.obj
 0001:00032920       ?SetHintInH3TextBuffer@GazeboExtender@gazebo@@EBEHPAUH3MapItem@h3@@PBUH3Hero@4@PBUH3Player@4@H@Z 10033920 f   GazeboExtender.obj
 0001:00032ab0       ?Game__NewGameBeforeSetObjectsInitialParameters@gazebo@@YGHPAVLoHook@@PAUHookContext@@@Z 10033ab0 f   GazeboExtender.obj
 0001:00032ad0       ?InitNewGameMapItemSetup@GazeboExtender@gazebo@@EBEHPAUH3MapItem@h3@@@Z 10033ad0 f   GazeboExtender.obj
 0001:00032b10       ?VisitMapItem@GazeboExtender@gazebo@@EBEHPAUH3Hero@h3@@PAUH3MapItem@4@UH3Position@4@H@Z 10033b10 f   GazeboExtender.obj
 0001:00032d70       ?AskQuestion@gazebo@@YAHPBUH3MapItem@h3@@H@Z 10033d70 f   GazeboExtender.obj
 0001:00032e90       ?ShowMessage@gazebo@@YAXPBUH3MapItem@h3@@H_N@Z 10033e90 f   GazeboExtender.obj
 0001:00033080       ?SetAiMapItemWeight@GazeboExtender@gazebo@@EBEHPAUH3MapItem@h3@@PAUH3Hero@4@PBUH3Player@4@AAHPAHUH3Position@4@@Z 10034080 f   GazeboExtender.obj
 0001:00033160       ??1GazeboExtender@gazebo@@EAE@XZ 10034160 f   GazeboExtender.obj
 0001:00033170       ??0GazeboExtender@gazebo@@AAE@XZ 10034170 f   GazeboExtender.obj
 0001:00033200       ?Get@GazeboExtender@gazebo@@SAAAV12@XZ 10034200 f   GazeboExtender.obj
 0001:000332e0       ?InitNewGameMapItemSetup@GraveExtender@grave@@EBEHPAUH3MapItem@h3@@@Z 100342e0 f   GraveExtender.obj
 0001:000333c0       ?CreateRMGObjectGen@GraveExtender@grave@@EBEPAUH3RmgObjectGenerator@h3@@ABURMGObjectInfo@@@Z 100343c0 f   GraveExtender.obj
 0001:00033450       ?CreatePatches@GraveExtender@grave@@EAEXXZ 10034450 f   GraveExtender.obj
 0001:00033490       ?OnCheckPlaceIsValidToDig@grave@@YGHPAVLoHook@@PAUHookContext@@@Z 10034490 f   GraveExtender.obj
 0001:000334d0       ?OnDiggingBeforePuttingAHole@grave@@YGHPAVLoHook@@PAUHookContext@@@Z 100344d0 f   GraveExtender.obj
 0001:00033530       ?SetHintInH3TextBuffer@GraveExtender@grave@@EBEHPAUH3MapItem@h3@@PBUH3Hero@4@PBUH3Player@4@H@Z 10034530 f   GraveExtender.obj
 0001:00033620       ?VisitMapItem@GraveExtender@grave@@EBEHPAUH3Hero@h3@@PAUH3MapItem@4@UH3Position@4@H@Z 10034620 f   GraveExtender.obj
 0001:000336c0       ?GraveDiggingProccess@grave@@YAXPAUH3MapItem@h3@@PAUH3Hero@3@@Z 100346c0 f   GraveExtender.obj
 0001:000337d0       ?ShowMessage@grave@@YAXPBUH3MapItem@h3@@_NHH@Z 100347d0 f   GraveExtender.obj
 0001:000339b0       ?SetAiMapItemWeight@GraveExtender@grave@@EBEHPAUH3MapItem@h3@@PAUH3Hero@4@PBUH3Player@4@AAHPAHUH3Position@4@@Z 100349b0 f   GraveExtender.obj
 0001:00033a10       ??1GraveExtender@grave@@EAE@XZ 10034a10 f   GraveExtender.obj
 0001:00033a20       ??0GraveExtender@grave@@AAE@XZ 10034a20 f   GraveExtender.obj
 0001:00033ac0       ?Get@GraveExtender@grave@@SAAAV12@XZ 10034ac0 f   GraveExtender.obj
 0001:00033bb0       ?CreateRMGObjectGen@HermitsShackExtender@hermitsShack@@EBEPAUH3RmgObjectGenerator@h3@@ABURMGObjectInfo@@@Z 10034bb0 f   HermitsShackExtender.obj
 0001:00033c40       ?CreatePatches@HermitsShackExtender@hermitsShack@@EAEXXZ 10034c40 f   HermitsShackExtender.obj
 0001:00033c70       ?SetHintInH3TextBuffer@HermitsShackExtender@hermitsShack@@EBEHPAUH3MapItem@h3@@PBUH3Hero@4@PBUH3Player@4@H@Z 10034c70 f   HermitsShackExtender.obj
 0001:00033e00       ?Game__NewGameBeforeSetObjectsInitialParameters@hermitsShack@@YGHPAVLoHook@@PAUHookContext@@@Z 10034e00 f   HermitsShackExtender.obj
 0001:00033e20       ?InitNewGameMapItemSetup@HermitsShackExtender@hermitsShack@@EBEHPAUH3MapItem@h3@@@Z 10034e20 f   HermitsShackExtender.obj
 0001:00033e60       ?VisitMapItem@HermitsShackExtender@hermitsShack@@EBEHPAUH3Hero@h3@@PAUH3MapItem@4@UH3Position@4@H@Z 10034e60 f   HermitsShackExtender.obj
 0001:00033fa0       ?ShowMessage@hermitsShack@@YAXPBUH3MapItem@h3@@HH_N@Z 10034fa0 f   HermitsShackExtender.obj
 0001:00034230       ?SetAiMapItemWeight@HermitsShackExtender@hermitsShack@@EBEHPAUH3MapItem@h3@@PAUH3Hero@4@PBUH3Player@4@AAHPAHUH3Position@4@@Z 10035230 f   HermitsShackExtender.obj
 0001:00034310       ??1HermitsShackExtender@hermitsShack@@EAE@XZ 10035310 f   HermitsShackExtender.obj
 0001:00034320       ??0HermitsShackExtender@hermitsShack@@AAE@XZ 10035320 f   HermitsShackExtender.obj
 0001:000343b0       ?Get@HermitsShackExtender@hermitsShack@@SAAAV12@XZ 100353b0 f   HermitsShackExtender.obj
 0001:00034490       ?CreateRMGObjectGen@HillFortExtender@hillFort@@MBEPAUH3RmgObjectGenerator@h3@@ABURMGObjectInfo@@@Z 10035490 f   HillFortExtender.obj
 0001:00034510       ?CreatePatches@HillFortExtender@hillFort@@MAEXXZ 10035510 f   HillFortExtender.obj
 0001:000345a0       ?HillFort_AIVisit@hillFort@@YGHPAVLoHook@@PAUHookContext@@@Z 100355a0 f   HillFortExtender.obj
 0001:00034630       ?HillFort_JumpOverAvailableUpgrade@hillFort@@YGHPAVLoHook@@PAUHookContext@@@Z 10035630 f   HillFortExtender.obj
 0001:000346a0       ?HillFort_PatchUpgradeCost@hillFort@@YGHPAVLoHook@@PAUHookContext@@@Z 100356a0 f   HillFortExtender.obj
 0001:00034710       ?HillFort_JumpOverFreeUpgrade@hillFort@@YGHPAVLoHook@@PAUHookContext@@@Z 10035710 f   HillFortExtender.obj
 0001:00034770       ?HillFort_OnSetHintAsUpgraded@hillFort@@YGHPAVLoHook@@PAUHookContext@@@Z 10035770 f   HillFortExtender.obj
 0001:000347e0       ?HillFort_AIMapWeight@HillFortExtender@hillFort@@CGHPAVLoHook@@PAUHookContext@@@Z 100357e0 f   HillFortExtender.obj
 0001:00034850       ?SetAiMapItemWeight@HillFortExtender@hillFort@@MBEHPAUH3MapItem@h3@@PAUH3Hero@4@PBUH3Player@4@AAHPAHUH3Position@4@@Z 10035850 f   HillFortExtender.obj
 0001:00034870       ??1HillFortExtender@hillFort@@EAE@XZ 10035870 f   HillFortExtender.obj
 0001:00034880       ??0HillFortExtender@hillFort@@AAE@XZ 10035880 f   HillFortExtender.obj
 0001:00034980       ?Get@HillFortExtender@hillFort@@SAAAV12@XZ 10035980 f   HillFortExtender.obj
 0001:00034ac0       ?CreateRMGObjectGen@JunkmanExtender@junkman@@EBEPAUH3RmgObjectGenerator@h3@@ABURMGObjectInfo@@@Z 10035ac0 f   JunkmanExtender.obj
 0001:00034b50       ?CreatePatches@JunkmanExtender@junkman@@EAEXXZ 10035b50 f   JunkmanExtender.obj
 0001:00034b60       ?SetHintInH3TextBuffer@JunkmanExtender@junkman@@EBEHPAUH3MapItem@h3@@PBUH3Hero@4@PBUH3Player@4@H@Z 10035b60 f   JunkmanExtender.obj
 0001:00034c50       ?VisitMapItem@JunkmanExtender@junkman@@EBEHPAUH3Hero@h3@@PAUH3MapItem@4@UH3Position@4@H@Z 10035c50 f   JunkmanExtender.obj
 0001:00034df0       ?SetAiMapItemWeight@JunkmanExtender@junkman@@EBEHPAUH3MapItem@h3@@PAUH3Hero@4@PBUH3Player@4@AAHPAHUH3Position@4@@Z 10035df0 f   JunkmanExtender.obj
 0001:00034e00       ??1JunkmanExtender@junkman@@EAE@XZ 10035e00 f   JunkmanExtender.obj
 0001:00034e10       ??0JunkmanExtender@junkman@@AAE@XZ 10035e10 f   JunkmanExtender.obj
 0001:00034e60       ?Get@JunkmanExtender@junkman@@SAAAV12@XZ 10035e60 f   JunkmanExtender.obj
 0001:00034f20       ?CreateRMGObjectGen@MineralSpringExtender@mineralSpring@@EBEPAUH3RmgObjectGenerator@h3@@ABURMGObjectInfo@@@Z 10035f20 f   MineralSpringExtender.obj
 0001:00034fb0       ?CreatePatches@MineralSpringExtender@mineralSpring@@EAEXXZ 10035fb0 f   MineralSpringExtender.obj
 0001:00034ff0       ?MineralSpring_HeroReset@mineralSpring@@YGHPAVLoHook@@PAUHookContext@@@Z 10035ff0 f   MineralSpringExtender.obj
 0001:00035030       ?OnAfterBattleUniversal@mineralSpring@@YGXPAUTEvent@Era@@@Z 10036030 f   MineralSpringExtender.obj
 0001:00035080       ?SetHintInH3TextBuffer@MineralSpringExtender@mineralSpring@@EBEHPAUH3MapItem@h3@@PBUH3Hero@4@PBUH3Player@4@H@Z 10036080 f   MineralSpringExtender.obj
 0001:00035210       ?VisitMapItem@MineralSpringExtender@mineralSpring@@EBEHPAUH3Hero@h3@@PAUH3MapItem@4@UH3Position@4@H@Z 10036210 f   MineralSpringExtender.obj
 0001:00035300       ?ShowMessage@mineralSpring@@YAXPBUH3MapItem@h3@@_N@Z 10036300 f   MineralSpringExtender.obj
 0001:000354e0       ?SetAiMapItemWeight@MineralSpringExtender@mineralSpring@@EBEHPAUH3MapItem@h3@@PAUH3Hero@4@PBUH3Player@4@AAHPAHUH3Position@4@@Z 100364e0 f   MineralSpringExtender.obj
 0001:00035630       ??1MineralSpringExtender@mineralSpring@@EAE@XZ 10036630 f   MineralSpringExtender.obj
 0001:00035640       ??0MineralSpringExtender@mineralSpring@@AAE@XZ 10036640 f   MineralSpringExtender.obj
 0001:000356e0       ?Get@MineralSpringExtender@mineralSpring@@SAAAV12@XZ 100366e0 f   MineralSpringExtender.obj
 0001:000357d0       ?CreateRMGObjectGen@ObservatoryExtender@observatory@@EBEPAUH3RmgObjectGenerator@h3@@ABURMGObjectInfo@@@Z 100367d0 f   ObservatoryExtender.obj
 0001:00035860       ?CreatePatches@ObservatoryExtender@observatory@@EAEXXZ 10036860 f   ObservatoryExtender.obj
 0001:000358b0       ?OnNewWeek_StartFunc@observatory@@YGHPAVLoHook@@PAUHookContext@@@Z 100368b0 f   ObservatoryExtender.obj
 0001:00035970       ?OnCalcScoutingRadius_BeforeReturn@observatory@@YGHPAVLoHook@@PAUHookContext@@@Z 10036970 f   ObservatoryExtender.obj
 0001:00035a00       ?Observatory_HeroReset@observatory@@YGHPAVLoHook@@PAUHookContext@@@Z 10036a00 f   ObservatoryExtender.obj
 0001:00035a40       ?SetHintInH3TextBuffer@ObservatoryExtender@observatory@@EBEHPAUH3MapItem@h3@@PBUH3Hero@4@PBUH3Player@4@H@Z 10036a40 f   ObservatoryExtender.obj
 0001:00035bd0       ?VisitMapItem@ObservatoryExtender@observatory@@EBEHPAUH3Hero@h3@@PAUH3MapItem@4@UH3Position@4@H@Z 10036bd0 f   ObservatoryExtender.obj
 0001:00035c90       ?ShowMessage@observatory@@YAXPBUH3MapItem@h3@@_N@Z 10036c90 f   ObservatoryExtender.obj
 0001:00035df0       ?SetAiMapItemWeight@ObservatoryExtender@observatory@@EBEHPAUH3MapItem@h3@@PAUH3Hero@4@PBUH3Player@4@AAHPAHUH3Position@4@@Z 10036df0 f   ObservatoryExtender.obj
 0001:00035ed0       ??1ObservatoryExtender@observatory@@EAE@XZ 10036ed0 f   ObservatoryExtender.obj
 0001:00035ee0       ??0ObservatoryExtender@observatory@@AAE@XZ 10036ee0 f   ObservatoryExtender.obj
 0001:00035fa0       ?Get@ObservatoryExtender@observatory@@SAAAV12@XZ 10036fa0 f   ObservatoryExtender.obj
 0001:000360a0       ?CreatePatches@ShrinesExternder@shrines@@MAEXXZ 100370a0 f   ShrinesExternder.obj
 0001:00036130       ?Shrine__AtGetHint@ShrinesExternder@shrines@@CGHPAVLoHook@@PAUHookContext@@@Z 10037130 f   ShrinesExternder.obj
 0001:00036200       ?GetCustomHint@ShrinesExternder@shrines@@CAPBDPBUH3MapItem@h3@@@Z 10037200 f   ShrinesExternder.obj
 0001:000362b0       ?Shrine__AtGetName@ShrinesExternder@shrines@@CGHPAVLoHook@@PAUHookContext@@@Z 100372b0 f   ShrinesExternder.obj
 0001:00036380       ?GetCustomName@ShrinesExternder@shrines@@CAPBDPBUH3MapItem@h3@@@Z 10037380 f   ShrinesExternder.obj
 0001:00036420       ?Shrine__AtWisdomCheck@ShrinesExternder@shrines@@CGHPAVLoHook@@PAUHookContext@@@Z 10037420 f   ShrinesExternder.obj
 0001:00036530       ?Shrine__AtVisit@ShrinesExternder@shrines@@CGHPAVLoHook@@PAUHookContext@@@Z 10037530 f   ShrinesExternder.obj
 0001:000365d0       ?Game__AtShrineOfMagicGestureSettingSpell@ShrinesExternder@shrines@@CGHPAVLoHook@@PAUHookContext@@@Z 100375d0 f   ShrinesExternder.obj
 0001:00036600       ?Game__AtShrineOfMagicIncantationSettingSpell@ShrinesExternder@shrines@@CGHPAVLoHook@@PAUHookContext@@@Z 10037600 f   ShrinesExternder.obj
 0001:00036650       ?SetAiMapItemWeight@ShrinesExternder@shrines@@MBEHPAUH3MapItem@h3@@PBUH3Hero@4@PBUH3Player@4@AAH@Z 10037650 f   ShrinesExternder.obj
 0001:00036690       ?CreateRMGObjectGen@ShrinesExternder@shrines@@MBEPAUH3RmgObjectGenerator@h3@@ABURMGObjectInfo@@@Z 10037690 f   ShrinesExternder.obj
 0001:00036720       ??1ShrinesExternder@shrines@@EAE@XZ 10037720 f   ShrinesExternder.obj
 0001:00036730       ??0ShrinesExternder@shrines@@AAE@XZ 10037730 f   ShrinesExternder.obj
 0001:00036830       ?Get@ShrinesExternder@shrines@@SAAAV12@XZ 10037830 f   ShrinesExternder.obj
 0001:00036970       ?CreateRMGObjectGen@SkeletonTransformerExtender@skeletonTransformer@@EBEPAUH3RmgObjectGenerator@h3@@ABURMGObjectInfo@@@Z 10037970 f   SkeletonTransformerExtender.obj
 0001:00036a00       ?CreatePatches@SkeletonTransformerExtender@skeletonTransformer@@EAEXXZ 10037a00 f   SkeletonTransformerExtender.obj
 0001:00036a10       ?SetHintInH3TextBuffer@SkeletonTransformerExtender@skeletonTransformer@@EBEHPAUH3MapItem@h3@@PBUH3Hero@4@PBUH3Player@4@H@Z 10037a10 f   SkeletonTransformerExtender.obj
 0001:00036b00       ?VisitMapItem@SkeletonTransformerExtender@skeletonTransformer@@EBEHPAUH3Hero@h3@@PAUH3MapItem@4@UH3Position@4@H@Z 10037b00 f   SkeletonTransformerExtender.obj
 0001:00036bd0       ?SetAiMapItemWeight@SkeletonTransformerExtender@skeletonTransformer@@EBEHPAUH3MapItem@h3@@PAUH3Hero@4@PBUH3Player@4@AAHPAHUH3Position@4@@Z 10037bd0 f   SkeletonTransformerExtender.obj
 0001:00036be0       ??1SkeletonTransformerExtender@skeletonTransformer@@EAE@XZ 10037be0 f   SkeletonTransformerExtender.obj
 0001:00036bf0       ??0SkeletonTransformerExtender@skeletonTransformer@@AAE@XZ 10037bf0 f   SkeletonTransformerExtender.obj
 0001:00036c40       ?Get@SkeletonTransformerExtender@skeletonTransformer@@SAAAV12@XZ 10037c40 f   SkeletonTransformerExtender.obj
 0001:00036d00       ?CreateRMGObjectGen@TempleOfLoyaltyExtender@templeOfLoyalty@@EBEPAUH3RmgObjectGenerator@h3@@ABURMGObjectInfo@@@Z 10037d00 f   TempleOfLoyaltyExtender.obj
 0001:00036d90       ?CreatePatches@TempleOfLoyaltyExtender@templeOfLoyalty@@EAEXXZ 10037d90 f   TempleOfLoyaltyExtender.obj
 0001:00036df0       ?TempleOfLoyalty_SetArmyFractionsCountValue@templeOfLoyalty@@YGHPAVLoHook@@PAUHookContext@@@Z 10037df0 f   TempleOfLoyaltyExtender.obj
 0001:00036e80       ?TempleOfLoyalty_SetArmyFractionsCountDesc@templeOfLoyalty@@YGHPAVLoHook@@PAUHookContext@@@Z 10037e80 f   TempleOfLoyaltyExtender.obj
 0001:00036f10       ?TempleOfLoyalty_HeroReset@templeOfLoyalty@@YGHPAVLoHook@@PAUHookContext@@@Z 10037f10 f   TempleOfLoyaltyExtender.obj
 0001:00036f50       ?OnEveryDay@templeOfLoyalty@@YGXPAUTEvent@Era@@@Z 10037f50 f   TempleOfLoyaltyExtender.obj
 0001:00037020       ?SetHintInH3TextBuffer@TempleOfLoyaltyExtender@templeOfLoyalty@@EBEHPAUH3MapItem@h3@@PBUH3Hero@4@PBUH3Player@4@H@Z 10038020 f   TempleOfLoyaltyExtender.obj
 0001:000371b0       ?VisitMapItem@TempleOfLoyaltyExtender@templeOfLoyalty@@EBEHPAUH3Hero@h3@@PAUH3MapItem@4@UH3Position@4@H@Z 100381b0 f   TempleOfLoyaltyExtender.obj
 0001:00037270       ?ShowMessage@templeOfLoyalty@@YAXPBUH3MapItem@h3@@_N@Z 10038270 f   TempleOfLoyaltyExtender.obj
 0001:00037450       ?SetAiMapItemWeight@TempleOfLoyaltyExtender@templeOfLoyalty@@EBEHPAUH3MapItem@h3@@PAUH3Hero@4@PBUH3Player@4@AAHPAHUH3Position@4@@Z 10038450 f   TempleOfLoyaltyExtender.obj
 0001:00037540       ??1TempleOfLoyaltyExtender@templeOfLoyalty@@EAE@XZ 10038540 f   TempleOfLoyaltyExtender.obj
 0001:00037550       ??0TempleOfLoyaltyExtender@templeOfLoyalty@@AAE@XZ 10038550 f   TempleOfLoyaltyExtender.obj
 0001:00037620       ?Get@TempleOfLoyaltyExtender@templeOfLoyalty@@SAAAV12@XZ 10038620 f   TempleOfLoyaltyExtender.obj
 0001:00037730       ?CreateRMGObjectGen@TrailblazerExtender@trailblazer@@EBEPAUH3RmgObjectGenerator@h3@@ABURMGObjectInfo@@@Z 10038730 f   TrailblazerExtender.obj
 0001:000377c0       ?CreatePatches@TrailblazerExtender@trailblazer@@EAEXXZ 100387c0 f   TrailblazerExtender.obj
 0001:000378d0       ?Get_Step_Cost@trailblazer@@YGHPAVHiHook@@PAUH3MapItem@h3@@DHHHHHHH@Z 100388d0 f   TrailblazerExtender.obj
 0001:000379b0       ?OnNewWeek_StartFunc@trailblazer@@YGHPAVLoHook@@PAUHookContext@@@Z 100389b0 f   TrailblazerExtender.obj
 0001:00037a70       ?Trailblazer_HeroReset@trailblazer@@YGHPAVLoHook@@PAUHookContext@@@Z 10038a70 f   TrailblazerExtender.obj
 0001:00037ab0       ?SetHintInH3TextBuffer@TrailblazerExtender@trailblazer@@EBEHPAUH3MapItem@h3@@PBUH3Hero@4@PBUH3Player@4@H@Z 10038ab0 f   TrailblazerExtender.obj
 0001:00037c40       ?VisitMapItem@TrailblazerExtender@trailblazer@@EBEHPAUH3Hero@h3@@PAUH3MapItem@4@UH3Position@4@H@Z 10038c40 f   TrailblazerExtender.obj
 0001:00037d00       ?ShowMessage@trailblazer@@YAXPBUH3MapItem@h3@@_N@Z 10038d00 f   TrailblazerExtender.obj
 0001:00037e60       ?SetAiMapItemWeight@TrailblazerExtender@trailblazer@@EBEHPAUH3MapItem@h3@@PAUH3Hero@4@PBUH3Player@4@AAHPAHUH3Position@4@@Z 10038e60 f   TrailblazerExtender.obj
 0001:00037f50       ??1TrailblazerExtender@trailblazer@@EAE@XZ 10038f50 f   TrailblazerExtender.obj
 0001:00037f60       ??0TrailblazerExtender@trailblazer@@AAE@XZ 10038f60 f   TrailblazerExtender.obj
 0001:000380b0       ?Get@TrailblazerExtender@trailblazer@@SAAAV12@XZ 100390b0 f   TrailblazerExtender.obj
 0001:00038260       ?CreatePatches@UniversityExtender@university@@MAEXXZ 10039260 f   UniversityExtender.obj
 0001:00038300       ?University_AtGetName@university@@YGHPAVLoHook@@PAUHookContext@@@Z 10039300 f   UniversityExtender.obj
 0001:000383f0       ?UniversityDlg_SetWidgetText@university@@YGHPAVLoHook@@PAUHookContext@@@Z 100393f0 f   UniversityExtender.obj
 0001:000384b0       ?UniversityDlg_BeforeCreate@university@@YGHPAVLoHook@@PAUHookContext@@@Z 100394b0 f   UniversityExtender.obj
 0001:000384e0       ?Game_SetupUniversity@UniversityExtender@university@@CGXPAVHiHook@@PAUH3Main@h3@@PBUH3MapItem@5@@Z 100394e0 f   UniversityExtender.obj
 0001:000385a0       ?SetHintInH3TextBuffer@UniversityExtender@university@@MBEHPAUH3MapItem@h3@@PBUH3Hero@4@PBUH3Player@4@H@Z 100395a0 f   UniversityExtender.obj
 0001:000386b0       ?AfterLoadingObjectTxtProc@UniversityExtender@university@@MAEXPBF@Z 100396b0 f   UniversityExtender.obj
 0001:00038970       ?CreateRMGObjectGen@UniversityExtender@university@@MBEPAUH3RmgObjectGenerator@h3@@ABURMGObjectInfo@@@Z 10039970 f   UniversityExtender.obj
 0001:00038a00       ??1UniversityExtender@university@@EAE@XZ 10039a00 f   UniversityExtender.obj
 0001:00038a20       ??0UniversityExtender@university@@AAE@XZ 10039a20 f   UniversityExtender.obj
 0001:00038a70       ?Get@UniversityExtender@university@@SAAAV12@XZ 10039a70 f   UniversityExtender.obj
 0001:00038b40       ?Reset@H3MapItemWarehouse@warehouses@@QAEXXZ 10039b40 f   WarehousesExtender.obj
 0001:00038ba0       ?CreatePatches@WarehousesExtender@warehouses@@EAEXXZ 10039ba0 f   WarehousesExtender.obj
 0001:00038bb0       ?CreateRMGObjectGen@WarehousesExtender@warehouses@@EBEPAUH3RmgObjectGenerator@h3@@ABURMGObjectInfo@@@Z 10039bb0 f   WarehousesExtender.obj
 0001:00038c30       ?SetAiMapItemWeight@WarehousesExtender@warehouses@@EBEHPAUH3MapItem@h3@@PAUH3Hero@4@PBUH3Player@4@AAHPAHUH3Position@4@@Z 10039c30 f   WarehousesExtender.obj
 0001:00038cf0       ?VisitMapItem@WarehousesExtender@warehouses@@EBEHPAUH3Hero@h3@@PAUH3MapItem@4@UH3Position@4@H@Z 10039cf0 f   WarehousesExtender.obj
 0001:00038de0       ?InitNewWeekMapItemSetup@WarehousesExtender@warehouses@@EBEHPAUH3MapItem@h3@@@Z 10039de0 f   WarehousesExtender.obj
 0001:00038e10       ?InitNewGameMapItemSetup@WarehousesExtender@warehouses@@EBEHPAUH3MapItem@h3@@@Z 10039e10 f   WarehousesExtender.obj
 0001:00038e60       ?SetHintInH3TextBuffer@WarehousesExtender@warehouses@@EBEHPAUH3MapItem@h3@@PBUH3Hero@4@PBUH3Player@4@H@Z 10039e60 f   WarehousesExtender.obj
 0001:00038fa0       ?ShowMessage@warehouses@@YAXPBUH3MapItem@h3@@HH@Z 10039fa0 f   WarehousesExtender.obj
 0001:000391e0       ??1WarehousesExtender@warehouses@@EAE@XZ 1003a1e0 f   WarehousesExtender.obj
 0001:000391f0       ??0WarehousesExtender@warehouses@@AAE@XZ 1003a1f0 f   WarehousesExtender.obj
 0001:00039240       ?Get@WarehousesExtender@warehouses@@SAAAV12@XZ 1003a240 f   WarehousesExtender.obj
 0001:00039300       ?CreateRMGObjectGen@WateringPlaceExtender@wateringPlace@@EBEPAUH3RmgObjectGenerator@h3@@ABURMGObjectInfo@@@Z 1003a300 f   WateringPlaceExtender.obj
 0001:00039390       ?CreatePatches@WateringPlaceExtender@wateringPlace@@EAEXXZ 1003a390 f   WateringPlaceExtender.obj
 0001:000393d0       ?WateringPlace_HeroReset@wateringPlace@@YGHPAVLoHook@@PAUHookContext@@@Z 1003a3d0 f   WateringPlaceExtender.obj
 0001:00039410       ?OnEveryDay@wateringPlace@@YGXPAUTEvent@Era@@@Z 1003a410 f   WateringPlaceExtender.obj
 0001:00039510       ?SetHintInH3TextBuffer@WateringPlaceExtender@wateringPlace@@EBEHPAUH3MapItem@h3@@PBUH3Hero@4@PBUH3Player@4@H@Z 1003a510 f   WateringPlaceExtender.obj
 0001:000396a0       ?VisitMapItem@WateringPlaceExtender@wateringPlace@@EBEHPAUH3Hero@h3@@PAUH3MapItem@4@UH3Position@4@H@Z 1003a6a0 f   WateringPlaceExtender.obj
 0001:000398e0       ?AskQuestion@wateringPlace@@YAHPBUH3MapItem@h3@@@Z 1003a8e0 f   WateringPlaceExtender.obj
 0001:000399f0       ?ShowMessage@wateringPlace@@YAXPBUH3MapItem@h3@@@Z 1003a9f0 f   WateringPlaceExtender.obj
 0001:00039b40       ?SetAiMapItemWeight@WateringPlaceExtender@wateringPlace@@EBEHPAUH3MapItem@h3@@PAUH3Hero@4@PBUH3Player@4@AAHPAHUH3Position@4@@Z 1003ab40 f   WateringPlaceExtender.obj
 0001:00039c70       ??1WateringPlaceExtender@wateringPlace@@EAE@XZ 1003ac70 f   WateringPlaceExtender.obj
 0001:00039c80       ??0WateringPlaceExtender@wateringPlace@@AAE@XZ 1003ac80 f   WateringPlaceExtender.obj
 0001:00039d20       ?Get@WateringPlaceExtender@wateringPlace@@SAAAV12@XZ 1003ad20 f   WateringPlaceExtender.obj
 0001:00039e10       ?WoGObjectHasOptionEnabled@WoGObjectsExtender@wog@@SAHPBUH3RmgObjectGenerator@h3@@@Z 1003ae10 f   WoGObjectsExtender.obj
 0001:00039e30       ?IsWoGObject@WoGObjectsExtender@wog@@SAHPBUH3RmgObjectGenerator@h3@@@Z 1003ae30 f   WoGObjectsExtender.obj
 0001:00039e50       ?AfterLoadingObjectTxtProc@WoGObjectsExtender@wog@@MAEXPBF@Z 1003ae50 f   WoGObjectsExtender.obj
 0001:00039ef0       ?CreateRMGObjectGen@WoGObjectsExtender@wog@@MBEPAUH3RmgObjectGenerator@h3@@ABURMGObjectInfo@@@Z 1003aef0 f   WoGObjectsExtender.obj
 0001:00039f80       ?CreatePatches@WoGObjectsExtender@wog@@MAEXXZ 1003af80 f   WoGObjectsExtender.obj
 0001:00039f90       ??1WoGObjectsExtender@wog@@EAE@XZ 1003af90 f   WoGObjectsExtender.obj
 0001:00039fa0       ??0WoGObjectsExtender@wog@@AAE@XZ 1003afa0 f   WoGObjectsExtender.obj
 0001:00039ff0       ?Get@WoGObjectsExtender@wog@@SAAAV12@XZ 1003aff0 f   WoGObjectsExtender.obj
 0001:0003a0b0       ?AddProperty@ObjectProperty@extender@@SAHAAV?$basic_string@DU?$char_traits@D@std@@V?$allocator@D@2@@std@@@Z 1003b0b0 f   ObjectsExtender.obj
 0001:0003a220       ?FindPropertyReplace@ObjectProperty@extender@@SAPBV?$basic_string@DU?$char_traits@D@std@@V?$allocator@D@2@@std@@PBD@Z 1003b220 f   ObjectsExtender.obj
 0001:0003a2d0       ?GetMapKey@ObjectProperty@extender@@SA?AV?$basic_string@DU?$char_traits@D@std@@V?$allocator@D@2@@std@@PBD@Z 1003b2d0 f   ObjectsExtender.obj
 0001:0003a620       ?CreatePatches@ObjectsExtender@extender@@MAEXXZ 1003b620 f   ObjectsExtender.obj
 0001:0003a710       ?Game__NewWeekObjectIteration@ObjectsExtender@extender@@CGHPAVLoHook@@PAUHookContext@@@Z 1003b710 f   ObjectsExtender.obj
 0001:0003a750       ?Game__NewGameObjectIteration@ObjectsExtender@extender@@CGHPAVLoHook@@PAUHookContext@@@Z 1003b750 f   ObjectsExtender.obj
 0001:0003a790       ?AIHero_GetObjectPosWeight@ObjectsExtender@extender@@CGHPAVLoHook@@PAUHookContext@@@Z 1003b790 f   ObjectsExtender.obj
 0001:0003a830       ?H3AdventureManager__GetDefaultObjectHoverHint@ObjectsExtender@extender@@CGHPAVLoHook@@PAUHookContext@@@Z 1003b830 f   ObjectsExtender.obj
 0001:0003a850       ?H3AdventureManager__GetDefaultObjectClickHint@ObjectsExtender@extender@@CGHPAVLoHook@@PAUHookContext@@@Z 1003b850 f   ObjectsExtender.obj
 0001:0003a870       ?ShowObjectHint@ObjectsExtender@extender@@CAHPAVLoHook@@PAUHookContext@@H@Z 1003b870 f   ObjectsExtender.obj
 0001:0003a9b0       ?H3AdventureManager__ObjectVisit@ObjectsExtender@extender@@CGHPAVLoHook@@PAUHookContext@@@Z 1003b9b0 f   ObjectsExtender.obj
 0001:0003aa20       ?AddObjectsToObjectGenList@ObjectsExtender@extender@@SAXPAU?$H3Vector@PAUH3RmgObjectGenerator@h3@@@h3@@@Z 1003ba20 f   ObjectsExtender.obj
 0001:0003ac90       ??RHashFunction@RMGObjectSetable@extender@@QBEIABU12@@Z 1003bc90 f   ObjectsExtender.obj
 0001:0003ad10       ??8RMGObjectSetable@extender@@QBE_NABU01@@Z 1003bd10 f   ObjectsExtender.obj
 0001:0003ad30       ?H3GameMainSetup__LoadObjects@ObjectsExtender@extender@@CGXPAVHiHook@@PBUH3MainSetup@h3@@@Z 1003bd30 f   ObjectsExtender.obj
 0001:0003b4f0       ?LoadMapObjectPropertiesFromLoadedMods@ObjectsExtender@extender@@CAXXZ 1003c4f0 f   ObjectsExtender.obj
 0001:0003b830       ?LoadMapObjectPropertiesByTypeSubtypes@ObjectsExtender@extender@@CAXXZ 1003c830 f   ObjectsExtender.obj
 0001:0003b9a0       ?LoadObjectsTxt@ObjectsExtender@extender@@CGHPAVLoHook@@PAUHookContext@@@Z 1003c9a0 f   ObjectsExtender.obj
 0001:0003bde0       ?GetLineCount@EditableH3TextFile@extender@@QBEIXZ 1003cde0 f   ObjectsExtender.obj
 0001:0003bdf0       ?AddLine@EditableH3TextFile@extender@@QAEXPBD@Z 1003cdf0 f   ObjectsExtender.obj
 0001:0003be30       ?CreateRMGObjectGen@ObjectsExtender@extender@@MBEPAUH3RmgObjectGenerator@h3@@ABURMGObjectInfo@@@Z 1003ce30 f   ObjectsExtender.obj
 0001:0003bea0       ?SetAiMapItemWeight@ObjectsExtender@extender@@MBEHPAUH3MapItem@h3@@PAUH3Hero@4@PBUH3Player@4@AAHPAHUH3Position@4@@Z 1003cea0 f   ObjectsExtender.obj
 0001:0003beb0       ?SetHintInH3TextBuffer@ObjectsExtender@extender@@MBEHPAUH3MapItem@h3@@PBUH3Hero@4@PBUH3Player@4@H@Z 1003ceb0 f   ObjectsExtender.obj
 0001:0003bec0       ?VisitMapItem@ObjectsExtender@extender@@MBEHPAUH3Hero@h3@@PAUH3MapItem@4@UH3Position@4@H@Z 1003cec0 f   ObjectsExtender.obj
 0001:0003bed0       ?InitNewGameMapItemSetup@ObjectsExtender@extender@@MBEHPAUH3MapItem@h3@@@Z 1003ced0 f   ObjectsExtender.obj
 0001:0003bee0       ?CreateDefaultH3RmgObjectGenerator@ObjectsExtender@extender@@KAPAUH3RmgObjectGenerator@h3@@ABURMGObjectInfo@@@Z 1003cee0 f   ObjectsExtender.obj
 0001:0003bf50       ?InitNewWeekMapItemSetup@ObjectsExtender@extender@@MBEHPAUH3MapItem@h3@@@Z 1003cf50 f   ObjectsExtender.obj
 0001:0003bf60       ?AfterLoadingObjectTxtProc@ObjectsExtender@extender@@MAEXPBF@Z 1003cf60 f   ObjectsExtender.obj
 0001:0003bf70       ??1ObjectsExtender@extender@@MAE@XZ 1003cf70 f   ObjectsExtender.obj
 0001:0003bf80       ??0ObjectsExtender@extender@@IAE@PAVPatcherInstance@@@Z 1003cf80 f   ObjectsExtender.obj
 0001:0003c0c0       ?Inited@GeneratedInfo@@QBEHXZ 1003d0c0 f   RMGObjectsEditor.obj
 0001:0003c0d0       ?Clear@GeneratedInfo@@QAEXPBUH3RmgRandomMapGenerator@h3@@@Z 1003d0d0 f   RMGObjectsEditor.obj
 0001:0003c160       ?ObjectCantBeGenerated@GeneratedInfo@@QBEHPBUH3RmgObjectGenerator@h3@@H@Z 1003d160 f   RMGObjectsEditor.obj
 0001:0003c1d0       ?Assign@GeneratedInfo@@QAEXPBUH3RmgRandomMapGenerator@h3@@AAY0OI@$$CBV?$vector@URMGObjectInfo@@V?$allocator@URMGObjectInfo@@@std@@@std@@@Z 1003d1d0 f   RMGObjectsEditor.obj
 0001:0003c940       ?GetObjectName@RMGObjectInfo@@SAPBDHH@Z 1003d940 f   RMGObjectsEditor.obj
 0001:0003cb80       ?LoadUserProperties@RMGObjectInfo@@SAXPBF@Z 1003db80 f   RMGObjectsEditor.obj
 0001:0003ccb0       ?InitDefaultProperties@RMGObjectInfo@@SAXABUObjectLimitsInfo@@PBF@Z 1003dcb0 f   RMGObjectsEditor.obj
 0001:0003d000       ?InitFromRmgObjectGenerator@RMGObjectInfo@@SAXABUH3RmgObjectGenerator@h3@@@Z 1003e000 f   RMGObjectsEditor.obj
 0001:0003d0b0       ?WriteToINI@RMGObjectInfo@@QBEHXZ 1003e0b0 f   RMGObjectsEditor.obj
 0001:0003d250       ?GetName@RMGObjectInfo@@QBEPBDXZ 1003e250 f   RMGObjectsEditor.obj
 0001:0003d290       ??0RMGObjectInfo@@QAE@XZ   1003e290 f   RMGObjectsEditor.obj
 0001:0003d2d0       ?MakeReal@RMGObjectInfo@@QBEXXZ 1003e2d0 f   RMGObjectsEditor.obj
 0001:0003d320       ?SetRandom@RMGObjectInfo@@QAEXXZ 1003e320 f   RMGObjectsEditor.obj
 0001:0003d490       ?RestoreDefault@RMGObjectInfo@@QAEXXZ 1003e490 f   RMGObjectsEditor.obj
 0001:0003d4d0       ?Clamp@RMGObjectInfo@@QAEHXZ 1003e4d0 f   RMGObjectsEditor.obj
 0001:0003d580       ?IncreaseObjectsCounters@GeneratedInfo@@QAEXPBUH3RmgObjectProperties@h3@@H@Z 1003e580 f   RMGObjectsEditor.obj
 0001:0003d5c0       ?CreatePatches@RMGObjectsEditor@editor@@EAEXXZ 1003e5c0 f   RMGObjectsEditor.obj
 0001:0003d760       ?RMG__AtSecondSubterranianGatesPlacement@fixes@editor@@YGHPAVLoHook@@PAUHookContext@@@Z 1003e760 f   RMGObjectsEditor.obj
 0001:0003d790       ?RMG__AtSecondSubterranianGatesPositioning@fixes@editor@@YGHPAVLoHook@@PAUHookContext@@@Z 1003e790 f   RMGObjectsEditor.obj
 0001:0003d7e0       ?RMG__AtSubterranianGatesPrototypeGet@fixes@editor@@YGHPAVLoHook@@PAUHookContext@@@Z 1003e7e0 f   RMGObjectsEditor.obj
 0001:0003d820       ?RMG__RMGObjGenScroll__CreateObject@RMGObjectsEditor@editor@@CGPAUH3RmgObject@h3@@PAVHiHook@@PAU_RMGObjGenScroll_@@PAUH3RmgObjectPropsRef@4@PAUH3RmgRandomMapGenerator@4@PAUH3RmgZoneGenerator@4@@Z 1003e820 f   RMGObjectsEditor.obj
 0001:0003d880       ?AfterMapGeneration@RMGObjectsEditor@editor@@AAEXPAUH3RmgRandomMapGenerator@h3@@@Z 1003e880 f   RMGObjectsEditor.obj
 0001:0003d9d0       ?RMG__AfterMapGenerated@RMGObjectsEditor@editor@@CGXPAVHiHook@@PAUH3RmgRandomMapGenerator@h3@@@Z 1003e9d0 f   RMGObjectsEditor.obj
 0001:0003db30       ?BeforeMapGeneration@RMGObjectsEditor@editor@@AAEXPBUH3RmgRandomMapGenerator@h3@@@Z 1003eb30 f   RMGObjectsEditor.obj
 0001:0003dba0       ?RMG__InitGenZones@RMGObjectsEditor@editor@@CGXPAVHiHook@@PBUH3RmgRandomMapGenerator@h3@@PBUH3RmgTemplate@5@@Z 1003eba0 f   RMGObjectsEditor.obj
 0001:0003dc20       ?RMG__RMGDwellingObject_AtGettingValue@editor@@YGHPAVHiHook@@PBUH3RmgObjectGenerator@h3@@PBUH3RmgZoneGenerator@4@PBUH3RmgRandomMapGenerator@4@@Z 1003ec20 f   RMGObjectsEditor.obj
 0001:0003dd50       ?RMG__RMGObject_AtPlacement@RMGObjectsEditor@editor@@CGHPAVLoHook@@PAUHookContext@@@Z 1003ed50 f   RMGObjectsEditor.obj
 0001:0003de20       ?RMG__ZoneGeneration__AfterObjectTypeZoneLimitCheck@RMGObjectsEditor@editor@@CGHPAVLoHook@@PAUHookContext@@@Z 1003ee20 f   RMGObjectsEditor.obj
 0001:0003df10       ?SetMapControlSpellLevels@RMGObjectsEditor@editor@@AAEXHH@Z 1003ef10 f   RMGObjectsEditor.obj
 0001:0003e060       ?RMG__CreateObjectGenerators@RMGObjectsEditor@editor@@CGXPAVHiHook@@PAUH3RmgRandomMapGenerator@h3@@@Z 1003f060 f   RMGObjectsEditor.obj
 0001:0003e4b0       ??1RMGObjectsEditor@editor@@EAE@XZ 1003f4b0 f   RMGObjectsEditor.obj
 0001:0003e530       ?GetObjectGeneratorsList@RMGObjectsEditor@editor@@QBEABU?$H3Vector@PAUH3RmgObjectGenerator@h3@@@h3@@XZ 1003f530 f   RMGObjectsEditor.obj
 0001:0003e540       ?InitDefaultProperties@RMGObjectsEditor@editor@@AAEXPBF@Z 1003f540 f   RMGObjectsEditor.obj
 0001:0003e7a0       ?MaxMapTypeLimit@RMGObjectsEditor@editor@@QBEHI@Z 1003f7a0 f   RMGObjectsEditor.obj
 0001:0003e7c0       ??0RMGObjectsEditor@editor@@AAE@XZ 1003f7c0 f   RMGObjectsEditor.obj
 0001:0003e950       ?Init@RMGObjectsEditor@editor@@SAXPBF@Z 1003f950 f   RMGObjectsEditor.obj
 0001:0003ea10       ??0RMGObjectInfo@@QAE@HH@Z 1003fa10 f   RMGObjectsEditor.obj
 0001:0003ea50       ?GetObjectName@RMGObjectInfo@@SAPBDPBUH3MapItem@h3@@@Z 1003fa50 f   RMGObjectsEditor.obj
 0001:0003ea70       ?Get@RMGObjectsEditor@editor@@SAAAV12@XZ 1003fa70 f   RMGObjectsEditor.obj
 0001:0003ec30       ?GameStart@rmgdlg@@YGXPAVHiHook@@K@Z 1003fc30 f   RMG_SettingsDlg.obj
 0001:0003ee00       ?CreateGraphics@rmgdlg@@YAXABU?$H3Vector@PAUH3RmgObjectGenerator@h3@@@h3@@@Z 1003fe00 f   RMG_SettingsDlg.obj
 0001:0003ef30       ?CreateResizedObjectPcx@rmgdlg@@YAXXZ 1003ff30 f   RMG_SettingsDlg.obj
 0001:0003f0a0       ?NewScenarioDlg_Create@RMG_SettingsDlg@rmgdlg@@CGXPAVHiHook@@PAUH3SelectScenarioDialog@h3@@K@Z 100400a0 f   RMG_SettingsDlg.obj
 0001:0003f430       ?SelectScenarioDlgRandomizeProc@rmgdlg@@YIHPAUH3Msg@h3@@@Z 10040430 f   RMG_SettingsDlg.obj
 0001:0003f620       ?RMG_SetRandSeed@rmgdlg@@YGXPAVHiHook@@PAK@Z 10040620 f   RMG_SettingsDlg.obj
 0001:0003f650       ?H3SelectScenarioDialog_HideRandomMapsSettings@RMG_SettingsDlg@rmgdlg@@CGHPAVLoHook@@PAUHookContext@@@Z 10040650 f   RMG_SettingsDlg.obj
 0001:0003f6a0       ?H3SelectScenarioDialog_ShowRandomMapsSettings@RMG_SettingsDlg@rmgdlg@@CGHPAVLoHook@@PAUHookContext@@@Z 100406a0 f   RMG_SettingsDlg.obj
 0001:0003f810       ?H3SelectScenarioDialog_StartButtonClick@RMG_SettingsDlg@rmgdlg@@CGHPAVLoHook@@PAUHookContext@@@Z 10040810 f   RMG_SettingsDlg.obj
 0001:0003f860       ?Dlg_SelectScenario_Proc@RMG_SettingsDlg@rmgdlg@@CGHPAVLoHook@@PAUHookContext@@@Z 10040860 f   RMG_SettingsDlg.obj
 0001:0003fa00       ?GetObjectPrototypesLists@rmgdlg@@YAXXZ 10040a00 f   RMG_SettingsDlg.obj
 0001:0003fe70       ?FindDataInObjectGeneratorsList@rmgdlg@@YAXAAV?$vector@U?$pair@UH3ObjectAttributes@h3@@PAUH3LoadedPcx16@2@@std@@V?$allocator@U?$pair@UH3ObjectAttributes@h3@@PAUH3LoadedPcx16@2@@std@@@2@@std@@@Z 10040e70 f   RMG_SettingsDlg.obj
 0001:00040010       ?GetObjectPrototypesByTypes@rmgdlg@@YAXAAV?$vector@U?$pair@UH3ObjectAttributes@h3@@PAUH3LoadedPcx16@2@@std@@V?$allocator@U?$pair@UH3ObjectAttributes@h3@@PAUH3LoadedPcx16@2@@std@@@2@@std@@PBHI@Z 10041010 f   RMG_SettingsDlg.obj
 0001:00040160       ??1MiscPage@RMG_SettingsDlg@rmgdlg@@UAE@XZ 10041160 f   RMG_SettingsDlg.obj
 0001:00040170       ?SetVisible@PageHeader@ObjectsPage@RMG_SettingsDlg@rmgdlg@@QAEX_N@Z 10041170 f   RMG_SettingsDlg.obj
 0001:000401e0       ??0PageHeader@ObjectsPage@RMG_SettingsDlg@rmgdlg@@QAE@HHHHH@Z 100411e0 f   RMG_SettingsDlg.obj
 0001:00040680       ??0RMGObject@rmgdlg@@QAE@ABUH3ObjectAttributes@h3@@PAUH3LoadedPcx16@3@@Z 10041680 f   RMG_SettingsDlg.obj
 0001:00040730       ?SetActivePage@RMG_SettingsDlg@rmgdlg@@AAEHPAUPage@12@@Z 10041730 f   RMG_SettingsDlg.obj
 0001:00040870       ?OnCreate@RMG_SettingsDlg@rmgdlg@@EAEHXZ 10041870 f   RMG_SettingsDlg.obj
 0001:00040910       ?HorizontalScrollBarProc@ObjectsPage@RMG_SettingsDlg@rmgdlg@@CIXHPAUH3BaseDlg@h3@@@Z 10041910 f   RMG_SettingsDlg.obj
 0001:00040930       ?VerticalScrollBarProc@ObjectsPage@RMG_SettingsDlg@rmgdlg@@CIXHPAUH3BaseDlg@h3@@@Z 10041930 f   RMG_SettingsDlg.obj
 0001:00040980       ?ResetSortingState@ObjectsPage@RMG_SettingsDlg@rmgdlg@@QAEXXZ 10041980 f   RMG_SettingsDlg.obj
 0001:000409b0       ??0Page@RMG_SettingsDlg@rmgdlg@@QAE@PAUH3DlgCaptionButton@h3@@@Z 100419b0 f   RMG_SettingsDlg.obj
 0001:00040a00       ?Proc@ObjectsPage@RMG_SettingsDlg@rmgdlg@@MAEHAAUH3Msg@h3@@@Z 10041a00 f   RMG_SettingsDlg.obj
 0001:00040e40       ??1BanksPage@RMG_SettingsDlg@rmgdlg@@UAE@XZ 10041e40 f   RMG_SettingsDlg.obj
 0001:00040e50       ?ShowObjectExtendedInfo@BanksPage@RMG_SettingsDlg@rmgdlg@@UBEHPBUObjectsPanel@23@ABUH3Msg@h3@@@Z 10041e50 f   RMG_SettingsDlg.obj
 0001:00040e90       ?ShowObjectExtendedInfo@ObjectsPage@RMG_SettingsDlg@rmgdlg@@MBEHPBUObjectsPanel@23@ABUH3Msg@h3@@@Z 10041e90 f   RMG_SettingsDlg.obj
 0001:00041070       ?FillObjects@ObjectsPage@RMG_SettingsDlg@rmgdlg@@MAEXH@Z 10042070 f   RMG_SettingsDlg.obj
 0001:00041190       ??0ObjectsPage@RMG_SettingsDlg@rmgdlg@@QAE@PAUH3DlgCaptionButton@h3@@ABV?$vector@U?$pair@UH3ObjectAttributes@h3@@PAUH3LoadedPcx16@2@@std@@V?$allocator@U?$pair@UH3ObjectAttributes@h3@@PAUH3LoadedPcx16@2@@std@@@2@@std@@H@Z 10042190 f   RMG_SettingsDlg.obj
 0001:00041610       ?SetDefault@ObjectsPage@RMG_SettingsDlg@rmgdlg@@MAEXXZ 10042610 f   RMG_SettingsDlg.obj
 0001:00041670       ?SetRandom@ObjectsPage@RMG_SettingsDlg@rmgdlg@@MAEXABUH3Msg@h3@@@Z 10042670 f   RMG_SettingsDlg.obj
 0001:000416a0       ?SaveData@ObjectsPage@RMG_SettingsDlg@rmgdlg@@MAEXXZ 100426a0 f   RMG_SettingsDlg.obj
 0001:00041710       ?SetVisible@ObjectsPage@RMG_SettingsDlg@rmgdlg@@MAEX_N@Z 10042710 f   RMG_SettingsDlg.obj
 0001:00041800       ??1RMG_SettingsDlg@rmgdlg@@EAE@XZ 10042800 f   RMG_SettingsDlg.obj
 0001:000419d0       ?H3DlgEdit__TranslateInputKey@RMG_SettingsDlg@rmgdlg@@CGPAUH3Msg@h3@@PAVHiHook@@PAUH3InputManager@4@PAU34@@Z 100429d0 f   RMG_SettingsDlg.obj
 0001:00041a30       ??1ObjectsPage@RMG_SettingsDlg@rmgdlg@@UAE@XZ 10042a30 f   RMG_SettingsDlg.obj
 0001:00041ba0       ??1Page@RMG_SettingsDlg@rmgdlg@@UAE@XZ 10042ba0 f   RMG_SettingsDlg.obj
 0001:00041bb0       ?PanelInfoToObjectInfo@ObjectsPanel@RMG_SettingsDlg@rmgdlg@@QAEXXZ 10042bb0 f   RMG_SettingsDlg.obj
 0001:00041c30       ?ObjectInfoToPanelInfo@ObjectsPanel@RMG_SettingsDlg@rmgdlg@@QAEXXZ 10042c30 f   RMG_SettingsDlg.obj
 0001:00041d70       ?UnfocusEdits@ObjectsPanel@RMG_SettingsDlg@rmgdlg@@QAE?BHH@Z 10042d70 f   RMG_SettingsDlg.obj
 0001:00041dc0       ?SetObject@ObjectsPanel@RMG_SettingsDlg@rmgdlg@@QAEXPAVRMGObject@3@@Z 10042dc0 f   RMG_SettingsDlg.obj
 0001:00041e30       ?SetVisible@ObjectsPanel@RMG_SettingsDlg@rmgdlg@@QAEXH@Z 10042e30 f   RMG_SettingsDlg.obj
 0001:00041e90       ??1ObjectsPanel@RMG_SettingsDlg@rmgdlg@@UAE@XZ 10042e90 f   RMG_SettingsDlg.obj
 0001:00041f00       ??0ObjectsPanel@RMG_SettingsDlg@rmgdlg@@QAE@HHPAUPage@12@@Z 10042f00 f   RMG_SettingsDlg.obj
 0001:00042510       ??0BanksPage@RMG_SettingsDlg@rmgdlg@@QAE@PAUH3DlgCaptionButton@h3@@ABV?$vector@U?$pair@UH3ObjectAttributes@h3@@PAUH3LoadedPcx16@2@@std@@V?$allocator@U?$pair@UH3ObjectAttributes@h3@@PAUH3LoadedPcx16@2@@std@@@2@@std@@H@Z 10043510 f   RMG_SettingsDlg.obj
 0001:00042540       ?CreateHorizontalScrollBar@ObjectsPage@RMG_SettingsDlg@rmgdlg@@IAEXXZ 10043540 f   RMG_SettingsDlg.obj
 0001:00042680       ?CreateVerticalScrollBar@ObjectsPage@RMG_SettingsDlg@rmgdlg@@IAEXXZ 10043680 f   RMG_SettingsDlg.obj
 0001:00042780       ?SaveRMGObjectsInfo@RMG_SettingsDlg@rmgdlg@@ABEHH@Z 10043780 f   RMG_SettingsDlg.obj
 0001:000428a0       ?WriteIniDlgSettings@RMG_SettingsDlg@rmgdlg@@ABEHXZ 100438a0 f   RMG_SettingsDlg.obj
 0001:00042990       ?ReadIniDlgSettings@RMG_SettingsDlg@rmgdlg@@AAEHXZ 10043990 f   RMG_SettingsDlg.obj
 0001:00042a00       ?OnCancel@RMG_SettingsDlg@rmgdlg@@EAEXXZ 10043a00 f   RMG_SettingsDlg.obj
 0001:00042a20       ?OnOK@RMG_SettingsDlg@rmgdlg@@EAEXXZ 10043a20 f   RMG_SettingsDlg.obj
 0001:00042ba0       ?RemoveEditsFocus@RMG_SettingsDlg@rmgdlg@@ABEHH@Z 10043ba0 f   RMG_SettingsDlg.obj
 0001:00042c70       ?DialogProc@RMG_SettingsDlg@rmgdlg@@EAEHAAUH3Msg@h3@@@Z 10043c70 f   RMG_SettingsDlg.obj
 0001:00042ec0       ?OnHelp@RMG_SettingsDlg@rmgdlg@@ABEXXZ 10043ec0 f   RMG_SettingsDlg.obj
 0001:00043080       ??0RMG_SettingsDlg@rmgdlg@@QAE@HHHH@Z 10044080 f   RMG_SettingsDlg.obj
 0001:00043a90       ?GetUserRandSeedInput@RMG_SettingsDlg@rmgdlg@@SAKXZ 10044a90 f   RMG_SettingsDlg.obj
 0001:00043aa0       _RMGObjectSupportsGeneration 10044aa0 f   RMG_SettingsDlg.obj
 0001:00043c50       ?SortRmgObjects@sorting@rmgdlg@@YAXAAV?$vector@VRMGObject@rmgdlg@@V?$allocator@VRMGObject@rmgdlg@@@std@@@std@@W4eSorting@12@_N@Z 10044c50 f   RMG_SettingsDlg.obj
 0001:00043cd0       ?GetObjectAttributes@RMG_SettingsDlg@rmgdlg@@SAABV?$vector@PAV?$vector@U?$pair@UH3ObjectAttributes@h3@@PAUH3LoadedPcx16@2@@std@@V?$allocator@U?$pair@UH3ObjectAttributes@h3@@PAUH3LoadedPcx16@2@@std@@@2@@std@@V?$allocator@PAV?$vector@U?$pair@UH3ObjectAttributes@h3@@PAUH3LoadedPcx16@2@@std@@V?$allocator@U?$pair@UH3ObjectAttributes@h3@@PAUH3LoadedPcx16@2@@std@@@2@@std@@@2@@std@@XZ 10044cd0 f   RMG_SettingsDlg.obj
 0001:00043ce0       ?SetPatches@RMG_SettingsDlg@rmgdlg@@SAXPAVPatcherInstance@@@Z 10044ce0 f   RMG_SettingsDlg.obj
 0001:00043e40       ?H3AdventureManager__ObjectVisit_SoundPlay@SoundManager@sound@@CGHPAVLoHook@@PAUHookContext@@@Z 10044e40 f   SoundManager.obj
 0001:00043f90       ?H3AdventureManager_AtGettingLoopSoundId@SoundManager@sound@@CGHPAVLoHook@@PAUHookContext@@@Z 10044f90 f   SoundManager.obj
 0001:00044040       ?GetLoopSoundId@SoundManager@sound@@ABE?AW4eLoopSooundId@12@PBUH3MapItem@h3@@@Z 10045040 f   SoundManager.obj
 0001:000440d0       ?H3AdventureManager__AtTrimSound@SoundManager@sound@@CGHPAVLoHook@@PAUHookContext@@@Z 100450d0 f   SoundManager.obj
 0001:000441f0       ?H3AdventureManager__AtHide@SoundManager@sound@@CGHPAVLoHook@@PAUHookContext@@@Z 100451f0 f   SoundManager.obj
 0001:00044230       ?H3AdventureManager__AtShow@SoundManager@sound@@CGHPAVLoHook@@PAUHookContext@@@Z 10045230 f   SoundManager.obj
 0001:00044270       ?H3AdventureManager__AtLoadingWav@SoundManager@sound@@CGHPAVLoHook@@PAUHookContext@@@Z 10045270 f   SoundManager.obj
 0001:000442a0       ?ReplaceAdventureManagerLoadedWavsArray@SoundManager@sound@@AAEXXZ 100452a0 f   SoundManager.obj
 0001:000444f0       ?CreateNewLoopSoundsTable@SoundManager@sound@@AAEXABV?$vector@UObjectSound@SoundManager@sound@@V?$allocator@UObjectSound@SoundManager@sound@@@std@@@std@@@Z 100454f0 f   SoundManager.obj
 0001:00044bb0       ?Init@SoundManager@sound@@SAXABV?$vector@UObjectSound@SoundManager@sound@@V?$allocator@UObjectSound@SoundManager@sound@@@std@@@std@@@Z 10045bb0 f   SoundManager.obj
 0001:00044bc0       __ftol3                    10045bc0 f   LIBCMT:ftol3.obj
 0001:00044c29       ??0__non_rtti_object@std@@QAE@ABV01@@Z 10045c29 f i libvcruntime:rtti.obj
 0001:00044c44       ??0bad_typeid@std@@QAE@ABV01@@Z 10045c44 f i libvcruntime:rtti.obj
 0001:00044ffa       ?__construct_from_string_literal@__non_rtti_object@std@@SA?AV12@QBD@Z 10045ffa f i libvcruntime:rtti.obj
 0001:00045016       ?__construct_from_string_literal@bad_cast@std@@SA?AV12@QBD@Z 10046016 f i libvcruntime:rtti.obj
 0001:00045032       ___RTDynamicCast           10046032 f   libvcruntime:rtti.obj
 0002:00000000       __imp__GetModuleFileNameA@12 10049000     kernel32:KERNEL32.dll
 0002:00000004       __imp__GetModuleHandleExA@12 10049004     kernel32:KERNEL32.dll
 0002:00000008       __imp__LoadLibraryA@4      10049008     kernel32:KERNEL32.dll
 0002:0000000c       __imp__GetProcAddress@8    1004900c     kernel32:KERNEL32.dll
 0002:00000010       __imp__GetModuleHandleA@4  10049010     kernel32:KERNEL32.dll
 0002:00000014       __imp__DeleteFileA@4       10049014     kernel32:KERNEL32.dll
 0002:00000018       __imp__CreateFileW@28      10049018     kernel32:KERNEL32.dll
 0002:0000001c       __imp__GetCurrentThreadId@0 1004901c     kernel32:KERNEL32.dll
 0002:00000020       __imp__CloseHandle@4       10049020     kernel32:KERNEL32.dll
 0002:00000024       __imp__EnterCriticalSection@4 10049024     kernel32:KERNEL32.dll
 0002:00000028       __imp__LeaveCriticalSection@4 10049028     kernel32:KERNEL32.dll
 0002:0000002c       __imp__InitializeCriticalSectionEx@12 1004902c     kernel32:KERNEL32.dll
 0002:00000030       __imp__DeleteCriticalSection@4 10049030     kernel32:KERNEL32.dll
 0002:00000034       __imp__EncodePointer@4     10049034     kernel32:KERNEL32.dll
 0002:00000038       __imp__DecodePointer@4     10049038     kernel32:KERNEL32.dll
 0002:0000003c       __imp__MultiByteToWideChar@24 1004903c     kernel32:KERNEL32.dll
 0002:00000040       __imp__WideCharToMultiByte@32 10049040     kernel32:KERNEL32.dll
 0002:00000044       __imp__LCMapStringEx@36    10049044     kernel32:KERNEL32.dll
 0002:00000048       __imp__ReleaseSRWLockExclusive@4 10049048     kernel32:KERNEL32.dll
 0002:0000004c       __imp__AcquireSRWLockExclusive@4 1004904c     kernel32:KERNEL32.dll
 0002:00000050       __imp__TryAcquireSRWLockExclusive@4 10049050     kernel32:KERNEL32.dll
 0002:00000054       __imp__WakeAllConditionVariable@4 10049054     kernel32:KERNEL32.dll
 0002:00000058       __imp__SleepConditionVariableSRW@16 10049058     kernel32:KERNEL32.dll
 0002:0000005c       __imp__QueryPerformanceCounter@4 1004905c     kernel32:KERNEL32.dll
 0002:00000060       __imp__GetSystemTimeAsFileTime@4 10049060     kernel32:KERNEL32.dll
 0002:00000064       __imp__GetModuleHandleW@4  10049064     kernel32:KERNEL32.dll
 0002:00000068       __imp__GetStringTypeW@16   10049068     kernel32:KERNEL32.dll
 0002:0000006c       __imp__GetCPInfo@8         1004906c     kernel32:KERNEL32.dll
 0002:00000070       __imp__IsProcessorFeaturePresent@4 10049070     kernel32:KERNEL32.dll
 0002:00000074       __imp__IsDebuggerPresent@0 10049074     kernel32:KERNEL32.dll
 0002:00000078       __imp__UnhandledExceptionFilter@4 10049078     kernel32:KERNEL32.dll
 0002:0000007c       __imp__SetUnhandledExceptionFilter@4 1004907c     kernel32:KERNEL32.dll
 0002:00000080       __imp__GetStartupInfoW@4   10049080     kernel32:KERNEL32.dll
 0002:00000084       __imp__GetCurrentProcessId@0 10049084     kernel32:KERNEL32.dll
 0002:00000088       __imp__InitializeSListHead@4 10049088     kernel32:KERNEL32.dll
 0002:0000008c       __imp__GetCurrentProcess@0 1004908c     kernel32:KERNEL32.dll
 0002:00000090       __imp__TerminateProcess@8  10049090     kernel32:KERNEL32.dll
 0002:00000094       __imp__RtlUnwind@16        10049094     kernel32:KERNEL32.dll
 0002:00000098       __imp__RaiseException@16   10049098     kernel32:KERNEL32.dll
 0002:0000009c       __imp__InterlockedFlushSList@4 1004909c     kernel32:KERNEL32.dll
 0002:000000a0       __imp__GetLastError@0      100490a0     kernel32:KERNEL32.dll
 0002:000000a4       __imp__SetLastError@4      100490a4     kernel32:KERNEL32.dll
 0002:000000a8       __imp__InitializeCriticalSectionAndSpinCount@8 100490a8     kernel32:KERNEL32.dll
 0002:000000ac       __imp__TlsAlloc@0          100490ac     kernel32:KERNEL32.dll
 0002:000000b0       __imp__TlsGetValue@4       100490b0     kernel32:KERNEL32.dll
 0002:000000b4       __imp__TlsSetValue@8       100490b4     kernel32:KERNEL32.dll
 0002:000000b8       __imp__TlsFree@4           100490b8     kernel32:KERNEL32.dll
 0002:000000bc       __imp__FreeLibrary@4       100490bc     kernel32:KERNEL32.dll
 0002:000000c0       __imp__LoadLibraryExW@12   100490c0     kernel32:KERNEL32.dll
 0002:000000c4       __imp__CreateThread@24     100490c4     kernel32:KERNEL32.dll
 0002:000000c8       __imp__ExitThread@4        100490c8     kernel32:KERNEL32.dll
 0002:000000cc       __imp__FreeLibraryAndExitThread@8 100490cc     kernel32:KERNEL32.dll
 0002:000000d0       __imp__GetModuleHandleExW@12 100490d0     kernel32:KERNEL32.dll
 0002:000000d4       __imp__ExitProcess@4       100490d4     kernel32:KERNEL32.dll
 0002:000000d8       __imp__GetModuleFileNameW@12 100490d8     kernel32:KERNEL32.dll
 0002:000000dc       __imp__HeapFree@12         100490dc     kernel32:KERNEL32.dll
 0002:000000e0       __imp__HeapAlloc@12        100490e0     kernel32:KERNEL32.dll
 0002:000000e4       __imp__GetStdHandle@4      100490e4     kernel32:KERNEL32.dll
 0002:000000e8       __imp__GetFileType@4       100490e8     kernel32:KERNEL32.dll
 0002:000000ec       __imp__LCMapStringW@24     100490ec     kernel32:KERNEL32.dll
 0002:000000f0       __imp__GetLocaleInfoW@16   100490f0     kernel32:KERNEL32.dll
 0002:000000f4       __imp__IsValidLocale@8     100490f4     kernel32:KERNEL32.dll
 0002:000000f8       __imp__GetUserDefaultLCID@0 100490f8     kernel32:KERNEL32.dll
 0002:000000fc       __imp__EnumSystemLocalesW@8 100490fc     kernel32:KERNEL32.dll
 0002:00000100       __imp__HeapReAlloc@16      10049100     kernel32:KERNEL32.dll
 0002:00000104       __imp__SetFilePointerEx@20 10049104     kernel32:KERNEL32.dll
 0002:00000108       __imp__FindClose@4         10049108     kernel32:KERNEL32.dll
 0002:0000010c       __imp__FindFirstFileExW@24 1004910c     kernel32:KERNEL32.dll
 0002:00000110       __imp__FindNextFileW@8     10049110     kernel32:KERNEL32.dll
 0002:00000114       __imp__IsValidCodePage@4   10049114     kernel32:KERNEL32.dll
 0002:00000118       __imp__GetACP@0            10049118     kernel32:KERNEL32.dll
 0002:0000011c       __imp__GetOEMCP@0          1004911c     kernel32:KERNEL32.dll
 0002:00000120       __imp__GetCommandLineA@0   10049120     kernel32:KERNEL32.dll
 0002:00000124       __imp__GetCommandLineW@0   10049124     kernel32:KERNEL32.dll
 0002:00000128       __imp__GetEnvironmentStringsW@0 10049128     kernel32:KERNEL32.dll
 0002:0000012c       __imp__FreeEnvironmentStringsW@4 1004912c     kernel32:KERNEL32.dll
 0002:00000130       __imp__GetProcessHeap@0    10049130     kernel32:KERNEL32.dll
 0002:00000134       __imp__SetStdHandle@8      10049134     kernel32:KERNEL32.dll
 0002:00000138       __imp__FlushFileBuffers@4  10049138     kernel32:KERNEL32.dll
 0002:0000013c       __imp__WriteFile@20        1004913c     kernel32:KERNEL32.dll
 0002:00000140       __imp__GetConsoleOutputCP@0 10049140     kernel32:KERNEL32.dll
 0002:00000144       __imp__GetConsoleMode@8    10049144     kernel32:KERNEL32.dll
 0002:00000148       __imp__HeapSize@12         10049148     kernel32:KERNEL32.dll
 0002:0000014c       __imp__WriteConsoleW@20    1004914c     kernel32:KERNEL32.dll
 0002:00000150       \177KERNEL32_NULL_THUNK_DATA 10049150     kernel32:KERNEL32.dll
 0002:00000154       ___guard_check_icall_fptr  10049154     LIBCMT:guard_support.obj
 0002:00000158       ___castguard_check_failure_os_handled_fptr 10049158     LIBCMT:guard_support.obj
 0002:0000015c       ___xc_a                    1004915c     LIBCMT:initializers.obj
 0002:00000300       ___xc_z                    10049300     LIBCMT:initializers.obj
 0002:00000304       ___xi_a                    10049304     LIBCMT:initializers.obj
 0002:0000030c       ___acrt_stdio_initializer  1004930c     libucrt:stdio_initializer.obj
 0002:00000310       ___acrt_timeset_initializer 10049310     libucrt:timeset_initializer.obj
 0002:00000314       ___acrt_multibyte_initializer 10049314     libucrt:multibyte_initializer.obj
 0002:00000318       ___acrt_tran_sse2_initializer 10049318     libucrt:sse2_initializer.obj
 0002:0000031c       ___xi_z                    1004931c     LIBCMT:initializers.obj
 0002:00000320       ___xl_a                    10049320     LIBCMT:tlssup.obj
 0002:00000324       ___xl_z                    10049324     LIBCMT:tlssup.obj
 0002:00000328       ___xp_a                    10049328     LIBCMT:initializers.obj
 0002:0000032c       ___acrt_locale_terminator  1004932c     libucrt:locale_initializer.obj
 0002:00000330       ___dcrt_console_output_terminator 10049330     libucrt:console_output_initializer.obj
 0002:00000334       ___acrt_stdio_terminator   10049334     libucrt:stdio_initializer.obj
 0002:00000338       ___xp_z                    10049338     LIBCMT:initializers.obj
 0002:0000033c       ___xt_a                    1004933c     LIBCMT:initializers.obj
 0002:00000340       ___xt_z                    10049340     LIBCMT:initializers.obj
 0002:00000364       ??_7exception@std@@6B@     10049364     libcpmt:xthrow.obj
 0002:00000370       ??_7bad_alloc@std@@6B@     10049370     libcpmt:xthrow.obj
 0002:00000378       ??_C@_0P@GHFPNOJB@bad?5allocation@ 10049378     libcpmt:xthrow.obj
 0002:0000038c       ??_7logic_error@std@@6B@   1004938c     libcpmt:xthrow.obj
 0002:00000398       ??_7length_error@std@@6B@  10049398     libcpmt:xthrow.obj
 0002:000003a4       ??_7out_of_range@std@@6B@  100493a4     libcpmt:xthrow.obj
 0002:000003b0       ??_7runtime_error@std@@6B@ 100493b0     libcpmt:xthrow.obj
 0002:000003f0       ??_C@_0BI@NGCEHDD@device?5or?5resource?5busy@ 100493f0     libcpmt:thread0.obj
 0002:00000408       ??_C@_0BB@FCMFBGOM@invalid?5argument@ 10049408     libcpmt:thread0.obj
 0002:0000041c       ??_C@_0BA@ENLPPKBN@no?5such?5process@ 1004941c     libcpmt:thread0.obj
 0002:0000042c       ??_C@_0BC@ENOOLCNF@not?5enough?5memory@ 1004942c     libcpmt:thread0.obj
 0002:00000440       ??_C@_0BI@OHIEJAAB@operation?5not?5permitted@ 10049440     libcpmt:thread0.obj
 0002:00000458       ??_C@_0BO@BJBOMOEJ@resource?5deadlock?5would?5occur@ 10049458     libcpmt:thread0.obj
 0002:00000478       ??_C@_0BP@LKNGHENJ@resource?5unavailable?5try?5again@ 10049478     libcpmt:thread0.obj
 0002:0000049c       ??_7bad_array_new_length@std@@6B@ 1004949c     libcpmt:thread0.obj
 0002:000004a8       ??_7_System_error@std@@6B@ 100494a8     libcpmt:thread0.obj
 0002:000004b4       ??_7system_error@std@@6B@  100494b4     libcpmt:thread0.obj
 0002:000004c0       ??_7_Generic_error_category@std@@6B@ 100494c0     libcpmt:thread0.obj
 0002:000004d8       ??_C@_07DCLBNMLN@generic@  100494d8     libcpmt:thread0.obj
 0002:000004e4       ??_7_Facet_base@std@@6B@   100494e4     libcpmt:locale0.obj
 0002:000004f4       ??_7_Locimp@locale@std@@6B@ 100494f4     libcpmt:locale0.obj
 0002:00000500       ??_C@_01NBENCBCI@?$CK@     10049500     libcpmt:locale0.obj
 0002:00000504       ??_C@_01GFHCPBMG@C@        10049504     libcpmt:locale0.obj
 0002:00000508       ?_BADOFF@std@@3_JB         10049508     libcpmt:ios.obj
 0002:00000a28       ??_C@_07IPNMCAN@success@   10049a28     libcpmt:syserror.obj
 0002:00000a30       ??_C@_0BN@LKKBCCDB@address?5family?5not?5supported@ 10049a30     libcpmt:syserror.obj
 0002:00000a50       ??_C@_0P@LDMLAFHI@address?5in?5use@ 10049a50     libcpmt:syserror.obj
 0002:00000a60       ??_C@_0BG@DHPCNBJB@address?5not?5available@ 10049a60     libcpmt:syserror.obj
 0002:00000a78       ??_C@_0BC@DFIBIBIL@already?5connected@ 10049a78     libcpmt:syserror.obj
 0002:00000a8c       ??_C@_0BH@CAKOHOMI@argument?5list?5too?5long@ 10049a8c     libcpmt:syserror.obj
 0002:00000aa4       ??_C@_0BH@CGIMPKIM@argument?5out?5of?5domain@ 10049aa4     libcpmt:syserror.obj
 0002:00000abc       ??_C@_0M@KGHGGJGL@bad?5address@ 10049abc     libcpmt:syserror.obj
 0002:00000ac8       ??_C@_0BE@MPJPGCEO@bad?5file?5descriptor@ 10049ac8     libcpmt:syserror.obj
 0002:00000adc       ??_C@_0M@PMMIEFCP@bad?5message@ 10049adc     libcpmt:syserror.obj
 0002:00000ae8       ??_C@_0M@KPHOFDBE@broken?5pipe@ 10049ae8     libcpmt:syserror.obj
 0002:00000af4       ??_C@_0BD@MGNDDEGM@connection?5aborted@ 10049af4     libcpmt:syserror.obj
 0002:00000b08       ??_C@_0BP@KAIHPOGN@connection?5already?5in?5progress@ 10049b08     libcpmt:syserror.obj
 0002:00000b28       ??_C@_0BD@PJLIIJEL@connection?5refused@ 10049b28     libcpmt:syserror.obj
 0002:00000b3c       ??_C@_0BB@IECNJNOI@connection?5reset@ 10049b3c     libcpmt:syserror.obj
 0002:00000b50       ??_C@_0BC@PPHBOELF@cross?5device?5link@ 10049b50     libcpmt:syserror.obj
 0002:00000b64       ??_C@_0BN@KDMIFEIP@destination?5address?5required@ 10049b64     libcpmt:syserror.obj
 0002:00000b84       ??_C@_0BE@JIDOCPHM@directory?5not?5empty@ 10049b84     libcpmt:syserror.obj
 0002:00000b98       ??_C@_0BI@BNCLIGPB@executable?5format?5error@ 10049b98     libcpmt:syserror.obj
 0002:00000bb0       ??_C@_0M@MIDIAGJP@file?5exists@ 10049bb0     libcpmt:syserror.obj
 0002:00000bbc       ??_C@_0P@DNAJLBJK@file?5too?5large@ 10049bbc     libcpmt:syserror.obj
 0002:00000bcc       ??_C@_0BC@EJHOMAAK@filename?5too?5long@ 10049bcc     libcpmt:syserror.obj
 0002:00000be0       ??_C@_0BH@KEFGLDAF@function?5not?5supported@ 10049be0     libcpmt:syserror.obj
 0002:00000bf8       ??_C@_0BB@DHFDFGDM@host?5unreachable@ 10049bf8     libcpmt:syserror.obj
 0002:00000c0c       ??_C@_0BD@JPHBMONG@identifier?5removed@ 10049c0c     libcpmt:syserror.obj
 0002:00000c20       ??_C@_0BG@CDNPAGJK@illegal?5byte?5sequence@ 10049c20     libcpmt:syserror.obj
 0002:00000c38       ??_C@_0CD@BNPLBMNA@inappropriate?5io?5control?5operat@ 10049c38     libcpmt:syserror.obj
 0002:00000c5c       ??_C@_0M@EGEKIIMP@interrupted@ 10049c5c     libcpmt:syserror.obj
 0002:00000c68       ??_C@_0N@OHAFKDEK@invalid?5seek@ 10049c68     libcpmt:syserror.obj
 0002:00000c78       ??_C@_08GLNPIFBN@io?5error@ 10049c78     libcpmt:syserror.obj
 0002:00000c84       ??_C@_0P@FLLDBIDK@is?5a?5directory@ 10049c84     libcpmt:syserror.obj
 0002:00000c94       ??_C@_0N@IFLPBIOP@message?5size@ 10049c94     libcpmt:syserror.obj
 0002:00000ca4       ??_C@_0N@KIIEAAIO@network?5down@ 10049ca4     libcpmt:syserror.obj
 0002:00000cb4       ??_C@_0O@FNPDBHEE@network?5reset@ 10049cb4     libcpmt:syserror.obj
 0002:00000cc4       ??_C@_0BE@IFNCKGE@network?5unreachable@ 10049cc4     libcpmt:syserror.obj
 0002:00000cd8       ??_C@_0BA@PFFCAOFK@no?5buffer?5space@ 10049cd8     libcpmt:syserror.obj
 0002:00000ce8       ??_C@_0BB@IEPBLJHK@no?5child?5process@ 10049ce8     libcpmt:syserror.obj
 0002:00000cfc       ??_C@_07PLECNNKG@no?5link@ 10049cfc     libcpmt:syserror.obj
 0002:00000d04       ??_C@_0BC@NJECKMKE@no?5lock?5available@ 10049d04     libcpmt:syserror.obj
 0002:00000d18       ??_C@_0BF@PBGGPKKE@no?5message?5available@ 10049d18     libcpmt:syserror.obj
 0002:00000d30       ??_C@_0L@EDOLMPAK@no?5message@ 10049d30     libcpmt:syserror.obj
 0002:00000d3c       ??_C@_0BD@EAMBFIDF@no?5protocol?5option@ 10049d3c     libcpmt:syserror.obj
 0002:00000d50       ??_C@_0BD@IJDJKDEA@no?5space?5on?5device@ 10049d50     libcpmt:syserror.obj
 0002:00000d64       ??_C@_0BE@MKFDAFMP@no?5stream?5resources@ 10049d64     libcpmt:syserror.obj
 0002:00000d78       ??_C@_0BK@IMCPHCBI@no?5such?5device?5or?5address@ 10049d78     libcpmt:syserror.obj
 0002:00000d94       ??_C@_0P@FDINDDOK@no?5such?5device@ 10049d94     libcpmt:syserror.obj
 0002:00000da4       ??_C@_0BK@NDOCBPGE@no?5such?5file?5or?5directory@ 10049da4     libcpmt:syserror.obj
 0002:00000dc0       ??_C@_0BA@DOCPFFJG@not?5a?5directory@ 10049dc0     libcpmt:syserror.obj
 0002:00000dd0       ??_C@_0N@POEIPGGF@not?5a?5socket@ 10049dd0     libcpmt:syserror.obj
 0002:00000de0       ??_C@_0N@LGAPMMPI@not?5a?5stream@ 10049de0     libcpmt:syserror.obj
 0002:00000df0       ??_C@_0O@GLMIBBEG@not?5connected@ 10049df0     libcpmt:syserror.obj
 0002:00000e00       ??_C@_0O@NHEDABJP@not?5supported@ 10049e00     libcpmt:syserror.obj
 0002:00000e10       ??_C@_0BD@MOLBPMEA@operation?5canceled@ 10049e10     libcpmt:syserror.obj
 0002:00000e24       ??_C@_0BG@KDKHOPCO@operation?5in?5progress@ 10049e24     libcpmt:syserror.obj
 0002:00000e3c       ??_C@_0BI@LNEGIFLN@operation?5not?5supported@ 10049e3c     libcpmt:syserror.obj
 0002:00000e54       ??_C@_0BG@OEMDKMEE@operation?5would?5block@ 10049e54     libcpmt:syserror.obj
 0002:00000e6c       ??_C@_0L@BLPOFLNJ@owner?5dead@ 10049e6c     libcpmt:syserror.obj
 0002:00000e78       ??_C@_0BC@CIJDGCDI@permission?5denied@ 10049e78     libcpmt:syserror.obj
 0002:00000e8c       ??_C@_0P@FNPOCJBE@protocol?5error@ 10049e8c     libcpmt:syserror.obj
 0002:00000e9c       ??_C@_0BH@JPPPLHJB@protocol?5not?5supported@ 10049e9c     libcpmt:syserror.obj
 0002:00000eb4       ??_C@_0BG@EICBIHDP@read?5only?5file?5system@ 10049eb4     libcpmt:syserror.obj
 0002:00000ecc       ??_C@_0BE@GOIPJJHG@result?5out?5of?5range@ 10049ecc     libcpmt:syserror.obj
 0002:00000ee0       ??_C@_0BG@MPLKFPAE@state?5not?5recoverable@ 10049ee0     libcpmt:syserror.obj
 0002:00000ef8       ??_C@_0P@DIIFGFCG@stream?5timeout@ 10049ef8     libcpmt:syserror.obj
 0002:00000f08       ??_C@_0P@IPFDMIFL@text?5file?5busy@ 10049f08     libcpmt:syserror.obj
 0002:00000f18       ??_C@_09KJPPMAOI@timed?5out@ 10049f18     libcpmt:syserror.obj
 0002:00000f24       ??_C@_0BO@HACHBEKI@too?5many?5files?5open?5in?5system@ 10049f24     libcpmt:syserror.obj
 0002:00000f44       ??_C@_0BE@GHAFMPAH@too?5many?5files?5open@ 10049f44     libcpmt:syserror.obj
 0002:00000f58       ??_C@_0P@HCOMKFCC@too?5many?5links@ 10049f58     libcpmt:syserror.obj
 0002:00000f68       ??_C@_0BO@EFGOJEF@too?5many?5symbolic?5link?5levels@ 10049f68     libcpmt:syserror.obj
 0002:00000f88       ??_C@_0BA@KGKGOOJA@value?5too?5large@ 10049f88     libcpmt:syserror.obj
 0002:00000f98       ??_C@_0BE@MIEJDDNH@wrong?5protocol?5type@ 10049f98     libcpmt:syserror.obj
 0002:00000fac       ??_C@_0O@BFJCFAAK@unknown?5error@ 10049fac     libcpmt:syserror.obj
 0002:00001004       ??_7bad_cast@std@@6B@      1004a004     libcpmt:locale.obj
 0002:00001010       ??_7?$ctype@D@std@@6B@     1004a010     libcpmt:locale.obj
 0002:00001144       ??_7_Iostream_error_category2@std@@6B@ 1004a144     libcpmt:wlocale.obj
 0002:00001160       ??_7failure@ios_base@std@@6B@ 1004a160     libcpmt:wlocale.obj
 0002:00001168       ??_C@_11LOCGONAA@@         1004a168     libcpmt:wlocale.obj
 0002:0000116c       ??_C@_13IMODFHAA@?$AA?9@   1004a16c     libcpmt:wlocale.obj
 0002:00001170       ??_C@_01JOAMLHOP@?9@       1004a170     libcpmt:wlocale.obj
 0002:00001214       ??_C@_1BK@MGMFAEKH@?$AAk?$AAe?$AAr?$AAn?$AAe?$AAl?$AA3?$AA2?$AA?4?$AAd?$AAl?$AAl@ 1004a214     libcpmt:winapisupp.obj
 0002:00001230       ??_C@_0BP@FPNJPEJC@GetSystemTimePreciseAsFileTime@ 1004a230     libcpmt:winapisupp.obj
 0002:00001250       ??_C@_0O@NNMIPI@GetTempPath2W@ 1004a250     libcpmt:winapisupp.obj
 0002:00001264       ??_7type_info@@6B@         1004a264     LIBCMT:std_type_info_static.obj
 0002:00001268       __pDefaultRawDllMain       1004a268     LIBCMT:dll_dllmain.obj
 0002:00001268       __pRawDllMain              1004a268     LIBCMT:dll_dllmain.obj
 0002:00001274       __pDestructExceptionObject 1004a274     libvcruntime:ehhelpers.obj
 0002:0000127c       ??_7bad_exception@std@@6B@ 1004a27c     libvcruntime:frame.obj
 0002:00001284       ??_C@_0O@DPKOEFFH@bad?5exception@ 1004a284     libvcruntime:frame.obj
 0002:00001620       ??_C@_08EHJDFFNH@__based?$CI@ 1004a620     libvcruntime:undname.obj
 0002:0000162c       ??_C@_07KOLFKCDI@__cdecl@  1004a62c     libvcruntime:undname.obj
 0002:00001634       ??_C@_08GHMPAG@__pascal@   1004a634     libvcruntime:undname.obj
 0002:00001640       ??_C@_09IFJBGAPI@__stdcall@ 1004a640     libvcruntime:undname.obj
 0002:0000164c       ??_C@_0L@NPHFGOKO@__thiscall@ 1004a64c     libvcruntime:undname.obj
 0002:00001658       ??_C@_0L@JMKHOMEK@__fastcall@ 1004a658     libvcruntime:undname.obj
 0002:00001664       ??_C@_0N@BCKKPABJ@__vectorcall@ 1004a664     libvcruntime:undname.obj
 0002:00001674       ??_C@_09HIJEGCPM@__clrcall@ 1004a674     libvcruntime:undname.obj
 0002:00001680       ??_C@_06GHPCKEAG@__eabi@   1004a680     libvcruntime:undname.obj
 0002:00001688       ??_C@_09IOPIDJLG@__swift_1@ 1004a688     libvcruntime:undname.obj
 0002:00001694       ??_C@_09KFNFGKHF@__swift_2@ 1004a694     libvcruntime:undname.obj
 0002:000016a0       ??_C@_09LMMOFLDE@__swift_3@ 1004a6a0     libvcruntime:undname.obj
 0002:000016ac       ??_C@_07JOMMBBKO@__ptr64@  1004a6ac     libvcruntime:undname.obj
 0002:000016b4       ??_C@_0L@PILCLIHE@__restrict@ 1004a6b4     libvcruntime:undname.obj
 0002:000016c0       ??_C@_0M@GFIIJFMG@__unaligned@ 1004a6c0     libvcruntime:undname.obj
 0002:000016cc       ??_C@_09DHDLOLLB@restrict?$CI@ 1004a6cc     libvcruntime:undname.obj
 0002:000016d8       ??_C@_04NIHEBCM@?5new@     1004a6d8     libvcruntime:undname.obj
 0002:000016e0       ??_C@_07FPCDHGMM@?5delete@ 1004a6e0     libvcruntime:undname.obj
 0002:000016e8       ??_C@_01NEMOKFLO@?$DN@     1004a6e8     libvcruntime:undname.obj
 0002:000016ec       ??_C@_02GPIOPFAK@?$DO?$DO@ 1004a6ec     libvcruntime:undname.obj
 0002:000016f0       ??_C@_02FODMEDOG@?$DM?$DM@ 1004a6f0     libvcruntime:undname.obj
 0002:000016f4       ??_C@_01DCLJPIOD@?$CB@     1004a6f4     libvcruntime:undname.obj
 0002:000016f8       ??_C@_02EGOFBIJA@?$DN?$DN@ 1004a6f8     libvcruntime:undname.obj
 0002:000016fc       ??_C@_02FDNJECIE@?$CB?$DN@ 1004a6fc     libvcruntime:undname.obj
 0002:00001700       ??_C@_02GPECMEKF@?$FL?$FN@ 1004a700     libvcruntime:undname.obj
 0002:00001704       ??_C@_08LHJFAFGD@operator@ 1004a704     libvcruntime:undname.obj
 0002:00001710       ??_C@_02HBOOOICD@?9?$DO@   1004a710     libvcruntime:undname.obj
 0002:00001714       ??_C@_02ECNGHCIF@?$CL?$CL@ 1004a714     libvcruntime:undname.obj
 0002:00001718       ??_C@_02BAABKJLB@?9?9@     1004a718     libvcruntime:undname.obj
 0002:0000171c       ??_C@_01MIFGBAGJ@?$CL@     1004a71c     libvcruntime:undname.obj
 0002:00001720       ??_C@_01HNPIGOCE@?$CG@     1004a720     libvcruntime:undname.obj
 0002:00001724       ??_C@_03MNHNFDLC@?9?$DO?$CK@ 1004a724     libvcruntime:undname.obj
 0002:00001728       ??_C@_01KMDKNFGN@?1@       1004a728     libvcruntime:undname.obj
 0002:0000172c       ??_C@_01FGNFDNOH@?$CF@     1004a72c     libvcruntime:undname.obj
 0002:00001730       ??_C@_01MNNFJEPP@?$DM@     1004a730     libvcruntime:undname.obj
 0002:00001734       ??_C@_02EHCHHCKH@?$DM?$DN@ 1004a734     libvcruntime:undname.obj
 0002:00001738       ??_C@_01PPODPGHN@?$DO@     1004a738     libvcruntime:undname.obj
 0002:0000173c       ??_C@_02EEKDKGMJ@?$DO?$DN@ 1004a73c     libvcruntime:undname.obj
 0002:00001740       ??_C@_01IHBHIGKO@?0@       1004a740     libvcruntime:undname.obj
 0002:00001744       ??_C@_02HCKGKOFO@?$CI?$CJ@ 1004a744     libvcruntime:undname.obj
 0002:00001748       ??_C@_01PJKLJHI@?$HO@      1004a748     libvcruntime:undname.obj
 0002:0000174c       ??_C@_01JKBOJNNK@?$FO@     1004a74c     libvcruntime:undname.obj
 0002:00001750       ??_C@_01DNKMNLPK@?$HM@     1004a750     libvcruntime:undname.obj
 0002:00001754       ??_C@_02PPKAJPJL@?$CG?$CG@ 1004a754     libvcruntime:undname.obj
 0002:00001758       ??_C@_02NONPIBCD@?$HM?$HM@ 1004a758     libvcruntime:undname.obj
 0002:0000175c       ??_C@_02FPIMKNGF@?$CK?$DN@ 1004a75c     libvcruntime:undname.obj
 0002:00001760       ??_C@_02FOEOMHFC@?$CL?$DN@ 1004a760     libvcruntime:undname.obj
 0002:00001764       ??_C@_02FKMDLLOA@?9?$DN@   1004a764     libvcruntime:undname.obj
 0002:00001768       ??_C@_02FJEHGPIO@?1?$DN@   1004a768     libvcruntime:undname.obj
 0002:0000176c       ??_C@_02FENAOKFI@?$CF?$DN@ 1004a76c     libvcruntime:undname.obj
 0002:00001770       ??_C@_03IKFCCPFF@?$DO?$DO?$DN@ 1004a770     libvcruntime:undname.obj
 0002:00001774       ??_C@_03CDNPDDLA@?$DM?$DM?$DN@ 1004a774     libvcruntime:undname.obj
 0002:00001778       ??_C@_02FGJGFEAB@?$CG?$DN@ 1004a778     libvcruntime:undname.obj
 0002:0000177c       ??_C@_02DHLNPPGH@?$HM?$DN@ 1004a77c     libvcruntime:undname.obj
 0002:00001780       ??_C@_02MHEGNOJ@?$FO?$DN@  1004a780     libvcruntime:undname.obj
 0002:00001784       ??_C@_09IFPLHPGF@?$GAvftable?8@ 1004a784     libvcruntime:undname.obj
 0002:00001790       ??_C@_09BLBHBJP@?$GAvbtable?8@ 1004a790     libvcruntime:undname.obj
 0002:0000179c       ??_C@_07FEEIOKP@?$GAvcall?8@ 1004a79c     libvcruntime:undname.obj
 0002:000017a4       ??_C@_08LLFFHHDJ@?$GAtypeof?8@ 1004a7a4     libvcruntime:undname.obj
 0002:000017b0       ??_C@_0BF@KDPPACIK@?$GAlocal?5static?5guard?8@ 1004a7b0     libvcruntime:undname.obj
 0002:000017c8       ??_C@_08OBABFOLI@?$GAstring?8@ 1004a7c8     libvcruntime:undname.obj
 0002:000017d4       ??_C@_0BD@JDLKDPAB@?$GAvbase?5destructor?8@ 1004a7d4     libvcruntime:undname.obj
 0002:000017e8       ??_C@_0BN@DEGPLNFK@?$GAvector?5deleting?5destructor?8@ 1004a7e8     libvcruntime:undname.obj
 0002:00001808       ??_C@_0BO@OBMKPJIG@?$GAdefault?5constructor?5closure?8@ 1004a808     libvcruntime:undname.obj
 0002:00001828       ??_C@_0BN@IMDCHIKM@?$GAscalar?5deleting?5destructor?8@ 1004a828     libvcruntime:undname.obj
 0002:00001848       ??_C@_0BO@PFGOCPJJ@?$GAvector?5constructor?5iterator?8@ 1004a848     libvcruntime:undname.obj
 0002:00001868       ??_C@_0BN@LFPFMEDL@?$GAvector?5destructor?5iterator?8@ 1004a868     libvcruntime:undname.obj
 0002:00001888       ??_C@_0CE@IKBNEHA@?$GAvector?5vbase?5constructor?5itera@ 1004a888     libvcruntime:undname.obj
 0002:000018ac       ??_C@_0BL@NILFHHPC@?$GAvirtual?5displacement?5map?8@ 1004a8ac     libvcruntime:undname.obj
 0002:000018c8       ??_C@_0CB@JONCMFFK@?$GAeh?5vector?5constructor?5iterator@ 1004a8c8     libvcruntime:undname.obj
 0002:000018ec       ??_C@_0CA@GCEOPDGL@?$GAeh?5vector?5destructor?5iterator?8@ 1004a8ec     libvcruntime:undname.obj
 0002:0000190c       ??_C@_0CH@OOJPLCPH@?$GAeh?5vector?5vbase?5constructor?5it@ 1004a90c     libvcruntime:undname.obj
 0002:00001934       ??_C@_0BL@LLKPOHJI@?$GAcopy?5constructor?5closure?8@ 1004a934     libvcruntime:undname.obj
 0002:00001950       ??_C@_0BA@KBCDOMBN@?$GAudt?5returning?8@ 1004a950     libvcruntime:undname.obj
 0002:00001960       ??_C@_03KLGMFNMG@?$GAEH@   1004a960     libvcruntime:undname.obj
 0002:00001964       ??_C@_05KHLCHHI@?$GARTTI@  1004a964     libvcruntime:undname.obj
 0002:0000196c       ??_C@_0BA@KKLDJDLB@?$GAlocal?5vftable?8@ 1004a96c     libvcruntime:undname.obj
 0002:0000197c       ??_C@_0CE@IIHCMGGL@?$GAlocal?5vftable?5constructor?5clos@ 1004a97c     libvcruntime:undname.obj
 0002:000019a0       ??_C@_06FHBGPFGH@?5new?$FL?$FN@ 1004a9a0     libvcruntime:undname.obj
 0002:000019a8       ??_C@_09LBNFPBCA@?5delete?$FL?$FN@ 1004a9a8     libvcruntime:undname.obj
 0002:000019b4       ??_C@_0P@HJKNJFNN@?$GAomni?5callsig?8@ 1004a9b4     libvcruntime:undname.obj
 0002:000019c4       ??_C@_0BL@CNOONJFP@?$GAplacement?5delete?5closure?8@ 1004a9c4     libvcruntime:undname.obj
 0002:000019e0       ??_C@_0BN@CKNJLHMB@?$GAplacement?5delete?$FL?$FN?5closure?8@ 1004a9e0     libvcruntime:undname.obj
 0002:00001a00       ??_C@_0CG@CFDHKGGD@?$GAmanaged?5vector?5constructor?5ite@ 1004aa00     libvcruntime:undname.obj
 0002:00001a28       ??_C@_0CF@IMGKMJNO@?$GAmanaged?5vector?5destructor?5iter@ 1004aa28     libvcruntime:undname.obj
 0002:00001a50       ??_C@_0CG@HLDDJMAG@?$GAeh?5vector?5copy?5constructor?5ite@ 1004aa50     libvcruntime:undname.obj
 0002:00001a78       ??_C@_0CM@FCBBDIGB@?$GAeh?5vector?5vbase?5copy?5construct@ 1004aa78     libvcruntime:undname.obj
 0002:00001aa4       ??_C@_0BL@CLIPGLGB@?$GAdynamic?5initializer?5for?5?8@ 1004aaa4     libvcruntime:undname.obj
 0002:00001ac0       ??_C@_0CB@PDBIFEP@?$GAdynamic?5atexit?5destructor?5for?5@ 1004aac0     libvcruntime:undname.obj
 0002:00001ae4       ??_C@_0CD@CGAJBKEJ@?$GAvector?5copy?5constructor?5iterat@ 1004aae4     libvcruntime:undname.obj
 0002:00001b08       ??_C@_0CJ@GJELGAMM@?$GAvector?5vbase?5copy?5constructor?5@ 1004ab08     libvcruntime:undname.obj
 0002:00001b34       ??_C@_0CL@FGIJHLCE@?$GAmanaged?5vector?5copy?5constructo@ 1004ab34     libvcruntime:undname.obj
 0002:00001b60       ??_C@_0BM@PMGGMLDN@?$GAlocal?5static?5thread?5guard?8@ 1004ab60     libvcruntime:undname.obj
 0002:00001b7c       ??_C@_0N@BDNMDMOL@operator?5?$CC?$CC?5@ 1004ab7c     libvcruntime:undname.obj
 0002:00001b8c       ??_C@_0BC@GGEBGALA@operator?5co_await@ 1004ab8c     libvcruntime:undname.obj
 0002:00001ba0       ??_C@_0M@GAAIMMOH@operator?$DM?$DN?$DO@ 1004aba0     libvcruntime:undname.obj
 0002:00001bac       ??_C@_0BC@DAFEJGAK@?5Type?5Descriptor?8@ 1004abac     libvcruntime:undname.obj
 0002:00001bc0       ??_C@_0BM@LDKODKLH@?5Base?5Class?5Descriptor?5at?5?$CI@ 1004abc0     libvcruntime:undname.obj
 0002:00001bdc       ??_C@_0BD@LGICGFMM@?5Base?5Class?5Array?8@ 1004abdc     libvcruntime:undname.obj
 0002:00001bf0       ??_C@_0BN@MECKDCOJ@?5Class?5Hierarchy?5Descriptor?8@ 1004abf0     libvcruntime:undname.obj
 0002:00001c10       ??_C@_0BK@CFCOFLF@?5Complete?5Object?5Locator?8@ 1004ac10     libvcruntime:undname.obj
 0002:00001c2c       ??_C@_0BG@JNJLAMPM@?$GAanonymous?5namespace?8@ 1004ac2c     libvcruntime:undname.obj
 0002:00001c50       ??_C@_1DM@KHCHBNEB@?$AAa?$AAp?$AAi?$AA?9?$AAm?$AAs?$AA?9?$AAw?$AAi?$AAn?$AA?9?$AAc?$AAo?$AAr?$AAe@ 1004ac50     libvcruntime:winapi_downlevel.obj
 0002:00001c8c       ??_C@_1DK@LPPGFMPP@?$AAa?$AAp?$AAi?$AA?9?$AAm?$AAs?$AA?9?$AAw?$AAi?$AAn?$AA?9?$AAc?$AAo?$AAr?$AAe@ 1004ac8c     libvcruntime:winapi_downlevel.obj
 0002:00001cc8       ??_C@_1BC@GDMECMAK@?$AAk?$AAe?$AAr?$AAn?$AAe?$AAl?$AA3?$AA2@ 1004acc8     libvcruntime:winapi_downlevel.obj
 0002:00001cdc       ??_C@_1BA@PFFKHIOG@?$AAa?$AAp?$AAi?$AA?9?$AAm?$AAs?$AA?9@ 1004acdc     libvcruntime:winapi_downlevel.obj
 0002:00001cf4       ??_C@_08KNHFBNJ@FlsAlloc@  1004acf4     libvcruntime:winapi_downlevel.obj
 0002:00001d08       ??_C@_07PEJMOBNF@FlsFree@  1004ad08     libvcruntime:winapi_downlevel.obj
 0002:00001d18       ??_C@_0M@GDNOONDI@FlsGetValue@ 1004ad18     libvcruntime:winapi_downlevel.obj
 0002:00001d2c       ??_C@_0M@JCPCPOEF@FlsSetValue@ 1004ad2c     libvcruntime:winapi_downlevel.obj
 0002:00001d40       ??_C@_0BM@HCFOFFN@InitializeCriticalSectionEx@ 1004ad40     libvcruntime:winapi_downlevel.obj
 0002:00001d60       ?standard_lookup_table_spectre@__crt_stdio_output@@3V?$spectre_mitigated_lookup_table@Ustate_transition_pair@__crt_stdio_output@@$0IA@@1@B 1004ad60     libucrt:output.obj
 0002:00002160       ?format_validation_lookup_table_spectre@__crt_stdio_output@@3V?$spectre_mitigated_lookup_table@Ustate_transition_pair@__crt_stdio_output@@$0IA@@1@B 1004b160     libucrt:output.obj
 0002:00002560       ??_C@_1O@CEDCILHN@?$AA?$CI?$AAn?$AAu?$AAl?$AAl?$AA?$CJ@ 1004b560     libucrt:output.obj
 0002:00002570       ??_C@_06OJHGLDPL@?$CInull?$CJ@ 1004b570     libucrt:output.obj
 0002:00002578       ?large_power_data@?1??multiply_by_power_of_ten@__crt_strtox@@YA_NAAUbig_integer@2@I@Z@4QBIB 1004b578     libucrt:atof.obj
 0002:00002e80       ?large_power_indices@?1??multiply_by_power_of_ten@__crt_strtox@@YA_NAAUbig_integer@2@I@Z@4QBUunpack_index@?1??12@YA_N0I@Z@B 1004be80     libucrt:atof.obj
 0002:00002f18       ?small_powers_of_ten@?1??multiply_by_power_of_ten@__crt_strtox@@YA_NAAUbig_integer@2@I@Z@4QBIB 1004bf18     libucrt:atof.obj
 0002:00002f40       ??_C@_1GE@DPGDJKLM@?$AAm?$AAi?$AAn?$AAk?$AAe?$AAr?$AAn?$AAe?$AAl?$AA?2?$AAc?$AAr?$AAt?$AAs?$AA?2@ 1004bf40     libucrt:atof.obj
 0002:00002fa8       ??_C@_1FM@FELNCOBF@?$AA_?$AA_?$AAc?$AAr?$AAt?$AA_?$AAs?$AAt?$AAr?$AAt?$AAo?$AAx?$AA?3?$AA?3?$AAf@ 1004bfa8     libucrt:atof.obj
 0002:00003004       ??_C@_1BG@GEMHBGAF@?$AA_?$AAi?$AAs?$AA_?$AAd?$AAo?$AAu?$AAb?$AAl?$AAe@ 1004c004     libucrt:atof.obj
 0002:00003020       ??_C@_1FK@JOJELFFO@?$AA_?$AA_?$AAc?$AAr?$AAt?$AA_?$AAs?$AAt?$AAr?$AAt?$AAo?$AAx?$AA?3?$AA?3?$AAf@ 1004c020     libucrt:atof.obj
 0002:0000307c       ??_C@_1BI@BANMPGJI@?$AA?$CB?$AA_?$AAi?$AAs?$AA_?$AAd?$AAo?$AAu?$AAb?$AAl?$AAe@ 1004c07c     libucrt:atof.obj
 0002:00003094       ?inf_uppercase@?1???$parse_floating_point_possible_infinity@DV?$c_string_character_source@D@__crt_strtox@@PBD@__crt_strtox@@YA?AW4floating_point_parse_result@1@AADAAV?$c_string_character_source@D@1@PBD@Z@4QBDB 1004c094     libucrt:atof.obj
 0002:00003098       ?inf_lowercase@?1???$parse_floating_point_possible_infinity@DV?$c_string_character_source@D@__crt_strtox@@PBD@__crt_strtox@@YA?AW4floating_point_parse_result@1@AADAAV?$c_string_character_source@D@1@PBD@Z@4QBDB 1004c098     libucrt:atof.obj
 0002:0000309c       ?inity_uppercase@?1???$parse_floating_point_possible_infinity@DV?$c_string_character_source@D@__crt_strtox@@PBD@__crt_strtox@@YA?AW4floating_point_parse_result@1@AADAAV?$c_string_character_source@D@1@PBD@Z@4QBDB 1004c09c     libucrt:atof.obj
 0002:000030a4       ?inity_lowercase@?1???$parse_floating_point_possible_infinity@DV?$c_string_character_source@D@__crt_strtox@@PBD@__crt_strtox@@YA?AW4floating_point_parse_result@1@AADAAV?$c_string_character_source@D@1@PBD@Z@4QBDB 1004c0a4     libucrt:atof.obj
 0002:000030ac       ?uppercase@?1???$parse_floating_point_possible_nan@DV?$c_string_character_source@D@__crt_strtox@@PBD@__crt_strtox@@YA?AW4floating_point_parse_result@1@AADAAV?$c_string_character_source@D@1@PBD@Z@4QBDB 1004c0ac     libucrt:atof.obj
 0002:000030b0       ?lowercase@?1???$parse_floating_point_possible_nan@DV?$c_string_character_source@D@__crt_strtox@@PBD@__crt_strtox@@YA?AW4floating_point_parse_result@1@AADAAV?$c_string_character_source@D@1@PBD@Z@4QBDB 1004c0b0     libucrt:atof.obj
 0002:000030b4       ?uppercase@?1???$parse_floating_point_possible_nan_is_snan@DV?$c_string_character_source@D@__crt_strtox@@@__crt_strtox@@YA_NAADAAV?$c_string_character_source@D@1@@Z@4QBDB 1004c0b4     libucrt:atof.obj
 0002:000030bc       ?lowercase@?1???$parse_floating_point_possible_nan_is_snan@DV?$c_string_character_source@D@__crt_strtox@@@__crt_strtox@@YA_NAADAAV?$c_string_character_source@D@1@@Z@4QBDB 1004c0bc     libucrt:atof.obj
 0002:000030c4       ?uppercase@?1???$parse_floating_point_possible_nan_is_ind@DV?$c_string_character_source@D@__crt_strtox@@@__crt_strtox@@YA_NAADAAV?$c_string_character_source@D@1@@Z@4QBDB 1004c0c4     libucrt:atof.obj
 0002:000030c8       ?lowercase@?1???$parse_floating_point_possible_nan_is_ind@DV?$c_string_character_source@D@__crt_strtox@@@__crt_strtox@@YA_NAADAAV?$c_string_character_source@D@1@@Z@4QBDB 1004c0c8     libucrt:atof.obj
 0002:000030d0       ___newctype                1004c0d0     libucrt:ctype.obj
 0002:000033d0       ___newclmap                1004c3d0     libucrt:ctype.obj
 0002:00003550       ___newcumap                1004c550     libucrt:ctype.obj
 0002:000036d0       __wctype                   1004c6d0     libucrt:ctype.obj
 0002:00003a40       ___acrt_exception_action_table 1004ca40     libucrt:exception_filter.obj
 0002:00003ad0       ___acrt_signal_action_table_count 1004cad0     libucrt:exception_filter.obj
 0002:00003ad4       ___acrt_signal_action_first_fpe_index 1004cad4     libucrt:exception_filter.obj
 0002:00003ad8       ___acrt_signal_action_fpe_count 1004cad8     libucrt:exception_filter.obj
 0002:00003adc       ??_C@_1BI@BGOHAHKC@?$AAm?$AAs?$AAc?$AAo?$AAr?$AAe?$AAe?$AA?4?$AAd?$AAl?$AAl@ 1004cadc     libucrt:exit.obj
 0002:00003af4       ??_C@_0P@MIGLKIOC@CorExitProcess@ 1004caf4     libucrt:exit.obj
 0002:00003bc8       ??_C@_03OEIAHPBN@INF@      1004cbc8     libucrt:cvt.obj
 0002:00003bcc       ??_C@_03OJHLLCGB@inf@      1004cbcc     libucrt:cvt.obj
 0002:00003bd0       ??_C@_03LKNCIKJB@NAN@      1004cbd0     libucrt:cvt.obj
 0002:00003bd4       ??_C@_03LHCJEHON@nan@      1004cbd4     libucrt:cvt.obj
 0002:00003bd8       ??_C@_09OFJJIMPC@NAN?$CISNAN?$CJ@ 1004cbd8     libucrt:cvt.obj
 0002:00003be4       ??_C@_09IPFBKMDL@nan?$CIsnan?$CJ@ 1004cbe4     libucrt:cvt.obj
 0002:00003bf0       ??_C@_08IKHNHAJ@NAN?$CIIND?$CJ@ 1004cbf0     libucrt:cvt.obj
 0002:00003bfc       ??_C@_08OFCDMILK@nan?$CIind?$CJ@ 1004cbfc     libucrt:cvt.obj
 0002:00003c08       ??_C@_05KLBDPFGC@e?$CL000@ 1004cc08     libucrt:cvt.obj
 0002:00003c90       ___lc_category             1004cc90     libucrt:wsetlocale.obj
 0002:00003cd8       ??_C@_1O@GIFLHMA@?$AAL?$AAC?$AA_?$AAA?$AAL?$AAL@ 1004ccd8     libucrt:wsetlocale.obj
 0002:00003ce8       ??_C@_1BG@PPOMIBNJ@?$AAL?$AAC?$AA_?$AAC?$AAO?$AAL?$AAL?$AAA?$AAT?$AAE@ 1004cce8     libucrt:wsetlocale.obj
 0002:00003d00       ??_C@_1BC@FFJGAPJM@?$AAL?$AAC?$AA_?$AAC?$AAT?$AAY?$AAP?$AAE@ 1004cd00     libucrt:wsetlocale.obj
 0002:00003d14       ??_C@_1BI@PCKFNJFB@?$AAL?$AAC?$AA_?$AAM?$AAO?$AAN?$AAE?$AAT?$AAA?$AAR?$AAY@ 1004cd14     libucrt:wsetlocale.obj
 0002:00003d2c       ??_C@_1BG@ENIEDKID@?$AAL?$AAC?$AA_?$AAN?$AAU?$AAM?$AAE?$AAR?$AAI?$AAC@ 1004cd2c     libucrt:wsetlocale.obj
 0002:00003d44       ??_C@_1BA@HAAOMIIG@?$AAL?$AAC?$AA_?$AAT?$AAI?$AAM?$AAE@ 1004cd44     libucrt:wsetlocale.obj
 0002:00003d54       ??_C@_15NBPDDFIP@?$AA?$DN?$AA?$DL@ 1004cd54     libucrt:wsetlocale.obj
 0002:00003d5c       ??_C@_13PJJBFPED@?$AA?$DL@ 1004cd5c     libucrt:wsetlocale.obj
 0002:00003d60       ??_C@_13NMPKAAJP@?$AA?$DN@ 1004cd60     libucrt:wsetlocale.obj
 0002:00003d64       ??_C@_17EFJLDFDO@?$AA?9?$AA_?$AA?4@ 1004cd64     libucrt:wsetlocale.obj
 0002:00003d6c       ??_C@_13FHBKNHDA@?$AAC@    1004cd6c     libucrt:wsetlocale.obj
 0002:00003d70       ??_C@_17MBJJLFDM@?$AA_?$AA?4?$AA?0@ 1004cd70     libucrt:wsetlocale.obj
 0002:00003d78       ??_C@_13ENNFDPBH@?$AA_@    1004cd78     libucrt:wsetlocale.obj
 0002:00003d7c       ??_C@_13JOFGPIOO@?$AA?4@   1004cd7c     libucrt:wsetlocale.obj
 0002:00003d80       ___lc_time_c               1004cd80     libucrt:nlsdata.obj
 0002:00003ee4       ??_C@_03KOEHGMDN@Sun@      1004cee4     libucrt:nlsdata.obj
 0002:00003ee8       ??_C@_03PDAGKDH@Mon@       1004cee8     libucrt:nlsdata.obj
 0002:00003eec       ??_C@_03NAGEINEP@Tue@      1004ceec     libucrt:nlsdata.obj
 0002:00003ef0       ??_C@_03MHOMLAJA@Wed@      1004cef0     libucrt:nlsdata.obj
 0002:00003ef4       ??_C@_03IOFIKPDN@Thu@      1004cef4     libucrt:nlsdata.obj
 0002:00003ef8       ??_C@_03IDIOELNC@Fri@      1004cef8     libucrt:nlsdata.obj
 0002:00003efc       ??_C@_03FEFJNEK@Sat@       1004cefc     libucrt:nlsdata.obj
 0002:00003f00       ??_C@_06OOPIFAJ@Sunday@    1004cf00     libucrt:nlsdata.obj
 0002:00003f08       ??_C@_06JLEDEDGH@Monday@   1004cf08     libucrt:nlsdata.obj
 0002:00003f10       ??_C@_07BAAGCFCM@Tuesday@  1004cf10     libucrt:nlsdata.obj
 0002:00003f18       ??_C@_09DLIGFAKA@Wednesday@ 1004cf18     libucrt:nlsdata.obj
 0002:00003f24       ??_C@_08HACCIKIA@Thursday@ 1004cf24     libucrt:nlsdata.obj
 0002:00003f30       ??_C@_06JECMNKMI@Friday@   1004cf30     libucrt:nlsdata.obj
 0002:00003f38       ??_C@_08INBOOONO@Saturday@ 1004cf38     libucrt:nlsdata.obj
 0002:00003f44       ??_C@_03JIHJHPIE@Jan@      1004cf44     libucrt:nlsdata.obj
 0002:00003f48       ??_C@_03HJBDCHOM@Feb@      1004cf48     libucrt:nlsdata.obj
 0002:00003f4c       ??_C@_03ODNJBKGA@Mar@      1004cf4c     libucrt:nlsdata.obj
 0002:00003f50       ??_C@_03LEOLGMJP@Apr@      1004cf50     libucrt:nlsdata.obj
 0002:00003f54       ??_C@_03CNMDKL@May@        1004cf54     libucrt:nlsdata.obj
 0002:00003f58       ??_C@_03IDFGHECI@Jun@      1004cf58     libucrt:nlsdata.obj
 0002:00003f5c       ??_C@_03LBGABGKK@Jul@      1004cf5c     libucrt:nlsdata.obj
 0002:00003f60       ??_C@_03IFJFEIGA@Aug@      1004cf60     libucrt:nlsdata.obj
 0002:00003f64       ??_C@_03GGCAPAJC@Sep@      1004cf64     libucrt:nlsdata.obj
 0002:00003f68       ??_C@_03BMAOKBAD@Oct@      1004cf68     libucrt:nlsdata.obj
 0002:00003f6c       ??_C@_03JPJOFNIA@Nov@      1004cf6c     libucrt:nlsdata.obj
 0002:00003f70       ??_C@_03MKABNOCG@Dec@      1004cf70     libucrt:nlsdata.obj
 0002:00003f74       ??_C@_07CGJPFGJA@January@  1004cf74     libucrt:nlsdata.obj
 0002:00003f7c       ??_C@_08GNJGEPFN@February@ 1004cf7c     libucrt:nlsdata.obj
 0002:00003f88       ??_C@_05HPCKOFNC@March@    1004cf88     libucrt:nlsdata.obj
 0002:00003f90       ??_C@_05DMJDNLEJ@April@    1004cf90     libucrt:nlsdata.obj
 0002:00003f98       ??_C@_04CNLMGBGM@June@     1004cf98     libucrt:nlsdata.obj
 0002:00003fa0       ??_C@_04MIEPOIFP@July@     1004cfa0     libucrt:nlsdata.obj
 0002:00003fa8       ??_C@_06LBBHFDDG@August@   1004cfa8     libucrt:nlsdata.obj
 0002:00003fb0       ??_C@_09BHHEALKD@September@ 1004cfb0     libucrt:nlsdata.obj
 0002:00003fbc       ??_C@_07JJNFCEND@October@  1004cfbc     libucrt:nlsdata.obj
 0002:00003fc4       ??_C@_08HCHEGEOA@November@ 1004cfc4     libucrt:nlsdata.obj
 0002:00003fd0       ??_C@_08EDHMEBNP@December@ 1004cfd0     libucrt:nlsdata.obj
 0002:00003fdc       ??_C@_02DEDBPAFC@AM@       1004cfdc     libucrt:nlsdata.obj
 0002:00003fe0       ??_C@_02CJNFDJBF@PM@       1004cfe0     libucrt:nlsdata.obj
 0002:00003fe4       ??_C@_08BPBNCDIB@MM?1dd?1yy@ 1004cfe4     libucrt:nlsdata.obj
 0002:00003ff0       ??_C@_0BE@CKGJFCPC@dddd?0?5MMMM?5dd?0?5yyyy@ 1004cff0     libucrt:nlsdata.obj
 0002:00004004       ??_C@_08JCCMCCIL@HH?3mm?3ss@ 1004d004     libucrt:nlsdata.obj
 0002:00004010       ??_C@_17MBGCMIPB@?$AAS?$AAu?$AAn@ 1004d010     libucrt:nlsdata.obj
 0002:00004018       ??_C@_17KBOMKBF@?$AAM?$AAo?$AAn@ 1004d018     libucrt:nlsdata.obj
 0002:00004020       ??_C@_17BMKGEGOJ@?$AAT?$AAu?$AAe@ 1004d020     libucrt:nlsdata.obj
 0002:00004028       ??_C@_17CJEDCEPE@?$AAW?$AAe?$AAd@ 1004d028     libucrt:nlsdata.obj
 0002:00004030       ??_C@_17PDPHAADD@?$AAT?$AAh?$AAu@ 1004d030     libucrt:nlsdata.obj
 0002:00004038       ??_C@_17HFOLPPLP@?$AAF?$AAr?$AAi@ 1004d038     libucrt:nlsdata.obj
 0002:00004040       ??_C@_17GGIBDPIH@?$AAS?$AAa?$AAt@ 1004d040     libucrt:nlsdata.obj
 0002:00004048       ??_C@_1O@IHNHDHPB@?$AAS?$AAu?$AAn?$AAd?$AAa?$AAy@ 1004d048     libucrt:nlsdata.obj
 0002:00004058       ??_C@_1O@MMNBFLIA@?$AAM?$AAo?$AAn?$AAd?$AAa?$AAy@ 1004d058     libucrt:nlsdata.obj
 0002:00004068       ??_C@_1BA@ENFBFFEK@?$AAT?$AAu?$AAe?$AAs?$AAd?$AAa?$AAy@ 1004d068     libucrt:nlsdata.obj
 0002:00004078       ??_C@_1BE@EBOGMDOH@?$AAW?$AAe?$AAd?$AAn?$AAe?$AAs?$AAd?$AAa?$AAy@ 1004d078     libucrt:nlsdata.obj
 0002:0000408c       ??_C@_1BC@HHMNLIHE@?$AAT?$AAh?$AAu?$AAr?$AAs?$AAd?$AAa?$AAy@ 1004d08c     libucrt:nlsdata.obj
 0002:000040a0       ??_C@_1O@PDICJHAG@?$AAF?$AAr?$AAi?$AAd?$AAa?$AAy@ 1004d0a0     libucrt:nlsdata.obj
 0002:000040b0       ??_C@_1BC@ENMNNPAJ@?$AAS?$AAa?$AAt?$AAu?$AAr?$AAd?$AAa?$AAy@ 1004d0b0     libucrt:nlsdata.obj
 0002:000040c4       ??_C@_17DKNBKCHM@?$AAJ?$AAa?$AAn@ 1004d0c4     libucrt:nlsdata.obj
 0002:000040cc       ??_C@_17LMDJEKJN@?$AAF?$AAe?$AAb@ 1004d0cc     libucrt:nlsdata.obj
 0002:000040d4       ??_C@_17CKNLEDEC@?$AAM?$AAa?$AAr@ 1004d0d4     libucrt:nlsdata.obj
 0002:000040dc       ??_C@_17LFPOIHDD@?$AAA?$AAp?$AAr@ 1004d0dc     libucrt:nlsdata.obj
 0002:000040e4       ??_C@_17PNNKMEED@?$AAM?$AAa?$AAy@ 1004d0e4     libucrt:nlsdata.obj
 0002:000040ec       ??_C@_17KCJGOCPB@?$AAJ?$AAu?$AAn@ 1004d0ec     libucrt:nlsdata.obj
 0002:000040f4       ??_C@_17IJPCKHK@?$AAJ?$AAu?$AAl@ 1004d0f4     libucrt:nlsdata.obj
 0002:000040fc       ??_C@_17ICPELBCN@?$AAA?$AAu?$AAg@ 1004d0fc     libucrt:nlsdata.obj
 0002:00004104       ??_C@_17HCHCOKMG@?$AAS?$AAe?$AAp@ 1004d104     libucrt:nlsdata.obj
 0002:0000410c       ??_C@_17FNLKOI@?$AAO?$AAc?$AAt@ 1004d10c     libucrt:nlsdata.obj
 0002:00004114       ??_C@_17BBDMLCIG@?$AAN?$AAo?$AAv@ 1004d114     libucrt:nlsdata.obj
 0002:0000411c       ??_C@_17EGKACKIF@?$AAD?$AAe?$AAc@ 1004d11c     libucrt:nlsdata.obj
 0002:00004124       ??_C@_1BA@EFMEIEBA@?$AAJ?$AAa?$AAn?$AAu?$AAa?$AAr?$AAy@ 1004d124     libucrt:nlsdata.obj
 0002:00004134       ??_C@_1BC@JGDDFFAM@?$AAF?$AAe?$AAb?$AAr?$AAu?$AAa?$AAr?$AAy@ 1004d134     libucrt:nlsdata.obj
 0002:00004148       ??_C@_1M@IKEENEDF@?$AAM?$AAa?$AAr?$AAc?$AAh@ 1004d148     libucrt:nlsdata.obj
 0002:00004154       ??_C@_1M@GJNLMHFD@?$AAA?$AAp?$AAr?$AAi?$AAl@ 1004d154     libucrt:nlsdata.obj
 0002:00004160       ??_C@_19EPFLPGAP@?$AAJ?$AAu?$AAn?$AAe@ 1004d160     libucrt:nlsdata.obj
 0002:0000416c       ??_C@_19BIFMLPCD@?$AAJ?$AAu?$AAl?$AAy@ 1004d16c     libucrt:nlsdata.obj
 0002:00004178       ??_C@_1O@PAHLKOAC@?$AAA?$AAu?$AAg?$AAu?$AAs?$AAt@ 1004d178     libucrt:nlsdata.obj
 0002:00004188       ??_C@_1BE@DKAAMBJL@?$AAS?$AAe?$AAp?$AAt?$AAe?$AAm?$AAb?$AAe?$AAr@ 1004d188     libucrt:nlsdata.obj
 0002:0000419c       ??_C@_1BA@EPANDLNG@?$AAO?$AAc?$AAt?$AAo?$AAb?$AAe?$AAr@ 1004d19c     libucrt:nlsdata.obj
 0002:000041ac       ??_C@_1BC@BGLIFPF@?$AAN?$AAo?$AAv?$AAe?$AAm?$AAb?$AAe?$AAr@ 1004d1ac     libucrt:nlsdata.obj
 0002:000041c0       ??_C@_1BC@FEMKIFH@?$AAD?$AAe?$AAc?$AAe?$AAm?$AAb?$AAe?$AAr@ 1004d1c0     libucrt:nlsdata.obj
 0002:000041d4       ??_C@_15ODEHAHHF@?$AAA?$AAM@ 1004d1d4     libucrt:nlsdata.obj
 0002:000041dc       ??_C@_15CLMNNGEL@?$AAP?$AAM@ 1004d1dc     libucrt:nlsdata.obj
 0002:000041e4       ??_C@_1BC@IEBCMHCM@?$AAM?$AAM?$AA?1?$AAd?$AAd?$AA?1?$AAy?$AAy@ 1004d1e4     libucrt:nlsdata.obj
 0002:000041f8       ??_C@_1CI@KNAKOEBC@?$AAd?$AAd?$AAd?$AAd?$AA?0?$AA?5?$AAM?$AAM?$AAM?$AAM?$AA?5?$AAd?$AAd?$AA?0?$AA?5@ 1004d1f8     libucrt:nlsdata.obj
 0002:00004220       ??_C@_1BC@GDGBMEMK@?$AAH?$AAH?$AA?3?$AAm?$AAm?$AA?3?$AAs?$AAs@ 1004d220     libucrt:nlsdata.obj
 0002:00004234       ??_C@_1M@BMHNFIME@?$AAe?$AAn?$AA?9?$AAU?$AAS@ 1004d234     libucrt:nlsdata.obj
 0002:00004290       ??_C@_1EA@JGEFHKEI@?$AAa?$AAp?$AAi?$AA?9?$AAm?$AAs?$AA?9?$AAw?$AAi?$AAn?$AA?9?$AAc?$AAo?$AAr?$AAe@ 1004d290     libucrt:winapi_thunks.obj
 0002:000042d0       ??_C@_1DI@IJCEHOCB@?$AAa?$AAp?$AAi?$AA?9?$AAm?$AAs?$AA?9?$AAw?$AAi?$AAn?$AA?9?$AAc?$AAo?$AAr?$AAe@ 1004d2d0     libucrt:winapi_thunks.obj
 0002:00004308       ??_C@_1EI@MPIAOHOC@?$AAa?$AAp?$AAi?$AA?9?$AAm?$AAs?$AA?9?$AAw?$AAi?$AAn?$AA?9?$AAc?$AAo?$AAr?$AAe@ 1004d308     libucrt:winapi_thunks.obj
 0002:00004350       ??_C@_1FK@FPHCKFIE@?$AAa?$AAp?$AAi?$AA?9?$AAm?$AAs?$AA?9?$AAw?$AAi?$AAn?$AA?9?$AAc?$AAo?$AAr?$AAe@ 1004d350     libucrt:winapi_thunks.obj
 0002:000043b0       ??_C@_1EM@DILCGIIO@?$AAa?$AAp?$AAi?$AA?9?$AAm?$AAs?$AA?9?$AAw?$AAi?$AAn?$AA?9?$AAc?$AAo?$AAr?$AAe@ 1004d3b0     libucrt:winapi_thunks.obj
 0002:000043fc       ??_C@_1DM@LNCGDDPN@?$AAa?$AAp?$AAi?$AA?9?$AAm?$AAs?$AA?9?$AAw?$AAi?$AAn?$AA?9?$AAc?$AAo?$AAr?$AAe@ 1004d3fc     libucrt:winapi_thunks.obj
 0002:00004438       ??_C@_1DO@FPAPJEMD@?$AAa?$AAp?$AAi?$AA?9?$AAm?$AAs?$AA?9?$AAw?$AAi?$AAn?$AA?9?$AAc?$AAo?$AAr?$AAe@ 1004d438     libucrt:winapi_thunks.obj
 0002:00004478       ??_C@_1DK@NDHNAHIO@?$AAa?$AAp?$AAi?$AA?9?$AAm?$AAs?$AA?9?$AAw?$AAi?$AAn?$AA?9?$AAc?$AAo?$AAr?$AAe@ 1004d478     libucrt:winapi_thunks.obj
 0002:000044b4       ??_C@_1DM@KGHDGBCM@?$AAa?$AAp?$AAi?$AA?9?$AAm?$AAs?$AA?9?$AAw?$AAi?$AAn?$AA?9?$AAc?$AAo?$AAr?$AAe@ 1004d4b4     libucrt:winapi_thunks.obj
 0002:000044f0       ??_C@_1EO@IJIOEFOH@?$AAa?$AAp?$AAi?$AA?9?$AAm?$AAs?$AA?9?$AAw?$AAi?$AAn?$AA?9?$AAr?$AAt?$AAc?$AAo@ 1004d4f0     libucrt:winapi_thunks.obj
 0002:00004540       ??_C@_1FG@HHGEKANL@?$AAa?$AAp?$AAi?$AA?9?$AAm?$AAs?$AA?9?$AAw?$AAi?$AAn?$AA?9?$AAs?$AAe?$AAc?$AAu@ 1004d540     libucrt:winapi_thunks.obj
 0002:00004598       ??_C@_1EG@DBIOJECG@?$AAe?$AAx?$AAt?$AA?9?$AAm?$AAs?$AA?9?$AAw?$AAi?$AAn?$AA?9?$AAn?$AAt?$AAu?$AAs@ 1004d598     libucrt:winapi_thunks.obj
 0002:000045e0       ??_C@_1EO@FIHMJCLF@?$AAe?$AAx?$AAt?$AA?9?$AAm?$AAs?$AA?9?$AAw?$AAi?$AAn?$AA?9?$AAn?$AAt?$AAu?$AAs@ 1004d5e0     libucrt:winapi_thunks.obj
 0002:00004630       ??_C@_1BC@DNHGCMLG@?$AAa?$AAd?$AAv?$AAa?$AAp?$AAi?$AA3?$AA2@ 1004d630     libucrt:winapi_thunks.obj
 0002:00004644       ??_C@_1M@OAIMIKLP@?$AAn?$AAt?$AAd?$AAl?$AAl@ 1004d644     libucrt:winapi_thunks.obj
 0002:00004650       ??_C@_1EG@DPGNFKGC@?$AAa?$AAp?$AAi?$AA?9?$AAm?$AAs?$AA?9?$AAw?$AAi?$AAn?$AA?9?$AAa?$AAp?$AAp?$AAm@ 1004d650     libucrt:winapi_thunks.obj
 0002:00004698       ??_C@_1O@BCCLBEOE@?$AAu?$AAs?$AAe?$AAr?$AA3?$AA2@ 1004d698     libucrt:winapi_thunks.obj
 0002:000046a8       ??_C@_1BA@IAIFMGEF@?$AAe?$AAx?$AAt?$AA?9?$AAm?$AAs?$AA?9@ 1004d6a8     libucrt:winapi_thunks.obj
 0002:000046bc       ??_C@_0BA@FHFNEAED@AreFileApisANSI@ 1004d6bc     libucrt:winapi_thunks.obj
 0002:000046d4       ??_C@_0BA@IHGNDAEB@CompareStringEx@ 1004d6d4     libucrt:winapi_thunks.obj
 0002:000046ec       ??_C@_0BE@LJANKFHF@EnumSystemLocalesEx@ 1004d6ec     libucrt:winapi_thunks.obj
 0002:00004728       ??_C@_0BA@EPCJIIPD@GetDateFormatEx@ 1004d728     libucrt:winapi_thunks.obj
 0002:00004740       ??_C@_0BA@ONOKGCMP@GetLocaleInfoEx@ 1004d740     libucrt:winapi_thunks.obj
 0002:00004758       ??_C@_0BA@CIJJKCJJ@GetTimeFormatEx@ 1004d758     libucrt:winapi_thunks.obj
 0002:00004770       ??_C@_0BJ@PBCCBIPI@GetUserDefaultLocaleName@ 1004d770     libucrt:winapi_thunks.obj
 0002:0000479c       ??_C@_0BC@CELBKLLA@IsValidLocaleName@ 1004d79c     libucrt:winapi_thunks.obj
 0002:000047b8       ??_C@_0O@KKBNKAPF@LCMapStringEx@ 1004d7b8     libucrt:winapi_thunks.obj
 0002:000047d0       ??_C@_0BB@CDHDDLLP@LCIDToLocaleName@ 1004d7d0     libucrt:winapi_thunks.obj
 0002:000047ec       ??_C@_0BB@HBDEELFH@LocaleNameToLCID@ 1004d7ec     libucrt:winapi_thunks.obj
 0002:00004804       ??_C@_0N@PPOMPGGK@RoInitialize@ 1004d804     libucrt:winapi_thunks.obj
 0002:00004818       ??_C@_0P@LLFHBIJD@RoUninitialize@ 1004d818     libucrt:winapi_thunks.obj
 0002:0000482c       ??_C@_0CF@OJOFEIGO@AppPolicyGetProcessTerminationM@ 1004d82c     libucrt:winapi_thunks.obj
 0002:00004858       ??_C@_0CF@NNDFDCOC@AppPolicyGetThreadInitializatio@ 1004d858     libucrt:winapi_thunks.obj
 0002:00004968       ??_C@_03KHJOGHMM@exp@      1004d968     libucrt:fpexcept.obj
 0002:0000496c       ??_C@_03JGHBODFD@pow@      1004d96c     libucrt:fpexcept.obj
 0002:00004970       ??_C@_03MGHMBJCF@log@      1004d970     libucrt:fpexcept.obj
 0002:00004974       ??_C@_05HGHHAHAP@log10@    1004d974     libucrt:fpexcept.obj
 0002:0000497c       ??_C@_04COOMCNPB@sinh@     1004d97c     libucrt:fpexcept.obj
 0002:00004984       ??_C@_04HPJJNFIM@cosh@     1004d984     libucrt:fpexcept.obj
 0002:0000498c       ??_C@_04FJHINJAO@tanh@     1004d98c     libucrt:fpexcept.obj
 0002:00004994       ??_C@_04FIHNOPOL@asin@     1004d994     libucrt:fpexcept.obj
 0002:0000499c       ??_C@_04PDIFKINK@acos@     1004d99c     libucrt:fpexcept.obj
 0002:000049a4       ??_C@_04MLLJIGOK@atan@     1004d9a4     libucrt:fpexcept.obj
 0002:000049ac       ??_C@_05KNGEOGJB@atan2@    1004d9ac     libucrt:fpexcept.obj
 0002:000049b4       ??_C@_04EIAKFFMI@sqrt@     1004d9b4     libucrt:fpexcept.obj
 0002:000049bc       ??_C@_03BLEJJJBH@sin@      1004d9bc     libucrt:fpexcept.obj
 0002:000049c0       ??_C@_03LALBNOCG@cos@      1004d9c0     libucrt:fpexcept.obj
 0002:000049c4       ??_C@_03IIINPABG@tan@      1004d9c4     libucrt:fpexcept.obj
 0002:000049c8       ??_C@_04GFPJNGEK@ceil@     1004d9c8     libucrt:fpexcept.obj
 0002:000049d0       ??_C@_05PBJFFIGL@floor@    1004d9d0     libucrt:fpexcept.obj
 0002:000049d8       ??_C@_04ODHECPBC@fabs@     1004d9d8     libucrt:fpexcept.obj
 0002:000049e0       ??_C@_04EHEDPDJG@modf@     1004d9e0     libucrt:fpexcept.obj
 0002:000049e8       ??_C@_05CEJMAHNP@ldexp@    1004d9e8     libucrt:fpexcept.obj
 0002:000049f0       ??_C@_05KBKMEMPO@_cabs@    1004d9f0     libucrt:fpexcept.obj
 0002:000049f8       ??_C@_06MEIMCGCF@_hypot@   1004d9f8     libucrt:fpexcept.obj
 0002:00004a00       ??_C@_04KEPJIHGP@fmod@     1004da00     libucrt:fpexcept.obj
 0002:00004a08       ??_C@_05GKKHEGJL@frexp@    1004da08     libucrt:fpexcept.obj
 0002:00004a10       ??_C@_03MJLDFKDL@_y0@      1004da10     libucrt:fpexcept.obj
 0002:00004a14       ??_C@_03NAKIGLHK@_y1@      1004da14     libucrt:fpexcept.obj
 0002:00004a18       ??_C@_03ONILCKOB@_yn@      1004da18     libucrt:fpexcept.obj
 0002:00004a1c       ??_C@_05JGDBENOH@_logb@    1004da1c     libucrt:fpexcept.obj
 0002:00004a24       ??_C@_0L@KDOEJCKC@_nextafter@ 1004da24     libucrt:fpexcept.obj
 0002:00004a30       __d_inf                    1004da30     libucrt:util.obj
 0002:00004a38       __d_max                    1004da38     libucrt:util.obj
 0002:00004a40       __d_mzero                  1004da40     libucrt:util.obj
 0002:00004a70       ??_C@_1M@HPNHIDJI@?$AAj?$AAa?$AA?9?$AAJ?$AAP@ 1004da70     libucrt:mbctype.obj
 0002:00004a7c       ??_C@_1M@BIBDDEMK@?$AAz?$AAh?$AA?9?$AAC?$AAN@ 1004da7c     libucrt:mbctype.obj
 0002:00004a88       ??_C@_1M@JLOOOEGK@?$AAk?$AAo?$AA?9?$AAK?$AAR@ 1004da88     libucrt:mbctype.obj
 0002:00004a94       ??_C@_1M@CLNBBOPM@?$AAz?$AAh?$AA?9?$AAT?$AAW@ 1004da94     libucrt:mbctype.obj
 0002:00004aa0       ??_C@_01GBGANLPD@0@        1004daa0     libucrt:cfout.obj
 0002:00004aa4       ??_C@_05DNEBIAHO@1?$CDINF@ 1004daa4     libucrt:cfout.obj
 0002:00004aac       ??_C@_06IMKFLFPG@1?$CDQNAN@ 1004daac     libucrt:cfout.obj
 0002:00004ab4       ??_C@_06PGGFOGJG@1?$CDSNAN@ 1004dab4     libucrt:cfout.obj
 0002:00004abc       ??_C@_05PHHOCPM@1?$CDIND@  1004dabc     libucrt:cfout.obj
 0002:00004ac8       ___acrt_rg_language        1004dac8     libucrt:get_qualified_locale.obj
 0002:00004dd4       ___acrt_rg_language_count  1004ddd4     libucrt:get_qualified_locale.obj
 0002:00004dd8       ___acrt_rg_country         1004ddd8     libucrt:get_qualified_locale.obj
 0002:00004eec       ___acrt_rg_country_count   1004deec     libucrt:get_qualified_locale.obj
 0002:00004ef0       ??_C@_1BC@LLOKLNP@?$AAa?$AAm?$AAe?$AAr?$AAi?$AAc?$AAa?$AAn@ 1004def0     libucrt:get_qualified_locale.obj
 0002:00004f04       ??_C@_1CC@HEIGCDGG@?$AAa?$AAm?$AAe?$AAr?$AAi?$AAc?$AAa?$AAn?$AA?5?$AAe?$AAn?$AAg?$AAl?$AAi?$AAs@ 1004df04     libucrt:get_qualified_locale.obj
 0002:00004f28       ??_C@_1CC@IHCNOMIN@?$AAa?$AAm?$AAe?$AAr?$AAi?$AAc?$AAa?$AAn?$AA?9?$AAe?$AAn?$AAg?$AAl?$AAi?$AAs@ 1004df28     libucrt:get_qualified_locale.obj
 0002:00004f4c       ??_C@_1BG@GKAGPCGG@?$AAa?$AAu?$AAs?$AAt?$AAr?$AAa?$AAl?$AAi?$AAa?$AAn@ 1004df4c     libucrt:get_qualified_locale.obj
 0002:00004f64       ??_C@_1BA@GMENCENF@?$AAb?$AAe?$AAl?$AAg?$AAi?$AAa?$AAn@ 1004df64     libucrt:get_qualified_locale.obj
 0002:00004f74       ??_C@_1BC@PJMIIAAN@?$AAc?$AAa?$AAn?$AAa?$AAd?$AAi?$AAa?$AAn@ 1004df74     libucrt:get_qualified_locale.obj
 0002:00004f88       ??_C@_17NOIMNFBF@?$AAc?$AAh?$AAh@ 1004df88     libucrt:get_qualified_locale.obj
 0002:00004f90       ??_C@_17GGDALCHA@?$AAc?$AAh?$AAi@ 1004df90     libucrt:get_qualified_locale.obj
 0002:00004f98       ??_C@_1BA@NPNJKIBL@?$AAc?$AAh?$AAi?$AAn?$AAe?$AAs?$AAe@ 1004df98     libucrt:get_qualified_locale.obj
 0002:00004fa8       ??_C@_1CC@DINBAMMJ@?$AAc?$AAh?$AAi?$AAn?$AAe?$AAs?$AAe?$AA?9?$AAh?$AAo?$AAn?$AAg?$AAk?$AAo?$AAn@ 1004dfa8     libucrt:get_qualified_locale.obj
 0002:00004fcc       ??_C@_1CG@IOBJPACO@?$AAc?$AAh?$AAi?$AAn?$AAe?$AAs?$AAe?$AA?9?$AAs?$AAi?$AAm?$AAp?$AAl?$AAi?$AAf@ 1004dfcc     libucrt:get_qualified_locale.obj
 0002:00004ff4       ??_C@_1CE@GAJNDCKG@?$AAc?$AAh?$AAi?$AAn?$AAe?$AAs?$AAe?$AA?9?$AAs?$AAi?$AAn?$AAg?$AAa?$AAp?$AAo@ 1004dff4     libucrt:get_qualified_locale.obj
 0002:00005018       ??_C@_1CI@PAJPIOOD@?$AAc?$AAh?$AAi?$AAn?$AAe?$AAs?$AAe?$AA?9?$AAt?$AAr?$AAa?$AAd?$AAi?$AAt?$AAi@ 1004e018     libucrt:get_qualified_locale.obj
 0002:00005040       ??_C@_1BM@NILJBMMD@?$AAd?$AAu?$AAt?$AAc?$AAh?$AA?9?$AAb?$AAe?$AAl?$AAg?$AAi?$AAa?$AAn@ 1004e040     libucrt:get_qualified_locale.obj
 0002:0000505c       ??_C@_1CC@OOJPJNEJ@?$AAe?$AAn?$AAg?$AAl?$AAi?$AAs?$AAh?$AA?9?$AAa?$AAm?$AAe?$AAr?$AAi?$AAc?$AAa@ 1004e05c     libucrt:get_qualified_locale.obj
 0002:00005080       ??_C@_1BI@IOLFEEM@?$AAe?$AAn?$AAg?$AAl?$AAi?$AAs?$AAh?$AA?9?$AAa?$AAu?$AAs@ 1004e080     libucrt:get_qualified_locale.obj
 0002:00005098       ??_C@_1BO@HFFNLENJ@?$AAe?$AAn?$AAg?$AAl?$AAi?$AAs?$AAh?$AA?9?$AAb?$AAe?$AAl?$AAi?$AAz?$AAe@ 1004e098     libucrt:get_qualified_locale.obj
 0002:000050b8       ??_C@_1BI@HAPKJMPO@?$AAe?$AAn?$AAg?$AAl?$AAi?$AAs?$AAh?$AA?9?$AAc?$AAa?$AAn@ 1004e0b8     libucrt:get_qualified_locale.obj
 0002:000050d0       ??_C@_1CE@HLNDMIOJ@?$AAe?$AAn?$AAg?$AAl?$AAi?$AAs?$AAh?$AA?9?$AAc?$AAa?$AAr?$AAi?$AAb?$AAb?$AAe@ 1004e0d0     libucrt:get_qualified_locale.obj
 0002:000050f4       ??_C@_1BI@LDHJHHAC@?$AAe?$AAn?$AAg?$AAl?$AAi?$AAs?$AAh?$AA?9?$AAi?$AAr?$AAe@ 1004e0f4     libucrt:get_qualified_locale.obj
 0002:0000510c       ??_C@_1CA@NJMMCFOC@?$AAe?$AAn?$AAg?$AAl?$AAi?$AAs?$AAh?$AA?9?$AAj?$AAa?$AAm?$AAa?$AAi?$AAc?$AAa@ 1004e10c     libucrt:get_qualified_locale.obj
 0002:0000512c       ??_C@_1BG@BHJEBBGG@?$AAe?$AAn?$AAg?$AAl?$AAi?$AAs?$AAh?$AA?9?$AAn?$AAz@ 1004e12c     libucrt:get_qualified_locale.obj
 0002:00005144       ??_C@_1CK@FGOEJJCO@?$AAe?$AAn?$AAg?$AAl?$AAi?$AAs?$AAh?$AA?9?$AAs?$AAo?$AAu?$AAt?$AAh?$AA?5?$AAa@ 1004e144     libucrt:get_qualified_locale.obj
 0002:00005170       ??_C@_1DE@PDBJPCJ@?$AAe?$AAn?$AAg?$AAl?$AAi?$AAs?$AAh?$AA?9?$AAt?$AAr?$AAi?$AAn?$AAi?$AAd?$AAa@ 1004e170     libucrt:get_qualified_locale.obj
 0002:000051a4       ??_C@_1BG@JGCANDME@?$AAe?$AAn?$AAg?$AAl?$AAi?$AAs?$AAh?$AA?9?$AAu?$AAk@ 1004e1a4     libucrt:get_qualified_locale.obj
 0002:000051bc       ??_C@_1BG@DINKMLE@?$AAe?$AAn?$AAg?$AAl?$AAi?$AAs?$AAh?$AA?9?$AAu?$AAs@ 1004e1bc     libucrt:get_qualified_locale.obj
 0002:000051d4       ??_C@_1BI@NMFDBHJE@?$AAe?$AAn?$AAg?$AAl?$AAi?$AAs?$AAh?$AA?9?$AAu?$AAs?$AAa@ 1004e1d4     libucrt:get_qualified_locale.obj
 0002:000051ec       ??_C@_1BO@OIHKJKII@?$AAf?$AAr?$AAe?$AAn?$AAc?$AAh?$AA?9?$AAb?$AAe?$AAl?$AAg?$AAi?$AAa?$AAn@ 1004e1ec     libucrt:get_qualified_locale.obj
 0002:0000520c       ??_C@_1CA@NKAELJKI@?$AAf?$AAr?$AAe?$AAn?$AAc?$AAh?$AA?9?$AAc?$AAa?$AAn?$AAa?$AAd?$AAi?$AAa?$AAn@ 1004e20c     libucrt:get_qualified_locale.obj
 0002:0000522c       ??_C@_1CE@MGKCNLGN@?$AAf?$AAr?$AAe?$AAn?$AAc?$AAh?$AA?9?$AAl?$AAu?$AAx?$AAe?$AAm?$AAb?$AAo?$AAu@ 1004e22c     libucrt:get_qualified_locale.obj
 0002:00005250       ??_C@_1BK@CEGEAILM@?$AAf?$AAr?$AAe?$AAn?$AAc?$AAh?$AA?9?$AAs?$AAw?$AAi?$AAs?$AAs@ 1004e250     libucrt:get_qualified_locale.obj
 0002:0000526c       ??_C@_1CA@PAFKEOCC@?$AAg?$AAe?$AAr?$AAm?$AAa?$AAn?$AA?9?$AAa?$AAu?$AAs?$AAt?$AAr?$AAi?$AAa?$AAn@ 1004e26c     libucrt:get_qualified_locale.obj
 0002:0000528c       ??_C@_1CI@HCFHGOFD@?$AAg?$AAe?$AAr?$AAm?$AAa?$AAn?$AA?9?$AAl?$AAi?$AAc?$AAh?$AAt?$AAe?$AAn?$AAs@ 1004e28c     libucrt:get_qualified_locale.obj
 0002:000052b4       ??_C@_1CE@FEDDNPDG@?$AAg?$AAe?$AAr?$AAm?$AAa?$AAn?$AA?9?$AAl?$AAu?$AAx?$AAe?$AAm?$AAb?$AAo?$AAu@ 1004e2b4     libucrt:get_qualified_locale.obj
 0002:000052d8       ??_C@_1BK@LIMINNMN@?$AAg?$AAe?$AAr?$AAm?$AAa?$AAn?$AA?9?$AAs?$AAw?$AAi?$AAs?$AAs@ 1004e2d8     libucrt:get_qualified_locale.obj
 0002:000052f4       ??_C@_1BM@LGMDBEPD@?$AAi?$AAr?$AAi?$AAs?$AAh?$AA?9?$AAe?$AAn?$AAg?$AAl?$AAi?$AAs?$AAh@ 1004e2f4     libucrt:get_qualified_locale.obj
 0002:00005310       ??_C@_1BM@NNCFBAEE@?$AAi?$AAt?$AAa?$AAl?$AAi?$AAa?$AAn?$AA?9?$AAs?$AAw?$AAi?$AAs?$AAs@ 1004e310     libucrt:get_qualified_locale.obj
 0002:0000532c       ??_C@_1BE@FEDJNPIB@?$AAn?$AAo?$AAr?$AAw?$AAe?$AAg?$AAi?$AAa?$AAn@ 1004e32c     libucrt:get_qualified_locale.obj
 0002:00005340       ??_C@_1CC@CILKDEIE@?$AAn?$AAo?$AAr?$AAw?$AAe?$AAg?$AAi?$AAa?$AAn?$AA?9?$AAb?$AAo?$AAk?$AAm?$AAa@ 1004e340     libucrt:get_qualified_locale.obj
 0002:00005364       ??_C@_1CE@DHMMHEPL@?$AAn?$AAo?$AAr?$AAw?$AAe?$AAg?$AAi?$AAa?$AAn?$AA?9?$AAn?$AAy?$AAn?$AAo?$AAr@ 1004e364     libucrt:get_qualified_locale.obj
 0002:00005388       ??_C@_1CK@OPNMHECD@?$AAp?$AAo?$AAr?$AAt?$AAu?$AAg?$AAu?$AAe?$AAs?$AAe?$AA?9?$AAb?$AAr?$AAa?$AAz@ 1004e388     libucrt:get_qualified_locale.obj
 0002:000053b4       ??_C@_1CE@KEEHCDB@?$AAs?$AAp?$AAa?$AAn?$AAi?$AAs?$AAh?$AA?9?$AAa?$AAr?$AAg?$AAe?$AAn?$AAt?$AAi@ 1004e3b4     libucrt:get_qualified_locale.obj
 0002:000053d8       ??_C@_1CA@GIAOLHJD@?$AAs?$AAp?$AAa?$AAn?$AAi?$AAs?$AAh?$AA?9?$AAb?$AAo?$AAl?$AAi?$AAv?$AAi?$AAa@ 1004e3d8     libucrt:get_qualified_locale.obj
 0002:000053f8       ??_C@_1BM@OJNDFNPD@?$AAs?$AAp?$AAa?$AAn?$AAi?$AAs?$AAh?$AA?9?$AAc?$AAh?$AAi?$AAl?$AAe@ 1004e3f8     libucrt:get_qualified_locale.obj
 0002:00005414       ??_C@_1CC@OCOLPALL@?$AAs?$AAp?$AAa?$AAn?$AAi?$AAs?$AAh?$AA?9?$AAc?$AAo?$AAl?$AAo?$AAm?$AAb?$AAi@ 1004e414     libucrt:get_qualified_locale.obj
 0002:00005438       ??_C@_1CG@BPOFMKBB@?$AAs?$AAp?$AAa?$AAn?$AAi?$AAs?$AAh?$AA?9?$AAc?$AAo?$AAs?$AAt?$AAa?$AA?5?$AAr@ 1004e438     libucrt:get_qualified_locale.obj
 0002:00005460       ??_C@_1DG@IGOBAPBB@?$AAs?$AAp?$AAa?$AAn?$AAi?$AAs?$AAh?$AA?9?$AAd?$AAo?$AAm?$AAi?$AAn?$AAi?$AAc@ 1004e460     libucrt:get_qualified_locale.obj
 0002:00005498       ??_C@_1CA@JHAPGEGI@?$AAs?$AAp?$AAa?$AAn?$AAi?$AAs?$AAh?$AA?9?$AAe?$AAc?$AAu?$AAa?$AAd?$AAo?$AAr@ 1004e498     libucrt:get_qualified_locale.obj
 0002:000054b8       ??_C@_1CI@LAPALJPP@?$AAs?$AAp?$AAa?$AAn?$AAi?$AAs?$AAh?$AA?9?$AAe?$AAl?$AA?5?$AAs?$AAa?$AAl?$AAv@ 1004e4b8     libucrt:get_qualified_locale.obj
 0002:000054e0       ??_C@_1CE@PDGBOFOM@?$AAs?$AAp?$AAa?$AAn?$AAi?$AAs?$AAh?$AA?9?$AAg?$AAu?$AAa?$AAt?$AAe?$AAm?$AAa@ 1004e4e0     libucrt:get_qualified_locale.obj
 0002:00005504       ??_C@_1CC@NBEBAODI@?$AAs?$AAp?$AAa?$AAn?$AAi?$AAs?$AAh?$AA?9?$AAh?$AAo?$AAn?$AAd?$AAu?$AAr?$AAa@ 1004e504     libucrt:get_qualified_locale.obj
 0002:00005528       ??_C@_1CA@LLKGHBMF@?$AAs?$AAp?$AAa?$AAn?$AAi?$AAs?$AAh?$AA?9?$AAm?$AAe?$AAx?$AAi?$AAc?$AAa?$AAn@ 1004e528     libucrt:get_qualified_locale.obj
 0002:00005548       ??_C@_1BO@LKNDOIGD@?$AAs?$AAp?$AAa?$AAn?$AAi?$AAs?$AAh?$AA?9?$AAm?$AAo?$AAd?$AAe?$AAr?$AAn@ 1004e548     libucrt:get_qualified_locale.obj
 0002:00005568       ??_C@_1CE@NMDMOEEB@?$AAs?$AAp?$AAa?$AAn?$AAi?$AAs?$AAh?$AA?9?$AAn?$AAi?$AAc?$AAa?$AAr?$AAa?$AAg@ 1004e568     libucrt:get_qualified_locale.obj
 0002:0000558c       ??_C@_1BO@LLCBEJGB@?$AAs?$AAp?$AAa?$AAn?$AAi?$AAs?$AAh?$AA?9?$AAp?$AAa?$AAn?$AAa?$AAm?$AAa@ 1004e58c     libucrt:get_qualified_locale.obj
 0002:000055ac       ??_C@_1CC@FKPGGIHO@?$AAs?$AAp?$AAa?$AAn?$AAi?$AAs?$AAh?$AA?9?$AAp?$AAa?$AAr?$AAa?$AAg?$AAu?$AAa@ 1004e5ac     libucrt:get_qualified_locale.obj
 0002:000055d0       ??_C@_1BK@CDEIHOOP@?$AAs?$AAp?$AAa?$AAn?$AAi?$AAs?$AAh?$AA?9?$AAp?$AAe?$AAr?$AAu@ 1004e5d0     libucrt:get_qualified_locale.obj
 0002:000055ec       ??_C@_1CI@GAHAKKGP@?$AAs?$AAp?$AAa?$AAn?$AAi?$AAs?$AAh?$AA?9?$AAp?$AAu?$AAe?$AAr?$AAt?$AAo?$AA?5@ 1004e5ec     libucrt:get_qualified_locale.obj
 0002:00005614       ??_C@_1CA@NKJBCAGP@?$AAs?$AAp?$AAa?$AAn?$AAi?$AAs?$AAh?$AA?9?$AAu?$AAr?$AAu?$AAg?$AAu?$AAa?$AAy@ 1004e614     libucrt:get_qualified_locale.obj
 0002:00005634       ??_C@_1CE@ODILCONM@?$AAs?$AAp?$AAa?$AAn?$AAi?$AAs?$AAh?$AA?9?$AAv?$AAe?$AAn?$AAe?$AAz?$AAu?$AAe@ 1004e634     libucrt:get_qualified_locale.obj
 0002:00005658       ??_C@_1CA@OBNMCGFO@?$AAs?$AAw?$AAe?$AAd?$AAi?$AAs?$AAh?$AA?9?$AAf?$AAi?$AAn?$AAl?$AAa?$AAn?$AAd@ 1004e658     libucrt:get_qualified_locale.obj
 0002:00005678       ??_C@_1M@PIPDDPPI@?$AAs?$AAw?$AAi?$AAs?$AAs@ 1004e678     libucrt:get_qualified_locale.obj
 0002:00005684       ??_C@_15PJPFLCCM@?$AAu?$AAk@ 1004e684     libucrt:get_qualified_locale.obj
 0002:0000568c       ??_C@_15GMFIMNFM@?$AAu?$AAs@ 1004e68c     libucrt:get_qualified_locale.obj
 0002:00005694       ??_C@_17HAEBFAGL@?$AAu?$AAs?$AAa@ 1004e694     libucrt:get_qualified_locale.obj
 0002:0000569c       ??_C@_1BA@DPFJEPHB@?$AAa?$AAm?$AAe?$AAr?$AAi?$AAc?$AAa@ 1004e69c     libucrt:get_qualified_locale.obj
 0002:000056ac       ??_C@_1BA@ELOGGFK@?$AAb?$AAr?$AAi?$AAt?$AAa?$AAi?$AAn@ 1004e6ac     libucrt:get_qualified_locale.obj
 0002:000056bc       ??_C@_1M@GHBGIGDA@?$AAc?$AAh?$AAi?$AAn?$AAa@ 1004e6bc     libucrt:get_qualified_locale.obj
 0002:000056c8       ??_C@_1M@NCHEJOPO@?$AAc?$AAz?$AAe?$AAc?$AAh@ 1004e6c8     libucrt:get_qualified_locale.obj
 0002:000056d4       ??_C@_1BA@BKPAPBLA@?$AAe?$AAn?$AAg?$AAl?$AAa?$AAn?$AAd@ 1004e6d4     libucrt:get_qualified_locale.obj
 0002:000056e4       ??_C@_1BM@HKBCKIPC@?$AAg?$AAr?$AAe?$AAa?$AAt?$AA?5?$AAb?$AAr?$AAi?$AAt?$AAa?$AAi?$AAn@ 1004e6e4     libucrt:get_qualified_locale.obj
 0002:00005700       ??_C@_1BA@PPCHPGJB@?$AAh?$AAo?$AAl?$AAl?$AAa?$AAn?$AAd@ 1004e700     libucrt:get_qualified_locale.obj
 0002:00005710       ??_C@_1BE@JBMPEGDG@?$AAh?$AAo?$AAn?$AAg?$AA?9?$AAk?$AAo?$AAn?$AAg@ 1004e710     libucrt:get_qualified_locale.obj
 0002:00005724       ??_C@_1BI@KOELBBPJ@?$AAn?$AAe?$AAw?$AA?9?$AAz?$AAe?$AAa?$AAl?$AAa?$AAn?$AAd@ 1004e724     libucrt:get_qualified_locale.obj
 0002:0000573c       ??_C@_15HIEBHAIO@?$AAn?$AAz@ 1004e73c     libucrt:get_qualified_locale.obj
 0002:00005744       ??_C@_1BC@CHBCPFPI@?$AAp?$AAr?$AA?5?$AAc?$AAh?$AAi?$AAn?$AAa@ 1004e744     libucrt:get_qualified_locale.obj
 0002:00005758       ??_C@_1BC@JAOIIFKD@?$AAp?$AAr?$AA?9?$AAc?$AAh?$AAi?$AAn?$AAa@ 1004e758     libucrt:get_qualified_locale.obj
 0002:0000576c       ??_C@_1BI@BEHPPHKC@?$AAp?$AAu?$AAe?$AAr?$AAt?$AAo?$AA?9?$AAr?$AAi?$AAc?$AAo@ 1004e76c     libucrt:get_qualified_locale.obj
 0002:00005784       ??_C@_1O@PAEOFKDI@?$AAs?$AAl?$AAo?$AAv?$AAa?$AAk@ 1004e784     libucrt:get_qualified_locale.obj
 0002:00005794       ??_C@_1BK@FIHMCKAM@?$AAs?$AAo?$AAu?$AAt?$AAh?$AA?5?$AAa?$AAf?$AAr?$AAi?$AAc?$AAa@ 1004e794     libucrt:get_qualified_locale.obj
 0002:000057b0       ??_C@_1BI@NAEOODKB@?$AAs?$AAo?$AAu?$AAt?$AAh?$AA?5?$AAk?$AAo?$AAr?$AAe?$AAa@ 1004e7b0     libucrt:get_qualified_locale.obj
 0002:000057c8       ??_C@_1BK@FBDGGIFF@?$AAs?$AAo?$AAu?$AAt?$AAh?$AA?9?$AAa?$AAf?$AAr?$AAi?$AAc?$AAa@ 1004e7c8     libucrt:get_qualified_locale.obj
 0002:000057e4       ??_C@_1BI@GHLEJDPK@?$AAs?$AAo?$AAu?$AAt?$AAh?$AA?9?$AAk?$AAo?$AAr?$AAe?$AAa@ 1004e7e4     libucrt:get_qualified_locale.obj
 0002:000057fc       ??_C@_1CE@PLHLOMJF@?$AAt?$AAr?$AAi?$AAn?$AAi?$AAd?$AAa?$AAd?$AA?5?$AA?$CG?$AA?5?$AAt?$AAo?$AAb?$AAa@ 1004e7fc     libucrt:get_qualified_locale.obj
 0002:00005820       ??_C@_1BO@MODIMHHI@?$AAu?$AAn?$AAi?$AAt?$AAe?$AAd?$AA?9?$AAk?$AAi?$AAn?$AAg?$AAd?$AAo?$AAm@ 1004e820     libucrt:get_qualified_locale.obj
 0002:00005840       ??_C@_1BM@FFHJONBJ@?$AAu?$AAn?$AAi?$AAt?$AAe?$AAd?$AA?9?$AAs?$AAt?$AAa?$AAt?$AAe?$AAs@ 1004e840     libucrt:get_qualified_locale.obj
 0002:0000585c       ??_C@_19MPDNHKDG@?$AAu?$AAt?$AAf?$AA8@ 1004e85c     libucrt:get_qualified_locale.obj
 0002:00005868       ??_C@_17DNCLJFIF@?$AAA?$AAC?$AAP@ 1004e868     libucrt:get_qualified_locale.obj
 0002:00005870       ??_C@_1M@FPEIIFAM@?$AAu?$AAt?$AAf?$AA?9?$AA8@ 1004e870     libucrt:get_qualified_locale.obj
 0002:0000587c       ??_C@_17CIKBIHLH@?$AAO?$AAC?$AAP@ 1004e87c     libucrt:get_qualified_locale.obj
 0002:00005884       ___rglangidNotDefault      1004e884     libucrt:getqloc_downlevel.obj
 0002:00005fb8       ??_C@_15EMKDOKLE@?$AAa?$AAr@ 1004efb8     libucrt:lcidtoname_downlevel.obj
 0002:00005fc0       ??_C@_15KNPADPLH@?$AAb?$AAg@ 1004efc0     libucrt:lcidtoname_downlevel.obj
 0002:00005fc8       ??_C@_15EDMHLDMO@?$AAc?$AAa@ 1004efc8     libucrt:lcidtoname_downlevel.obj
 0002:00005fd0       ??_C@_1O@BPEAJADD@?$AAz?$AAh?$AA?9?$AAC?$AAH?$AAS@ 1004efd0     libucrt:lcidtoname_downlevel.obj
 0002:00005fe0       ??_C@_15LJNHCMNK@?$AAc?$AAs@ 1004efe0     libucrt:lcidtoname_downlevel.obj
 0002:00005fe8       ??_C@_15FOMCIDHG@?$AAd?$AAa@ 1004efe8     libucrt:lcidtoname_downlevel.obj
 0002:00005ff0       ??_C@_15NBKABECB@?$AAd?$AAe@ 1004eff0     libucrt:lcidtoname_downlevel.obj
 0002:00005ff8       ??_C@_15GHPEIIAO@?$AAe?$AAl@ 1004eff8     libucrt:lcidtoname_downlevel.obj
 0002:00006000       ??_C@_15MNPNEAIF@?$AAe?$AAn@ 1004f000     libucrt:lcidtoname_downlevel.obj
 0002:00006008       ??_C@_15GPIOMPMH@?$AAe?$AAs@ 1004f008     libucrt:lcidtoname_downlevel.obj
 0002:00006010       ??_C@_15NGLOAKJC@?$AAf?$AAi@ 1004f010     libucrt:lcidtoname_downlevel.obj
 0002:00006018       ??_C@_15FBKGNKAM@?$AAf?$AAr@ 1004f018     libucrt:lcidtoname_downlevel.obj
 0002:00006020       ??_C@_15KGGCNEFK@?$AAh?$AAe@ 1004f020     libucrt:lcidtoname_downlevel.obj
 0002:00006028       ??_C@_15PGHLIDMF@?$AAh?$AAu@ 1004f028     libucrt:lcidtoname_downlevel.obj
 0002:00006030       ??_C@_15BIEMAPLM@?$AAi?$AAs@ 1004f030     libucrt:lcidtoname_downlevel.obj
 0002:00006038       ??_C@_15IFJLDHAF@?$AAi?$AAt@ 1004f038     libucrt:lcidtoname_downlevel.obj
 0002:00006040       ??_C@_15GEMIOCAG@?$AAj?$AAa@ 1004f040     libucrt:lcidtoname_downlevel.obj
 0002:00006048       ??_C@_15EPELEGJA@?$AAk?$AAo@ 1004f048     libucrt:lcidtoname_downlevel.obj
 0002:00006050       ??_C@_15NDDHIMN@?$AAn?$AAl@ 1004f050     libucrt:lcidtoname_downlevel.obj
 0002:00006058       ??_C@_15BPIGNHCD@?$AAn?$AAo@ 1004f058     libucrt:lcidtoname_downlevel.obj
 0002:00006060       ??_C@_15DEOPBLCG@?$AAp?$AAl@ 1004f060     libucrt:lcidtoname_downlevel.obj
 0002:00006068       ??_C@_15KBECGEFG@?$AAp?$AAt@ 1004f068     libucrt:lcidtoname_downlevel.obj
 0002:00006070       ??_C@_15GLJCBFMD@?$AAr?$AAo@ 1004f070     libucrt:lcidtoname_downlevel.obj
 0002:00006078       ??_C@_15FEDGKCDI@?$AAr?$AAu@ 1004f078     libucrt:lcidtoname_downlevel.obj
 0002:00006080       ??_C@_15GLKMLLHM@?$AAh?$AAr@ 1004f080     libucrt:lcidtoname_downlevel.obj
 0002:00006088       ??_C@_15CPKMFBDB@?$AAs?$AAk@ 1004f088     libucrt:lcidtoname_downlevel.obj
 0002:00006090       ??_C@_15BAAIOGMK@?$AAs?$AAq@ 1004f090     libucrt:lcidtoname_downlevel.obj
 0002:00006098       ??_C@_15INNPNOHD@?$AAs?$AAv@ 1004f098     libucrt:lcidtoname_downlevel.obj
 0002:000060a0       ??_C@_15CABMMOGH@?$AAt?$AAh@ 1004f0a0     libucrt:lcidtoname_downlevel.obj
 0002:000060a8       ??_C@_15BPLIHJJM@?$AAt?$AAr@ 1004f0a8     libucrt:lcidtoname_downlevel.obj
 0002:000060b0       ??_C@_15NEOEKKDJ@?$AAu?$AAr@ 1004f0b0     libucrt:lcidtoname_downlevel.obj
 0002:000060b8       ??_C@_15NFICGAJK@?$AAi?$AAd@ 1004f0b8     libucrt:lcidtoname_downlevel.obj
 0002:000060c0       ??_C@_15HPJPHDM@?$AAb?$AAe@ 1004f0c0     libucrt:lcidtoname_downlevel.obj
 0002:000060c8       ??_C@_15LCHLGJII@?$AAs?$AAl@ 1004f0c8     libucrt:lcidtoname_downlevel.obj
 0002:000060d0       ??_C@_15PCFJPHHO@?$AAe?$AAt@ 1004f0d0     libucrt:lcidtoname_downlevel.obj
 0002:000060d8       ??_C@_15HPFPGODN@?$AAl?$AAv@ 1004f0d8     libucrt:lcidtoname_downlevel.obj
 0002:000060e0       ??_C@_15NFFGKGLG@?$AAl?$AAt@ 1004f0e0     libucrt:lcidtoname_downlevel.obj
 0002:000060e8       ??_C@_15BDAKCCHN@?$AAf?$AAa@ 1004f0e8     libucrt:lcidtoname_downlevel.obj
 0002:000060f0       ??_C@_15NFGIAIAJ@?$AAv?$AAi@ 1004f0f0     libucrt:lcidtoname_downlevel.obj
 0002:000060f8       ??_C@_15LMKNDMHN@?$AAh?$AAy@ 1004f0f8     libucrt:lcidtoname_downlevel.obj
 0002:00006100       ??_C@_15IJBHMCFL@?$AAa?$AAz@ 1004f100     libucrt:lcidtoname_downlevel.obj
 0002:00006108       ??_C@_15EKOFJABL@?$AAe?$AAu@ 1004f108     libucrt:lcidtoname_downlevel.obj
 0002:00006110       ??_C@_15BGHADCNK@?$AAm?$AAk@ 1004f110     libucrt:lcidtoname_downlevel.obj
 0002:00006118       ??_C@_15JDNICKHM@?$AAa?$AAf@ 1004f118     libucrt:lcidtoname_downlevel.obj
 0002:00006120       ??_C@_15KPJEDBKD@?$AAk?$AAa@ 1004f120     libucrt:lcidtoname_downlevel.obj
 0002:00006128       ??_C@_15PDNFFFEO@?$AAf?$AAo@ 1004f128     libucrt:lcidtoname_downlevel.obj
 0002:00006130       ??_C@_15OMLEGLOC@?$AAh?$AAi@ 1004f130     libucrt:lcidtoname_downlevel.obj
 0002:00006138       ??_C@_15IDNNENKK@?$AAm?$AAs@ 1004f138     libucrt:lcidtoname_downlevel.obj
 0002:00006140       ??_C@_15MACJNBMH@?$AAk?$AAk@ 1004f140     libucrt:lcidtoname_downlevel.obj
 0002:00006148       ??_C@_15DKDJEOND@?$AAk?$AAy@ 1004f148     libucrt:lcidtoname_downlevel.obj
 0002:00006150       ??_C@_15DFGDLJBG@?$AAs?$AAw@ 1004f150     libucrt:lcidtoname_downlevel.obj
 0002:00006158       ??_C@_15BBFAICNG@?$AAu?$AAz@ 1004f158     libucrt:lcidtoname_downlevel.obj
 0002:00006160       ??_C@_15DKNDCGEA@?$AAt?$AAt@ 1004f160     libucrt:lcidtoname_downlevel.obj
 0002:00006168       ??_C@_15MGIFMDPL@?$AAp?$AAa@ 1004f168     libucrt:lcidtoname_downlevel.obj
 0002:00006170       ??_C@_15HCNDBBA@?$AAg?$AAu@ 1004f170     libucrt:lcidtoname_downlevel.obj
 0002:00006178       ??_C@_15FNBEIBON@?$AAt?$AAa@ 1004f178     libucrt:lcidtoname_downlevel.obj
 0002:00006180       ??_C@_15NCHGBGLK@?$AAt?$AAe@ 1004f180     libucrt:lcidtoname_downlevel.obj
 0002:00006188       ??_C@_15PHPHCBPF@?$AAk?$AAn@ 1004f188     libucrt:lcidtoname_downlevel.obj
 0002:00006190       ??_C@_15DLGBCKMP@?$AAm?$AAr@ 1004f190     libucrt:lcidtoname_downlevel.obj
 0002:00006198       ??_C@_15EABBLBFF@?$AAs?$AAa@ 1004f198     libucrt:lcidtoname_downlevel.obj
 0002:000061a0       ??_C@_15CBKOMCOI@?$AAm?$AAn@ 1004f1a0     libucrt:lcidtoname_downlevel.obj
 0002:000061a8       ??_C@_15CKDMCJAF@?$AAg?$AAl@ 1004f1a8     libucrt:lcidtoname_downlevel.obj
 0002:000061b0       ??_C@_17CNJFBPG@?$AAk?$AAo?$AAk@ 1004f1b0     libucrt:lcidtoname_downlevel.obj
 0002:000061b8       ??_C@_17FFBJICPL@?$AAs?$AAy?$AAr@ 1004f1b8     libucrt:lcidtoname_downlevel.obj
 0002:000061c0       ??_C@_17KPNDCPAF@?$AAd?$AAi?$AAv@ 1004f1c0     libucrt:lcidtoname_downlevel.obj
 0002:000061c8       ??_C@_1M@OKAHONE@?$AAa?$AAr?$AA?9?$AAS?$AAA@ 1004f1c8     libucrt:lcidtoname_downlevel.obj
 0002:000061d4       ??_C@_1M@FFFIGIGK@?$AAb?$AAg?$AA?9?$AAB?$AAG@ 1004f1d4     libucrt:lcidtoname_downlevel.obj
 0002:000061e0       ??_C@_1M@BJNKEDC@?$AAc?$AAa?$AA?9?$AAE?$AAS@ 1004f1e0     libucrt:lcidtoname_downlevel.obj
 0002:000061ec       ??_C@_1M@IJJHFJHA@?$AAc?$AAs?$AA?9?$AAC?$AAZ@ 1004f1ec     libucrt:lcidtoname_downlevel.obj
 0002:000061f8       ??_C@_1M@CLPEOBGI@?$AAd?$AAa?$AA?9?$AAD?$AAK@ 1004f1f8     libucrt:lcidtoname_downlevel.obj
 0002:00006204       ??_C@_1M@MCMADGCB@?$AAd?$AAe?$AA?9?$AAD?$AAE@ 1004f204     libucrt:lcidtoname_downlevel.obj
 0002:00006210       ??_C@_1M@OOCKEMAM@?$AAe?$AAl?$AA?9?$AAG?$AAR@ 1004f210     libucrt:lcidtoname_downlevel.obj
 0002:0000621c       ??_C@_1M@DDNJFGID@?$AAf?$AAi?$AA?9?$AAF?$AAI@ 1004f21c     libucrt:lcidtoname_downlevel.obj
 0002:00006228       ??_C@_1M@GLIPPMAC@?$AAf?$AAr?$AA?9?$AAF?$AAR@ 1004f228     libucrt:lcidtoname_downlevel.obj
 0002:00006234       ??_C@_1M@GFMCHPE@?$AAh?$AAe?$AA?9?$AAI?$AAL@ 1004f234     libucrt:lcidtoname_downlevel.obj
 0002:00006240       ??_C@_1M@MHLPGNKM@?$AAh?$AAu?$AA?9?$AAH?$AAU@ 1004f240     libucrt:lcidtoname_downlevel.obj
 0002:0000624c       ??_C@_1M@LPDDNNPN@?$AAi?$AAs?$AA?9?$AAI?$AAS@ 1004f24c     libucrt:lcidtoname_downlevel.obj
 0002:00006258       ??_C@_1M@MADIPODN@?$AAi?$AAt?$AA?9?$AAI?$AAT@ 1004f258     libucrt:lcidtoname_downlevel.obj
 0002:00006264       ??_C@_1M@IHBJJGG@?$AAn?$AAl?$AA?9?$AAN?$AAL@ 1004f264     libucrt:lcidtoname_downlevel.obj
 0002:00006270       ??_C@_1M@EANAGDL@?$AAn?$AAb?$AA?9?$AAN?$AAO@ 1004f270     libucrt:lcidtoname_downlevel.obj
 0002:0000627c       ??_C@_1M@NEIEMEGP@?$AAp?$AAl?$AA?9?$AAP?$AAL@ 1004f27c     libucrt:lcidtoname_downlevel.obj
 0002:00006288       ??_C@_1M@BOCFIGEP@?$AAp?$AAt?$AA?9?$AAB?$AAR@ 1004f288     libucrt:lcidtoname_downlevel.obj
 0002:00006294       ??_C@_1M@IMPFOPBG@?$AAr?$AAo?$AA?9?$AAR?$AAO@ 1004f294     libucrt:lcidtoname_downlevel.obj
 0002:000062a0       ??_C@_1M@IDNNEJMM@?$AAr?$AAu?$AA?9?$AAR?$AAU@ 1004f2a0     libucrt:lcidtoname_downlevel.obj
 0002:000062ac       ??_C@_1M@LILEEOGM@?$AAh?$AAr?$AA?9?$AAH?$AAR@ 1004f2ac     libucrt:lcidtoname_downlevel.obj
 0002:000062b8       ??_C@_1M@FKIFEHPB@?$AAs?$AAk?$AA?9?$AAS?$AAK@ 1004f2b8     libucrt:lcidtoname_downlevel.obj
 0002:000062c4       ??_C@_1M@LJMAMNPJ@?$AAs?$AAq?$AA?9?$AAA?$AAL@ 1004f2c4     libucrt:lcidtoname_downlevel.obj
 0002:000062d0       ??_C@_1M@GIAKDKJK@?$AAs?$AAv?$AA?9?$AAS?$AAE@ 1004f2d0     libucrt:lcidtoname_downlevel.obj
 0002:000062dc       ??_C@_1M@MKJKIKCL@?$AAt?$AAh?$AA?9?$AAT?$AAH@ 1004f2dc     libucrt:lcidtoname_downlevel.obj
 0002:000062e8       ??_C@_1M@MFLCCMPB@?$AAt?$AAr?$AA?9?$AAT?$AAR@ 1004f2e8     libucrt:lcidtoname_downlevel.obj
 0002:000062f4       ??_C@_1M@OIJHDKJN@?$AAu?$AAr?$AA?9?$AAP?$AAK@ 1004f2f4     libucrt:lcidtoname_downlevel.obj
 0002:00006300       ??_C@_1M@LHIPCIEK@?$AAi?$AAd?$AA?9?$AAI?$AAD@ 1004f300     libucrt:lcidtoname_downlevel.obj
 0002:0000630c       ??_C@_1M@MFMOBGI@?$AAu?$AAk?$AA?9?$AAU?$AAA@ 1004f30c     libucrt:lcidtoname_downlevel.obj
 0002:00006318       ??_C@_1M@OBGLJIPL@?$AAb?$AAe?$AA?9?$AAB?$AAY@ 1004f318     libucrt:lcidtoname_downlevel.obj
 0002:00006324       ??_C@_1M@BCFAJEAD@?$AAs?$AAl?$AA?9?$AAS?$AAI@ 1004f324     libucrt:lcidtoname_downlevel.obj
 0002:00006330       ??_C@_1M@FKFFEDDN@?$AAe?$AAt?$AA?9?$AAE?$AAE@ 1004f330     libucrt:lcidtoname_downlevel.obj
 0002:0000633c       ??_C@_1M@KGKKAACI@?$AAl?$AAv?$AA?9?$AAL?$AAV@ 1004f33c     libucrt:lcidtoname_downlevel.obj
 0002:00006348       ??_C@_1M@IFGBIJO@?$AAl?$AAt?$AA?9?$AAL?$AAT@ 1004f348     libucrt:lcidtoname_downlevel.obj
 0002:00006354       ??_C@_1M@FGEAHEDM@?$AAf?$AAa?$AA?9?$AAI?$AAR@ 1004f354     libucrt:lcidtoname_downlevel.obj
 0002:00006360       ??_C@_1M@KBMAIBFN@?$AAv?$AAi?$AA?9?$AAV?$AAN@ 1004f360     libucrt:lcidtoname_downlevel.obj
 0002:0000636c       ??_C@_1M@GPCBKDJK@?$AAh?$AAy?$AA?9?$AAA?$AAM@ 1004f36c     libucrt:lcidtoname_downlevel.obj
 0002:00006378       ??_C@_1BG@BECMDDJB@?$AAa?$AAz?$AA?9?$AAA?$AAZ?$AA?9?$AAL?$AAa?$AAt?$AAn@ 1004f378     libucrt:lcidtoname_downlevel.obj
 0002:00006390       ??_C@_1M@MAOFCAEA@?$AAe?$AAu?$AA?9?$AAE?$AAS@ 1004f390     libucrt:lcidtoname_downlevel.obj
 0002:0000639c       ??_C@_1M@IGHABKPI@?$AAm?$AAk?$AA?9?$AAM?$AAK@ 1004f39c     libucrt:lcidtoname_downlevel.obj
 0002:000063a8       ??_C@_1M@IAIGNEJG@?$AAt?$AAn?$AA?9?$AAZ?$AAA@ 1004f3a8     libucrt:lcidtoname_downlevel.obj
 0002:000063b4       ??_C@_1M@IIJCOJFA@?$AAx?$AAh?$AA?9?$AAZ?$AAA@ 1004f3b4     libucrt:lcidtoname_downlevel.obj
 0002:000063c0       ??_C@_1M@LGPJHNJH@?$AAz?$AAu?$AA?9?$AAZ?$AAA@ 1004f3c0     libucrt:lcidtoname_downlevel.obj
 0002:000063cc       ??_C@_1M@HOKAOIO@?$AAa?$AAf?$AA?9?$AAZ?$AAA@ 1004f3cc     libucrt:lcidtoname_downlevel.obj
 0002:000063d8       ??_C@_1M@DPCLHLIE@?$AAk?$AAa?$AA?9?$AAG?$AAE@ 1004f3d8     libucrt:lcidtoname_downlevel.obj
 0002:000063e4       ??_C@_1M@BLKMHJBI@?$AAf?$AAo?$AA?9?$AAF?$AAO@ 1004f3e4     libucrt:lcidtoname_downlevel.obj
 0002:000063f0       ??_C@_1M@LGGJAPPB@?$AAh?$AAi?$AA?9?$AAI?$AAN@ 1004f3f0     libucrt:lcidtoname_downlevel.obj
 0002:000063fc       ??_C@_1M@FIKPIHFE@?$AAm?$AAt?$AA?9?$AAM?$AAT@ 1004f3fc     libucrt:lcidtoname_downlevel.obj
 0002:00006408       ??_C@_1M@HEGGPBFA@?$AAs?$AAe?$AA?9?$AAN?$AAO@ 1004f408     libucrt:lcidtoname_downlevel.obj
 0002:00006414       ??_C@_1M@EIBJEEPA@?$AAm?$AAs?$AA?9?$AAM?$AAY@ 1004f414     libucrt:lcidtoname_downlevel.obj
 0002:00006420       ??_C@_1M@FHLBGMPP@?$AAk?$AAk?$AA?9?$AAK?$AAZ@ 1004f420     libucrt:lcidtoname_downlevel.obj
 0002:0000642c       ??_C@_1M@NGJJLCGI@?$AAk?$AAy?$AA?9?$AAK?$AAG@ 1004f42c     libucrt:lcidtoname_downlevel.obj
 0002:00006438       ??_C@_1M@GIENNBFC@?$AAs?$AAw?$AA?9?$AAK?$AAE@ 1004f438     libucrt:lcidtoname_downlevel.obj
 0002:00006444       ??_C@_1BG@NDGMJIMJ@?$AAu?$AAz?$AA?9?$AAU?$AAZ?$AA?9?$AAL?$AAa?$AAt?$AAn@ 1004f444     libucrt:lcidtoname_downlevel.obj
 0002:0000645c       ??_C@_1M@IDCCIHBC@?$AAt?$AAt?$AA?9?$AAR?$AAU@ 1004f45c     libucrt:lcidtoname_downlevel.obj
 0002:00006468       ??_C@_1M@LOICPMOJ@?$AAb?$AAn?$AA?9?$AAI?$AAN@ 1004f468     libucrt:lcidtoname_downlevel.obj
 0002:00006474       ??_C@_1M@KPKKNEAH@?$AAp?$AAa?$AA?9?$AAI?$AAN@ 1004f474     libucrt:lcidtoname_downlevel.obj
 0002:00006480       ??_C@_1M@PJGPPBOG@?$AAg?$AAu?$AA?9?$AAI?$AAN@ 1004f480     libucrt:lcidtoname_downlevel.obj
 0002:0000648c       ??_C@_1M@KMKMOPHI@?$AAt?$AAa?$AA?9?$AAI?$AAN@ 1004f48c     libucrt:lcidtoname_downlevel.obj
 0002:00006498       ??_C@_1M@KFEHEPAC@?$AAt?$AAe?$AA?9?$AAI?$AAN@ 1004f498     libucrt:lcidtoname_downlevel.obj
 0002:000064a4       ??_C@_1M@CDCLMGHI@?$AAk?$AAn?$AA?9?$AAI?$AAN@ 1004f4a4     libucrt:lcidtoname_downlevel.obj
 0002:000064b0       ??_C@_1M@MIODLDKF@?$AAm?$AAl?$AA?9?$AAI?$AAN@ 1004f4b0     libucrt:lcidtoname_downlevel.obj
 0002:000064bc       ??_C@_1M@PBIEACPO@?$AAm?$AAr?$AA?9?$AAI?$AAN@ 1004f4bc     libucrt:lcidtoname_downlevel.obj
 0002:000064c8       ??_C@_1M@NIDEAGPH@?$AAs?$AAa?$AA?9?$AAI?$AAN@ 1004f4c8     libucrt:lcidtoname_downlevel.obj
 0002:000064d4       ??_C@_1M@FHIHCBIO@?$AAm?$AAn?$AA?9?$AAM?$AAN@ 1004f4d4     libucrt:lcidtoname_downlevel.obj
 0002:000064e0       ??_C@_1M@JAIJPENP@?$AAc?$AAy?$AA?9?$AAG?$AAB@ 1004f4e0     libucrt:lcidtoname_downlevel.obj
 0002:000064ec       ??_C@_1M@PHGFBEPN@?$AAg?$AAl?$AA?9?$AAE?$AAS@ 1004f4ec     libucrt:lcidtoname_downlevel.obj
 0002:000064f8       ??_C@_1O@KPIPDNCP@?$AAk?$AAo?$AAk?$AA?9?$AAI?$AAN@ 1004f4f8     libucrt:lcidtoname_downlevel.obj
 0002:00006508       ??_C@_1O@KNHJLDJA@?$AAs?$AAy?$AAr?$AA?9?$AAS?$AAY@ 1004f508     libucrt:lcidtoname_downlevel.obj
 0002:00006518       ??_C@_1O@MKEKBLAH@?$AAd?$AAi?$AAv?$AA?9?$AAM?$AAV@ 1004f518     libucrt:lcidtoname_downlevel.obj
 0002:00006528       ??_C@_1O@OHDCKDDF@?$AAq?$AAu?$AAz?$AA?9?$AAB?$AAO@ 1004f528     libucrt:lcidtoname_downlevel.obj
 0002:00006538       ??_C@_1M@LEPJNLFD@?$AAn?$AAs?$AA?9?$AAZ?$AAA@ 1004f538     libucrt:lcidtoname_downlevel.obj
 0002:00006544       ??_C@_1M@OMLEIIJB@?$AAm?$AAi?$AA?9?$AAN?$AAZ@ 1004f544     libucrt:lcidtoname_downlevel.obj
 0002:00006550       ??_C@_1M@PMPEAILG@?$AAa?$AAr?$AA?9?$AAI?$AAQ@ 1004f550     libucrt:lcidtoname_downlevel.obj
 0002:0000655c       ??_C@_1M@CNKPNOEE@?$AAd?$AAe?$AA?9?$AAC?$AAH@ 1004f55c     libucrt:lcidtoname_downlevel.obj
 0002:00006568       ??_C@_1M@LKMGMLKO@?$AAe?$AAn?$AA?9?$AAG?$AAB@ 1004f568     libucrt:lcidtoname_downlevel.obj
 0002:00006574       ??_C@_1M@PGKJFFGL@?$AAe?$AAs?$AA?9?$AAM?$AAX@ 1004f574     libucrt:lcidtoname_downlevel.obj
 0002:00006580       ??_C@_1M@DNNANBDC@?$AAf?$AAr?$AA?9?$AAB?$AAE@ 1004f580     libucrt:lcidtoname_downlevel.obj
 0002:0000658c       ??_C@_1M@HLGMDFHM@?$AAi?$AAt?$AA?9?$AAC?$AAH@ 1004f58c     libucrt:lcidtoname_downlevel.obj
 0002:00006598       ??_C@_1M@CLLBGJH@?$AAn?$AAl?$AA?9?$AAB?$AAE@ 1004f598     libucrt:lcidtoname_downlevel.obj
 0002:000065a4       ??_C@_1M@BODBOGLF@?$AAn?$AAn?$AA?9?$AAN?$AAO@ 1004f5a4     libucrt:lcidtoname_downlevel.obj
 0002:000065b0       ??_C@_1M@HFFAHKAD@?$AAp?$AAt?$AA?9?$AAP?$AAT@ 1004f5b0     libucrt:lcidtoname_downlevel.obj
 0002:000065bc       ??_C@_1BG@LNOAKHIE@?$AAs?$AAr?$AA?9?$AAS?$AAP?$AA?9?$AAL?$AAa?$AAt?$AAn@ 1004f5bc     libucrt:lcidtoname_downlevel.obj
 0002:000065d4       ??_C@_1M@HBMHBGAK@?$AAs?$AAv?$AA?9?$AAF?$AAI@ 1004f5d4     libucrt:lcidtoname_downlevel.obj
 0002:000065e0       ??_C@_1BG@DGCJGJBE@?$AAa?$AAz?$AA?9?$AAA?$AAZ?$AA?9?$AAC?$AAy?$AAr?$AAl@ 1004f5e0     libucrt:lcidtoname_downlevel.obj
 0002:000065f8       ??_C@_1M@KEJDAAHB@?$AAs?$AAe?$AA?9?$AAS?$AAE@ 1004f5f8     libucrt:lcidtoname_downlevel.obj
 0002:00006604       ??_C@_1M@HEIBJJAD@?$AAm?$AAs?$AA?9?$AAB?$AAN@ 1004f604     libucrt:lcidtoname_downlevel.obj
 0002:00006610       ??_C@_1BG@PBGJMCEM@?$AAu?$AAz?$AA?9?$AAU?$AAZ?$AA?9?$AAC?$AAy?$AAr?$AAl@ 1004f610     libucrt:lcidtoname_downlevel.obj
 0002:00006628       ??_C@_1O@LAOBCMDF@?$AAq?$AAu?$AAz?$AA?9?$AAE?$AAC@ 1004f628     libucrt:lcidtoname_downlevel.obj
 0002:00006638       ??_C@_1M@POEEMAIO@?$AAa?$AAr?$AA?9?$AAE?$AAG@ 1004f638     libucrt:lcidtoname_downlevel.obj
 0002:00006644       ??_C@_1M@EFAKDEDL@?$AAz?$AAh?$AA?9?$AAH?$AAK@ 1004f644     libucrt:lcidtoname_downlevel.obj
 0002:00006650       ??_C@_1M@HKKIJHGI@?$AAd?$AAe?$AA?9?$AAA?$AAT@ 1004f650     libucrt:lcidtoname_downlevel.obj
 0002:0000665c       ??_C@_1M@KBFBEHJF@?$AAe?$AAn?$AA?9?$AAA?$AAU@ 1004f65c     libucrt:lcidtoname_downlevel.obj
 0002:00006668       ??_C@_1M@MNPLFAAH@?$AAe?$AAs?$AA?9?$AAE?$AAS@ 1004f668     libucrt:lcidtoname_downlevel.obj
 0002:00006674       ??_C@_1M@HJOOJFMA@?$AAf?$AAr?$AA?9?$AAC?$AAA@ 1004f674     libucrt:lcidtoname_downlevel.obj
 0002:00006680       ??_C@_1BG@JPOFPNAB@?$AAs?$AAr?$AA?9?$AAS?$AAP?$AA?9?$AAC?$AAy?$AAr?$AAl@ 1004f680     libucrt:lcidtoname_downlevel.obj
 0002:00006698       ??_C@_1M@LNFOCMOB@?$AAs?$AAe?$AA?9?$AAF?$AAI@ 1004f698     libucrt:lcidtoname_downlevel.obj
 0002:000066a4       ??_C@_1O@MGJBOAMB@?$AAq?$AAu?$AAz?$AA?9?$AAP?$AAE@ 1004f6a4     libucrt:lcidtoname_downlevel.obj
 0002:000066b4       ??_C@_1M@GJINLBOK@?$AAa?$AAr?$AA?9?$AAL?$AAY@ 1004f6b4     libucrt:lcidtoname_downlevel.obj
 0002:000066c0       ??_C@_1M@GGMNHJNL@?$AAz?$AAh?$AA?9?$AAS?$AAG@ 1004f6c0     libucrt:lcidtoname_downlevel.obj
 0002:000066cc       ??_C@_1M@HOIKODND@?$AAd?$AAe?$AA?9?$AAL?$AAU@ 1004f6cc     libucrt:lcidtoname_downlevel.obj
 0002:000066d8       ??_C@_1M@DDOCCGFG@?$AAe?$AAn?$AA?9?$AAC?$AAA@ 1004f6d8     libucrt:lcidtoname_downlevel.obj
 0002:000066e4       ??_C@_1M@BNOEMJLF@?$AAe?$AAs?$AA?9?$AAG?$AAT@ 1004f6e4     libucrt:lcidtoname_downlevel.obj
 0002:000066f0       ??_C@_1M@EOGNKEK@?$AAf?$AAr?$AA?9?$AAC?$AAH@ 1004f6f0     libucrt:lcidtoname_downlevel.obj
 0002:000066fc       ??_C@_1M@FLIDJFHL@?$AAh?$AAr?$AA?9?$AAB?$AAA@ 1004f6fc     libucrt:lcidtoname_downlevel.obj
 0002:00006708       ??_C@_1O@FMCELNAJ@?$AAs?$AAm?$AAj?$AA?9?$AAN?$AAO@ 1004f708     libucrt:lcidtoname_downlevel.obj
 0002:00006718       ??_C@_1M@JHGLJMGJ@?$AAa?$AAr?$AA?9?$AAD?$AAZ@ 1004f718     libucrt:lcidtoname_downlevel.obj
 0002:00006724       ??_C@_1M@JKKFDCNP@?$AAz?$AAh?$AA?9?$AAM?$AAO@ 1004f724     libucrt:lcidtoname_downlevel.obj
 0002:00006730       ??_C@_1M@GEEFALPE@?$AAd?$AAe?$AA?9?$AAL?$AAI@ 1004f730     libucrt:lcidtoname_downlevel.obj
 0002:0000673c       ??_C@_1M@IGEOFBG@?$AAe?$AAn?$AA?9?$AAN?$AAZ@ 1004f73c     libucrt:lcidtoname_downlevel.obj
 0002:00006748       ??_C@_1M@KDBONEHP@?$AAe?$AAs?$AA?9?$AAC?$AAR@ 1004f748     libucrt:lcidtoname_downlevel.obj
 0002:00006754       ??_C@_1M@FHMDOHNN@?$AAf?$AAr?$AA?9?$AAL?$AAU@ 1004f754     libucrt:lcidtoname_downlevel.obj
 0002:00006760       ??_C@_1BG@NFKKMAFG@?$AAb?$AAs?$AA?9?$AAB?$AAA?$AA?9?$AAL?$AAa?$AAt?$AAn@ 1004f760     libucrt:lcidtoname_downlevel.obj
 0002:00006778       ??_C@_1O@IMNBEMCI@?$AAs?$AAm?$AAj?$AA?9?$AAS?$AAE@ 1004f778     libucrt:lcidtoname_downlevel.obj
 0002:00006788       ??_C@_1M@DHHMBNDP@?$AAa?$AAr?$AA?9?$AAM?$AAA@ 1004f788     libucrt:lcidtoname_downlevel.obj
 0002:00006794       ??_C@_1M@BNBLJCGH@?$AAe?$AAn?$AA?9?$AAI?$AAE@ 1004f794     libucrt:lcidtoname_downlevel.obj
 0002:000067a0       ??_C@_1M@GEPAFMDL@?$AAe?$AAs?$AA?9?$AAP?$AAA@ 1004f7a0     libucrt:lcidtoname_downlevel.obj
 0002:000067ac       ??_C@_1M@OJONDMDL@?$AAf?$AAr?$AA?9?$AAM?$AAC@ 1004f7ac     libucrt:lcidtoname_downlevel.obj
 0002:000067b8       ??_C@_1BG@OBCNFJB@?$AAs?$AAr?$AA?9?$AAB?$AAA?$AA?9?$AAL?$AAa?$AAt?$AAn@ 1004f7b8     libucrt:lcidtoname_downlevel.obj
 0002:000067d0       ??_C@_1O@KEMEEGPO@?$AAs?$AAm?$AAa?$AA?9?$AAN?$AAO@ 1004f7d0     libucrt:lcidtoname_downlevel.obj
 0002:000067e0       ??_C@_1M@ELMGFODK@?$AAa?$AAr?$AA?9?$AAT?$AAN@ 1004f7e0     libucrt:lcidtoname_downlevel.obj
 0002:000067ec       ??_C@_1M@BHDLHFAF@?$AAe?$AAn?$AA?9?$AAZ?$AAA@ 1004f7ec     libucrt:lcidtoname_downlevel.obj
 0002:000067f8       ??_C@_1M@BMGIGLIF@?$AAe?$AAs?$AA?9?$AAD?$AAO@ 1004f7f8     libucrt:lcidtoname_downlevel.obj
 0002:00006804       ??_C@_1BG@CMBHIPBE@?$AAs?$AAr?$AA?9?$AAB?$AAA?$AA?9?$AAC?$AAy?$AAr?$AAl@ 1004f804     libucrt:lcidtoname_downlevel.obj
 0002:0000681c       ??_C@_1O@HEDBLHNP@?$AAs?$AAm?$AAa?$AA?9?$AAS?$AAE@ 1004f81c     libucrt:lcidtoname_downlevel.obj
 0002:0000682c       ??_C@_1M@DAGCADIM@?$AAa?$AAr?$AA?9?$AAO?$AAM@ 1004f82c     libucrt:lcidtoname_downlevel.obj
 0002:00006838       ??_C@_1M@FODLMICG@?$AAe?$AAn?$AA?9?$AAJ?$AAM@ 1004f838     libucrt:lcidtoname_downlevel.obj
 0002:00006844       ??_C@_1M@DNMLCIHB@?$AAe?$AAs?$AA?9?$AAV?$AAE@ 1004f844     libucrt:lcidtoname_downlevel.obj
 0002:00006850       ??_C@_1O@EOKHMKJK@?$AAs?$AAm?$AAs?$AA?9?$AAF?$AAI@ 1004f850     libucrt:lcidtoname_downlevel.obj
 0002:00006860       ??_C@_1M@CAFJMKOF@?$AAa?$AAr?$AA?9?$AAY?$AAE@ 1004f860     libucrt:lcidtoname_downlevel.obj
 0002:0000686c       ??_C@_1M@CBFHIJLI@?$AAe?$AAn?$AA?9?$AAC?$AAB@ 1004f86c     libucrt:lcidtoname_downlevel.obj
 0002:00006878       ??_C@_1M@BGNFLDN@?$AAe?$AAs?$AA?9?$AAC?$AAO@ 1004f878     libucrt:lcidtoname_downlevel.obj
 0002:00006884       ??_C@_1O@JMPHMAMC@?$AAs?$AAm?$AAn?$AA?9?$AAF?$AAI@ 1004f884     libucrt:lcidtoname_downlevel.obj
 0002:00006894       ??_C@_1M@JLANABKE@?$AAa?$AAr?$AA?9?$AAS?$AAY@ 1004f894     libucrt:lcidtoname_downlevel.obj
 0002:000068a0       ??_C@_1M@HPKGCFGN@?$AAe?$AAn?$AA?9?$AAB?$AAZ@ 1004f8a0     libucrt:lcidtoname_downlevel.obj
 0002:000068ac       ??_C@_1M@OLJCMLGM@?$AAe?$AAs?$AA?9?$AAP?$AAE@ 1004f8ac     libucrt:lcidtoname_downlevel.obj
 0002:000068b8       ??_C@_1M@MKKGFKLE@?$AAa?$AAr?$AA?9?$AAJ?$AAO@ 1004f8b8     libucrt:lcidtoname_downlevel.obj
 0002:000068c4       ??_C@_1M@EKPGLDNI@?$AAe?$AAn?$AA?9?$AAT?$AAT@ 1004f8c4     libucrt:lcidtoname_downlevel.obj
 0002:000068d0       ??_C@_1M@OONGHFHE@?$AAe?$AAs?$AA?9?$AAA?$AAR@ 1004f8d0     libucrt:lcidtoname_downlevel.obj
 0002:000068dc       ??_C@_1M@OOJFGBHE@?$AAa?$AAr?$AA?9?$AAL?$AAB@ 1004f8dc     libucrt:lcidtoname_downlevel.obj
 0002:000068e8       ??_C@_1M@GCEJHNEG@?$AAe?$AAn?$AA?9?$AAZ?$AAW@ 1004f8e8     libucrt:lcidtoname_downlevel.obj
 0002:000068f4       ??_C@_1M@JNOCAHJI@?$AAe?$AAs?$AA?9?$AAE?$AAC@ 1004f8f4     libucrt:lcidtoname_downlevel.obj
 0002:00006900       ??_C@_1M@JEFHPGGB@?$AAa?$AAr?$AA?9?$AAK?$AAW@ 1004f900     libucrt:lcidtoname_downlevel.obj
 0002:0000690c       ??_C@_1M@MLKIBJOJ@?$AAe?$AAn?$AA?9?$AAP?$AAH@ 1004f90c     libucrt:lcidtoname_downlevel.obj
 0002:00006918       ??_C@_1M@BDNIPEND@?$AAe?$AAs?$AA?9?$AAC?$AAL@ 1004f918     libucrt:lcidtoname_downlevel.obj
 0002:00006924       ??_C@_1M@MPNMEKBD@?$AAa?$AAr?$AA?9?$AAA?$AAE@ 1004f924     libucrt:lcidtoname_downlevel.obj
 0002:00006930       ??_C@_1M@KBJALCPI@?$AAe?$AAs?$AA?9?$AAU?$AAY@ 1004f930     libucrt:lcidtoname_downlevel.obj
 0002:0000693c       ??_C@_1M@LLCCOAGA@?$AAa?$AAr?$AA?9?$AAB?$AAH@ 1004f93c     libucrt:lcidtoname_downlevel.obj
 0002:00006948       ??_C@_1M@PBFNCDEL@?$AAe?$AAs?$AA?9?$AAP?$AAY@ 1004f948     libucrt:lcidtoname_downlevel.obj
 0002:00006954       ??_C@_1M@EDGINPNP@?$AAa?$AAr?$AA?9?$AAQ?$AAA@ 1004f954     libucrt:lcidtoname_downlevel.obj
 0002:00006960       ??_C@_1M@MKDBIIJI@?$AAe?$AAs?$AA?9?$AAB?$AAO@ 1004f960     libucrt:lcidtoname_downlevel.obj
 0002:0000696c       ??_C@_1M@CPKKEBLD@?$AAe?$AAs?$AA?9?$AAS?$AAV@ 1004f96c     libucrt:lcidtoname_downlevel.obj
 0002:00006978       ??_C@_1M@NDBGMMJL@?$AAe?$AAs?$AA?9?$AAH?$AAN@ 1004f978     libucrt:lcidtoname_downlevel.obj
 0002:00006984       ??_C@_1M@JIJIBHDP@?$AAe?$AAs?$AA?9?$AAN?$AAI@ 1004f984     libucrt:lcidtoname_downlevel.obj
 0002:00006990       ??_C@_1M@CGFMKEEK@?$AAe?$AAs?$AA?9?$AAP?$AAR@ 1004f990     libucrt:lcidtoname_downlevel.obj
 0002:0000699c       ??_C@_1O@ICJHKIIK@?$AAz?$AAh?$AA?9?$AAC?$AAH?$AAT@ 1004f99c     libucrt:lcidtoname_downlevel.obj
 0002:000069ac       ??_C@_15CLNEJCE@?$AAs?$AAr@ 1004f9ac     libucrt:lcidtoname_downlevel.obj
 0002:000070d8       ??_C@_1M@KAHEKEIG@?$AAa?$AAf?$AA?9?$AAz?$AAa@ 100500d8     libucrt:lcidtoname_downlevel.obj
 0002:000070e4       ??_C@_1M@GIECOABL@?$AAa?$AAr?$AA?9?$AAa?$AAe@ 100500e4     libucrt:lcidtoname_downlevel.obj
 0002:000070f0       ??_C@_1M@BMLMEKGI@?$AAa?$AAr?$AA?9?$AAb?$AAh@ 100500f0     libucrt:lcidtoname_downlevel.obj
 0002:000070fc       ??_C@_1M@DAPFDGGB@?$AAa?$AAr?$AA?9?$AAd?$AAz@ 100500fc     libucrt:lcidtoname_downlevel.obj
 0002:00007108       ??_C@_1M@FJNKGKIG@?$AAa?$AAr?$AA?9?$AAe?$AAg@ 10050108     libucrt:lcidtoname_downlevel.obj
 0002:00007114       ??_C@_1M@FLGKKCLO@?$AAa?$AAr?$AA?9?$AAi?$AAq@ 10050114     libucrt:lcidtoname_downlevel.obj
 0002:00007120       ??_C@_1M@GNDIPALM@?$AAa?$AAr?$AA?9?$AAj?$AAo@ 10050120     libucrt:lcidtoname_downlevel.obj
 0002:0000712c       ??_C@_1M@DDMJFMGJ@?$AAa?$AAr?$AA?9?$AAk?$AAw@ 1005012c     libucrt:lcidtoname_downlevel.obj
 0002:00007138       ??_C@_1M@EJALMLHM@?$AAa?$AAr?$AA?9?$AAl?$AAb@ 10050138     libucrt:lcidtoname_downlevel.obj
 0002:00007144       ??_C@_1M@MOBDBLOC@?$AAa?$AAr?$AA?9?$AAl?$AAy@ 10050144     libucrt:lcidtoname_downlevel.obj
 0002:00007150       ??_C@_1M@JAOCLHDH@?$AAa?$AAr?$AA?9?$AAm?$AAa@ 10050150     libucrt:lcidtoname_downlevel.obj
 0002:0000715c       ??_C@_1M@JHPMKJIE@?$AAa?$AAr?$AA?9?$AAo?$AAm@ 1005015c     libucrt:lcidtoname_downlevel.obj
 0002:00007168       ??_C@_1M@OEPGHFNH@?$AAa?$AAr?$AA?9?$AAq?$AAa@ 10050168     libucrt:lcidtoname_downlevel.obj
 0002:00007174       ??_C@_1M@KJDONENM@?$AAa?$AAr?$AA?9?$AAs?$AAa@ 10050174     libucrt:lcidtoname_downlevel.obj
 0002:00007180       ??_C@_1M@DMJDKLKM@?$AAa?$AAr?$AA?9?$AAs?$AAy@ 10050180     libucrt:lcidtoname_downlevel.obj
 0002:0000718c       ??_C@_1M@OMFIPEDC@?$AAa?$AAr?$AA?9?$AAt?$AAn@ 1005018c     libucrt:lcidtoname_downlevel.obj
 0002:00007198       ??_C@_1M@IHMHGAON@?$AAa?$AAr?$AA?9?$AAy?$AAe@ 10050198     libucrt:lcidtoname_downlevel.obj
 0002:000071a4       ??_C@_1BG@KDCPGJGB@?$AAa?$AAz?$AA?9?$AAa?$AAz?$AA?9?$AAc?$AAy?$AAr?$AAl@ 100501a4     libucrt:lcidtoname_downlevel.obj
 0002:000071bc       ??_C@_1BG@IBCKDDOE@?$AAa?$AAz?$AA?9?$AAa?$AAz?$AA?9?$AAl?$AAa?$AAt?$AAn@ 100501bc     libucrt:lcidtoname_downlevel.obj
 0002:000071d4       ??_C@_1M@EGPFDCPD@?$AAb?$AAe?$AA?9?$AAb?$AAy@ 100501d4     libucrt:lcidtoname_downlevel.obj
 0002:000071e0       ??_C@_1M@PCMGMCGC@?$AAb?$AAg?$AA?9?$AAb?$AAg@ 100501e0     libucrt:lcidtoname_downlevel.obj
 0002:000071ec       ??_C@_1M@BJBMFGOB@?$AAb?$AAn?$AA?9?$AAi?$AAn@ 100501ec     libucrt:lcidtoname_downlevel.obj
 0002:000071f8       ??_C@_1BG@EAKMMACD@?$AAb?$AAs?$AA?9?$AAb?$AAa?$AA?9?$AAl?$AAa?$AAt?$AAn@ 100501f8     libucrt:lcidtoname_downlevel.obj
 0002:00007210       ??_C@_1M@KGADAODK@?$AAc?$AAa?$AA?9?$AAe?$AAs@ 10050210     libucrt:lcidtoname_downlevel.obj
 0002:0000721c       ??_C@_1M@COAJPDHI@?$AAc?$AAs?$AA?9?$AAc?$AAz@ 1005021c     libucrt:lcidtoname_downlevel.obj
 0002:00007228       ??_C@_1M@DHBHFONH@?$AAc?$AAy?$AA?9?$AAg?$AAb@ 10050228     libucrt:lcidtoname_downlevel.obj
 0002:00007234       ??_C@_1M@IMGKELGA@?$AAd?$AAa?$AA?9?$AAd?$AAk@ 10050234     libucrt:lcidtoname_downlevel.obj
 0002:00007240       ??_C@_1M@NNDGDNGA@?$AAd?$AAe?$AA?9?$AAa?$AAt@ 10050240     libucrt:lcidtoname_downlevel.obj
 0002:0000724c       ??_C@_1M@IKDBHEEM@?$AAd?$AAe?$AA?9?$AAc?$AAh@ 1005024c     libucrt:lcidtoname_downlevel.obj
 0002:00007258       ??_C@_1M@GFFOJMCJ@?$AAd?$AAe?$AA?9?$AAd?$AAe@ 10050258     libucrt:lcidtoname_downlevel.obj
 0002:00007264       ??_C@_1M@MDNLKBPM@?$AAd?$AAe?$AA?9?$AAl?$AAi@ 10050264     libucrt:lcidtoname_downlevel.obj
 0002:00007270       ??_C@_1M@NJBEEJNL@?$AAd?$AAe?$AA?9?$AAl?$AAu@ 10050270     libucrt:lcidtoname_downlevel.obj
 0002:0000727c       ??_C@_1O@GNNELBAP@?$AAd?$AAi?$AAv?$AA?9?$AAm?$AAv@ 1005027c     libucrt:lcidtoname_downlevel.obj
 0002:0000728c       ??_C@_1M@EJLEOGAE@?$AAe?$AAl?$AA?9?$AAg?$AAr@ 1005028c     libucrt:lcidtoname_downlevel.obj
 0002:00007298       ??_C@_1M@GMPONJN@?$AAe?$AAn?$AA?9?$AAa?$AAu@ 10050298     libucrt:lcidtoname_downlevel.obj
 0002:000072a4       ??_C@_1M@NIDIIPGF@?$AAe?$AAn?$AA?9?$AAb?$AAz@ 100502a4     libucrt:lcidtoname_downlevel.obj
 0002:000072b0       ??_C@_1M@JEHMIMFO@?$AAe?$AAn?$AA?9?$AAc?$AAa@ 100502b0     libucrt:lcidtoname_downlevel.obj
 0002:000072bc       ??_C@_1M@IGMJCDLA@?$AAe?$AAn?$AA?9?$AAc?$AAb@ 100502bc     libucrt:lcidtoname_downlevel.obj
 0002:000072c8       ??_C@_1M@BNFIGBKG@?$AAe?$AAn?$AA?9?$AAg?$AAb@ 100502c8     libucrt:lcidtoname_downlevel.obj
 0002:000072d4       ??_C@_1M@LKIFDIGP@?$AAe?$AAn?$AA?9?$AAi?$AAe@ 100502d4     libucrt:lcidtoname_downlevel.obj
 0002:000072e0       ??_C@_1M@PJKFGCCO@?$AAe?$AAn?$AA?9?$AAj?$AAm@ 100502e0     libucrt:lcidtoname_downlevel.obj
 0002:000072ec       ??_C@_1M@KPPKEPBO@?$AAe?$AAn?$AA?9?$AAn?$AAz@ 100502ec     libucrt:lcidtoname_downlevel.obj
 0002:000072f8       ??_C@_1M@GMDGLDOB@?$AAe?$AAn?$AA?9?$AAp?$AAh@ 100502f8     libucrt:lcidtoname_downlevel.obj
 0002:00007304       ??_C@_1M@ONGIBJNA@?$AAe?$AAn?$AA?9?$AAt?$AAt@ 10050304     libucrt:lcidtoname_downlevel.obj
 0002:00007310       ??_C@_1M@LLODPCMM@?$AAe?$AAn?$AA?9?$AAu?$AAs@ 10050310     libucrt:lcidtoname_downlevel.obj
 0002:0000731c       ??_C@_1M@LAKFNPAN@?$AAe?$AAn?$AA?9?$AAz?$AAa@ 1005031c     libucrt:lcidtoname_downlevel.obj
 0002:00007328       ??_C@_1M@MFNHNHEO@?$AAe?$AAn?$AA?9?$AAz?$AAw@ 10050328     libucrt:lcidtoname_downlevel.obj
 0002:00007334       ??_C@_1M@EJEINPHM@?$AAe?$AAs?$AA?9?$AAa?$AAr@ 10050334     libucrt:lcidtoname_downlevel.obj
 0002:00007340       ??_C@_1M@GNKPCCJA@?$AAe?$AAs?$AA?9?$AAb?$AAo@ 10050340     libucrt:lcidtoname_downlevel.obj
 0002:0000734c       ??_C@_1M@LEEGFONL@?$AAe?$AAs?$AA?9?$AAc?$AAl@ 1005034c     libucrt:lcidtoname_downlevel.obj
 0002:00007358       ??_C@_1M@KGPDPBDF@?$AAe?$AAs?$AA?9?$AAc?$AAo@ 10050358     libucrt:lcidtoname_downlevel.obj
 0002:00007364       ??_C@_1M@EIAHOHH@?$AAe?$AAs?$AA?9?$AAc?$AAr@ 10050364     libucrt:lcidtoname_downlevel.obj
 0002:00007370       ??_C@_1M@LLPGMBIN@?$AAe?$AAs?$AA?9?$AAd?$AAo@ 10050370     libucrt:lcidtoname_downlevel.obj
 0002:0000737c       ??_C@_1M@DKHMKNJA@?$AAe?$AAs?$AA?9?$AAe?$AAc@ 1005037c     libucrt:lcidtoname_downlevel.obj
 0002:00007388       ??_C@_1M@GKGFPKAP@?$AAe?$AAs?$AA?9?$AAe?$AAs@ 10050388     libucrt:lcidtoname_downlevel.obj
 0002:00007394       ??_C@_1M@LKHKGDLN@?$AAe?$AAs?$AA?9?$AAg?$AAt@ 10050394     libucrt:lcidtoname_downlevel.obj
 0002:000073a0       ??_C@_1M@HEIIGGJD@?$AAe?$AAs?$AA?9?$AAh?$AAn@ 100503a0     libucrt:lcidtoname_downlevel.obj
 0002:000073ac       ??_C@_1M@FBDHPPGD@?$AAe?$AAs?$AA?9?$AAm?$AAx@ 100503ac     libucrt:lcidtoname_downlevel.obj
 0002:000073b8       ??_C@_1M@DPAGLNDH@?$AAe?$AAs?$AA?9?$AAn?$AAi@ 100503b8     libucrt:lcidtoname_downlevel.obj
 0002:000073c4       ??_C@_1M@MDGOPGDD@?$AAe?$AAs?$AA?9?$AAp?$AAa@ 100503c4     libucrt:lcidtoname_downlevel.obj
 0002:000073d0       ??_C@_1M@EMAMGBGE@?$AAe?$AAs?$AA?9?$AAp?$AAe@ 100503d0     libucrt:lcidtoname_downlevel.obj
 0002:000073dc       ??_C@_1M@IBMCAOEC@?$AAe?$AAs?$AA?9?$AAp?$AAr@ 100503dc     libucrt:lcidtoname_downlevel.obj
 0002:000073e8       ??_C@_1M@FGMDIJED@?$AAe?$AAs?$AA?9?$AAp?$AAy@ 100503e8     libucrt:lcidtoname_downlevel.obj
 0002:000073f4       ??_C@_1M@IIDEOLLL@?$AAe?$AAs?$AA?9?$AAs?$AAv@ 100503f4     libucrt:lcidtoname_downlevel.obj
 0002:00007400       ??_C@_1M@GAOBIPA@?$AAe?$AAs?$AA?9?$AAu?$AAy@ 10050400     libucrt:lcidtoname_downlevel.obj
 0002:0000740c       ??_C@_1M@JKFFICHJ@?$AAe?$AAs?$AA?9?$AAv?$AAe@ 1005040c     libucrt:lcidtoname_downlevel.obj
 0002:00007418       ??_C@_1M@PNMLOJDF@?$AAe?$AAt?$AA?9?$AAe?$AAe@ 10050418     libucrt:lcidtoname_downlevel.obj
 0002:00007424       ??_C@_1M@GHHLIKEI@?$AAe?$AAu?$AA?9?$AAe?$AAs@ 10050424     libucrt:lcidtoname_downlevel.obj
 0002:00007430       ??_C@_1M@PBNONODE@?$AAf?$AAa?$AA?9?$AAi?$AAr@ 10050430     libucrt:lcidtoname_downlevel.obj
 0002:0000743c       ??_C@_1M@JEEHPMIL@?$AAf?$AAi?$AA?9?$AAf?$AAi@ 1005043c     libucrt:lcidtoname_downlevel.obj
 0002:00007448       ??_C@_1M@LMDCNDBA@?$AAf?$AAo?$AA?9?$AAf?$AAo@ 10050448     libucrt:lcidtoname_downlevel.obj
 0002:00007454       ??_C@_1M@JKEOHLDK@?$AAf?$AAr?$AA?9?$AAb?$AAe@ 10050454     libucrt:lcidtoname_downlevel.obj
 0002:00007460       ??_C@_1M@NOHADPMI@?$AAf?$AAr?$AA?9?$AAc?$AAa@ 10050460     libucrt:lcidtoname_downlevel.obj
 0002:0000746c       ??_C@_1M@KDHIHAEC@?$AAf?$AAr?$AA?9?$AAc?$AAh@ 1005046c     libucrt:lcidtoname_downlevel.obj
 0002:00007478       ??_C@_1M@MMBBFGAK@?$AAf?$AAr?$AA?9?$AAf?$AAr@ 10050478     libucrt:lcidtoname_downlevel.obj
 0002:00007484       ??_C@_1M@PAFNENNF@?$AAf?$AAr?$AA?9?$AAl?$AAu@ 10050484     libucrt:lcidtoname_downlevel.obj
 0002:00007490       ??_C@_1M@EOHDJGDD@?$AAf?$AAr?$AA?9?$AAm?$AAc@ 10050490     libucrt:lcidtoname_downlevel.obj
 0002:0000749c       ??_C@_1M@FAPLLOPF@?$AAg?$AAl?$AA?9?$AAe?$AAs@ 1005049c     libucrt:lcidtoname_downlevel.obj
 0002:000074a8       ??_C@_1M@FOPBFLOO@?$AAg?$AAu?$AA?9?$AAi?$AAn@ 100504a8     libucrt:lcidtoname_downlevel.obj
 0002:000074b4       ??_C@_1M@KBMCINPM@?$AAh?$AAe?$AA?9?$AAi?$AAl@ 100504b4     libucrt:lcidtoname_downlevel.obj
 0002:000074c0       ??_C@_1M@BBPHKFPJ@?$AAh?$AAi?$AA?9?$AAi?$AAn@ 100504c0     libucrt:lcidtoname_downlevel.obj
 0002:000074cc       ??_C@_1M@PMBNDPHD@?$AAh?$AAr?$AA?9?$AAb?$AAa@ 100504cc     libucrt:lcidtoname_downlevel.obj
 0002:000074d8       ??_C@_1M@BPCKOEGE@?$AAh?$AAr?$AA?9?$AAh?$AAr@ 100504d8     libucrt:lcidtoname_downlevel.obj
 0002:000074e4       ??_C@_1M@GACBMHKE@?$AAh?$AAu?$AA?9?$AAh?$AAu@ 100504e4     libucrt:lcidtoname_downlevel.obj
 0002:000074f0       ??_C@_1M@MILPAJJC@?$AAh?$AAy?$AA?9?$AAa?$AAm@ 100504f0     libucrt:lcidtoname_downlevel.obj
 0002:000074fc       ??_C@_1M@BABBICEC@?$AAi?$AAd?$AA?9?$AAi?$AAd@ 100504fc     libucrt:lcidtoname_downlevel.obj
 0002:00007508       ??_C@_1M@BIKNHHPF@?$AAi?$AAs?$AA?9?$AAi?$AAs@ 10050508     libucrt:lcidtoname_downlevel.obj
 0002:00007514       ??_C@_1M@NMPCJPHE@?$AAi?$AAt?$AA?9?$AAc?$AAh@ 10050514     libucrt:lcidtoname_downlevel.obj
 0002:00007520       ??_C@_1M@GHKGFEDF@?$AAi?$AAt?$AA?9?$AAi?$AAt@ 10050520     libucrt:lcidtoname_downlevel.obj
 0002:0000752c       ??_C@_1M@NIEJCJJA@?$AAj?$AAa?$AA?9?$AAj?$AAp@ 1005052c     libucrt:lcidtoname_downlevel.obj
 0002:00007538       ??_C@_1M@JILFNBIM@?$AAk?$AAa?$AA?9?$AAg?$AAe@ 10050538     libucrt:lcidtoname_downlevel.obj
 0002:00007544       ??_C@_1M@PACPMGPH@?$AAk?$AAk?$AA?9?$AAk?$AAz@ 10050544     libucrt:lcidtoname_downlevel.obj
 0002:00007550       ??_C@_1M@IELFGMHA@?$AAk?$AAn?$AA?9?$AAi?$AAn@ 10050550     libucrt:lcidtoname_downlevel.obj
 0002:0000755c       ??_C@_1O@IBBJHCH@?$AAk?$AAo?$AAk?$AA?9?$AAi?$AAn@ 1005055c     libucrt:lcidtoname_downlevel.obj
 0002:0000756c       ??_C@_1M@DMHAEOGC@?$AAk?$AAo?$AA?9?$AAk?$AAr@ 1005056c     libucrt:lcidtoname_downlevel.obj
 0002:00007578       ??_C@_1M@HBAHBIGA@?$AAk?$AAy?$AA?9?$AAk?$AAg@ 10050578     libucrt:lcidtoname_downlevel.obj
 0002:00007584       ??_C@_1M@KPMILCJG@?$AAl?$AAt?$AA?9?$AAl?$AAt@ 10050584     libucrt:lcidtoname_downlevel.obj
 0002:00007590       ??_C@_1M@BDEKKCA@?$AAl?$AAv?$AA?9?$AAl?$AAv@ 10050590     libucrt:lcidtoname_downlevel.obj
 0002:0000759c       ??_C@_1M@ELCKCCJJ@?$AAm?$AAi?$AA?9?$AAn?$AAz@ 1005059c     libucrt:lcidtoname_downlevel.obj
 0002:000075a8       ??_C@_1M@CBOOLAPA@?$AAm?$AAk?$AA?9?$AAm?$AAk@ 100505a8     libucrt:lcidtoname_downlevel.obj
 0002:000075b4       ??_C@_1M@GPHNBJKN@?$AAm?$AAl?$AA?9?$AAi?$AAn@ 100505b4     libucrt:lcidtoname_downlevel.obj
 0002:000075c0       ??_C@_1M@PABJILIG@?$AAm?$AAn?$AA?9?$AAm?$AAn@ 100505c0     libucrt:lcidtoname_downlevel.obj
 0002:000075cc       ??_C@_1M@FGBKKIPG@?$AAm?$AAr?$AA?9?$AAi?$AAn@ 100505cc     libucrt:lcidtoname_downlevel.obj
 0002:000075d8       ??_C@_1M@NDBPDDAL@?$AAm?$AAs?$AA?9?$AAb?$AAn@ 100505d8     libucrt:lcidtoname_downlevel.obj
 0002:000075e4       ??_C@_1M@OPIHOOPI@?$AAm?$AAs?$AA?9?$AAm?$AAy@ 100505e4     libucrt:lcidtoname_downlevel.obj
 0002:000075f0       ??_C@_1M@PPDBCNFM@?$AAm?$AAt?$AA?9?$AAm?$AAt@ 100505f0     libucrt:lcidtoname_downlevel.obj
 0002:000075fc       ??_C@_1M@KDJDKMDD@?$AAn?$AAb?$AA?9?$AAn?$AAo@ 100505fc     libucrt:lcidtoname_downlevel.obj
 0002:00007608       ??_C@_1M@KFCFLMJP@?$AAn?$AAl?$AA?9?$AAb?$AAe@ 10050608     libucrt:lcidtoname_downlevel.obj
 0002:00007614       ??_C@_1M@KPOPDDGO@?$AAn?$AAl?$AA?9?$AAn?$AAl@ 10050614     libucrt:lcidtoname_downlevel.obj
 0002:00007620       ??_C@_1M@LJKPEMLN@?$AAn?$AAn?$AA?9?$AAn?$AAo@ 10050620     libucrt:lcidtoname_downlevel.obj
 0002:0000762c       ??_C@_1M@BDGHHBFL@?$AAn?$AAs?$AA?9?$AAz?$AAa@ 1005062c     libucrt:lcidtoname_downlevel.obj
 0002:00007638       ??_C@_1M@IDEHOAP@?$AAp?$AAa?$AA?9?$AAi?$AAn@ 10050638     libucrt:lcidtoname_downlevel.obj
 0002:00007644       ??_C@_1M@HDBKGOGH@?$AAp?$AAl?$AA?9?$AAp?$AAl@ 10050644     libucrt:lcidtoname_downlevel.obj
 0002:00007650       ??_C@_1M@LJLLCMEH@?$AAp?$AAt?$AA?9?$AAb?$AAr@ 10050650     libucrt:lcidtoname_downlevel.obj
 0002:0000765c       ??_C@_1M@NCMONAAL@?$AAp?$AAt?$AA?9?$AAp?$AAt@ 1005065c     libucrt:lcidtoname_downlevel.obj
 0002:00007668       ??_C@_1O@EAKMAJDN@?$AAq?$AAu?$AAz?$AA?9?$AAb?$AAo@ 10050668     libucrt:lcidtoname_downlevel.obj
 0002:00007678       ??_C@_1O@BHHPIGDN@?$AAq?$AAu?$AAz?$AA?9?$AAe?$AAc@ 10050678     libucrt:lcidtoname_downlevel.obj
 0002:00007688       ??_C@_1O@GBAPEKMJ@?$AAq?$AAu?$AAz?$AA?9?$AAp?$AAe@ 10050688     libucrt:lcidtoname_downlevel.obj
 0002:00007698       ??_C@_1M@CLGLEFBO@?$AAr?$AAo?$AA?9?$AAr?$AAo@ 10050698     libucrt:lcidtoname_downlevel.obj
 0002:000076a4       ??_C@_1M@CEEDODME@?$AAr?$AAu?$AA?9?$AAr?$AAu@ 100506a4     libucrt:lcidtoname_downlevel.obj
 0002:000076b0       ??_C@_1M@HPKKKMPP@?$AAs?$AAa?$AA?9?$AAi?$AAn@ 100506b0     libucrt:lcidtoname_downlevel.obj
 0002:000076bc       ??_C@_1M@BKMAIGOJ@?$AAs?$AAe?$AA?9?$AAf?$AAi@ 100506bc     libucrt:lcidtoname_downlevel.obj
 0002:000076c8       ??_C@_1M@NDPIFLFI@?$AAs?$AAe?$AA?9?$AAn?$AAo@ 100506c8     libucrt:lcidtoname_downlevel.obj
 0002:000076d4       ??_C@_1M@DANKKHJ@?$AAs?$AAe?$AA?9?$AAs?$AAe@ 100506d4     libucrt:lcidtoname_downlevel.obj
 0002:000076e0       ??_C@_1M@PNBLONPJ@?$AAs?$AAk?$AA?9?$AAs?$AAk@ 100506e0     libucrt:lcidtoname_downlevel.obj
 0002:000076ec       ??_C@_1M@LFMODOAL@?$AAs?$AAl?$AA?9?$AAs?$AAi@ 100506ec     libucrt:lcidtoname_downlevel.obj
 0002:000076f8       ??_C@_1O@DFKOMPG@?$AAs?$AAm?$AAa?$AA?9?$AAn?$AAo@ 100506f8     libucrt:lcidtoname_downlevel.obj
 0002:00007708       ??_C@_1O@NDKPBNNH@?$AAs?$AAm?$AAa?$AA?9?$AAs?$AAe@ 10050708     libucrt:lcidtoname_downlevel.obj
 0002:00007718       ??_C@_1O@PLLKBHAB@?$AAs?$AAm?$AAj?$AA?9?$AAn?$AAo@ 10050718     libucrt:lcidtoname_downlevel.obj
 0002:00007728       ??_C@_1O@CLEPOGCA@?$AAs?$AAm?$AAj?$AA?9?$AAs?$AAe@ 10050728     libucrt:lcidtoname_downlevel.obj
 0002:00007738       ??_C@_1O@DLGJGKMK@?$AAs?$AAm?$AAn?$AA?9?$AAf?$AAi@ 10050738     libucrt:lcidtoname_downlevel.obj
 0002:00007748       ??_C@_1O@OJDJGAJC@?$AAs?$AAm?$AAs?$AA?9?$AAf?$AAi@ 10050748     libucrt:lcidtoname_downlevel.obj
 0002:00007758       ??_C@_1M@BOFOGHPB@?$AAs?$AAq?$AA?9?$AAa?$AAl@ 10050758     libucrt:lcidtoname_downlevel.obj
 0002:00007764       ??_C@_1BG@LJBBIPGB@?$AAs?$AAr?$AA?9?$AAb?$AAa?$AA?9?$AAc?$AAy?$AAr?$AAl@ 10050764     libucrt:lcidtoname_downlevel.obj
 0002:0000777c       ??_C@_1BG@JLBENFOE@?$AAs?$AAr?$AA?9?$AAb?$AAa?$AA?9?$AAl?$AAa?$AAt?$AAn@ 1005077c     libucrt:lcidtoname_downlevel.obj
 0002:00007794       ??_C@_1BG@KODPNHE@?$AAs?$AAr?$AA?9?$AAs?$AAp?$AA?9?$AAc?$AAy?$AAr?$AAl@ 10050794     libucrt:lcidtoname_downlevel.obj
 0002:000077ac       ??_C@_1BG@CIOGKHPB@?$AAs?$AAr?$AA?9?$AAs?$AAp?$AA?9?$AAl?$AAa?$AAt?$AAn@ 100507ac     libucrt:lcidtoname_downlevel.obj
 0002:000077c4       ??_C@_1M@NGFJLMAC@?$AAs?$AAv?$AA?9?$AAf?$AAi@ 100507c4     libucrt:lcidtoname_downlevel.obj
 0002:000077d0       ??_C@_1M@MPJEJAJC@?$AAs?$AAv?$AA?9?$AAs?$AAe@ 100507d0     libucrt:lcidtoname_downlevel.obj
 0002:000077dc       ??_C@_1M@MPNDHLFK@?$AAs?$AAw?$AA?9?$AAk?$AAe@ 100507dc     libucrt:lcidtoname_downlevel.obj
 0002:000077e8       ??_C@_1O@KOHBJJI@?$AAs?$AAy?$AAr?$AA?9?$AAs?$AAy@ 100507e8     libucrt:lcidtoname_downlevel.obj
 0002:000077f8       ??_C@_1M@LDCEFHA@?$AAt?$AAa?$AA?9?$AAi?$AAn@ 100507f8     libucrt:lcidtoname_downlevel.obj
 0002:00007804       ??_C@_1M@CNJOFAK@?$AAt?$AAe?$AA?9?$AAi?$AAn@ 10050804     libucrt:lcidtoname_downlevel.obj
 0002:00007810       ??_C@_1M@GNAECACD@?$AAt?$AAh?$AA?9?$AAt?$AAh@ 10050810     libucrt:lcidtoname_downlevel.obj
 0002:0000781c       ??_C@_1M@CHBIHOJO@?$AAt?$AAn?$AA?9?$AAz?$AAa@ 1005081c     libucrt:lcidtoname_downlevel.obj
 0002:00007828       ??_C@_1M@GCCMIGPJ@?$AAt?$AAr?$AA?9?$AAt?$AAr@ 10050828     libucrt:lcidtoname_downlevel.obj
 0002:00007834       ??_C@_1M@CELMCNBK@?$AAt?$AAt?$AA?9?$AAr?$AAu@ 10050834     libucrt:lcidtoname_downlevel.obj
 0002:00007840       ??_C@_1M@KLMCELGA@?$AAu?$AAk?$AA?9?$AAu?$AAa@ 10050840     libucrt:lcidtoname_downlevel.obj
 0002:0000784c       ??_C@_1M@EPAJJAJF@?$AAu?$AAr?$AA?9?$AAp?$AAk@ 1005084c     libucrt:lcidtoname_downlevel.obj
 0002:00007858       ??_C@_1BG@GEGPMCDJ@?$AAu?$AAz?$AA?9?$AAu?$AAz?$AA?9?$AAc?$AAy?$AAr?$AAl@ 10050858     libucrt:lcidtoname_downlevel.obj
 0002:00007870       ??_C@_1BG@EGGKJILM@?$AAu?$AAz?$AA?9?$AAu?$AAz?$AA?9?$AAl?$AAa?$AAt?$AAn@ 10050870     libucrt:lcidtoname_downlevel.obj
 0002:00007888       ??_C@_1M@GFOCLFF@?$AAv?$AAi?$AA?9?$AAv?$AAn@ 10050888     libucrt:lcidtoname_downlevel.obj
 0002:00007894       ??_C@_1M@CPAMEDFI@?$AAx?$AAh?$AA?9?$AAz?$AAa@ 10050894     libucrt:lcidtoname_downlevel.obj
 0002:000078a0       ??_C@_1O@EBKIFIGN@?$AAz?$AAh?$AA?9?$AAc?$AAh?$AAs@ 100508a0     libucrt:lcidtoname_downlevel.obj
 0002:000078b0       ??_C@_1O@NMHPGANE@?$AAz?$AAh?$AA?9?$AAc?$AAh?$AAt@ 100508b0     libucrt:lcidtoname_downlevel.obj
 0002:000078c0       ??_C@_1M@LPINJOMC@?$AAz?$AAh?$AA?9?$AAc?$AAn@ 100508c0     libucrt:lcidtoname_downlevel.obj
 0002:000078cc       ??_C@_1M@OCJEJODD@?$AAz?$AAh?$AA?9?$AAh?$AAk@ 100508cc     libucrt:lcidtoname_downlevel.obj
 0002:000078d8       ??_C@_1M@DNDLJINH@?$AAz?$AAh?$AA?9?$AAm?$AAo@ 100508d8     libucrt:lcidtoname_downlevel.obj
 0002:000078e4       ??_C@_1M@MBFDNDND@?$AAz?$AAh?$AA?9?$AAs?$AAg@ 100508e4     libucrt:lcidtoname_downlevel.obj
 0002:000078f0       ??_C@_1M@IMEPLEPE@?$AAz?$AAh?$AA?9?$AAt?$AAw@ 100508f0     libucrt:lcidtoname_downlevel.obj
 0002:000078fc       ??_C@_1M@BBGHNHJP@?$AAz?$AAu?$AA?9?$AAz?$AAa@ 100508fc     libucrt:lcidtoname_downlevel.obj
 0002:00007a70       __infinity                 10050a70     libucrt:87tran.obj
 0002:00007a7a       __minfinity                10050a7a     libucrt:87tran.obj
 0002:00007a84       __logemax                  10050a84     libucrt:87tran.obj
 0002:00007aaa       __OP_EXPjmptab             10050aaa     libucrt:87tran.obj
 0002:00007ad0       __indefinite               10050ad0     libucrt:87disp.obj
 0002:00007ada       __piby2                    10050ada     libucrt:87disp.obj
 0002:00007ae4       __piby4                    10050ae4     libucrt:87disp.obj
 0002:00007b18       __DEFAULT_CW_in_mem        10050b18     libucrt:common.obj
 0002:00007b1a       __pi_by_2_to_61            10050b1a     libucrt:common.obj
 0002:00007b54       ??_C@_1BA@BALFACEM@?$AAC?$AAO?$AAN?$AAO?$AAU?$AAT?$AA$@ 10050b54     libucrt:initcon.obj
 0002:00007b70       ___acrt_log10_table_t      10050b70     libucrt:log10_tables.obj
 0002:00007f80       ___acrt_log10_table_cb     10050f80     libucrt:log10_tables.obj
 0002:0000839c       __Asan_string_should_annotate 1005139c     libcpmt:asan_noop.obj
 0002:0000839c       __Asan_string_should_annotate_default 1005139c     libcpmt:asan_noop.obj
 0002:0000839d       __Asan_vector_should_annotate_default 1005139d     libcpmt:asan_noop.obj
 0002:000083a0       ??_C@_0N@IAJIDHKP@DlgBluBo?4def@ 100513a0     DrawPcx16ResizedBicubic.obj
 0002:000083b0       ??_C@_0N@BJEFDLGA@DlgBluBk?4PCX@ 100513b0     DrawPcx16ResizedBicubic.obj
 0002:000083c0       ??_C@_0N@BJNHCFMF@HD_TStat?4pcx@ 100513c0     DrawPcx16ResizedBicubic.obj
 0002:000083e0       ?z@Era@@3PAY0CAA@DA        100513e0     era.obj
 0002:000083e4       ?PLUGIN_VERSION@dllText@@3PBDB 100513e4     dllmain.obj
 0002:000083e8       ?INSTANCE_NAME@dllText@@3PBDB 100513e8     dllmain.obj
 0002:00008518       ??_C@_0BC@EOODALEL@Unknown?5exception@ 10051518     era.obj
 0002:0000852c       ??_C@_0BF@KINCDENJ@bad?5array?5new?5length@ 1005152c     era.obj
 0002:00008544       ??_C@_0BA@JFNIOLAK@string?5too?5long@ 10051544     era.obj
 0002:00008554       ??_C@_07PILJHEGK@era?4dll@ 10051554     era.obj
 0002:0000855c       ??_C@_0N@ILCPAELP@AllocErmFunc@ 1005155c     era.obj
 0002:0000856c       ??_C@_0BB@NFICFMFA@ClearAllIniCache@ 1005156c     era.obj
 0002:00008580       ??_C@_0O@KHPPEFLJ@ClearIniCache@ 10051580     era.obj
 0002:00008590       ??_C@_0N@GFAHACFE@CreatePlugin@ 10051590     era.obj
 0002:000085a0       ??_C@_0M@MCBFFFFK@DecorateInt@ 100515a0     era.obj
 0002:000085ac       ??_C@_0O@DBFBNOBI@EmptyIniCache@ 100515ac     era.obj
 0002:000085bc       ??_C@_0L@GHCNBJIK@ExecErmCmd@ 100515bc     era.obj
 0002:000085c8       ??_C@_0BE@JPCODAJD@ExecPersistedErmCmd@ 100515c8     era.obj
 0002:000085dc       ??_C@_0L@BBNMEHJH@ExtractErm@ 100515dc     era.obj
 0002:000085e8       ??_C@_0BD@HGLMDBJA@FastQuitToGameMenu@ 100515e8     era.obj
 0002:000085fc       ??_C@_0L@CKILDBJC@FatalError@ 100515fc     era.obj
 0002:00008608       ??_C@_0P@MELBKLIK@FindNextObject@ 10051608     era.obj
 0002:00008618       ??_C@_0N@HFGMKLEN@FireErmEvent@ 10051618     era.obj
 0002:00008628       ??_C@_09GEAPPBGH@FireEvent@ 10051628     era.obj
 0002:00008634       ??_C@_0P@GBBGLPHE@FormatQuantity@ 10051634     era.obj
 0002:00008644       ??_C@_0BB@CAMNCLPO@FreeAppliedPatch@ 10051644     era.obj
 0002:00008658       ??_C@_0BC@GKDCPLNJ@GenerateDebugInfo@ 10051658     era.obj
 0002:0000866c       ??_C@_0BE@DDKGOJFB@GetAppliedPatchSize@ 1005166c     era.obj
 0002:00008680       ??_C@_0M@PAAODNCJ@GetArgXVars@ 10051680     era.obj
 0002:0000868c       ??_C@_0BE@LLFNHKFA@GetAssocVarIntValue@ 1005168c     era.obj
 0002:000086a0       ??_C@_0BE@MBIKKGG@GetAssocVarStrValue@ 100516a0     era.obj
 0002:000086b4       ??_C@_0M@KJHFCLAP@GetButtonID@ 100516b4     era.obj
 0002:000086c0       ??_C@_0BE@OEHKLKHD@GetCampaignFileName@ 100516c0     era.obj
 0002:000086d4       ??_C@_0BC@BDDDAFDE@GetCampaignMapInd@ 100516d4     era.obj
 0002:000086e8       ??_C@_0BH@JHIEBJBG@GetEraRegistryIntValue@ 100516e8     era.obj
 0002:00008700       ??_C@_0BH@CAMBMJCA@GetEraRegistryStrValue@ 10051700     era.obj
 0002:00008718       ??_C@_0N@CFMBLIKP@GetGameState@ 10051718     era.obj
 0002:00008728       ??_C@_0P@IIOFMNON@GetMapFileName@ 10051728     era.obj
 0002:00008738       ??_C@_0P@OMEKLNHG@GetProcessGuid@ 10051738     era.obj
 0002:00008748       ??_C@_0M@LKIFOAN@GetRealAddr@ 10051748     era.obj
 0002:00008754       ??_C@_0M@EFALPNPM@GetRetXVars@ 10051754     era.obj
 0002:00008760       ??_C@_0BH@MJACGIOO@GetTriggerReadableName@ 10051760     era.obj
 0002:00008778       ??_C@_0O@FNMDEAHG@GetVersionNum@ 10051778     era.obj
 0002:00008788       ??_C@_0BD@DPCJBLFO@GlobalRedirectFile@ 10051788     era.obj
 0002:0000879c       ??_C@_06FNGCINCL@Hash32@   1005179c     era.obj
 0002:000087a4       ??_C@_0L@GKIEJFBJ@IsCampaign@ 100517a4     era.obj
 0002:000087b0       ??_C@_0O@HBOCCCBJ@IsCommanderId@ 100517b0     era.obj
 0002:000087c0       ??_C@_0BD@HCAPFPLH@IsPatchOverwritten@ 100517c0     era.obj
 0002:000087d4       ??_C@_0BB@PHLEIINC@LoadImageAsPcx16@ 100517d4     era.obj
 0002:000087e8       ??_C@_0P@PPECHEMC@LogMemoryState@ 100517e8     era.obj
 0002:000087f8       ??_C@_07FLCNLLL@MemFree@   100517f8     era.obj
 0002:00008800       ??_C@_0BE@KLEFOJMK@MergeIniWithDefault@ 10051800     era.obj
 0002:00008814       ??_C@_09PIKCKENJ@NameColor@ 10051814     era.obj
 0002:00008820       ??_C@_0M@KFFJELFJ@NameTrigger@ 10051820     era.obj
 0002:0000882c       ??_C@_0M@LNHBMGFH@NotifyError@ 1005182c     era.obj
 0002:00008838       ??_C@_0M@PLEJCMGM@PatchExists@ 10051838     era.obj
 0002:00008844       ??_C@_0N@FOLHNDBL@PcxPngExists@ 10051844     era.obj
 0002:00008854       ??_C@_0O@IAKAAEFK@PersistErmCmd@ 10051854     era.obj
 0002:00008864       ??_C@_0N@BGLGOOMO@PluginExists@ 10051864     era.obj
 0002:00008874       ??_C@_0BJ@CBICDEKB@RandomRangeWithFreeParam@ 10051874     era.obj
 0002:00008890       ??_C@_0BE@CIDOCKGN@ReadSavegameSection@ 10051890     era.obj
 0002:000088a4       ??_C@_0P@CCLIEMKP@ReadStrFromIni@ 100518a4     era.obj
 0002:000088b4       ??_C@_0N@EADKAOLK@RedirectFile@ 100518b4     era.obj
 0002:000088c4       ??_C@_0BE@OJOEEMJD@RedirectMemoryBlock@ 100518c4     era.obj
 0002:000088d8       ??_C@_0BA@BCNGHKCC@RegisterHandler@ 100518d8     era.obj
 0002:000088e8       ??_C@_0BH@OEIKBIIL@RegisterMemoryConsumer@ 100518e8     era.obj
 0002:00008900       ??_C@_09MJCMIAEG@ReloadErm@ 10051900     era.obj
 0002:0000890c       ??_C@_0BD@CHCJJBJH@ReloadLanguageData@ 1005190c     era.obj
 0002:00008920       ??_C@_0BE@JBKGKCON@ReportPluginVersion@ 10051920     era.obj
 0002:00008934       ??_C@_0BF@KLCOOELO@RollbackAppliedPatch@ 10051934     era.obj
 0002:0000894c       ??_C@_07PAHGKEHA@SaveIni@  1005194c     era.obj
 0002:00008954       ??_C@_0BE@BFHGDKCM@SetAssocVarIntValue@ 10051954     era.obj
 0002:00008968       ??_C@_0BE@KCDDOKBK@SetAssocVarStrValue@ 10051968     era.obj
 0002:0000897c       ??_C@_0BH@JGKKDOMJ@SetEraRegistryIntValue@ 1005197c     era.obj
 0002:00008994       ??_C@_0BH@CBOPOOPP@SetEraRegistryStrValue@ 10051994     era.obj
 0002:000089ac       ??_C@_0BF@KNHFCCLI@SetIsCommanderIdFunc@ 100519ac     era.obj
 0002:000089c4       ??_C@_0BL@CFMKIIJH@SetIsElixirOfLifeStackFunc@ 100519c4     era.obj
 0002:000089e0       ??_C@_0M@BMMLELAG@SetLanguage@ 100519e0     era.obj
 0002:000089ec       ??_C@_0BK@NPNOCL@SetMultiPurposeDlgHandler@ 100519ec     era.obj
 0002:00008a08       ??_C@_0BH@GOLMFEJO@SetRegenerationAbility@ 10051a08     era.obj
 0002:00008a20       ??_C@_0BJ@PGHLMJLL@SetStdRegenerationEffect@ 10051a20     era.obj
 0002:00008a3c       ??_C@_0N@GOAOCOKF@ShowErmError@ 10051a3c     era.obj
 0002:00008a4c       ??_C@_0M@BPKMLENP@ShowMessage@ 10051a4c     era.obj
 0002:00008a58       ??_C@_0BE@CDFKHBC@ShowMultiPurposeDlg@ 10051a58     era.obj
 0002:00008a6c       ??_C@_0L@KMILMGPD@SplitMix32@ 10051a6c     era.obj
 0002:00008a78       ??_C@_0M@OFFBOJCJ@ToStaticStr@ 10051a78     era.obj
 0002:00008a84       ??_C@_08JBJLPCGF@trStatic@ 10051a84     era.obj
 0002:00008a90       ??_C@_06JCAFDHMM@trTemp@   10051a90     era.obj
 0002:00008a98       ??_C@_0M@CLLMHKFF@WriteAtCode@ 10051a98     era.obj
 0002:00008aa4       ??_C@_08IGAKHJCH@WriteLog@ 10051aa4     era.obj
 0002:00008ab0       ??_C@_0BF@HMHBLPO@WriteSavegameSection@ 10051ab0     era.obj
 0002:00008ac8       ??_C@_0O@POMBDOKD@WriteStrToIni@ 10051ac8     era.obj
 0002:00008ad8       ??_C@_0L@LNAOMCPJ@GetVersion@ 10051ad8     era.obj
 0002:00008ae4       ??_C@_04PHJJMCEO@Hook@     10051ae4     era.obj
 0002:00008aec       ??_C@_06DDHLBGDE@Splice@   10051aec     era.obj
 0002:00008af4       ??_C@_02EOEPPNBF@tr@       10051af4     era.obj
 0002:00008af8       ??_C@_0BO@CDJEPEOM@Duplicate?5registered?5plugin?3?5@ 10051af8     era.obj
 0002:00008b18       ??_C@_02DPKJAMEF@?$CFd@    10051b18     era.obj
 0002:00008b1c       ??_C@_0BA@FFBEJPGL@_ClientMemAlloc@ 10051b1c     era.obj
 0002:00008b2c       ??_C@_0P@DCNKFLOM@_ClientMemFree@ 10051b2c     era.obj
 0002:00008b3c       ??_C@_0BC@CPBDNHJH@_ClientMemRealloc@ 10051b3c     era.obj
 0002:00008b50       ??_C@_0BA@FDLNIKIG@patcher_x86?4dll@ 10051b50     dllmain.obj
 0002:00008b60       ??_C@_0BB@CKHJKIEB@_GetPatcherX86?$EA0@ 10051b60     dllmain.obj
 0002:00008b74       ??_C@_04NHEHHCIF@1?418@    10051b74     dllmain.obj
 0002:00008b7c       ??_C@_0CD@DOKMFMCP@EraPlugin?4ObjectsExtender?4daemo@ 10051b7c     dllmain.obj
 0002:00008ba0       ??_C@_0M@MBGIAFIF@Mar?530?52025@ 10051ba0     dllmain.obj
 0002:00008bac       ??_C@_0BO@GGFEMENP@RMG_CustomizeObjectProperties@ 10051bac     dllmain.obj
 0002:00008bcc       ??_C@_0O@JANCNCJA@?$HL?$CFs?$HN?5v?$CFs?5?$CI?$CFs?$CJ@ 10051bcc     dllmain.obj
 0002:00008bdc       ??_C@_0BA@DNDFOHJM@OnReportVersion@ 10051bdc     dllmain.obj
 0002:00008bec       ??_C@_02DKCKIIND@?$CFs@    10051bec     AncientLampExtender.obj
 0002:00008bf0       ??_C@_0CH@DCIEEHFL@EraPlugin?4AncientLampExtender?4d@ 10051bf0     AncientLampExtender.obj
 0002:00008c18       ??_C@_0BJ@KMGFKKNA@HD?4UI?4AdvMgr?4SkipMapMsgs@ 10051c18     AncientLampExtender.obj
 0002:00008c34       ??_C@_04OMBFFHIC@?$HL?$CFs?$HN@ 10051c34     AncientLampExtender.obj
 0002:00008c3c       ??_C@_0CG@KHKCNBMI@RMG?4objectGeneration?4?$CFd?4?$CFd?4text@ 10051c3c     AncientLampExtender.obj
 0002:00008c64       ??_C@_0CF@KGNNGJBN@RMG?4objectGeneration?4?$CFd?4?$CFd?4text@ 10051c64     AncientLampExtender.obj
 0002:00008c8c       ??_C@_02PHMGELLB@?6?6@     10051c8c     AncientLampExtender.obj
 0002:00008c90       ??_C@_01CLKCMJKC@?5@       10051c90     AncientLampExtender.obj
 0002:00008c94       ??_C@_04HDOCAJNK@?$CFs?$CFs@ 10051c94     AncientLampExtender.obj
 0002:00008ca0       ??_7AncientLampExtender@ancientLamp@@6B@ 10051ca0     AncientLampExtender.obj
 0002:00008cc4       ??_C@_0BJ@CMKJOIJF@colosseumOfTheMagi_?$CFd_?$CFd@ 10051cc4     ColosseumOfTheMagiExtender.obj
 0002:00008ce0       ??_C@_0CO@GNMMFFHB@EraPlugin?4ColosseumOfTheMagiExt@ 10051ce0     ColosseumOfTheMagiExtender.obj
 0002:00008d10       ??_C@_0CI@LNHKLPMO@RMG?4objectGeneration?4?$CFd?4?$CFd?4text@ 10051d10     ColosseumOfTheMagiExtender.obj
 0002:00008d3c       ??_7ColosseumOfTheMagiExtender@colosseumOfTheMagi@@6B@ 10051d3c     ColosseumOfTheMagiExtender.obj
 0002:00008d60       ??_C@_00CNPNBAHC@@         10051d60     CreatureBanksExtender.obj
 0002:00008d64       ??_C@_0CA@GHGKFBHA@RMG?4objectGeneration?4?$CFd?4?$CFd?4name@ 10051d64     CreatureBanksExtender.obj
 0002:00008d84       ??_C@_0CB@FAGJFGJE@RMG_CreatureBankId_?$CFd_stateInde@ 10051d84     CreatureBanksExtender.obj
 0002:00008da8       ??_C@_0CE@LPILJKAH@RMG_CreatureBankId_?$CFd_mithrilAm@ 10051da8     CreatureBanksExtender.obj
 0002:00008dcc       ??_C@_0CB@EBOFLJLI@RMG_CreatureBankId_?$CFd_experienc@ 10051dcc     CreatureBanksExtender.obj
 0002:00008df0       ??_C@_0CC@FNNEIMOI@RMG_CreatureBankId_?$CFd_spellPoin@ 10051df0     CreatureBanksExtender.obj
 0002:00008e14       ??_C@_0BL@PDOPGNAE@RMG_CreatureBankId_?$CFd_luck@ 10051e14     CreatureBanksExtender.obj
 0002:00008e30       ??_C@_0BN@DICPPCLH@RMG_CreatureBankId_?$CFd_morale@ 10051e30     CreatureBanksExtender.obj
 0002:00008e50       ??_C@_0CH@ONEINJIN@RMG_CreatureBankId_?$CFd_primarySk@ 10051e50     CreatureBanksExtender.obj
 0002:00008e78       ??_C@_0CA@FDCEGELM@RMG_CreatureBankId_?$CFd_spells_?$CFd@ 10051e78     CreatureBanksExtender.obj
 0002:00008e98       ??_C@_0P@IBJBNMNP@EB?50B?590909090@ 10051e98     CreatureBanksExtender.obj
 0002:00008ea8       ??_C@_0M@INMIJHFG@E9?5C2040000@ 10051ea8     CreatureBanksExtender.obj
 0002:00008eb4       ??_C@_05DNIIFBMG@?$CFs?5?$CFs@ 10051eb4     CreatureBanksExtender.obj
 0002:00008ebc       ??_C@_0CJ@IMEFFEIP@EraPlugin?4CreatureBanksExtender@ 10051ebc     CreatureBanksExtender.obj
 0002:00008ee8       ??_C@_0CH@HHPNFJCH@RMG?4settings?4creatureBanks?4disp@ 10051ee8     CreatureBanksExtender.obj
 0002:00008f10       ??_C@_0DC@NOGJGIHO@RMG?4settings?4creatureBanks?4exte@ 10051f10     CreatureBanksExtender.obj
 0002:00008f44       ??_C@_0DC@JOKGMFFL@RMG?4objectGeneration?416?4?$CFd?4stat@ 10051f44     CreatureBanksExtender.obj
 0002:00008f78       ??_C@_0DA@MKIPAEEL@RMG?4objectGeneration?416?4?$CFd?4stat@ 10051f78     CreatureBanksExtender.obj
 0002:00008fa8       ??_C@_0DB@HJOLEFPD@RMG?4objectGeneration?416?4?$CFd?4stat@ 10051fa8     CreatureBanksExtender.obj
 0002:00008fdc       ??_C@_0CK@MEHBOCNC@RMG?4objectGeneration?416?4?$CFd?4stat@ 10051fdc     CreatureBanksExtender.obj
 0002:00009008       ??_C@_0CM@JCEKDJAB@RMG?4objectGeneration?416?4?$CFd?4stat@ 10052008     CreatureBanksExtender.obj
 0002:00009034       ??_C@_0DH@MFEECNPE@RMG?4objectGeneration?416?4?$CFd?4stat@ 10052034     CreatureBanksExtender.obj
 0002:0000906c       ??_C@_0DC@DHPCOGOO@RMG?4objectGeneration?416?4?$CFd?4stat@ 1005206c     CreatureBanksExtender.obj
 0002:000090a0       ??_C@_0DM@JBIDOHFK@RMG?4objectGeneration?416?4?$CFd?4stat@ 100520a0     CreatureBanksExtender.obj
 0002:000090dc       ??_C@_0DL@BGDJJLLC@RMG?4objectGeneration?416?4?$CFd?4stat@ 100520dc     CreatureBanksExtender.obj
 0002:00009118       ??_C@_0DK@DDMDCDJI@RMG?4objectGeneration?416?4?$CFd?4stat@ 10052118     CreatureBanksExtender.obj
 0002:00009154       ??_C@_0DI@IBBHILKE@RMG?4objectGeneration?4?$CFd?4?$CFd?4stat@ 10052154     CreatureBanksExtender.obj
 0002:0000918c       ??_C@_0DJ@FAJBIDFK@RMG?4objectGeneration?4?$CFd?4?$CFd?4stat@ 1005218c     CreatureBanksExtender.obj
 0002:000091c8       ??_C@_0CM@OHMIEPAE@RMG?4objectGeneration?4?$CFd?4?$CFd?4stat@ 100521c8     CreatureBanksExtender.obj
 0002:000091f4       ??_C@_0CN@CJGHECJD@RMG?4objectGeneration?4?$CFd?4?$CFd?4stat@ 100521f4     CreatureBanksExtender.obj
 0002:00009224       ??_C@_0DL@FGEJLMMF@RMG?4objectGeneration?4?$CFd?4?$CFd?4stat@ 10052224     CreatureBanksExtender.obj
 0002:00009260       ??_C@_0DH@DHDNJNEG@RMG?4objectGeneration?4?$CFd?4?$CFd?4stat@ 10052260     CreatureBanksExtender.obj
 0002:00009298       ??_C@_0DI@GJAIHH@RMG?4objectGeneration?4?$CFd?4?$CFd?4stat@ 10052298     CreatureBanksExtender.obj
 0002:000092d0       ??_C@_0DC@DKELEGCF@RMG?4objectGeneration?4?$CFd?4?$CFd?4stat@ 100522d0     CreatureBanksExtender.obj
 0002:00009304       ??_C@_0CF@KDKGPADF@RMG?4objectGeneration?4?$CFd?4?$CFd?4isNo@ 10052304     CreatureBanksExtender.obj
 0002:0000932c       ??_C@_0DA@EINOGKBH@RMG?4objectGeneration?4?$CFd?4?$CFd?4atta@ 1005232c     CreatureBanksExtender.obj
 0002:0000935c       ??_C@_0DA@LAFGFDIE@RMG?4objectGeneration?4?$CFd?4?$CFd?4defe@ 1005235c     CreatureBanksExtender.obj
 0002:0000938c       ??_C@_0N@EHKOENHH@EB0C90909090@ 1005238c     CreatureBanksExtender.obj
 0002:0000939c       ??_C@_0BK@EGLDKPPK@OnAfterReloadLanguageData@ 1005239c     CreatureBanksExtender.obj
 0002:000093b8       ??_C@_0BB@KJHKPNL@OnBeforeSaveGame@ 100523b8     CreatureBanksExtender.obj
 0002:000093cc       ??_C@_0BA@CEELCFBL@OnAfterLoadGame@ 100523cc     CreatureBanksExtender.obj
 0002:000093dc       ??_C@_0BA@CLJNMLGM@OnAfterSaveGame@ 100523dc     CreatureBanksExtender.obj
 0002:000093ec       ??_C@_0M@IDEFNKHF@OnGameLeave@ 100523ec     CreatureBanksExtender.obj
 0002:000093f8       ??_C@_0BA@FOIKENOD@vector?5too?5long@ 100523f8     CreatureBanksExtender.obj
 0002:00009408       ??_C@_0BL@GOIGLPKN@unordered_map?1set?5too?5long@ 10052408     CreatureBanksExtender.obj
 0002:00009424       ??_C@_0BK@OGNNAFAB@invalid?5hash?5bucket?5count@ 10052424     CreatureBanksExtender.obj
 0002:00009444       ??_7CreatureBanksExtender@cbanks@@6B@ 10052444     CreatureBanksExtender.obj
 0002:00009468       ??_C@_0BD@OKMBMMOD@dreamTeacher_?$CFd_?$CFd@ 10052468     DreamTeacherExtender.obj
 0002:0000947c       ??_C@_0BA@BINGNIFL@dreamTeacher_?$CFd@ 1005247c     DreamTeacherExtender.obj
 0002:0000948c       ??_C@_0CI@OMIBMDML@EraPlugin?4DreamTeacherExtender?4@ 1005248c     DreamTeacherExtender.obj
 0002:000094b8       ??_7DreamTeacherExtender@dreamTeacher@@6B@ 100524b8     DreamTeacherExtender.obj
 0002:000094dc       ??_C@_0N@CCNGHCGA@gazebo_?$CFd_?$CFd@ 100524dc     GazeboExtender.obj
 0002:000094ec       ??_C@_0CC@EFGNJAPE@EraPlugin?4GazeboExtender?4daemon@ 100524ec     GazeboExtender.obj
 0002:00009510       ??_C@_0CM@OIOOCINP@RMG?4objectGeneration?4?$CFd?4?$CFd?4text@ 10052510     GazeboExtender.obj
 0002:00009540       ??_7GazeboExtender@gazebo@@6B@ 10052540     GazeboExtender.obj
 0002:00009564       ??_C@_0CB@FGMLAHFC@EraPlugin?4GraveExtender?4daemon_@ 10052564     GraveExtender.obj
 0002:0000958c       ??_7GraveExtender@grave@@6B@ 1005258c     GraveExtender.obj
 0002:000095b0       ??_C@_0BD@DBFGIPCF@hermitsShack_?$CFd_?$CFd@ 100525b0     HermitsShackExtender.obj
 0002:000095c4       ??_C@_0CI@CFJDNMOG@EraPlugin?4HermitsShackExtender?4@ 100525c4     HermitsShackExtender.obj
 0002:000095f0       ??_7HermitsShackExtender@hermitsShack@@6B@ 100525f0     HermitsShackExtender.obj
 0002:00009614       ??_C@_0CE@EEKHALI@EraPlugin?4HillFortExtender?4daem@ 10052614     HillFortExtender.obj
 0002:0000963c       ??_7HillFortExtender@hillFort@@6B@ 1005263c     HillFortExtender.obj
 0002:00009660       ??_C@_0CD@NJONMPDM@EraPlugin?4JunkmanExtender?4daemo@ 10052660     JunkmanExtender.obj
 0002:00009684       ??_C@_0M@HOBBAGHM@E9?5FA000000@ 10052684     JunkmanExtender.obj
 0002:00009694       ??_7JunkmanExtender@junkman@@6B@ 10052694     JunkmanExtender.obj
 0002:000096b8       ??_C@_0BB@MAJNLJOM@mineralSpring_?$CFd@ 100526b8     MineralSpringExtender.obj
 0002:000096cc       ??_C@_0CJ@PAKDKBIE@EraPlugin?4WateringPlaceExtender@ 100526cc     MineralSpringExtender.obj
 0002:000096f8       ??_C@_0BH@OLMHLOOJ@OnAfterBattleUniversal@ 100526f8     MineralSpringExtender.obj
 0002:00009714       ??_7MineralSpringExtender@mineralSpring@@6B@ 10052714     MineralSpringExtender.obj
 0002:00009738       ??_C@_0P@LJFCAJPE@observatory_?$CFd@ 10052738     ObservatoryExtender.obj
 0002:00009748       ??_C@_0CH@IPAKLPGO@EraPlugin?4ObservatoryExtender?4d@ 10052748     ObservatoryExtender.obj
 0002:00009774       ??_7ObservatoryExtender@observatory@@6B@ 10052774     ObservatoryExtender.obj
 0002:00009798       ??_C@_0CD@HDGCDMOG@EraPlugin?4ShrinesExtender?4daemo@ 10052798     ShrinesExternder.obj
 0002:000097bc       ??_C@_0CB@HNBILFGA@RMG?4objectGeneration?4?$CFd?4?$CFd?4visi@ 100527bc     ShrinesExternder.obj
 0002:000097e0       ??_C@_0CB@KGHKOIJD@RMG?4objectGeneration?4?$CFd?4?$CFd?4leve@ 100527e0     ShrinesExternder.obj
 0002:00009804       ??_C@_0CA@HMABBBHG@RMG?4objectGeneration?4?$CFd?4?$CFd?4hint@ 10052804     ShrinesExternder.obj
 0002:00009828       ??_7ShrinesExternder@shrines@@6B@ 10052828     ShrinesExternder.obj
 0002:00009850       ??_C@_0CP@LGMKNEBL@EraPlugin?4SkeletonTransformerEx@ 10052850     SkeletonTransformerExtender.obj
 0002:00009884       ??_7SkeletonTransformerExtender@skeletonTransformer@@6B@ 10052884     SkeletonTransformerExtender.obj
 0002:000098a8       ??_C@_0BD@GDJLCLBJ@templeOfLoyalty_?$CFd@ 100528a8     TempleOfLoyaltyExtender.obj
 0002:000098bc       ??_C@_0CL@CNKNJEKL@EraPlugin?4TempleOfLoyaltyExtend@ 100528bc     TempleOfLoyaltyExtender.obj
 0002:000098e8       ??_C@_0L@CIOEKIFC@OnEveryDay@ 100528e8     TempleOfLoyaltyExtender.obj
 0002:000098f8       ??_7TempleOfLoyaltyExtender@templeOfLoyalty@@6B@ 100528f8     TempleOfLoyaltyExtender.obj
 0002:00009920       ??_7TrailblazerExtender@trailblazer@@6B@ 10052920     TrailblazerExtender.obj
 0002:00009944       ??_C@_0P@NPBDPECF@trailblazer_?$CFd@ 10052944     TrailblazerExtender.obj
 0002:00009954       ??_C@_0CH@PIGIOEGO@EraPlugin?4TrailblazerExtender?4d@ 10052954     TrailblazerExtender.obj
 0002:0000997c       ??_C@_0CF@EENKFFF@jsNO?4settings?4trailblazerTerrai@ 1005297c     TrailblazerExtender.obj
 0002:000099a4       ??_C@_0CG@EIECGLGP@EraPlugin?4UniversityExtender?4da@ 100529a4     UniversityExtender.obj
 0002:000099cc       ??_C@_0CN@KLIJEHN@RMG?4objectGeneration?4?$CFd?4?$CFd?4skil@ 100529cc     UniversityExtender.obj
 0002:00009a00       ??_7UniversityExtender@university@@6B@ 10052a00     UniversityExtender.obj
 0002:00009a24       ??_C@_0CF@FPLPOOGM@RMG?4objectGeneration?4?$CFd?4text?4vi@ 10052a24     WarehousesExtender.obj
 0002:00009a4c       ??_C@_0CG@JLPFIJMD@EraPlugin?4WarehousesExtender?4da@ 10052a4c     WarehousesExtender.obj
 0002:00009a74       ??_C@_0CD@ILIKKJEH@RMG?4objectGeneration?4?$CFd?4text?4vi@ 10052a74     WarehousesExtender.obj
 0002:00009a9c       ??_7WarehousesExtender@warehouses@@6B@ 10052a9c     WarehousesExtender.obj
 0002:00009ac0       ??_C@_0BB@JEJHMAMA@wateringPlace_?$CFd@ 10052ac0     WateringPlaceExtender.obj
 0002:00009ad8       ??_7WateringPlaceExtender@wateringPlace@@6B@ 10052ad8     WateringPlaceExtender.obj
 0002:00009afc       ??_C@_0CE@NGCKNHBN@RMG?4objectGeneration?4?$CFd?4?$CFd?4opti@ 10052afc     WoGObjectsExtender.obj
 0002:00009b20       ??_C@_0CH@JGKGPKDO@EraPlugin?4WoGObjectsExternder?4d@ 10052b20     WoGObjectsExtender.obj
 0002:00009b4c       ??_7WoGObjectsExtender@wog@@6B@ 10052b4c     WoGObjectsExtender.obj
 0002:00009b70       ??_C@_02LMMGGCAJ@?3?5@     10052b70     ObjectsExtender.obj
 0002:00009b74       ??_C@_08LLGCOLLL@iostream@ 10052b74     ObjectsExtender.obj
 0002:00009b80       ??_C@_08EPJLHIJG@bad?5cast@ 10052b80     ObjectsExtender.obj
 0002:00009b8c       ??_C@_0BA@ELKIONDK@bad?5locale?5name@ 10052b8c     ObjectsExtender.obj
 0002:00009b9c       ??_C@_0BF@PHHKMMFD@ios_base?3?3badbit?5set@ 10052b9c     ObjectsExtender.obj
 0002:00009bb4       ??_C@_0BF@OOHOMBOF@ios_base?3?3eofbit?5set@ 10052bb4     ObjectsExtender.obj
 0002:00009bcc       ??_C@_0BG@FMKFHCIL@ios_base?3?3failbit?5set@ 10052bcc     ObjectsExtender.obj
 0002:00009be4       ??_C@_07NHACFJOP@vfs?4dll@ 10052be4     ObjectsExtender.obj
 0002:00009bec       ??_C@_06PBPIOKIF@$?5?$DM?$DN?5$@ 10052bec     ObjectsExtender.obj
 0002:00009bf4       ??_C@_0BD@FCALFDFE@GetMappingsReportA@ 10052bf4     ObjectsExtender.obj
 0002:00009c08       ??_C@_01OHGJGJJP@?$FL@     10052c08     ObjectsExtender.obj
 0002:00009c0c       ??_C@_0CJ@ICHIANEC@RMG?4objectGeneration?4?$CFd?4?$CFd?4prop@ 10052c0c     ObjectsExtender.obj
 0002:00009c38       ??_C@_0BI@JAHEOGPP@RMG?4?$CFs?4properties?4?$CFd?4?$CFd@ 10052c38     ObjectsExtender.obj
 0002:00009c50       ??_C@_0BF@LOOGGPGL@RMG?4?$CFs?4properties?4?$CFd@ 10052c50     ObjectsExtender.obj
 0002:00009c68       ??_C@_0CA@IDDGCMKF@RMG?4objectGeneration?4?$CFd?4density@ 10052c68     ObjectsExtender.obj
 0002:00009c88       ??_C@_0BO@JCBLFBPE@RMG?4objectGeneration?4?$CFd?4value@ 10052c88     ObjectsExtender.obj
 0002:00009ca8       ??_C@_0CB@DPHMAGM@RMG?4objectGeneration?4?$CFd?4?$CFd?4valu@ 10052ca8     ObjectsExtender.obj
 0002:00009ccc       ??_C@_0CD@BLMPJIPF@RMG?4objectGeneration?4?$CFd?4sound?4l@ 10052ccc     ObjectsExtender.obj
 0002:00009cf0       ??_C@_0CG@DHOHOAHK@RMG?4objectGeneration?4?$CFd?4?$CFd?4soun@ 10052cf0     ObjectsExtender.obj
 0002:00009d18       ??_C@_0CD@LNKGBOIJ@RMG?4objectGeneration?4?$CFd?4?$CFd?4dens@ 10052d18     ObjectsExtender.obj
 0002:00009d3c       ??_C@_08GGDLJMMA@?$CFs_?$CFs_?$CFs@ 10052d3c     ObjectsExtender.obj
 0002:00009d48       ??_C@_0BI@CFPLBAOH@invalid?5string?5position@ 10052d48     ObjectsExtender.obj
 0002:00009d64       ??_7?$basic_streambuf@DU?$char_traits@D@std@@@std@@6B@ 10052d64     ObjectsExtender.obj
 0002:00009da0       ?_Iostream_error@?4??message@_Iostream_error_category2@std@@UBE?AV?$basic_string@DU?$char_traits@D@std@@V?$allocator@D@2@@3@H@Z@4QBDB 10052da0     ObjectsExtender.obj
 0002:00009dbc       ??_7ios_base@std@@6B@      10052dbc     ObjectsExtender.obj
 0002:00009dc4       ??_7?$basic_ios@DU?$char_traits@D@std@@@std@@6B@ 10052dc4     ObjectsExtender.obj
 0002:00009dcc       ??_7ObjectsExtender@extender@@6B@ 10052dcc     ObjectsExtender.obj
 0002:00009df4       ??_7?$basic_stringbuf@DU?$char_traits@D@std@@V?$allocator@D@2@@std@@6B@ 10052df4     ObjectsExtender.obj
 0002:00009e34       ??_7?$basic_istream@DU?$char_traits@D@std@@@std@@6B@ 10052e34     ObjectsExtender.obj
 0002:00009e38       ??_8?$basic_istringstream@DU?$char_traits@D@std@@V?$allocator@D@2@@std@@7B@ 10052e38     ObjectsExtender.obj
 0002:00009e44       ??_7?$basic_istringstream@DU?$char_traits@D@std@@V?$allocator@D@2@@std@@6B@ 10052e44     ObjectsExtender.obj
 0002:00009e48       ??_C@_07MHHIKOPA@enabled@  10052e48     RMGObjectsEditor.obj
 0002:00009e50       ??_C@_04LDDJGOBB@zone@     10052e50     RMGObjectsEditor.obj
 0002:00009e58       ??_C@_03HBNNNHNM@map@      10052e58     RMGObjectsEditor.obj
 0002:00009e5c       ??_C@_07HAFFKDBK@density@  10052e5c     RMGObjectsEditor.obj
 0002:00009e64       ??_C@_05MFEJDJP@value@     10052e64     RMGObjectsEditor.obj
 0002:00009e6c       ??_C@_08MHAGGLPG@?$CFd_?$CFd_?$CFd@ 10052e6c     RMGObjectsEditor.obj
 0002:00009e78       ??_C@_0CL@BKBOHCBN@Runtime?1RMG_CustomizeObjectsPro@ 10052e78     RMGObjectsEditor.obj
 0002:00009ea4       ??_C@_0BO@JBNIKPAM@RMG?4objectGeneration?4?$CFd?4?$CFd?4?$CFs@ 10052ea4     RMGObjectsEditor.obj
 0002:00009ec4       ??_C@_0BL@MLLECAFL@RMG?4objectGeneration?4?$CFd?4?$CFs@ 10052ec4     RMGObjectsEditor.obj
 0002:00009ee0       ??_C@_0M@IDKLKEPG@DlgSettings@ 10052ee0     RMGObjectsEditor.obj
 0002:00009eec       ??_C@_0CE@JNCCGFFC@EraPlugin?4RMG?4ObjectEditor?4daem@ 10052eec     RMGObjectsEditor.obj
 0002:00009f10       ??_C@_0N@OPCJEEAC@alwaysRandom@ 10052f10     RMGObjectsEditor.obj
 0002:00009f20       ??_C@_0BK@PBDOOKOI@RMG?4objectGeneration?4zone@ 10052f20     RMGObjectsEditor.obj
 0002:00009f3c       ??_C@_0BJ@MEMBECPF@RMG?4objectGeneration?4map@ 10052f3c     RMGObjectsEditor.obj
 0002:00009f58       ??_C@_04KLKHHPIG@MAIN@     10052f58     RMGObjectsEditor.obj
 0002:00009f60       ??_C@_0BG@EJDKNNFD@Runtime?1Rmg?1Debug?4ini@ 10052f60     RMGObjectsEditor.obj
 0002:00009f78       ??_C@_03PKIJOLEG@kek@      10052f78     RMGObjectsEditor.obj
 0002:00009f7c       ??_C@_04MENKDCKE@seed@     10052f7c     RMGObjectsEditor.obj
 0002:00009f84       ??_C@_04MHJLEHHC@kek?$DP@  10052f84     RMGObjectsEditor.obj
 0002:00009f8c       ??_C@_06KFELEOBH@no?5kek@  10052f8c     RMGObjectsEditor.obj
 0002:00009f94       ??_C@_0L@HECDNKKL@initLimits@ 10052f94     RMGObjectsEditor.obj
 0002:00009fa0       ??_C@_06EDODJIDJ@Assign@   10052fa0     RMGObjectsEditor.obj
 0002:00009fa8       ??_C@_0M@PBCICHPB@arraylength@ 10052fa8     RMGObjectsEditor.obj
 0002:00009fb4       ??_C@_0BB@HCJHLEJL@maxObjectSubtype@ 10052fb4     RMGObjectsEditor.obj
 0002:00009fc8       ??_C@_0BH@IPMEMMDN@objectGenerators?3?3Size@ 10052fc8     RMGObjectsEditor.obj
 0002:00009fe4       ??_7RMGObjectsEditor@editor@@6B@ 10052fe4     RMGObjectsEditor.obj
 0002:00009ff0       ?PROPERTY_NAMES@RMGObjectInfo@@2QBQBDB 10052ff0     RMGObjectsEditor.obj
 0002:0000a004       ??_C@_0N@IOPNELGI@RMG_back?4pcx@ 10053004     RMG_SettingsDlg.obj
 0002:0000a014       ??_C@_06JDKABGKH@cancel@   10053014     RMG_SettingsDlg.obj
 0002:0000a01c       ??_C@_0N@FCBEPOJK@RMG_cncl?4def@ 1005301c     RMG_SettingsDlg.obj
 0002:0000a02c       ??_C@_02MFDMBIJM@ok@       1005302c     RMG_SettingsDlg.obj
 0002:0000a030       ??_C@_0N@DIEEIBOL@RMG_okay?4def@ 10053030     RMG_SettingsDlg.obj
 0002:0000a040       ??_C@_07DLHCIBDH@default@  10053040     RMG_SettingsDlg.obj
 0002:0000a048       ??_C@_0N@PMFNHIPJ@RMG_dflt?4def@ 10053048     RMG_SettingsDlg.obj
 0002:0000a058       ??_C@_06NLFCANPD@random@   10053058     RMG_SettingsDlg.obj
 0002:0000a060       ??_C@_0M@LFBJAHMC@RanRand?4def@ 10053060     RMG_SettingsDlg.obj
 0002:0000a06c       ??_C@_04PCJFHION@help@     1005306c     RMG_SettingsDlg.obj
 0002:0000a074       ??_C@_0N@PHHMOBI@RMG_help?4def@ 10053074     RMG_SettingsDlg.obj
 0002:0000a084       ??_C@_0BN@GEEKKMHP@RMG?4text?4dlg?4buttons?4?$CFs?4hint@ 10053084     RMG_SettingsDlg.obj
 0002:0000a0a4       ??_C@_0BM@PLGPGLFG@RMG?4text?4dlg?4buttons?4?$CFs?4rmc@ 100530a4     RMG_SettingsDlg.obj
 0002:0000a0c0       ??_C@_0N@EPKFOFH@RMGmenbt?4def@ 100530c0     RMG_SettingsDlg.obj
 0002:0000a0d0       ??_C@_0BL@PGFBCEPO@RMG?4text?4dlg?4pages?4?$CFd?4name@ 100530d0     RMG_SettingsDlg.obj
 0002:0000a0ec       ??_C@_0BL@ONDKGEPI@RMG?4text?4dlg?4pages?4?$CFd?4hint@ 100530ec     RMG_SettingsDlg.obj
 0002:0000a108       ??_C@_0BK@FIIMAMMP@RMG?4text?4dlg?4pages?4?$CFd?4rmc@ 10053108     RMG_SettingsDlg.obj
 0002:0000a124       ??_C@_0BP@OHJKPKFO@RMG?4text?4dlg?4buttons?4help?4help@ 10053124     RMG_SettingsDlg.obj
 0002:0000a144       ??_C@_0N@HJMAFJEP@rmghntbr?4pcx@ 10053144     RMG_SettingsDlg.obj
 0002:0000a154       ??_C@_0BM@HILNFCFM@RMG?4text?4dlg?4notImplemented@ 10053154     RMG_SettingsDlg.obj
 0002:0000a170       ??_C@_0BL@MAAEMKCK@RMG?4text?4dlg?4pages?4?$CFd?4help@ 10053170     RMG_SettingsDlg.obj
 0002:0000a18c       ??_C@_0L@KIOKMEBA@lastPageId@ 1005318c     RMG_SettingsDlg.obj
 0002:0000a198       ??_C@_0BG@OALOHHGG@RMG?4text?4dlg?4iniError@ 10053198     RMG_SettingsDlg.obj
 0002:0000a1b0       ??_C@_0CH@FDIOKPGC@RMG?4text?4dlg?4objectPanel?4checkb@ 100531b0     RMG_SettingsDlg.obj
 0002:0000a1d8       ??_C@_0N@KKELLMCE@RMG_chbx?4def@ 100531d8     RMG_SettingsDlg.obj
 0002:0000a1e8       ??_C@_0N@PIGHFCLA@RMG_dfmn?4def@ 100531e8     RMG_SettingsDlg.obj
 0002:0000a1f8       ??_C@_0N@PEIMMHMF@RMG_edit?4pcx@ 100531f8     RMG_SettingsDlg.obj
 0002:0000a208       ??_C@_0CG@HENIIA@RMG?4text?4dlg?4objectPanel?4defaul@ 10053208     RMG_SettingsDlg.obj
 0002:0000a230       ??_C@_0CF@KOLDFEEP@RMG?4text?4dlg?4objectPanel?4defaul@ 10053230     RMG_SettingsDlg.obj
 0002:0000a258       ??_C@_08GAJBFAKI@?5?$CI?$CFd?1?$CFd?$CJ@ 10053258     RMG_SettingsDlg.obj
 0002:0000a264       ??_C@_0BC@EIKHJJKL@?$HL?$HO?$DO?$CFs?30?3?$CFd?5block?$HN@ 10053264     RMG_SettingsDlg.obj
 0002:0000a278       ??_C@_07CPCPJPKL@version@  10053278     RMG_SettingsDlg.obj
 0002:0000a280       ??_C@_07JMKCEEPK@?$CFs?5?$CI?$CFd?$CJ@ 10053280     RMG_SettingsDlg.obj
 0002:0000a288       ??_C@_0BM@EAMBDDNG@RMG?4text?4dlg?4header?4?$CFd?4name@ 10053288     RMG_SettingsDlg.obj
 0002:0000a2a4       ??_C@_0BM@FLKKHDNA@RMG?4text?4dlg?4header?4?$CFd?4hint@ 100532a4     RMG_SettingsDlg.obj
 0002:0000a2c0       ??_C@_0BL@KOLGBJPA@RMG?4text?4dlg?4header?4?$CFd?4rmc@ 100532c0     RMG_SettingsDlg.obj
 0002:0000a2dc       ??_C@_0BN@GOJDLJNJ@RMG?4text?4buttons?4random?4help@ 100532dc     RMG_SettingsDlg.obj
 0002:0000a2fc       ??_C@_0BD@KDFEKPLC@RMG?4text?4seed?4edit@ 100532fc     RMG_SettingsDlg.obj
 0002:0000a310       ??_C@_0BM@LFAKAJM@RMG?4text?4buttons?4setup?4name@ 10053310     RMG_SettingsDlg.obj
 0002:0000a32c       ??_C@_0P@PFNDCDKB@RMG?4text?4title@ 1005332c     RMG_SettingsDlg.obj
 0002:0000a33c       ??_C@_0N@JJEOEJCB@RMG_Dice?4def@ 1005333c     RMG_SettingsDlg.obj
 0002:0000a34c       ??_C@_0BL@DLPBBENF@RMG?4text?4buttons?4setup?4rmc@ 1005334c     RMG_SettingsDlg.obj
 0002:0000a368       ??_C@_0BE@LNBKHBOI@RMG?4text?4seed?4title@ 10053368     RMG_SettingsDlg.obj
 0002:0000a37c       ??_C@_0BM@BOJFLFCH@RMG?4text?4buttons?4random?4rmc@ 1005337c     RMG_SettingsDlg.obj
 0002:0000a398       ??_C@_0BC@IHDHMPGE@RMG?4text?4seed?4rmc@ 10053398     RMG_SettingsDlg.obj
 0002:0000a3ac       ??_C@_0N@KLPIICLK@rmg_sedt?4pcx@ 100533ac     RMG_SettingsDlg.obj
 0002:0000a3bc       ??_C@_0L@HPIELNIB@HD_WOG?4dll@ 100533bc     RMG_SettingsDlg.obj
 0002:0000a3cc       ??_7Page@RMG_SettingsDlg@rmgdlg@@6B@ 100533cc     RMG_SettingsDlg.obj
 0002:0000a3ec       ??_7MiscPage@RMG_SettingsDlg@rmgdlg@@6B@ 100533ec     RMG_SettingsDlg.obj
 0002:0000a410       ??_7ObjectsPage@RMG_SettingsDlg@rmgdlg@@6B@ 10053410     RMG_SettingsDlg.obj
 0002:0000a434       ??_7H3Dlg@h3@@6B@          10053434     RMG_SettingsDlg.obj
 0002:0000a4b8       ??_7RMG_SettingsDlg@rmgdlg@@6B@ 100534b8     RMG_SettingsDlg.obj
 0002:0000a540       ??_7ObjectsPanel@RMG_SettingsDlg@rmgdlg@@6B@ 10053540     RMG_SettingsDlg.obj
 0002:0000a548       ??_7BanksPage@RMG_SettingsDlg@rmgdlg@@6B@ 10053548     RMG_SettingsDlg.obj
 0002:0000a568       ??_C@_0CH@CKHEKNML@RMG?4objectGeneration?4?$CFd?4?$CFd?4soun@ 10053568     SoundManager.obj
 0002:0000a590       __real@3fc5555555555555    10053590     DrawPcx16ResizedBicubic.obj
 0002:0000a598       __real@3fe0000000000000    10053598     DrawPcx16ResizedBicubic.obj
 0002:0000a5a0       __real@3ff0000000000000    100535a0     DrawPcx16ResizedBicubic.obj
 0002:0000a5a8       __real@4000000000000000    100535a8     DrawPcx16ResizedBicubic.obj
 0002:0000a5b0       __real@4010000000000000    100535b0     DrawPcx16ResizedBicubic.obj
 0002:0000a5b8       __real@4018000000000000    100535b8     DrawPcx16ResizedBicubic.obj
 0002:0000a5c0       __real@4046000000000000    100535c0     RMG_SettingsDlg.obj
 0002:0000a5c8       __real@408f400000000000    100535c8     CreatureBanksExtender.obj
 0002:0000a5d0       __real@43fa0000            100535d0     DreamTeacherExtender.obj
 0002:0000a5d4       __real@44fa0000            100535d4     GazeboExtender.obj
 0002:0000a5e0       __xmm@00000000000000000000000000000023 100535e0     RMG_SettingsDlg.obj
 0002:0000a5f0       __xmm@0000000000000000ffffffffffffffff 100535f0     CreatureBanksExtender.obj
 0002:0000a600       __xmm@00000000000000010000000000000013 10053600     RMG_SettingsDlg.obj
 0002:0000a610       __xmm@00000000000000010000000000000020 10053610     RMG_SettingsDlg.obj
 0002:0000a620       __xmm@00000000000000010000001f00000001 10053620     RMG_SettingsDlg.obj
 0002:0000a630       __xmm@0000000000000001000000390000001c 10053630     RMG_SettingsDlg.obj
 0002:0000a640       __xmm@00000005000000050000001400000010 10053640     RMG_SettingsDlg.obj
 0002:0000a650       __xmm@0000000e0000000d0000000700000004 10053650     RMG_SettingsDlg.obj
 0002:0000a660       __xmm@0000001f0000001e0000003d00000033 10053660     RMG_SettingsDlg.obj
 0002:0000a670       __xmm@000000200000001c0000001700000016 10053670     RMG_SettingsDlg.obj
 0002:0000a680       __xmm@000000310000002f0000002900000026 10053680     RMG_SettingsDlg.obj
 0002:0000a690       __xmm@00000037000000300000002700000023 10053690     RMG_SettingsDlg.obj
 0002:0000a6a0       __xmm@0000003c0000003a0000003900000038 100536a0     RMG_SettingsDlg.obj
 0002:0000a6b0       __xmm@0000004100000041000000ee00000041 100536b0     RMG_SettingsDlg.obj
 0002:0000a6c0       __xmm@00000051000000500000004e00000040 100536c0     RMG_SettingsDlg.obj
 0002:0000a6d0       __xmm@00000054000000190000001800000010 100536d0     RMG_SettingsDlg.obj
 0002:0000a6e0       __xmm@0000005a000000590000005800000053 100536e0     RMG_SettingsDlg.obj
 0002:0000a6f0       __xmm@000000600000005f0000005e0000005c 100536f0     RMG_SettingsDlg.obj
 0002:0000a700       __xmm@00000066000000640000006300000061 10053700     RMG_SettingsDlg.obj
 0002:0000a710       __xmm@0000006b0000006a0000006900000068 10053710     RMG_SettingsDlg.obj
 0002:0000a720       __xmm@000000700000006e0000006d0000006c 10053720     RMG_SettingsDlg.obj
 0002:0000a730       __xmm@000000900000008e0000008d00000071 10053730     RMG_SettingsDlg.obj
 0002:0000a740       __xmm@000001c20000015e0000005800000014 10053740     RMG_SettingsDlg.obj
 0002:0000a750       __xmm@41f00000000000000000000000000000 10053750     CreatureBanksExtender.obj
 0002:0000a794       ??_7bad_typeid@std@@6B@    10053794     libvcruntime:rtti.obj
 0002:0000a7a0       ??_7__non_rtti_object@std@@6B@ 100537a0     libvcruntime:rtti.obj
 0002:0000a7a8       ??_C@_0CB@CGKGGDFI@Access?5violation?5?9?5no?5RTTI?5data@ 100537a8     libvcruntime:rtti.obj
 0002:0000a7cc       ??_C@_0BC@JNJNLHBP@Bad?5dynamic_cast?$CB@ 100537cc     libvcruntime:rtti.obj
 0002:0000a7e0       __load_config_used         100537e0     LIBCMT:loadcfg.obj
 0002:0000a940       __tls_used                 10053940     LIBCMT:tlssup.obj
 0002:0000a958       ??_R4logic_error@std@@6B@  10053958     libcpmt:xthrow.obj
 0002:0000a96c       ??_R3logic_error@std@@8    1005396c     libcpmt:xthrow.obj
 0002:0000a97c       ??_R2logic_error@std@@8    1005397c     libcpmt:xthrow.obj
 0002:0000a988       ??_R1A@?0A@EA@logic_error@std@@8 10053988     libcpmt:xthrow.obj
 0002:0000a9a4       ??_R4length_error@std@@6B@ 100539a4     libcpmt:xthrow.obj
 0002:0000a9b8       ??_R3length_error@std@@8   100539b8     libcpmt:xthrow.obj
 0002:0000a9c8       ??_R2length_error@std@@8   100539c8     libcpmt:xthrow.obj
 0002:0000a9d8       ??_R1A@?0A@EA@length_error@std@@8 100539d8     libcpmt:xthrow.obj
 0002:0000a9f4       ??_R4out_of_range@std@@6B@ 100539f4     libcpmt:xthrow.obj
 0002:0000aa08       ??_R3out_of_range@std@@8   10053a08     libcpmt:xthrow.obj
 0002:0000aa18       ??_R2out_of_range@std@@8   10053a18     libcpmt:xthrow.obj
 0002:0000aa28       ??_R1A@?0A@EA@out_of_range@std@@8 10053a28     libcpmt:xthrow.obj
 0002:0000aa44       ??_R4_Generic_error_category@std@@6B@ 10053a44     libcpmt:thread0.obj
 0002:0000aa58       ??_R3_Generic_error_category@std@@8 10053a58     libcpmt:thread0.obj
 0002:0000aa68       ??_R2_Generic_error_category@std@@8 10053a68     libcpmt:thread0.obj
 0002:0000aa74       ??_R1A@?0A@EA@_Generic_error_category@std@@8 10053a74     libcpmt:thread0.obj
 0002:0000aa90       ??_R4_Locimp@locale@std@@6B@ 10053a90     libcpmt:locale0.obj
 0002:0000aaa4       ??_R3_Locimp@locale@std@@8 10053aa4     libcpmt:locale0.obj
 0002:0000aab4       ??_R2_Locimp@locale@std@@8 10053ab4     libcpmt:locale0.obj
 0002:0000aac8       ??_R1A@?0A@EA@_Locimp@locale@std@@8 10053ac8     libcpmt:locale0.obj
 0002:0000aae4       ??_R4type_info@@6B@        10053ae4     LIBCMT:std_type_info_static.obj
 0002:0000aaf8       ??_R3type_info@@8          10053af8     LIBCMT:std_type_info_static.obj
 0002:0000ab08       ??_R2type_info@@8          10053b08     LIBCMT:std_type_info_static.obj
 0002:0000ab10       ??_R1A@?0A@EA@type_info@@8 10053b10     LIBCMT:std_type_info_static.obj
 0002:0000ab2c       ??_R4bad_exception@std@@6B@ 10053b2c     libvcruntime:frame.obj
 0002:0000ab40       ??_R3bad_exception@std@@8  10053b40     libvcruntime:frame.obj
 0002:0000ab50       ??_R2bad_exception@std@@8  10053b50     libvcruntime:frame.obj
 0002:0000ab5c       ??_R1A@?0A@EA@bad_exception@std@@8 10053b5c     libvcruntime:frame.obj
 0002:0000ab78       ??_R4exception@std@@6B@    10053b78     era.obj
 0002:0000ab8c       ??_R2bad_array_new_length@std@@8 10053b8c     era.obj
 0002:0000ab9c       ??_R2bad_alloc@std@@8      10053b9c     era.obj
 0002:0000aba8       ??_R1A@?0A@EA@exception@std@@8 10053ba8     era.obj
 0002:0000abc4       ??_R1A@?0A@EA@bad_alloc@std@@8 10053bc4     era.obj
 0002:0000abe0       ??_R2exception@std@@8      10053be0     era.obj
 0002:0000abe8       ??_R3exception@std@@8      10053be8     era.obj
 0002:0000abf8       ??_R4bad_alloc@std@@6B@    10053bf8     era.obj
 0002:0000ac0c       ??_R3bad_array_new_length@std@@8 10053c0c     era.obj
 0002:0000ac1c       ??_R3bad_alloc@std@@8      10053c1c     era.obj
 0002:0000ac2c       ??_R4bad_array_new_length@std@@6B@ 10053c2c     era.obj
 0002:0000ac40       ??_R1A@?0A@EA@bad_array_new_length@std@@8 10053c40     era.obj
 0002:0000ac5c       ??_R1A@?0A@EA@IGamePatch@@8 10053c5c     AncientLampExtender.obj
 0002:0000ac78       ??_R2IGamePatch@@8         10053c78     AncientLampExtender.obj
 0002:0000ac80       ??_R2AncientLampExtender@ancientLamp@@8 10053c80     AncientLampExtender.obj
 0002:0000ac90       ??_R4AncientLampExtender@ancientLamp@@6B@ 10053c90     AncientLampExtender.obj
 0002:0000aca4       ??_R1A@?0A@EA@AncientLampExtender@ancientLamp@@8 10053ca4     AncientLampExtender.obj
 0002:0000acc0       ??_R3IGamePatch@@8         10053cc0     AncientLampExtender.obj
 0002:0000acd0       ??_R1A@?0A@EA@ObjectsExtender@extender@@8 10053cd0     AncientLampExtender.obj
 0002:0000acec       ??_R3AncientLampExtender@ancientLamp@@8 10053cec     AncientLampExtender.obj
 0002:0000acfc       ??_R3ObjectsExtender@extender@@8 10053cfc     AncientLampExtender.obj
 0002:0000ad0c       ??_R2ObjectsExtender@extender@@8 10053d0c     AncientLampExtender.obj
 0002:0000ad18       ??_R3ColosseumOfTheMagiExtender@colosseumOfTheMagi@@8 10053d18     ColosseumOfTheMagiExtender.obj
 0002:0000ad28       ??_R2ColosseumOfTheMagiExtender@colosseumOfTheMagi@@8 10053d28     ColosseumOfTheMagiExtender.obj
 0002:0000ad38       ??_R1A@?0A@EA@ColosseumOfTheMagiExtender@colosseumOfTheMagi@@8 10053d38     ColosseumOfTheMagiExtender.obj
 0002:0000ad54       ??_R4ColosseumOfTheMagiExtender@colosseumOfTheMagi@@6B@ 10053d54     ColosseumOfTheMagiExtender.obj
 0002:0000ad68       ??_R4CreatureBanksExtender@cbanks@@6B@ 10053d68     CreatureBanksExtender.obj
 0002:0000ad7c       ??_R3CreatureBanksExtender@cbanks@@8 10053d7c     CreatureBanksExtender.obj
 0002:0000ad8c       ??_R1A@?0A@EA@CreatureBanksExtender@cbanks@@8 10053d8c     CreatureBanksExtender.obj
 0002:0000ada8       ??_R2CreatureBanksExtender@cbanks@@8 10053da8     CreatureBanksExtender.obj
 0002:0000adb8       ??_R4DreamTeacherExtender@dreamTeacher@@6B@ 10053db8     DreamTeacherExtender.obj
 0002:0000adcc       ??_R2DreamTeacherExtender@dreamTeacher@@8 10053dcc     DreamTeacherExtender.obj
 0002:0000addc       ??_R3DreamTeacherExtender@dreamTeacher@@8 10053ddc     DreamTeacherExtender.obj
 0002:0000adec       ??_R1A@?0A@EA@DreamTeacherExtender@dreamTeacher@@8 10053dec     DreamTeacherExtender.obj
 0002:0000ae08       ??_R2GazeboExtender@gazebo@@8 10053e08     GazeboExtender.obj
 0002:0000ae18       ??_R4GazeboExtender@gazebo@@6B@ 10053e18     GazeboExtender.obj
 0002:0000ae2c       ??_R1A@?0A@EA@GazeboExtender@gazebo@@8 10053e2c     GazeboExtender.obj
 0002:0000ae48       ??_R3GazeboExtender@gazebo@@8 10053e48     GazeboExtender.obj
 0002:0000ae58       ??_R1A@?0A@EA@GraveExtender@grave@@8 10053e58     GraveExtender.obj
 0002:0000ae74       ??_R3GraveExtender@grave@@8 10053e74     GraveExtender.obj
 0002:0000ae84       ??_R2GraveExtender@grave@@8 10053e84     GraveExtender.obj
 0002:0000ae94       ??_R4GraveExtender@grave@@6B@ 10053e94     GraveExtender.obj
 0002:0000aea8       ??_R2HermitsShackExtender@hermitsShack@@8 10053ea8     HermitsShackExtender.obj
 0002:0000aeb8       ??_R4HermitsShackExtender@hermitsShack@@6B@ 10053eb8     HermitsShackExtender.obj
 0002:0000aecc       ??_R3HermitsShackExtender@hermitsShack@@8 10053ecc     HermitsShackExtender.obj
 0002:0000aedc       ??_R1A@?0A@EA@HermitsShackExtender@hermitsShack@@8 10053edc     HermitsShackExtender.obj
 0002:0000aef8       ??_R1A@?0A@EA@HillFortExtender@hillFort@@8 10053ef8     HillFortExtender.obj
 0002:0000af14       ??_R4HillFortExtender@hillFort@@6B@ 10053f14     HillFortExtender.obj
 0002:0000af28       ??_R3HillFortExtender@hillFort@@8 10053f28     HillFortExtender.obj
 0002:0000af38       ??_R2HillFortExtender@hillFort@@8 10053f38     HillFortExtender.obj
 0002:0000af48       ??_R4JunkmanExtender@junkman@@6B@ 10053f48     JunkmanExtender.obj
 0002:0000af5c       ??_R2JunkmanExtender@junkman@@8 10053f5c     JunkmanExtender.obj
 0002:0000af6c       ??_R1A@?0A@EA@JunkmanExtender@junkman@@8 10053f6c     JunkmanExtender.obj
 0002:0000af88       ??_R3JunkmanExtender@junkman@@8 10053f88     JunkmanExtender.obj
 0002:0000af98       ??_R4MineralSpringExtender@mineralSpring@@6B@ 10053f98     MineralSpringExtender.obj
 0002:0000afac       ??_R3MineralSpringExtender@mineralSpring@@8 10053fac     MineralSpringExtender.obj
 0002:0000afbc       ??_R1A@?0A@EA@MineralSpringExtender@mineralSpring@@8 10053fbc     MineralSpringExtender.obj
 0002:0000afd8       ??_R2MineralSpringExtender@mineralSpring@@8 10053fd8     MineralSpringExtender.obj
 0002:0000afe8       ??_R2ObservatoryExtender@observatory@@8 10053fe8     ObservatoryExtender.obj
 0002:0000aff8       ??_R1A@?0A@EA@ObservatoryExtender@observatory@@8 10053ff8     ObservatoryExtender.obj
 0002:0000b014       ??_R4ObservatoryExtender@observatory@@6B@ 10054014     ObservatoryExtender.obj
 0002:0000b028       ??_R3ObservatoryExtender@observatory@@8 10054028     ObservatoryExtender.obj
 0002:0000b038       ??_R3ShrinesExternder@shrines@@8 10054038     ShrinesExternder.obj
 0002:0000b048       ??_R1A@?0A@EA@ShrinesExternder@shrines@@8 10054048     ShrinesExternder.obj
 0002:0000b064       ??_R2ShrinesExternder@shrines@@8 10054064     ShrinesExternder.obj
 0002:0000b074       ??_R4ShrinesExternder@shrines@@6B@ 10054074     ShrinesExternder.obj
 0002:0000b088       ??_R1A@?0A@EA@SkeletonTransformerExtender@skeletonTransformer@@8 10054088     SkeletonTransformerExtender.obj
 0002:0000b0a4       ??_R3SkeletonTransformerExtender@skeletonTransformer@@8 100540a4     SkeletonTransformerExtender.obj
 0002:0000b0b4       ??_R2SkeletonTransformerExtender@skeletonTransformer@@8 100540b4     SkeletonTransformerExtender.obj
 0002:0000b0c4       ??_R4SkeletonTransformerExtender@skeletonTransformer@@6B@ 100540c4     SkeletonTransformerExtender.obj
 0002:0000b0d8       ??_R4TempleOfLoyaltyExtender@templeOfLoyalty@@6B@ 100540d8     TempleOfLoyaltyExtender.obj
 0002:0000b0ec       ??_R2TempleOfLoyaltyExtender@templeOfLoyalty@@8 100540ec     TempleOfLoyaltyExtender.obj
 0002:0000b0fc       ??_R1A@?0A@EA@TempleOfLoyaltyExtender@templeOfLoyalty@@8 100540fc     TempleOfLoyaltyExtender.obj
 0002:0000b118       ??_R3TempleOfLoyaltyExtender@templeOfLoyalty@@8 10054118     TempleOfLoyaltyExtender.obj
 0002:0000b128       ??_R1A@?0A@EA@TrailblazerExtender@trailblazer@@8 10054128     TrailblazerExtender.obj
 0002:0000b144       ??_R2TrailblazerExtender@trailblazer@@8 10054144     TrailblazerExtender.obj
 0002:0000b154       ??_R3TrailblazerExtender@trailblazer@@8 10054154     TrailblazerExtender.obj
 0002:0000b164       ??_R4TrailblazerExtender@trailblazer@@6B@ 10054164     TrailblazerExtender.obj
 0002:0000b178       ??_R4UniversityExtender@university@@6B@ 10054178     UniversityExtender.obj
 0002:0000b18c       ??_R2UniversityExtender@university@@8 1005418c     UniversityExtender.obj
 0002:0000b19c       ??_R1A@?0A@EA@UniversityExtender@university@@8 1005419c     UniversityExtender.obj
 0002:0000b1b8       ??_R3UniversityExtender@university@@8 100541b8     UniversityExtender.obj
 0002:0000b1c8       ??_R2WarehousesExtender@warehouses@@8 100541c8     WarehousesExtender.obj
 0002:0000b1d8       ??_R4WarehousesExtender@warehouses@@6B@ 100541d8     WarehousesExtender.obj
 0002:0000b1ec       ??_R1A@?0A@EA@WarehousesExtender@warehouses@@8 100541ec     WarehousesExtender.obj
 0002:0000b208       ??_R3WarehousesExtender@warehouses@@8 10054208     WarehousesExtender.obj
 0002:0000b218       ??_R3WateringPlaceExtender@wateringPlace@@8 10054218     WateringPlaceExtender.obj
 0002:0000b228       ??_R1A@?0A@EA@WateringPlaceExtender@wateringPlace@@8 10054228     WateringPlaceExtender.obj
 0002:0000b244       ??_R2WateringPlaceExtender@wateringPlace@@8 10054244     WateringPlaceExtender.obj
 0002:0000b254       ??_R4WateringPlaceExtender@wateringPlace@@6B@ 10054254     WateringPlaceExtender.obj
 0002:0000b268       ??_R2WoGObjectsExtender@wog@@8 10054268     WoGObjectsExtender.obj
 0002:0000b278       ??_R3WoGObjectsExtender@wog@@8 10054278     WoGObjectsExtender.obj
 0002:0000b288       ??_R4WoGObjectsExtender@wog@@6B@ 10054288     WoGObjectsExtender.obj
 0002:0000b29c       ??_R1A@?0A@EA@WoGObjectsExtender@wog@@8 1005429c     WoGObjectsExtender.obj
 0002:0000b2b8       ??_R3?$basic_istream@DU?$char_traits@D@std@@@std@@8 100542b8     ObjectsExtender.obj
 0002:0000b2c8       ??_R1A@?0A@EA@?$basic_istringstream@DU?$char_traits@D@std@@V?$allocator@D@2@@std@@8 100542c8     ObjectsExtender.obj
 0002:0000b2e4       ??_R2?$basic_istringstream@DU?$char_traits@D@std@@V?$allocator@D@2@@std@@8 100542e4     ObjectsExtender.obj
 0002:0000b2fc       ??_R2system_error@std@@8   100542fc     ObjectsExtender.obj
 0002:0000b310       ??_R1A@?0A@EA@system_error@std@@8 10054310     ObjectsExtender.obj
 0002:0000b32c       ??_R3?$ctype@D@std@@8      1005432c     ObjectsExtender.obj
 0002:0000b33c       ??_R1A@?0A@EA@?$basic_istream@DU?$char_traits@D@std@@@std@@8 1005433c     ObjectsExtender.obj
 0002:0000b358       ??_R4runtime_error@std@@6B@ 10054358     ObjectsExtender.obj
 0002:0000b36c       ??_R4_System_error@std@@6B@ 1005436c     ObjectsExtender.obj
 0002:0000b380       ??_R3_Facet_base@std@@8    10054380     ObjectsExtender.obj
 0002:0000b390       ??_R1A@?0A@EA@bad_cast@std@@8 10054390     ObjectsExtender.obj
 0002:0000b3ac       ??_R4ObjectsExtender@extender@@6B@ 100543ac     ObjectsExtender.obj
 0002:0000b3c0       ??_R2?$basic_stringbuf@DU?$char_traits@D@std@@V?$allocator@D@2@@std@@8 100543c0     ObjectsExtender.obj
 0002:0000b3cc       ??_R3_Crt_new_delete@std@@8 100543cc     ObjectsExtender.obj
 0002:0000b3dc       ??_R1A@?0A@EA@runtime_error@std@@8 100543dc     ObjectsExtender.obj
 0002:0000b3f8       ??_R2_System_error@std@@8  100543f8     ObjectsExtender.obj
 0002:0000b408       ??_R13?0A@EA@_Crt_new_delete@std@@8 10054408     ObjectsExtender.obj
 0002:0000b424       ??_R17A@3EA@?$_Iosb@H@std@@8 10054424     ObjectsExtender.obj
 0002:0000b440       ??_R4ios_base@std@@6B@     10054440     ObjectsExtender.obj
 0002:0000b454       ??_R4system_error@std@@6B@ 10054454     ObjectsExtender.obj
 0002:0000b468       ??_R1A@?0A@EA@?$basic_streambuf@DU?$char_traits@D@std@@@std@@8 10054468     ObjectsExtender.obj
 0002:0000b484       ??_R1A@?0A@EA@_Facet_base@std@@8 10054484     ObjectsExtender.obj
 0002:0000b4a0       ??_R2?$basic_istream@DU?$char_traits@D@std@@@std@@8 100544a0     ObjectsExtender.obj
 0002:0000b4b4       ??_R3_System_error@std@@8  100544b4     ObjectsExtender.obj
 0002:0000b4c4       ??_R4?$basic_ios@DU?$char_traits@D@std@@@std@@6B@ 100544c4     ObjectsExtender.obj
 0002:0000b4d8       ??_R3?$basic_stringbuf@DU?$char_traits@D@std@@V?$allocator@D@2@@std@@8 100544d8     ObjectsExtender.obj
 0002:0000b4e8       ??_R2bad_cast@std@@8       100544e8     ObjectsExtender.obj
 0002:0000b4f4       ??_R4failure@ios_base@std@@6B@ 100544f4     ObjectsExtender.obj
 0002:0000b508       ??_R3?$basic_ios@DU?$char_traits@D@std@@@std@@8 10054508     ObjectsExtender.obj
 0002:0000b518       ??_R4_Iostream_error_category2@std@@6B@ 10054518     ObjectsExtender.obj
 0002:0000b52c       ??_R3?$basic_istringstream@DU?$char_traits@D@std@@V?$allocator@D@2@@std@@8 1005452c     ObjectsExtender.obj
 0002:0000b53c       ??_R2error_category@std@@8 1005453c     ObjectsExtender.obj
 0002:0000b544       ??_R1A@?0A@EA@_Iostream_error_category2@std@@8 10054544     ObjectsExtender.obj
 0002:0000b560       ??_R1A@?0A@EA@facet@locale@std@@8 10054560     ObjectsExtender.obj
 0002:0000b57c       ??_R2failure@ios_base@std@@8 1005457c     ObjectsExtender.obj
 0002:0000b594       ??_R3failure@ios_base@std@@8 10054594     ObjectsExtender.obj
 0002:0000b5a4       ??_R2?$ctype@D@std@@8      100545a4     ObjectsExtender.obj
 0002:0000b5bc       ??_R1A@?0A@EA@ios_base@std@@8 100545bc     ObjectsExtender.obj
 0002:0000b5d8       ??_R1A@?0A@EA@failure@ios_base@std@@8 100545d8     ObjectsExtender.obj
 0002:0000b5f4       ??_R2?$basic_streambuf@DU?$char_traits@D@std@@@std@@8 100545f4     ObjectsExtender.obj
 0002:0000b5fc       ??_R1A@?0A@EA@?$_Iosb@H@std@@8 100545fc     ObjectsExtender.obj
 0002:0000b618       ??_R1A@?0A@EA@?$basic_stringbuf@DU?$char_traits@D@std@@V?$allocator@D@2@@std@@8 10054618     ObjectsExtender.obj
 0002:0000b634       ??_R3facet@locale@std@@8   10054634     ObjectsExtender.obj
 0002:0000b644       ??_R3ctype_base@std@@8     10054644     ObjectsExtender.obj
 0002:0000b654       ??_R3bad_cast@std@@8       10054654     ObjectsExtender.obj
 0002:0000b664       ??_R1A@?0A@EA@_System_error@std@@8 10054664     ObjectsExtender.obj
 0002:0000b680       ??_R3error_category@std@@8 10054680     ObjectsExtender.obj
 0002:0000b690       ??_R4bad_cast@std@@6B@     10054690     ObjectsExtender.obj
 0002:0000b6a4       ??_R1A@?0A@EA@_Crt_new_delete@std@@8 100546a4     ObjectsExtender.obj
 0002:0000b6c0       ??_R4?$basic_stringbuf@DU?$char_traits@D@std@@V?$allocator@D@2@@std@@6B@ 100546c0     ObjectsExtender.obj
 0002:0000b6d4       ??_R4_Facet_base@std@@6B@  100546d4     ObjectsExtender.obj
 0002:0000b6e8       ??_R3_Iostream_error_category2@std@@8 100546e8     ObjectsExtender.obj
 0002:0000b6f8       ??_R2runtime_error@std@@8  100546f8     ObjectsExtender.obj
 0002:0000b704       ??_R1A@A@3FA@?$basic_ios@DU?$char_traits@D@std@@@std@@8 10054704     ObjectsExtender.obj
 0002:0000b720       ??_R2ios_base@std@@8       10054720     ObjectsExtender.obj
 0002:0000b72c       ??_R4?$basic_streambuf@DU?$char_traits@D@std@@@std@@6B@ 1005472c     ObjectsExtender.obj
 0002:0000b740       ??_R1A@?0A@EA@ctype_base@std@@8 10054740     ObjectsExtender.obj
 0002:0000b75c       ??_R2_Iostream_error_category2@std@@8 1005475c     ObjectsExtender.obj
 0002:0000b768       ??_R2_Crt_new_delete@std@@8 10054768     ObjectsExtender.obj
 0002:0000b770       ??_R1A@?0A@EA@?$ctype@D@std@@8 10054770     ObjectsExtender.obj
 0002:0000b78c       ??_R4?$basic_istringstream@DU?$char_traits@D@std@@V?$allocator@D@2@@std@@6B@ 1005478c     ObjectsExtender.obj
 0002:0000b7a0       ??_R3ios_base@std@@8       100547a0     ObjectsExtender.obj
 0002:0000b7b0       ??_R3?$basic_streambuf@DU?$char_traits@D@std@@@std@@8 100547b0     ObjectsExtender.obj
 0002:0000b7c0       ??_R2?$_Iosb@H@std@@8      100547c0     ObjectsExtender.obj
 0002:0000b7c8       ??_R3system_error@std@@8   100547c8     ObjectsExtender.obj
 0002:0000b7d8       ??_R1A@A@3EA@ios_base@std@@8 100547d8     ObjectsExtender.obj
 0002:0000b7f4       ??_R1A@?0A@EA@?$basic_ios@DU?$char_traits@D@std@@@std@@8 100547f4     ObjectsExtender.obj
 0002:0000b810       ??_R3?$_Iosb@H@std@@8      10054810     ObjectsExtender.obj
 0002:0000b820       ??_R2_Facet_base@std@@8    10054820     ObjectsExtender.obj
 0002:0000b828       ??_R17?0A@EA@?$_Iosb@H@std@@8 10054828     ObjectsExtender.obj
 0002:0000b844       ??_R2facet@locale@std@@8   10054844     ObjectsExtender.obj
 0002:0000b854       ??_R4?$ctype@D@std@@6B@    10054854     ObjectsExtender.obj
 0002:0000b868       ??_R4?$basic_istream@DU?$char_traits@D@std@@@std@@6B@ 10054868     ObjectsExtender.obj
 0002:0000b87c       ??_R3runtime_error@std@@8  1005487c     ObjectsExtender.obj
 0002:0000b88c       ??_R2?$basic_ios@DU?$char_traits@D@std@@@std@@8 1005488c     ObjectsExtender.obj
 0002:0000b89c       ??_R2ctype_base@std@@8     1005489c     ObjectsExtender.obj
 0002:0000b8b0       ??_R1A@?0A@EA@error_category@std@@8 100548b0     ObjectsExtender.obj
 0002:0000b8cc       ??_R2RMGObjectsEditor@editor@@8 100548cc     RMGObjectsEditor.obj
 0002:0000b8d8       ??_R4RMGObjectsEditor@editor@@6B@ 100548d8     RMGObjectsEditor.obj
 0002:0000b8ec       ??_R1A@?0A@EA@RMGObjectsEditor@editor@@8 100548ec     RMGObjectsEditor.obj
 0002:0000b908       ??_R3RMGObjectsEditor@editor@@8 10054908     RMGObjectsEditor.obj
 0002:0000b918       ??_R1A@?0A@EA@H3ExtendedDlg@h3@@8 10054918     RMG_SettingsDlg.obj
 0002:0000b934       ??_R3BanksPage@RMG_SettingsDlg@rmgdlg@@8 10054934     RMG_SettingsDlg.obj
 0002:0000b944       ??_R13?0A@EA@H3Allocator@h3@@8 10054944     RMG_SettingsDlg.obj
 0002:0000b960       ??_R3H3BaseDlg@h3@@8       10054960     RMG_SettingsDlg.obj
 0002:0000b970       ??_R1A@?0A@EA@H3BaseDlg@h3@@8 10054970     RMG_SettingsDlg.obj
 0002:0000b98c       ??_R2H3NetworkDlg@h3@@8    1005498c     RMG_SettingsDlg.obj
 0002:0000b9a0       ??_R4MiscPage@RMG_SettingsDlg@rmgdlg@@6B@ 100549a0     RMG_SettingsDlg.obj
 0002:0000b9b4       ??_R1A@?0A@EA@Page@RMG_SettingsDlg@rmgdlg@@8 100549b4     RMG_SettingsDlg.obj
 0002:0000b9d0       ??_R1A@?0A@EA@BanksPage@RMG_SettingsDlg@rmgdlg@@8 100549d0     RMG_SettingsDlg.obj
 0002:0000b9ec       ??_R2H3BaseDlg@h3@@8       100549ec     RMG_SettingsDlg.obj
 0002:0000b9f8       ??_R2H3ExtendedDlg@h3@@8   100549f8     RMG_SettingsDlg.obj
 0002:0000ba08       ??_R1A@?0A@EA@MiscPage@RMG_SettingsDlg@rmgdlg@@8 10054a08     RMG_SettingsDlg.obj
 0002:0000ba24       ??_R4BanksPage@RMG_SettingsDlg@rmgdlg@@6B@ 10054a24     RMG_SettingsDlg.obj
 0002:0000ba38       ??_R3H3Dlg@h3@@8           10054a38     RMG_SettingsDlg.obj
 0002:0000ba48       ??_R4RMG_SettingsDlg@rmgdlg@@6B@ 10054a48     RMG_SettingsDlg.obj
 0002:0000ba5c       ??_R3RMG_SettingsDlg@rmgdlg@@8 10054a5c     RMG_SettingsDlg.obj
 0002:0000ba6c       ??_R1A@?0A@EA@H3Dlg@h3@@8  10054a6c     RMG_SettingsDlg.obj
 0002:0000ba88       ??_R2Page@RMG_SettingsDlg@rmgdlg@@8 10054a88     RMG_SettingsDlg.obj
 0002:0000ba90       ??_R2H3Allocator@h3@@8     10054a90     RMG_SettingsDlg.obj
 0002:0000ba98       ??_R1A@?0A@EA@H3NetworkDlg@h3@@8 10054a98     RMG_SettingsDlg.obj
 0002:0000bab4       ??_R3H3NetworkDlg@h3@@8    10054ab4     RMG_SettingsDlg.obj
 0002:0000bac4       ??_R4H3Dlg@h3@@6B@         10054ac4     RMG_SettingsDlg.obj
 0002:0000bad8       ??_R1A@?0A@EA@H3Allocator@h3@@8 10054ad8     RMG_SettingsDlg.obj
 0002:0000baf4       ??_R2ObjectsPanel@RMG_SettingsDlg@rmgdlg@@8 10054af4     RMG_SettingsDlg.obj
 0002:0000bafc       ??_R2MiscPage@RMG_SettingsDlg@rmgdlg@@8 10054afc     RMG_SettingsDlg.obj
 0002:0000bb0c       ??_R1A@?0A@EA@RMG_SettingsDlg@rmgdlg@@8 10054b0c     RMG_SettingsDlg.obj
 0002:0000bb28       ??_R3ObjectsPanel@RMG_SettingsDlg@rmgdlg@@8 10054b28     RMG_SettingsDlg.obj
 0002:0000bb38       ??_R3H3ExtendedDlg@h3@@8   10054b38     RMG_SettingsDlg.obj
 0002:0000bb48       ??_R3H3Allocator@h3@@8     10054b48     RMG_SettingsDlg.obj
 0002:0000bb58       ??_R3Page@RMG_SettingsDlg@rmgdlg@@8 10054b58     RMG_SettingsDlg.obj
 0002:0000bb68       ??_R2RMG_SettingsDlg@rmgdlg@@8 10054b68     RMG_SettingsDlg.obj
 0002:0000bb84       ??_R2H3Dlg@h3@@8           10054b84     RMG_SettingsDlg.obj
 0002:0000bb9c       ??_R1A@?0A@EA@ObjectsPage@RMG_SettingsDlg@rmgdlg@@8 10054b9c     RMG_SettingsDlg.obj
 0002:0000bbb8       ??_R2ObjectsPage@RMG_SettingsDlg@rmgdlg@@8 10054bb8     RMG_SettingsDlg.obj
 0002:0000bbc4       ??_R4ObjectsPage@RMG_SettingsDlg@rmgdlg@@6B@ 10054bc4     RMG_SettingsDlg.obj
 0002:0000bbd8       ??_R4ObjectsPanel@RMG_SettingsDlg@rmgdlg@@6B@ 10054bd8     RMG_SettingsDlg.obj
 0002:0000bbec       ??_R3ObjectsPage@RMG_SettingsDlg@rmgdlg@@8 10054bec     RMG_SettingsDlg.obj
 0002:0000bbfc       ??_R3MiscPage@RMG_SettingsDlg@rmgdlg@@8 10054bfc     RMG_SettingsDlg.obj
 0002:0000bc0c       ??_R1A@?0A@EA@ObjectsPanel@RMG_SettingsDlg@rmgdlg@@8 10054c0c     RMG_SettingsDlg.obj
 0002:0000bc28       ??_R2BanksPage@RMG_SettingsDlg@rmgdlg@@8 10054c28     RMG_SettingsDlg.obj
 0002:0000bc38       ??_R4Page@RMG_SettingsDlg@rmgdlg@@6B@ 10054c38     RMG_SettingsDlg.obj
 0002:0000bc4c       ??_R4bad_typeid@std@@6B@   10054c4c     libvcruntime:rtti.obj
 0002:0000bc60       ??_R3bad_typeid@std@@8     10054c60     libvcruntime:rtti.obj
 0002:0000bc70       ??_R2bad_typeid@std@@8     10054c70     libvcruntime:rtti.obj
 0002:0000bc7c       ??_R1A@?0A@EA@bad_typeid@std@@8 10054c7c     libvcruntime:rtti.obj
 0002:0000bc98       ??_R4__non_rtti_object@std@@6B@ 10054c98     libvcruntime:rtti.obj
 0002:0000bcac       ??_R3__non_rtti_object@std@@8 10054cac     libvcruntime:rtti.obj
 0002:0000bcbc       ??_R2__non_rtti_object@std@@8 10054cbc     libvcruntime:rtti.obj
 0002:0000bccc       ??_R1A@?0A@EA@__non_rtti_object@std@@8 10054ccc     libvcruntime:rtti.obj
 0002:0000bce8       ___safe_se_handler_table   10054ce8     <linker-defined>
 0002:0000c108       ___volatile_metadata       10055108     <linker-defined>
 0002:0000c62c       ___rtc_iaa                 1005562c     LIBCMT:initsect.obj
 0002:0000c630       ___rtc_izz                 10055630     LIBCMT:initsect.obj
 0002:0000c634       ___rtc_taa                 10055634     LIBCMT:initsect.obj
 0002:0000c638       ___rtc_tzz                 10055638     LIBCMT:initsect.obj
 0002:0000c63c       __tls_start                1005563c     LIBCMT:tlssup.obj
 0002:0000c640       __Init_thread_epoch        10055640     LIBCMT:thread_safe_statics.obj
 0002:0000c644       __tls_end                  10055644     LIBCMT:tlssup.obj
 0002:0000db64       __TI2?AVbad_alloc@std@@    10056b64     libcpmt:xthrow.obj
 0002:0000db74       __CTA2?AVbad_alloc@std@@   10056b74     libcpmt:xthrow.obj
 0002:0000db80       __CT??_R0?AVlogic_error@std@@@8??0logic_error@std@@QAE@ABV01@@Z12 10056b80     libcpmt:xthrow.obj
 0002:0000db9c       __TI3?AVlength_error@std@@ 10056b9c     libcpmt:xthrow.obj
 0002:0000dbac       __CTA3?AVlength_error@std@@ 10056bac     libcpmt:xthrow.obj
 0002:0000dbbc       __CT??_R0?AVlength_error@std@@@8??0length_error@std@@QAE@ABV01@@Z12 10056bbc     libcpmt:xthrow.obj
 0002:0000dbd8       __TI3?AVout_of_range@std@@ 10056bd8     libcpmt:xthrow.obj
 0002:0000dbe8       __CTA3?AVout_of_range@std@@ 10056be8     libcpmt:xthrow.obj
 0002:0000dbf8       __CT??_R0?AVout_of_range@std@@@8??0out_of_range@std@@QAE@ABV01@@Z12 10056bf8     libcpmt:xthrow.obj
 0002:0000dc14       __TI2?AVruntime_error@std@@ 10056c14     libcpmt:xthrow.obj
 0002:0000dc24       __CTA2?AVruntime_error@std@@ 10056c24     libcpmt:xthrow.obj
 0002:0000dc5c       __TI4?AVsystem_error@std@@ 10056c5c     libcpmt:thread0.obj
 0002:0000dc6c       __CTA4?AVsystem_error@std@@ 10056c6c     libcpmt:thread0.obj
 0002:0000de9c       __TI2?AVbad_exception@std@@ 10056e9c     libvcruntime:frame.obj
 0002:0000deac       __CTA2?AVbad_exception@std@@ 10056eac     libvcruntime:frame.obj
 0002:0000deb8       __CT??_R0?AVbad_exception@std@@@8??0bad_exception@std@@QAE@ABV01@@Z12 10056eb8     libvcruntime:frame.obj
 0002:0000e2fc       __CTA3?AVbad_array_new_length@std@@ 100572fc     era.obj
 0002:0000e30c       __CT??_R0?AVbad_alloc@std@@@8??0bad_alloc@std@@QAE@ABV01@@Z12 1005730c     era.obj
 0002:0000e328       __CT??_R0?AVexception@std@@@8??0exception@std@@QAE@ABV01@@Z12 10057328     era.obj
 0002:0000e344       __TI3?AVbad_array_new_length@std@@ 10057344     era.obj
 0002:0000e354       __CT??_R0?AVbad_array_new_length@std@@@8??0bad_array_new_length@std@@QAE@ABV01@@Z12 10057354     era.obj
 0002:0000e370       __CTA2?AVbad_cast@std@@    10057370     ObjectsExtender.obj
 0002:0000e37c       __CT??_R0?AVbad_cast@std@@@8??0bad_cast@std@@QAE@ABV01@@Z12 1005737c     ObjectsExtender.obj
 0002:0000e398       __CT??_R0?AVsystem_error@std@@@8??0system_error@std@@QAE@ABV01@@Z20 10057398     ObjectsExtender.obj
 0002:0000e3b4       __TI2?AVbad_cast@std@@     100573b4     ObjectsExtender.obj
 0002:0000e3c4       __CT??_R0?AVruntime_error@std@@@8??0runtime_error@std@@QAE@ABV01@@Z12 100573c4     ObjectsExtender.obj
 0002:0000e3e0       __TI5?AVfailure@ios_base@std@@ 100573e0     ObjectsExtender.obj
 0002:0000e3f0       __CTA5?AVfailure@ios_base@std@@ 100573f0     ObjectsExtender.obj
 0002:0000e408       __CT??_R0?AV_System_error@std@@@8??0_System_error@std@@QAE@ABV01@@Z20 10057408     ObjectsExtender.obj
 0002:0000e424       __CT??_R0?AVfailure@ios_base@std@@@8??0failure@ios_base@std@@QAE@ABV012@@Z20 10057424     ObjectsExtender.obj
 0002:0001155c       __TI3?AV__non_rtti_object@std@@ 1005a55c     libvcruntime:rtti.obj
 0002:0001156c       __CTA3?AV__non_rtti_object@std@@ 1005a56c     libvcruntime:rtti.obj
 0002:0001157c       __CT??_R0?AV__non_rtti_object@std@@@8??0__non_rtti_object@std@@QAE@ABV01@@Z12 1005a57c     libvcruntime:rtti.obj
 0002:00011598       __CT??_R0?AVbad_typeid@std@@@8??0bad_typeid@std@@QAE@ABV01@@Z12 1005a598     libvcruntime:rtti.obj
 0002:00011630       __IMPORT_DESCRIPTOR_KERNEL32 1005a630     kernel32:KERNEL32.dll
 0002:00011644       __NULL_IMPORT_DESCRIPTOR   1005a644     kernel32:KERNEL32.dll
 0003:00000004       ?_Static@?1???$_Immortalize_memcpy_image@V_Generic_error_category@std@@@std@@YAABV_Generic_error_category@1@XZ@4V21@B 1005b004     libcpmt:thread0.obj
 0003:0000000c       ?_Sync@ios_base@std@@0_NA  1005b00c     libcpmt:ios.obj
 0003:00000044       __Init_global_epoch        1005b044     LIBCMT:thread_safe_statics.obj
 0003:00000048       ___scrt_native_dllmain_reason 1005b048     LIBCMT:utility.obj
 0003:00000080       ___security_cookie         1005b080     LIBCMT:gs_cookie.obj
 0003:000000c0       ___security_cookie_complement 1005b0c0     LIBCMT:gs_cookie.obj
 0003:000000c8       ___isa_inverted            1005b0c8     LIBCMT:cpu_disp.obj
 0003:000000d0       ___isa_enabled             1005b0d0     LIBCMT:cpu_disp.obj
 0003:000000d4       __fltused                  1005b0d4     LIBCMT:fltused.obj
 0003:000000f0       __NLG_Destination          1005b0f0     libvcruntime:exsup.obj
 0003:00000100       ___abort_behavior          1005b100     libucrt:abort.obj
 0003:00000104       __pctype                   1005b104     libucrt:ctype.obj
 0003:00000108       __pwctype                  1005b108     libucrt:ctype.obj
 0003:00000120       ___acrt_lconv_c            1005b120     libucrt:localeconv.obj
 0003:00000170       ___acrt_lconv              1005b170     libucrt:localeconv.obj
 0003:00000174       ___acrt_lconv_static_decimal 1005b174     libucrt:localeconv.obj
 0003:00000178       ___acrt_lconv_static_W_decimal 1005b178     libucrt:localeconv.obj
 0003:00000180       __iob                      1005b180     libucrt:_file.obj
 0003:00000238       ___acrt_initial_locale_data 1005b238     libucrt:nlsdata.obj
 0003:000002f0       ___acrt_initial_locale_pointers 1005b2f0     libucrt:nlsdata.obj
 0003:000002f8       ___acrt_wide_c_locale_string 1005b2f8     libucrt:nlsdata.obj
 0003:000002fc       ___mb_cur_max              1005b2fc     libucrt:nlsdata.obj
 0003:00000300       ___globallocalestatus      1005b300     libucrt:glstatus.obj
 0003:00000498       ___acrt_initial_multibyte_data 1005b498     libucrt:mbctype.obj
 0003:000009c0       __lookuptrailbytes         1005b9c0     libucrt:read.obj
 0003:00000ad0       ?trailblazerSettings@TrailblazerExtender@trailblazer@@2UTrailblazerSettings@2@A 1005bad0     TrailblazerExtender.obj
 0003:00000ad8       ?objectSubtype@UniversityExtender@university@@2HA 1005bad8     UniversityExtender.obj
 0003:00000ae0       ?currentCreatureBank@CreatureBanksExtender@cbanks@@0UCurrent@12@A 1005bae0     CreatureBanksExtender.obj
 0003:00000b18       ?_Static@?1???$_Immortalize_memcpy_image@V_Iostream_error_category2@std@@@std@@YAABV_Iostream_error_category2@1@XZ@4U?$_Constexpr_immortalize_impl@V_Iostream_error_category2@std@@@1@A 1005bb18     ObjectsExtender.obj
 0003:00000b30       ??_R0?AVlogic_error@std@@@8 1005bb30     libcpmt:xthrow.obj
 0003:00000b50       ??_R0?AVlength_error@std@@@8 1005bb50     libcpmt:xthrow.obj
 0003:00000b70       ??_R0?AVout_of_range@std@@@8 1005bb70     libcpmt:xthrow.obj
 0003:00000b90       ??_R0?AVbad_exception@std@@@8 1005bb90     libvcruntime:frame.obj
 0003:00000bb0       ??_R0?AVbad_alloc@std@@@8  1005bbb0     era.obj
 0003:00000bcc       ??_R0?AVexception@std@@@8  1005bbcc     era.obj
 0003:00000be8       ??_R0?AVbad_array_new_length@std@@@8 1005bbe8     era.obj
 0003:00000c10       ??_R0?AVfailure@ios_base@std@@@8 1005bc10     ObjectsExtender.obj
 0003:00000c34       ??_R0?AVruntime_error@std@@@8 1005bc34     ObjectsExtender.obj
 0003:00000c54       ??_R0?AVsystem_error@std@@@8 1005bc54     ObjectsExtender.obj
 0003:00000c74       ??_R0?AVbad_cast@std@@@8   1005bc74     ObjectsExtender.obj
 0003:00000c90       ??_R0?AV_System_error@std@@@8 1005bc90     ObjectsExtender.obj
 0003:00000cb0       ??_R0?AUPage@RMG_SettingsDlg@rmgdlg@@@8 1005bcb0     RMG_SettingsDlg.obj
 0003:00000cdc       ??_R0?AVRMG_SettingsDlg@rmgdlg@@@8 1005bcdc     RMG_SettingsDlg.obj
 0003:00000d04       ??_R0?AUObjectsPage@RMG_SettingsDlg@rmgdlg@@@8 1005bd04     RMG_SettingsDlg.obj
 0003:00000d38       ??_R0?AUH3BaseDlg@h3@@@8   1005bd38     RMG_SettingsDlg.obj
 0003:00000d54       ??_R0?AV__non_rtti_object@std@@@8 1005bd54     libvcruntime:rtti.obj
 0003:00000d78       ??_R0?AVbad_typeid@std@@@8 1005bd78     libvcruntime:rtti.obj
 0003:00000d98       ??_R0?AV_Generic_error_category@std@@@8 1005bd98     libcpmt:thread0.obj
 0003:00000dc4       ??_R0?AV_Locimp@locale@std@@@8 1005bdc4     libcpmt:locale0.obj
 0003:00000de8       ??_R0?AVtype_info@@@8      1005bde8     LIBCMT:std_type_info_static.obj
 0003:00000e00       ??_R0?AVIGamePatch@@@8     1005be00     AncientLampExtender.obj
 0003:00000e1c       ??_R0?AVObjectsExtender@extender@@@8 1005be1c     AncientLampExtender.obj
 0003:00000e44       ??_R0?AVAncientLampExtender@ancientLamp@@@8 1005be44     AncientLampExtender.obj
 0003:00000e74       ??_R0?AVColosseumOfTheMagiExtender@colosseumOfTheMagi@@@8 1005be74     ColosseumOfTheMagiExtender.obj
 0003:00000eb0       ??_R0?AVCreatureBanksExtender@cbanks@@@8 1005beb0     CreatureBanksExtender.obj
 0003:00000edc       ??_R0?AVDreamTeacherExtender@dreamTeacher@@@8 1005bedc     DreamTeacherExtender.obj
 0003:00000f0c       ??_R0?AVGazeboExtender@gazebo@@@8 1005bf0c     GazeboExtender.obj
 0003:00000f30       ??_R0?AVGraveExtender@grave@@@8 1005bf30     GraveExtender.obj
 0003:00000f54       ??_R0?AVHermitsShackExtender@hermitsShack@@@8 1005bf54     HermitsShackExtender.obj
 0003:00000f84       ??_R0?AVHillFortExtender@hillFort@@@8 1005bf84     HillFortExtender.obj
 0003:00000fac       ??_R0?AVJunkmanExtender@junkman@@@8 1005bfac     JunkmanExtender.obj
 0003:00000fd4       ??_R0?AVMineralSpringExtender@mineralSpring@@@8 1005bfd4     MineralSpringExtender.obj
 0003:00001008       ??_R0?AVObservatoryExtender@observatory@@@8 1005c008     ObservatoryExtender.obj
 0003:00001038       ??_R0?AVShrinesExternder@shrines@@@8 1005c038     ShrinesExternder.obj
 0003:00001060       ??_R0?AVSkeletonTransformerExtender@skeletonTransformer@@@8 1005c060     SkeletonTransformerExtender.obj
 0003:000010a0       ??_R0?AVTempleOfLoyaltyExtender@templeOfLoyalty@@@8 1005c0a0     TempleOfLoyaltyExtender.obj
 0003:000010d8       ??_R0?AVTrailblazerExtender@trailblazer@@@8 1005c0d8     TrailblazerExtender.obj
 0003:00001108       ??_R0?AVUniversityExtender@university@@@8 1005c108     UniversityExtender.obj
 0003:00001134       ??_R0?AVWarehousesExtender@warehouses@@@8 1005c134     WarehousesExtender.obj
 0003:00001160       ??_R0?AVWateringPlaceExtender@wateringPlace@@@8 1005c160     WateringPlaceExtender.obj
 0003:00001194       ??_R0?AVWoGObjectsExtender@wog@@@8 1005c194     WoGObjectsExtender.obj
 0003:000011c0       ??_R0?AV?$basic_stringbuf@DU?$char_traits@D@std@@V?$allocator@D@2@@std@@@8 1005c1c0     ObjectsExtender.obj
 0003:00001210       ??_R0?AVios_base@std@@@8   1005c210     ObjectsExtender.obj
 0003:0000122c       ??_R0?AVerror_category@std@@@8 1005c22c     ObjectsExtender.obj
 0003:00001250       ??_R0?AV?$ctype@D@std@@@8  1005c250     ObjectsExtender.obj
 0003:0000126c       ??_R0?AV_Facet_base@std@@@8 1005c26c     ObjectsExtender.obj
 0003:0000128c       ??_R0?AU_Crt_new_delete@std@@@8 1005c28c     ObjectsExtender.obj
 0003:000012b0       ??_R0?AV?$_Iosb@H@std@@@8  1005c2b0     ObjectsExtender.obj
 0003:000012cc       ??_R0?AV_Iostream_error_category2@std@@@8 1005c2cc     ObjectsExtender.obj
 0003:000012f8       ??_R0?AV?$basic_streambuf@DU?$char_traits@D@std@@@std@@@8 1005c2f8     ObjectsExtender.obj
 0003:00001334       ??_R0?AUctype_base@std@@@8 1005c334     ObjectsExtender.obj
 0003:00001358       ??_R0?AV?$basic_istringstream@DU?$char_traits@D@std@@V?$allocator@D@2@@std@@@8 1005c358     ObjectsExtender.obj
 0003:000013ac       ??_R0?AV?$basic_istream@DU?$char_traits@D@std@@@std@@@8 1005c3ac     ObjectsExtender.obj
 0003:000013e8       ??_R0?AV?$basic_ios@DU?$char_traits@D@std@@@std@@@8 1005c3e8     ObjectsExtender.obj
 0003:00001420       ??_R0?AVfacet@locale@std@@@8 1005c420     ObjectsExtender.obj
 0003:00001440       ??_R0?AVRMGObjectsEditor@editor@@@8 1005c440     RMGObjectsEditor.obj
 0003:00001468       ??_R0?AUH3Allocator@h3@@@8 1005c468     RMG_SettingsDlg.obj
 0003:00001488       ??_R0?AUObjectsPanel@RMG_SettingsDlg@rmgdlg@@@8 1005c488     RMG_SettingsDlg.obj
 0003:000014bc       ??_R0?AUH3ExtendedDlg@h3@@@8 1005c4bc     RMG_SettingsDlg.obj
 0003:000014dc       ??_R0?AUBanksPage@RMG_SettingsDlg@rmgdlg@@@8 1005c4dc     RMG_SettingsDlg.obj
 0003:0000150c       ??_R0?AUH3NetworkDlg@h3@@@8 1005c50c     RMG_SettingsDlg.obj
 0003:0000152c       ??_R0?AUMiscPage@RMG_SettingsDlg@rmgdlg@@@8 1005c52c     RMG_SettingsDlg.obj
 0003:0000155c       ??_R0?AUH3Dlg@h3@@@8       1005c55c     RMG_SettingsDlg.obj
 0003:00001648       ?_Id_cnt@id@locale@std@@0HA 1005c648     libcpmt:locale0.obj
 0003:0000164c       ?_Clocptr@_Locimp@locale@std@@0PAV123@A 1005c64c     libcpmt:locale0.obj
 0003:00001650       ?id@?$ctype@G@std@@2V0locale@2@A 1005c650     libcpmt:locale0.obj
 0003:00001654       ?id@?$codecvt@_WDU_Mbstatet@@@std@@2V0locale@2@A 1005c654     libcpmt:locale0.obj
 0003:00001658       ?id@?$codecvt@GDU_Mbstatet@@@std@@2V0locale@2@A 1005c658     libcpmt:locale0.obj
 0003:0000165c       ?id@?$ctype@_W@std@@2V0locale@2@A 1005c65c     libcpmt:locale0.obj
 0003:00001660       ?id@?$ctype@D@std@@2V0locale@2@A 1005c660     libcpmt:locale0.obj
 0003:0000167c       ?_Index@ios_base@std@@0HA  1005c67c     libcpmt:ios.obj
 0003:00001850       ?id@?$num_get@DV?$istreambuf_iterator@DU?$char_traits@D@std@@@std@@@std@@2V0locale@2@A 1005c850     libcpmt:locale.obj
 0003:00001854       ?id@?$num_put@DV?$ostreambuf_iterator@DU?$char_traits@D@std@@@std@@@std@@2V0locale@2@A 1005c854     libcpmt:locale.obj
 0003:00001858       ?id@?$numpunct@D@std@@2V0locale@2@A 1005c858     libcpmt:locale.obj
 0003:0000185c       ?id@?$codecvt@DDU_Mbstatet@@@std@@2V0locale@2@A 1005c85c     libcpmt:locale.obj
 0003:00001860       ?_Ptr_cin@std@@3PAV?$basic_istream@DU?$char_traits@D@std@@@1@A 1005c860     libcpmt:iosptrs.obj
 0003:00001864       ?_Ptr_cout@std@@3PAV?$basic_ostream@DU?$char_traits@D@std@@@1@A 1005c864     libcpmt:iosptrs.obj
 0003:00001868       ?_Ptr_cerr@std@@3PAV?$basic_ostream@DU?$char_traits@D@std@@@1@A 1005c868     libcpmt:iosptrs.obj
 0003:0000186c       ?_Ptr_clog@std@@3PAV?$basic_ostream@DU?$char_traits@D@std@@@1@A 1005c86c     libcpmt:iosptrs.obj
 0003:00001870       ?_Ptr_wcin@std@@3PAV?$basic_istream@_WU?$char_traits@_W@std@@@1@A 1005c870     libcpmt:iosptrs.obj
 0003:00001874       ?_Ptr_wcout@std@@3PAV?$basic_ostream@_WU?$char_traits@_W@std@@@1@A 1005c874     libcpmt:iosptrs.obj
 0003:00001878       ?_Ptr_wcerr@std@@3PAV?$basic_ostream@_WU?$char_traits@_W@std@@@1@A 1005c878     libcpmt:iosptrs.obj
 0003:0000187c       ?_Ptr_wclog@std@@3PAV?$basic_ostream@_WU?$char_traits@_W@std@@@1@A 1005c87c     libcpmt:iosptrs.obj
 0003:000018ac       ?id@?$time_put@_WV?$ostreambuf_iterator@_WU?$char_traits@_W@std@@@std@@@std@@2V0locale@2@A 1005c8ac     libcpmt:wlocale.obj
 0003:000018b0       ?id@?$num_get@_WV?$istreambuf_iterator@_WU?$char_traits@_W@std@@@std@@@std@@2V0locale@2@A 1005c8b0     libcpmt:wlocale.obj
 0003:000018b4       ?id@?$num_put@_WV?$ostreambuf_iterator@_WU?$char_traits@_W@std@@@std@@@std@@2V0locale@2@A 1005c8b4     libcpmt:wlocale.obj
 0003:000018b8       ?id@?$numpunct@_W@std@@2V0locale@2@A 1005c8b8     libcpmt:wlocale.obj
 0003:000018bc       ?id@?$collate@_W@std@@2V0locale@2@A 1005c8bc     libcpmt:wlocale.obj
 0003:000018c0       ?id@?$messages@_W@std@@2V0locale@2@A 1005c8c0     libcpmt:wlocale.obj
 0003:000018c4       ?id@?$money_get@_WV?$istreambuf_iterator@_WU?$char_traits@_W@std@@@std@@@std@@2V0locale@2@A 1005c8c4     libcpmt:wlocale.obj
 0003:000018c8       ?id@?$money_put@_WV?$ostreambuf_iterator@_WU?$char_traits@_W@std@@@std@@@std@@2V0locale@2@A 1005c8c8     libcpmt:wlocale.obj
 0003:000018cc       ?id@?$moneypunct@_W$0A@@std@@2V0locale@2@A 1005c8cc     libcpmt:wlocale.obj
 0003:000018d0       ?id@?$moneypunct@_W$00@std@@2V0locale@2@A 1005c8d0     libcpmt:wlocale.obj
 0003:000018d4       ?id@?$time_get@_WV?$istreambuf_iterator@_WU?$char_traits@_W@std@@@std@@@std@@2V0locale@2@A 1005c8d4     libcpmt:wlocale.obj
 0003:000018d8       ?id@?$num_get@GV?$istreambuf_iterator@GU?$char_traits@G@std@@@std@@@std@@2V0locale@2@A 1005c8d8     libcpmt:wlocale.obj
 0003:000018dc       ?id@?$num_put@GV?$ostreambuf_iterator@GU?$char_traits@G@std@@@std@@@std@@2V0locale@2@A 1005c8dc     libcpmt:wlocale.obj
 0003:000018e0       ?id@?$numpunct@G@std@@2V0locale@2@A 1005c8e0     libcpmt:wlocale.obj
 0003:000018e4       ?id@?$collate@G@std@@2V0locale@2@A 1005c8e4     libcpmt:wlocale.obj
 0003:000018e8       ?id@?$messages@G@std@@2V0locale@2@A 1005c8e8     libcpmt:wlocale.obj
 0003:000018ec       ?id@?$money_get@GV?$istreambuf_iterator@GU?$char_traits@G@std@@@std@@@std@@2V0locale@2@A 1005c8ec     libcpmt:wlocale.obj
 0003:000018f0       ?id@?$money_put@GV?$ostreambuf_iterator@GU?$char_traits@G@std@@@std@@@std@@2V0locale@2@A 1005c8f0     libcpmt:wlocale.obj
 0003:000018f4       ?id@?$moneypunct@G$0A@@std@@2V0locale@2@A 1005c8f4     libcpmt:wlocale.obj
 0003:000018f8       ?id@?$moneypunct@G$00@std@@2V0locale@2@A 1005c8f8     libcpmt:wlocale.obj
 0003:000018fc       ?id@?$time_get@GV?$istreambuf_iterator@GU?$char_traits@G@std@@@std@@@std@@2V0locale@2@A 1005c8fc     libcpmt:wlocale.obj
 0003:00001900       ?id@?$time_put@GV?$ostreambuf_iterator@GU?$char_traits@G@std@@@std@@@std@@2V0locale@2@A 1005c900     libcpmt:wlocale.obj
 0003:00001904       ?id@?$collate@D@std@@2V0locale@2@A 1005c904     libcpmt:xlocale.obj
 0003:00001908       ?id@?$messages@D@std@@2V0locale@2@A 1005c908     libcpmt:xlocale.obj
 0003:0000190c       ?id@?$money_get@DV?$istreambuf_iterator@DU?$char_traits@D@std@@@std@@@std@@2V0locale@2@A 1005c90c     libcpmt:xlocale.obj
 0003:00001910       ?id@?$money_put@DV?$ostreambuf_iterator@DU?$char_traits@D@std@@@std@@@std@@2V0locale@2@A 1005c910     libcpmt:xlocale.obj
 0003:00001914       ?id@?$moneypunct@D$0A@@std@@2V0locale@2@A 1005c914     libcpmt:xlocale.obj
 0003:00001918       ?id@?$moneypunct@D$00@std@@2V0locale@2@A 1005c918     libcpmt:xlocale.obj
 0003:0000191c       ?id@?$time_get@DV?$istreambuf_iterator@DU?$char_traits@D@std@@@std@@@std@@2V0locale@2@A 1005c91c     libcpmt:xlocale.obj
 0003:00001920       ?id@?$time_put@DV?$ostreambuf_iterator@DU?$char_traits@D@std@@@std@@@std@@2V0locale@2@A 1005c920     libcpmt:xlocale.obj
 0003:00001934       ___scrt_current_native_startup_state 1005c934     LIBCMT:utility.obj
 0003:00001938       ___scrt_native_startup_lock 1005c938     LIBCMT:utility.obj
 0003:0000195c       ___avx10_version           1005c95c     LIBCMT:cpu_disp.obj
 0003:00001960       ___isa_available           1005c960     LIBCMT:cpu_disp.obj
 0003:00001964       ___favor                   1005c964     LIBCMT:cpu_disp.obj
 0003:00001968       __tls_index                1005c968     LIBCMT:tlssup.obj
 0003:0000196c       ___scrt_debugger_hook_flag 1005c96c     LIBCMT:utility_desktop.obj
 0003:00001970       ?__type_info_root_node@@3U__type_info_node@@A 1005c970     LIBCMT:tncleanup.obj
 0003:00001978       ?_OptionsStorage@?1??__local_stdio_scanf_options@@9@4_KA 1005c978     LIBCMT:default_local_stdio_options.obj
 0003:00001c9c       ?__WinRTOutOfMemoryExceptionCallback@@3P6GPAXXZA 1005cc9c     libvcruntime:ehhelpers.obj
 0003:00001cc8       ___pPurecall               1005ccc8     libvcruntime:purevirt_data.obj
 0003:00001ce8       ?pArgList@UnDecorator@@0PAVReplicator@@A 1005cce8     libvcruntime:undname.obj
 0003:00001cec       ?pZNameList@UnDecorator@@0PAVReplicator@@A 1005ccec     libvcruntime:undname.obj
 0003:00001cf0       ?pTemplateArgList@UnDecorator@@0PAVReplicator@@A 1005ccf0     libvcruntime:undname.obj
 0003:00001cf4       ?gName@UnDecorator@@0PBDB  1005ccf4     libvcruntime:undname.obj
 0003:00001cf8       ?name@UnDecorator@@0PBDB   1005ccf8     libvcruntime:undname.obj
 0003:00001cfc       ?disableFlags@UnDecorator@@0KA 1005ccfc     libvcruntime:undname.obj
 0003:00001d00       ?fExplicitTemplateParams@UnDecorator@@0_NA 1005cd00     libvcruntime:undname.obj
 0003:00001d01       ?fGetTemplateArgumentList@UnDecorator@@0_NA 1005cd01     libvcruntime:undname.obj
 0003:00001d04       ?m_pGetParameter@UnDecorator@@0P6APADJ@ZA 1005cd04     libvcruntime:undname.obj
 0003:00001d08       ?m_CHPENameOffset@UnDecorator@@0KA 1005cd08     libvcruntime:undname.obj
 0003:00001d0c       ?m_recursionLevel@UnDecorator@@0KA 1005cd0c     libvcruntime:undname.obj
 0003:00001e9c       ___acrt_lconv_static_null  1005ce9c     libucrt:localeconv.obj
 0003:00001ea0       ___acrt_lconv_static_W_null 1005cea0     libucrt:localeconv.obj
 0003:00001ea4       __nstream                  1005cea4     libucrt:_file.obj
 0003:00001ea8       ___piob                    1005cea8     libucrt:_file.obj
 0003:00001eb4       ?c_exit_complete@?1???R<lambda_6e4b09c48022b2350581041d5f6b0c4c>@@QBE@XZ@4_NA 1005ceb4     libucrt:exit.obj
 0003:00001fc0       __environ_table            1005cfc0     libucrt:environment_initialization.obj
 0003:00001fc4       __wenviron_table           1005cfc4     libucrt:environment_initialization.obj
 0003:00001fc8       ___dcrt_initial_wide_environment 1005cfc8     libucrt:environment_initialization.obj
 0003:00001fcc       ___dcrt_initial_narrow_environment 1005cfcc     libucrt:environment_initialization.obj
 0003:00001fd0       ___acrt_atexit_table       1005cfd0     libucrt:onexit.obj
 0003:00001fdc       ___acrt_at_quick_exit_table 1005cfdc     libucrt:onexit.obj
 0003:00001ff4       ___acrt_stdout_buffer      1005cff4     libucrt:_sftbuf.obj
 0003:00001ff8       ___acrt_stderr_buffer      1005cff8     libucrt:_sftbuf.obj
 0003:00001ffc       ___acrt_locale_changed_data 1005cffc     libucrt:wsetlocale.obj
 0003:00002000       ___acrt_current_locale_data 1005d000     libucrt:nlsdata.obj
 0003:00002008       ___pioinfo                 1005d008     libucrt:ioinit.obj
 0003:00002208       __nhandle                  1005d208     libucrt:ioinit.obj
 0003:00002300       ?_timezone@@3V?$dual_state_global@J@__crt_state_management@@A 1005d300     libucrt:timeset.obj
 0003:00002304       ?_daylight@@3V?$dual_state_global@H@__crt_state_management@@A 1005d304     libucrt:timeset.obj
 0003:00002308       ?_dstbias@@3V?$dual_state_global@J@__crt_state_management@@A 1005d308     libucrt:timeset.obj
 0003:000023cc       __mbctype                  1005d3cc     libucrt:mbctype.obj
 0003:000023d0       __mbcasemap                1005d3d0     libucrt:mbctype.obj
 0003:000023d4       ___acrt_current_multibyte_data 1005d3d4     libucrt:mbctype.obj
 0003:000023e0       __pgmptr                   1005d3e0     libucrt:argv_data.obj
 0003:000023e4       ___argc                    1005d3e4     libucrt:argv_data.obj
 0003:000023e8       ___argv                    1005d3e8     libucrt:argv_data.obj
 0003:000023ec       ___wargv                   1005d3ec     libucrt:argv_data.obj
 0003:000023f0       __acmdln                   1005d3f0     libucrt:argv_data.obj
 0003:000023f4       __wcmdln                   1005d3f4     libucrt:argv_data.obj
 0003:000023f8       ___acrt_heap               1005d3f8     libucrt:heap_handle.obj
 0003:0000241c       ___fastflag                1005d41c     libucrt:fp_flags.obj
 0003:00002430       ?hEra@EraMemory@@3PAUHINSTANCE__@@A 1005d430     era.obj
 0003:00002434       ?_ClientMemAlloc@EraMemory@@3P6GPAXPCII@ZA 1005d434     era.obj
 0003:00002438       ?_ClientMemFree@EraMemory@@3P6GXPCIPBX@ZA 1005d438     era.obj
 0003:0000243c       ?allocatedMemorySize@EraMemory@@3PCIC 1005d43c     era.obj
 0003:00002440       ?RegisterMemoryConsumer@EraMemory@@3P6GPAIPBD@ZA 1005d440     era.obj
 0003:00002444       ?plugin@Era@@3PAXA         1005d444     era.obj
 0003:00002448       ?globalPatcher@@3PAVPatcher@@A 1005d448     dllmain.obj
 0003:0000244c       ?_PI@@3PAVPatcherInstance@@A 1005d44c     dllmain.obj
 0003:00002450       ?colosseumOfTheMagiCounter@H3MapItemColosseumOfTheMagi@colosseumOfTheMagi@@2HA 1005d450     ColosseumOfTheMagiExtender.obj
 0003:00002454       ?dreamTeacherCounter@H3MapItemDreamTeacher@dreamTeacher@@2HA 1005d454     DreamTeacherExtender.obj
 0003:00002458       ?gazeboCounter@H3MapItemGazebo@gazebo@@2HA 1005d458     GazeboExtender.obj
 0003:0000245c       ?hermitsShackCounter@H3MapItemHermitsShack@hermitsShack@@2HA 1005d45c     HermitsShackExtender.obj
 0003:00002460       ?currentHillFort@HillFortExtender@hillFort@@0PAUH3MapItem@h3@@A 1005d460     HillFortExtender.obj
 0003:00002464       ?currentShrineHint@ShrinesExternder@shrines@@0PBUH3MapItem@h3@@B 1005d464     ShrinesExternder.obj
 0003:00002468       ?bannedSkillsCopy@UniversityExtender@university@@2PACA 1005d468     UniversityExtender.obj
 0003:00002484       ?correctObjectPrototypeRef@fixes@editor@@3KA 1005d484     RMGObjectsEditor.obj
 0003:00002488       ?id@ObjectsPanel@RMG_SettingsDlg@rmgdlg@@2IA 1005d488     RMG_SettingsDlg.obj
 0003:0000248c       ?isDlgTextEditInput@RMG_SettingsDlg@rmgdlg@@0HA 1005d48c     RMG_SettingsDlg.obj
 0003:00002490       ?WoGObjectOptionsIds@WoGObjectsExtender@wog@@0V?$array@H$0PP@@std@@A 1005d490     WoGObjectsExtender.obj
 0003:0000288c       ?userRandSeed@RMG_SettingsDlg@rmgdlg@@0KA 1005d88c     RMG_SettingsDlg.obj
 0003:00002890       ?instance@RMG_SettingsDlg@rmgdlg@@0PAV12@A 1005d890     RMG_SettingsDlg.obj
 0003:00002894       ?dlg@Page@RMG_SettingsDlg@rmgdlg@@2PAV23@A 1005d894     RMG_SettingsDlg.obj
 0003:00002898       ?hEra@Era@@3PAUHINSTANCE__@@A 1005d898     era.obj
 0003:0000289c       ?WriteStrToIni@Era@@3P6GHPBD000@ZA 1005d89c     era.obj
 0003:000028a0       ?SetAssocVarIntValue@Era@@3P6GXPBDH@ZA 1005d8a0     era.obj
 0003:000028a4       ?ReadStrFromIni@Era@@3P6GHPBD00PAD@ZA 1005d8a4     era.obj
 0003:000028a8       ?GetAssocVarIntValue@Era@@3P6GHPBD@ZA 1005d8a8     era.obj
 0003:000028ac       ?FatalError@Era@@3P6GXPBD@ZA 1005d8ac     era.obj
 0003:000028b0       ?SaveIni@Era@@3P6GHPBD@ZA  1005d8b0     era.obj
 0003:000028b4       ?trStatic@Era@@3P6GPADPBD@ZA 1005d8b4     era.obj
 0003:000028b8       ?ReportPluginVersion@Era@@3P6GXPBD@ZA 1005d8b8     era.obj
 0003:000028bc       ?ClearIniCache@Era@@3P6GXPBD@ZA 1005d8bc     era.obj
 0003:000028c0       ?CreatePlugin@Era@@3P6GPAXPBD@ZA 1005d8c0     era.obj
 0003:000028c4       ?RegisterHandler@Era@@3P6GXP6GXPAUTEvent@1@@ZPBD@ZA 1005d8c4     era.obj
 0003:000028c8       ?additionalRmgObjects@ObjectsExtender@extender@@1V?$vector@URMGObjectInfo@@V?$allocator@URMGObjectInfo@@@std@@@std@@A 1005d8c8     ObjectsExtender.obj
 0003:000028d4       ?extenders@ObjectsExtender@extender@@0V?$vector@PAVObjectsExtender@extender@@V?$allocator@PAVObjectsExtender@extender@@@std@@@std@@A 1005d8d4     ObjectsExtender.obj
 0003:000028e0       ?defaultRMGObjectsInfoByType@RMGObjectInfo@@2PAV?$vector@URMGObjectInfo@@V?$allocator@URMGObjectInfo@@@std@@@std@@A 1005d8e0     RMGObjectsEditor.obj
 0003:000033c0       ?generatedInfo@RMGObjectsEditor@editor@@0UGeneratedInfo@@A 1005e3c0     RMGObjectsEditor.obj
 0003:000033e0       ?currentRMGObjectsInfoByType@RMGObjectInfo@@2PAV?$vector@URMGObjectInfo@@V?$allocator@URMGObjectInfo@@@std@@@std@@A 1005e3e0     RMGObjectsEditor.obj
 0003:00003ec0       ?m_commonObjects@RMG_SettingsDlg@rmgdlg@@0V?$vector@U?$pair@UH3ObjectAttributes@h3@@PAUH3LoadedPcx16@2@@std@@V?$allocator@U?$pair@UH3ObjectAttributes@h3@@PAUH3LoadedPcx16@2@@std@@@2@@std@@A 1005eec0     RMG_SettingsDlg.obj
 0003:00003ecc       ?m_banks@RMG_SettingsDlg@rmgdlg@@0V?$vector@U?$pair@UH3ObjectAttributes@h3@@PAUH3LoadedPcx16@2@@std@@V?$allocator@U?$pair@UH3ObjectAttributes@h3@@PAUH3LoadedPcx16@2@@std@@@2@@std@@A 1005eecc     RMG_SettingsDlg.obj
 0003:00003ed8       ?m_wogObjects@RMG_SettingsDlg@rmgdlg@@0V?$vector@U?$pair@UH3ObjectAttributes@h3@@PAUH3LoadedPcx16@2@@std@@V?$allocator@U?$pair@UH3ObjectAttributes@h3@@PAUH3LoadedPcx16@2@@std@@@2@@std@@A 1005eed8     RMG_SettingsDlg.obj
 0003:00003ee4       ?m_dwellings@RMG_SettingsDlg@rmgdlg@@0V?$vector@U?$pair@UH3ObjectAttributes@h3@@PAUH3LoadedPcx16@2@@std@@V?$allocator@U?$pair@UH3ObjectAttributes@h3@@PAUH3LoadedPcx16@2@@std@@@2@@std@@A 1005eee4     RMG_SettingsDlg.obj
 0003:00003ef0       ?m_objectAttributes@RMG_SettingsDlg@rmgdlg@@0V?$vector@PAV?$vector@U?$pair@UH3ObjectAttributes@h3@@PAUH3LoadedPcx16@2@@std@@V?$allocator@U?$pair@UH3ObjectAttributes@h3@@PAUH3LoadedPcx16@2@@std@@@2@@std@@V?$allocator@PAV?$vector@U?$pair@UH3ObjectAttributes@h3@@PAUH3LoadedPcx16@2@@std@@V?$allocator@U?$pair@UH3ObjectAttributes@h3@@PAUH3LoadedPcx16@2@@std@@@2@@std@@@2@@std@@B 1005eef0     RMG_SettingsDlg.obj
 0003:00003f00       ?additionalPropertiesMap@ObjectProperty@extender@@2V?$unordered_map@V?$basic_string@DU?$char_traits@D@std@@V?$allocator@D@2@@std@@V12@U?$hash@V?$basic_string@DU?$char_traits@D@std@@V?$allocator@D@2@@std@@@2@U?$equal_to@V?$basic_string@DU?$char_traits@D@std@@V?$allocator@D@2@@std@@@2@V?$allocator@U?$pair@$$CBV?$basic_string@DU?$char_traits@D@std@@V?$allocator@D@2@@std@@V12@@std@@@2@@std@@A 1005ef00     ObjectsExtender.obj
 0003:00003f20       ?soundManager@SoundManager@sound@@2U12@A 1005ef20     SoundManager.obj
 0003:00003f78       ?_OptionsStorage@?1??__local_stdio_printf_options@@9@4_KA 1005ef78     era.obj
 0003:00003f84       ?_Psave@?$_Facetptr@V?$ctype@D@std@@@std@@2PBVfacet@locale@2@B 1005ef84     ObjectsExtender.obj
 0003:00005b2c       ___dyn_tls_init_callback   10060b2c     <common>
 0003:00005b30       ___scrt_ucrt_dll_is_in_use 10060b30     <common>
 0003:00005b34       __pmatherr                 10060b34     <common>
 0003:00005b38       ___use_sse2_mathfcns       10060b38     <common>

 entry point at        0001:0001095f

 Static symbols

 0000:fff99000       .debug$S                   10000000     RMG_CustomizeObjectProperties.exp
 0000:fff99000       .debug$S                   10000000     kernel32:KERNEL32.dll
 0000:fff99000       .debug$S                   10000000     kernel32:KERNEL32.dll
 0000:fff99000       .debug$S                   10000000     kernel32:KERNEL32.dll
 0000:fff99000       .debug$S                   10000000     kernel32:KERNEL32.dll
 0000:fff99000       .debug$S                   10000000     kernel32:KERNEL32.dll
 0000:fff99000       .debug$S                   10000000     kernel32:KERNEL32.dll
 0000:fff99000       .debug$S                   10000000     kernel32:KERNEL32.dll
 0000:fff99000       .debug$S                   10000000     kernel32:KERNEL32.dll
 0000:fff99000       .debug$S                   10000000     kernel32:KERNEL32.dll
 0000:fff99000       .debug$S                   10000000     kernel32:KERNEL32.dll
 0000:fff99000       .debug$S                   10000000     kernel32:KERNEL32.dll
 0000:fff99000       .debug$S                   10000000     kernel32:KERNEL32.dll
 0000:fff99000       .debug$S                   10000000     kernel32:KERNEL32.dll
 0000:fff99000       .debug$S                   10000000     kernel32:KERNEL32.dll
 0000:fff99000       .debug$S                   10000000     kernel32:KERNEL32.dll
 0000:fff99000       .debug$S                   10000000     kernel32:KERNEL32.dll
 0000:fff99000       .debug$S                   10000000     kernel32:KERNEL32.dll
 0000:fff99000       .debug$S                   10000000     kernel32:KERNEL32.dll
 0000:fff99000       .debug$S                   10000000     kernel32:KERNEL32.dll
 0000:fff99000       .debug$S                   10000000     kernel32:KERNEL32.dll
 0000:fff99000       .debug$S                   10000000     kernel32:KERNEL32.dll
 0000:fff99000       .debug$S                   10000000     kernel32:KERNEL32.dll
 0000:fff99000       .debug$S                   10000000     kernel32:KERNEL32.dll
 0000:fff99000       .debug$S                   10000000     kernel32:KERNEL32.dll
 0000:fff99000       .debug$S                   10000000     kernel32:KERNEL32.dll
 0000:fff99000       .debug$S                   10000000     kernel32:KERNEL32.dll
 0000:fff99000       .debug$S                   10000000     kernel32:KERNEL32.dll
 0000:fff99000       .debug$S                   10000000     kernel32:KERNEL32.dll
 0000:fff99000       .debug$S                   10000000     kernel32:KERNEL32.dll
 0000:fff99000       .debug$S                   10000000     kernel32:KERNEL32.dll
 0000:fff99000       .debug$S                   10000000     kernel32:KERNEL32.dll
 0000:fff99000       .debug$S                   10000000     kernel32:KERNEL32.dll
 0000:fff99000       .debug$S                   10000000     kernel32:KERNEL32.dll
 0000:fff99000       .debug$S                   10000000     kernel32:KERNEL32.dll
 0000:fff99000       .debug$S                   10000000     kernel32:KERNEL32.dll
 0000:fff99000       .debug$S                   10000000     kernel32:KERNEL32.dll
 0000:fff99000       .debug$S                   10000000     kernel32:KERNEL32.dll
 0000:fff99000       .debug$S                   10000000     kernel32:KERNEL32.dll
 0000:fff99000       .debug$S                   10000000     kernel32:KERNEL32.dll
 0000:fff99000       .debug$S                   10000000     kernel32:KERNEL32.dll
 0000:fff99000       .debug$S                   10000000     kernel32:KERNEL32.dll
 0000:fff99000       .debug$S                   10000000     kernel32:KERNEL32.dll
 0000:fff99000       .debug$S                   10000000     kernel32:KERNEL32.dll
 0000:fff99000       .debug$S                   10000000     kernel32:KERNEL32.dll
 0000:fff99000       .debug$S                   10000000     kernel32:KERNEL32.dll
 0000:fff99000       .debug$S                   10000000     kernel32:KERNEL32.dll
 0000:fff99000       .debug$S                   10000000     kernel32:KERNEL32.dll
 0000:fff99000       .debug$S                   10000000     kernel32:KERNEL32.dll
 0000:fff99000       .debug$S                   10000000     kernel32:KERNEL32.dll
 0000:fff99000       .debug$S                   10000000     kernel32:KERNEL32.dll
 0000:fff99000       .debug$S                   10000000     kernel32:KERNEL32.dll
 0000:fff99000       .debug$S                   10000000     kernel32:KERNEL32.dll
 0000:fff99000       .debug$S                   10000000     kernel32:KERNEL32.dll
 0000:fff99000       .debug$S                   10000000     kernel32:KERNEL32.dll
 0000:fff99000       .debug$S                   10000000     kernel32:KERNEL32.dll
 0000:fff99000       .debug$S                   10000000     kernel32:KERNEL32.dll
 0000:fff99000       .debug$S                   10000000     kernel32:KERNEL32.dll
 0000:fff99000       .debug$S                   10000000     kernel32:KERNEL32.dll
 0000:fff99000       .debug$S                   10000000     kernel32:KERNEL32.dll
 0000:fff99000       .debug$S                   10000000     kernel32:KERNEL32.dll
 0000:fff99000       .debug$S                   10000000     kernel32:KERNEL32.dll
 0000:fff99000       .debug$S                   10000000     kernel32:KERNEL32.dll
 0000:fff99000       .debug$S                   10000000     kernel32:KERNEL32.dll
 0000:fff99000       .debug$S                   10000000     kernel32:KERNEL32.dll
 0000:fff99000       .debug$S                   10000000     kernel32:KERNEL32.dll
 0000:fff99000       .debug$S                   10000000     kernel32:KERNEL32.dll
 0000:fff99000       .debug$S                   10000000     kernel32:KERNEL32.dll
 0000:fff99000       .debug$S                   10000000     kernel32:KERNEL32.dll
 0000:fff99000       .debug$S                   10000000     kernel32:KERNEL32.dll
 0000:fff99000       .debug$S                   10000000     kernel32:KERNEL32.dll
 0000:fff99000       .debug$S                   10000000     kernel32:KERNEL32.dll
 0000:fff99000       .debug$S                   10000000     kernel32:KERNEL32.dll
 0000:fff99000       .debug$S                   10000000     kernel32:KERNEL32.dll
 0000:fff99000       .debug$S                   10000000     kernel32:KERNEL32.dll
 0000:fff99000       .debug$S                   10000000     kernel32:KERNEL32.dll
 0000:fff99000       .debug$S                   10000000     kernel32:KERNEL32.dll
 0000:fff99000       .debug$S                   10000000     kernel32:KERNEL32.dll
 0000:fff99000       .debug$S                   10000000     kernel32:KERNEL32.dll
 0000:fff99000       .debug$S                   10000000     kernel32:KERNEL32.dll
 0000:fff99000       .debug$S                   10000000     kernel32:KERNEL32.dll
 0000:fff99000       .debug$S                   10000000     kernel32:KERNEL32.dll
 0000:fff99000       .debug$S                   10000000     kernel32:KERNEL32.dll
 0000:fff99000       .debug$S                   10000000     kernel32:KERNEL32.dll
 0000:fff99000       .debug$S                   10000000     kernel32:KERNEL32.dll
 0000:fff99000       .debug$S                   10000000     kernel32:KERNEL32.dll
 0000:fff99000       .debug$S                   10000000     kernel32:KERNEL32.dll
 0000:fff99000       .debug$S                   10000000     kernel32:KERNEL32.dll
 0000:fff99000       .debug$S                   10000000     kernel32:KERNEL32.dll
 0000:fff99000       .debug$S                   10000000     kernel32:KERNEL32.dll
 0000:fff99000       .debug$S                   10000000     kernel32:KERNEL32.dll
 0000:fff99000       .debug$S                   10000000     kernel32:KERNEL32.dll
 0000:fff99000       .debug$S                   10000000     kernel32:KERNEL32.dll
 0000:fff99000       .debug$S                   10000000     kernel32:KERNEL32.dll
 0000:fff99000       .debug$S                   10000000     kernel32:KERNEL32.dll
 0000:fff99000       .debug$S                   10000000     kernel32:KERNEL32.dll
 0000:fff99000       .debug$S                   10000000     kernel32:KERNEL32.dll
 0000:fff99000       .debug$S                   10000000     kernel32:KERNEL32.dll
 0000:fff99000       .debug$S                   10000000     kernel32:KERNEL32.dll
 0000:fff99000       .debug$S                   10000000     kernel32:KERNEL32.dll
 0000:fff99000       .debug$S                   10000000     kernel32:KERNEL32.dll
 0000:fff99000       .debug$S                   10000000     kernel32:KERNEL32.dll
 0000:fff99000       .debug$S                   10000000     kernel32:KERNEL32.dll
 0000:fff99000       .debug$S                   10000000     kernel32:KERNEL32.dll
 0000:fff99000       .debug$S                   10000000     kernel32:KERNEL32.dll
 0000:fff99000       .debug$S                   10000000     kernel32:KERNEL32.dll
 0000:fff99000       .debug$S                   10000000     kernel32:KERNEL32.dll
 0000:fff99000       .debug$S                   10000000     kernel32:KERNEL32.dll
 0000:fff99000       .debug$S                   10000000     kernel32:KERNEL32.dll
 0000:fff99000       .debug$S                   10000000     kernel32:KERNEL32.dll
 0000:fff99000       .debug$S                   10000000     kernel32:KERNEL32.dll
 0000:fff99000       .debug$S                   10000000     kernel32:KERNEL32.dll
 0000:fff99000       .debug$S                   10000000     kernel32:KERNEL32.dll
 0000:fff99000       .debug$S                   10000000     kernel32:KERNEL32.dll
 0000:fff99000       .debug$S                   10000000     kernel32:KERNEL32.dll
 0000:fff99000       .debug$S                   10000000     kernel32:KERNEL32.dll
 0000:fff99000       .debug$S                   10000000     kernel32:KERNEL32.dll
 0000:fff99000       .debug$S                   10000000     kernel32:KERNEL32.dll
 0000:fff99000       .debug$S                   10000000     kernel32:KERNEL32.dll
 0000:fff99000       .debug$S                   10000000     kernel32:KERNEL32.dll
 0000:fff99000       .debug$S                   10000000     kernel32:KERNEL32.dll
 0000:fff99000       .debug$S                   10000000     kernel32:KERNEL32.dll
 0000:fff99000       .debug$S                   10000000     kernel32:KERNEL32.dll
 0000:fff99000       .debug$S                   10000000     kernel32:KERNEL32.dll
 0000:fff99000       .debug$S                   10000000     kernel32:KERNEL32.dll
 0000:fff99000       .debug$S                   10000000     kernel32:KERNEL32.dll
 0000:fff99000       .debug$S                   10000000     kernel32:KERNEL32.dll
 0000:fff99000       .debug$S                   10000000     kernel32:KERNEL32.dll
 0000:fff99000       .debug$S                   10000000     kernel32:KERNEL32.dll
 0001:00000000       ??__EhEra@Era@@YAXXZ       10001000 f   era.obj
 0001:00000020       ??__EAllocErmFunc@Era@@YAXXZ 10001020 f   era.obj
 0001:00000040       ??__EClearAllIniCache@Era@@YAXXZ 10001040 f   era.obj
 0001:00000060       ??__EClearIniCache@Era@@YAXXZ 10001060 f   era.obj
 0001:00000080       ??__ECreatePlugin@Era@@YAXXZ 10001080 f   era.obj
 0001:000000a0       ??__EDecorateInt@Era@@YAXXZ 100010a0 f   era.obj
 0001:000000c0       ??__EEmptyIniCache@Era@@YAXXZ 100010c0 f   era.obj
 0001:000000e0       ??__EExecErmCmd@Era@@YAXXZ 100010e0 f   era.obj
 0001:00000100       ??__EExecPersistedErmCmd@Era@@YAXXZ 10001100 f   era.obj
 0001:00000120       ??__EExtractErm@Era@@YAXXZ 10001120 f   era.obj
 0001:00000140       ??__EFastQuitToGameMenu@Era@@YAXXZ 10001140 f   era.obj
 0001:00000160       ??__EFatalError@Era@@YAXXZ 10001160 f   era.obj
 0001:00000180       ??__EFindNextObject@Era@@YAXXZ 10001180 f   era.obj
 0001:000001a0       ??__EFireErmEvent@Era@@YAXXZ 100011a0 f   era.obj
 0001:000001c0       ??__EFireEvent@Era@@YAXXZ  100011c0 f   era.obj
 0001:000001e0       ??__EFormatQuantity@Era@@YAXXZ 100011e0 f   era.obj
 0001:00000200       ??__EFreeAppliedPatch@Era@@YAXXZ 10001200 f   era.obj
 0001:00000220       ??__EGenerateDebugInfo@Era@@YAXXZ 10001220 f   era.obj
 0001:00000240       ??__EGetAppliedPatchSize@Era@@YAXXZ 10001240 f   era.obj
 0001:00000260       ??__EGetArgXVars@Era@@YAXXZ 10001260 f   era.obj
 0001:00000280       ??__EGetAssocVarIntValue@Era@@YAXXZ 10001280 f   era.obj
 0001:000002a0       ??__EGetAssocVarStrValue@Era@@YAXXZ 100012a0 f   era.obj
 0001:000002c0       ??__EGetButtonID@Era@@YAXXZ 100012c0 f   era.obj
 0001:000002e0       ??__EGetCampaignFileName@Era@@YAXXZ 100012e0 f   era.obj
 0001:00000300       ??__EGetCampaignMapInd@Era@@YAXXZ 10001300 f   era.obj
 0001:00000320       ??__EGetEraRegistryIntValue@Era@@YAXXZ 10001320 f   era.obj
 0001:00000340       ??__EGetEraRegistryStrValue@Era@@YAXXZ 10001340 f   era.obj
 0001:00000360       ??__EGetGameState@Era@@YAXXZ 10001360 f   era.obj
 0001:00000380       ??__EGetMapFileName@Era@@YAXXZ 10001380 f   era.obj
 0001:000003a0       ??__EGetProcessGuid@Era@@YAXXZ 100013a0 f   era.obj
 0001:000003c0       ??__EGetRealAddr@Era@@YAXXZ 100013c0 f   era.obj
 0001:000003e0       ??__EGetRetXVars@Era@@YAXXZ 100013e0 f   era.obj
 0001:00000400       ??__EGetTriggerReadableName@Era@@YAXXZ 10001400 f   era.obj
 0001:00000420       ??__EGetVersionNum@Era@@YAXXZ 10001420 f   era.obj
 0001:00000440       ??__EGlobalRedirectFile@Era@@YAXXZ 10001440 f   era.obj
 0001:00000460       ??__EHash32@Era@@YAXXZ     10001460 f   era.obj
 0001:00000480       ??__EIsCampaign@Era@@YAXXZ 10001480 f   era.obj
 0001:000004a0       ??__EIsCommanderId@Era@@YAXXZ 100014a0 f   era.obj
 0001:000004c0       ??__EIsPatchOverwritten@Era@@YAXXZ 100014c0 f   era.obj
 0001:000004e0       ??__ELoadImageAsPcx16@Era@@YAXXZ 100014e0 f   era.obj
 0001:00000500       ??__ELogMemoryState@Era@@YAXXZ 10001500 f   era.obj
 0001:00000520       ??__EMemFree@Era@@YAXXZ    10001520 f   era.obj
 0001:00000540       ??__EMergeIniWithDefault@Era@@YAXXZ 10001540 f   era.obj
 0001:00000560       ??__ENameColor@Era@@YAXXZ  10001560 f   era.obj
 0001:00000580       ??__ENameTrigger@Era@@YAXXZ 10001580 f   era.obj
 0001:000005a0       ??__ENotifyError@Era@@YAXXZ 100015a0 f   era.obj
 0001:000005c0       ??__EPatchExists@Era@@YAXXZ 100015c0 f   era.obj
 0001:000005e0       ??__EPcxPngExists@Era@@YAXXZ 100015e0 f   era.obj
 0001:00000600       ??__EPersistErmCmd@Era@@YAXXZ 10001600 f   era.obj
 0001:00000620       ??__EPluginExists@Era@@YAXXZ 10001620 f   era.obj
 0001:00000640       ??__ERandomRangeWithFreeParam@Era@@YAXXZ 10001640 f   era.obj
 0001:00000660       ??__EReadSavegameSection@Era@@YAXXZ 10001660 f   era.obj
 0001:00000680       ??__EReadStrFromIni@Era@@YAXXZ 10001680 f   era.obj
 0001:000006a0       ??__ERedirectFile@Era@@YAXXZ 100016a0 f   era.obj
 0001:000006c0       ??__ERedirectMemoryBlock@Era@@YAXXZ 100016c0 f   era.obj
 0001:000006e0       ??__ERegisterHandler@Era@@YAXXZ 100016e0 f   era.obj
 0001:00000700       ??__ERegisterMemoryConsumer@Era@@YAXXZ 10001700 f   era.obj
 0001:00000720       ??__EReloadErm@Era@@YAXXZ  10001720 f   era.obj
 0001:00000740       ??__EReloadLanguageData@Era@@YAXXZ 10001740 f   era.obj
 0001:00000760       ??__EReportPluginVersion@Era@@YAXXZ 10001760 f   era.obj
 0001:00000780       ??__ERollbackAppliedPatch@Era@@YAXXZ 10001780 f   era.obj
 0001:000007a0       ??__ESaveIni@Era@@YAXXZ    100017a0 f   era.obj
 0001:000007c0       ??__ESetAssocVarIntValue@Era@@YAXXZ 100017c0 f   era.obj
 0001:000007e0       ??__ESetAssocVarStrValue@Era@@YAXXZ 100017e0 f   era.obj
 0001:00000800       ??__ESetEraRegistryIntValue@Era@@YAXXZ 10001800 f   era.obj
 0001:00000820       ??__ESetEraRegistryStrValue@Era@@YAXXZ 10001820 f   era.obj
 0001:00000840       ??__ESetIsCommanderIdFunc@Era@@YAXXZ 10001840 f   era.obj
 0001:00000860       ??__ESetIsElixirOfLifeStackFunc@Era@@YAXXZ 10001860 f   era.obj
 0001:00000880       ??__ESetLanguage@Era@@YAXXZ 10001880 f   era.obj
 0001:000008a0       ??__ESetMultiPurposeDlgHandler@Era@@YAXXZ 100018a0 f   era.obj
 0001:000008c0       ??__ESetRegenerationAbility@Era@@YAXXZ 100018c0 f   era.obj
 0001:000008e0       ??__ESetStdRegenerationEffect@Era@@YAXXZ 100018e0 f   era.obj
 0001:00000900       ??__EShowErmError@Era@@YAXXZ 10001900 f   era.obj
 0001:00000920       ??__EShowMessage@Era@@YAXXZ 10001920 f   era.obj
 0001:00000940       ??__EShowMultiPurposeDlg@Era@@YAXXZ 10001940 f   era.obj
 0001:00000960       ??__ESplitMix32@Era@@YAXXZ 10001960 f   era.obj
 0001:00000980       ??__EToStaticStr@Era@@YAXXZ 10001980 f   era.obj
 0001:000009a0       ??__EtrStatic@Era@@YAXXZ   100019a0 f   era.obj
 0001:000009c0       ??__EtrTemp@Era@@YAXXZ     100019c0 f   era.obj
 0001:000009e0       ??__EWriteAtCode@Era@@YAXXZ 100019e0 f   era.obj
 0001:00000a00       ??__EWriteLog@Era@@YAXXZ   10001a00 f   era.obj
 0001:00000a20       ??__EWriteSavegameSection@Era@@YAXXZ 10001a20 f   era.obj
 0001:00000a40       ??__EWriteStrToIni@Era@@YAXXZ 10001a40 f   era.obj
 0001:00000a60       ??__EGetEraVersion@Era@@YAXXZ 10001a60 f   era.obj
 0001:00000a80       ??__E_Hook@Era@@YAXXZ      10001a80 f   era.obj
 0001:00000aa0       ??__E_Splice@Era@@YAXXZ    10001aa0 f   era.obj
 0001:00000ac0       ??__E_tr@Era@@YAXXZ        10001ac0 f   era.obj
 0001:00000ae0       ??__E?currentCreatureBank@CreatureBanksExtender@cbanks@@0UCurrent@12@A@@YAXXZ 10001ae0 f   CreatureBanksExtender.obj
 0001:00000b30       ??__E?extenders@ObjectsExtender@extender@@0V?$vector@PAVObjectsExtender@extender@@V?$allocator@PAVObjectsExtender@extender@@@std@@@std@@A@@YAXXZ 10001b30 f   ObjectsExtender.obj
 0001:00000b40       ??__E?additionalRmgObjects@ObjectsExtender@extender@@1V?$vector@URMGObjectInfo@@V?$allocator@URMGObjectInfo@@@std@@@std@@A@@YAXXZ 10001b40 f   ObjectsExtender.obj
 0001:00000b50       ??__E?additionalPropertiesMap@ObjectProperty@extender@@2V?$unordered_map@V?$basic_string@DU?$char_traits@D@std@@V?$allocator@D@2@@std@@V12@U?$hash@V?$basic_string@DU?$char_traits@D@std@@V?$allocator@D@2@@std@@@2@U?$equal_to@V?$basic_string@DU?$char_traits@D@std@@V?$allocator@D@2@@std@@@2@V?$allocator@U?$pair@$$CBV?$basic_string@DU?$char_traits@D@std@@V?$allocator@D@2@@std@@V12@@std@@@2@@std@@A@@YAXXZ 10001b50 f   ObjectsExtender.obj
 0001:00000c70       ??__E?currentRMGObjectsInfoByType@RMGObjectInfo@@2PAV?$vector@URMGObjectInfo@@V?$allocator@URMGObjectInfo@@@std@@@std@@A@@YAXXZ 10001c70 f   RMGObjectsEditor.obj
 0001:00000ca0       ??__E?defaultRMGObjectsInfoByType@RMGObjectInfo@@2PAV?$vector@URMGObjectInfo@@V?$allocator@URMGObjectInfo@@@std@@@std@@A@@YAXXZ 10001ca0 f   RMGObjectsEditor.obj
 0001:00000cd0       ??__E?m_banks@RMG_SettingsDlg@rmgdlg@@0V?$vector@U?$pair@UH3ObjectAttributes@h3@@PAUH3LoadedPcx16@2@@std@@V?$allocator@U?$pair@UH3ObjectAttributes@h3@@PAUH3LoadedPcx16@2@@std@@@2@@std@@A@@YAXXZ 10001cd0 f   RMG_SettingsDlg.obj
 0001:00000ce0       ??__E?m_commonObjects@RMG_SettingsDlg@rmgdlg@@0V?$vector@U?$pair@UH3ObjectAttributes@h3@@PAUH3LoadedPcx16@2@@std@@V?$allocator@U?$pair@UH3ObjectAttributes@h3@@PAUH3LoadedPcx16@2@@std@@@2@@std@@A@@YAXXZ 10001ce0 f   RMG_SettingsDlg.obj
 0001:00000cf0       ??__E?m_dwellings@RMG_SettingsDlg@rmgdlg@@0V?$vector@U?$pair@UH3ObjectAttributes@h3@@PAUH3LoadedPcx16@2@@std@@V?$allocator@U?$pair@UH3ObjectAttributes@h3@@PAUH3LoadedPcx16@2@@std@@@2@@std@@A@@YAXXZ 10001cf0 f   RMG_SettingsDlg.obj
 0001:00000d00       ??__E?m_wogObjects@RMG_SettingsDlg@rmgdlg@@0V?$vector@U?$pair@UH3ObjectAttributes@h3@@PAUH3LoadedPcx16@2@@std@@V?$allocator@U?$pair@UH3ObjectAttributes@h3@@PAUH3LoadedPcx16@2@@std@@@2@@std@@A@@YAXXZ 10001d00 f   RMG_SettingsDlg.obj
 0001:00000d10       ??__E?m_objectAttributes@RMG_SettingsDlg@rmgdlg@@0V?$vector@PAV?$vector@U?$pair@UH3ObjectAttributes@h3@@PAUH3LoadedPcx16@2@@std@@V?$allocator@U?$pair@UH3ObjectAttributes@h3@@PAUH3LoadedPcx16@2@@std@@@2@@std@@V?$allocator@PAV?$vector@U?$pair@UH3ObjectAttributes@h3@@PAUH3LoadedPcx16@2@@std@@V?$allocator@U?$pair@UH3ObjectAttributes@h3@@PAUH3LoadedPcx16@2@@std@@@2@@std@@@2@@std@@B@@YAXXZ 10001d10 f   RMG_SettingsDlg.obj
 0001:00000db0       ??__E?soundManager@SoundManager@sound@@2U12@A@@YAXXZ 10001db0 f   SoundManager.obj
 0001:00000ecf       ??__Einitlocks@std@@YAXXZ  10001ecf f   libcpmt:xlock.obj
 0001:00000ee5       ??__E_Fac_tidy_reg@std@@YAXXZ 10001ee5 f   libcpmt:locale0.obj
 0001:00000ef1       ??__Eclassic_locale@std@@YAXXZ 10001ef1 f   libcpmt:locale0.obj
 0001:00000efd       ??__Einit_atexit@@YAXXZ    10001efd f   libcpmt:iosptrs.obj
 0001:00000f09       ??__Einitlocks@std@@YAXXZ  10001f09 f   libcpmt:iosptrs.obj
 0001:00002560       __catch$??$_Reallocate@$00@?$vector@UH3CreatureBankSetup@h3@@V?$allocator@UH3CreatureBankSetup@h3@@@std@@@std@@AAEXAAI@Z$0 10003560 f i CreatureBanksExtender.obj
 0001:00002560       __catch$??$_Reallocate@$0A@@?$vector@UH3CreatureBankSetup@h3@@V?$allocator@UH3CreatureBankSetup@h3@@@std@@@std@@AAEXAAI@Z$0 10003560 f i CreatureBanksExtender.obj
 0001:00002d16       __catch$??$_Emplace_reallocate@AAUH3CreatureBankSetup@h3@@@?$vector@UH3CreatureBankSetup@h3@@V?$allocator@UH3CreatureBankSetup@h3@@@std@@@std@@AAEPAUH3CreatureBankSetup@h3@@QAU23@AAU23@@Z$0 10003d16 f i CreatureBanksExtender.obj
 0001:00003708       __catch$??$_Resize_reallocate@U_Value_init_tag@std@@@?$vector@UH3CreatureBankSetup@h3@@V?$allocator@UH3CreatureBankSetup@h3@@@std@@@std@@AAEXIABU_Value_init_tag@1@@Z$0 10004708 f i CreatureBanksExtender.obj
 0001:00006090       _no_op_initialize          10007090 f i libucrt:wsetlocale.obj
 0001:000070b3       __catch$??$?5DU?$char_traits@D@std@@V?$allocator@D@1@@std@@YAAAV?$basic_istream@DU?$char_traits@D@std@@@0@AAV10@AAV?$basic_string@DU?$char_traits@D@std@@V?$allocator@D@2@@0@@Z$0 100080b3 f i ObjectsExtender.obj
 0001:00007b98       __catch$?_Ipfx@?$basic_istream@DU?$char_traits@D@std@@@std@@QAE_N_N@Z$0 10008b98 f i ObjectsExtender.obj
 0001:00007c8d       __catch$?flush@?$basic_ostream@DU?$char_traits@D@std@@@std@@QAEAAV12@XZ$0 10008c8d f i ObjectsExtender.obj
 0001:00007df0       __catch$?_Osfx@?$basic_ostream@DU?$char_traits@D@std@@@std@@QAEXXZ$0 10008df0 f i ObjectsExtender.obj
 0001:00007f2d       __catch$??$getline@DU?$char_traits@D@std@@V?$allocator@D@2@@std@@YAAAV?$basic_istream@DU?$char_traits@D@std@@@0@$$QAV10@AAV?$basic_string@DU?$char_traits@D@std@@V?$allocator@D@2@@0@D@Z$0 10008f2d f i ObjectsExtender.obj
 0001:000080d4       __catch$??$_Emplace_reallocate@AAV?$basic_string@DU?$char_traits@D@std@@V?$allocator@D@2@@std@@@?$vector@V?$basic_string@DU?$char_traits@D@std@@V?$allocator@D@2@@std@@V?$allocator@V?$basic_string@DU?$char_traits@D@std@@V?$allocator@D@2@@std@@@2@@std@@AAEPAV?$basic_string@DU?$char_traits@D@std@@V?$allocator@D@2@@1@QAV21@AAV21@@Z$0 100090d4 f i ObjectsExtender.obj
 0001:0000a55c       $LN178                     1000b55c     RMG_SettingsDlg.obj
 0001:0000a570       $LN177                     1000b570     RMG_SettingsDlg.obj
 0001:0000b010       ??$_Sort_unchecked@PAVRMGObject@rmgdlg@@V<lambda_1>@?1??SortRmgObjects@sorting@2@YAXAAV?$vector@VRMGObject@rmgdlg@@V?$allocator@VRMGObject@rmgdlg@@@std@@@std@@W4eSorting@52@_N@Z@@std@@YAXPAVRMGObject@rmgdlg@@0HV<lambda_1>@?1??SortRmgObjects@sorting@2@YAXAAV?$vector@VRMGObject@rmgdlg@@V?$allocator@VRMGObject@rmgdlg@@@std@@@0@W4eSorting@52@_N@Z@@Z 1000c010 f   RMG_SettingsDlg.obj
 0001:0000b7c2       __catch$??$_Emplace_reallocate@AAU?$pair@UH3ObjectAttributes@h3@@PAUH3LoadedPcx16@2@@std@@@?$vector@U?$pair@UH3ObjectAttributes@h3@@PAUH3LoadedPcx16@2@@std@@V?$allocator@U?$pair@UH3ObjectAttributes@h3@@PAUH3LoadedPcx16@2@@std@@@2@@std@@AAEPAU?$pair@UH3ObjectAttributes@h3@@PAUH3LoadedPcx16@2@@1@QAU21@AAU21@@Z$0 1000c7c2 f i RMG_SettingsDlg.obj
 0001:0000b9f0       ??$_Insertion_sort_unchecked@PAVRMGObject@rmgdlg@@V<lambda_1>@?1??SortRmgObjects@sorting@2@YAXAAV?$vector@VRMGObject@rmgdlg@@V?$allocator@VRMGObject@rmgdlg@@@std@@@std@@W4eSorting@52@_N@Z@@std@@YAPAVRMGObject@rmgdlg@@QAV12@0V<lambda_1>@?1??SortRmgObjects@sorting@2@YAXAAV?$vector@VRMGObject@rmgdlg@@V?$allocator@VRMGObject@rmgdlg@@@std@@@0@W4eSorting@52@_N@Z@@Z 1000c9f0 f   RMG_SettingsDlg.obj
 0001:0000bf68       $LN415                     1000cf68     RMG_SettingsDlg.obj
 0001:0000bf84       $LN416                     1000cf84     RMG_SettingsDlg.obj
 0001:0000bfa0       ??$_Make_heap_unchecked@PAVRMGObject@rmgdlg@@V<lambda_1>@?1??SortRmgObjects@sorting@2@YAXAAV?$vector@VRMGObject@rmgdlg@@V?$allocator@VRMGObject@rmgdlg@@@std@@@std@@W4eSorting@52@_N@Z@@std@@YAXPAVRMGObject@rmgdlg@@0V<lambda_1>@?1??SortRmgObjects@sorting@2@YAXAAV?$vector@VRMGObject@rmgdlg@@V?$allocator@VRMGObject@rmgdlg@@@std@@@0@W4eSorting@52@_N@Z@@Z 1000cfa0 f   RMG_SettingsDlg.obj
 0001:0000c318       $LN215                     1000d318     RMG_SettingsDlg.obj
 0001:0000c340       ??$_Partition_by_median_guess_unchecked@PAVRMGObject@rmgdlg@@V<lambda_1>@?1??SortRmgObjects@sorting@2@YAXAAV?$vector@VRMGObject@rmgdlg@@V?$allocator@VRMGObject@rmgdlg@@@std@@@std@@W4eSorting@52@_N@Z@@std@@YA?AU?$pair@PAVRMGObject@rmgdlg@@PAV12@@0@PAVRMGObject@rmgdlg@@0V<lambda_1>@?1??SortRmgObjects@sorting@3@YAXAAV?$vector@VRMGObject@rmgdlg@@V?$allocator@VRMGObject@rmgdlg@@@std@@@0@W4eSorting@63@_N@Z@@Z 1000d340 f   RMG_SettingsDlg.obj
 0001:0000d74c       $LN1648                    1000e74c     RMG_SettingsDlg.obj
 0001:0000d768       $LN1649                    1000e768     RMG_SettingsDlg.obj
 0001:0000d784       $LN1650                    1000e784     RMG_SettingsDlg.obj
 0001:0000d7a0       $LN1651                    1000e7a0     RMG_SettingsDlg.obj
 0001:0000d7bc       $LN1652                    1000e7bc     RMG_SettingsDlg.obj
 0001:0000d7d8       $LN1653                    1000e7d8     RMG_SettingsDlg.obj
 0001:0000d7f4       $LN1654                    1000e7f4     RMG_SettingsDlg.obj
 0001:0000d810       $LN1655                    1000e810     RMG_SettingsDlg.obj
 0001:0000d880       ??$_Pop_heap_hole_by_index@PAVRMGObject@rmgdlg@@V12@V<lambda_1>@?1??SortRmgObjects@sorting@2@YAXAAV?$vector@VRMGObject@rmgdlg@@V?$allocator@VRMGObject@rmgdlg@@@std@@@std@@W4eSorting@52@_N@Z@@std@@YAXPAVRMGObject@rmgdlg@@HH$$QAV12@V<lambda_1>@?1??SortRmgObjects@sorting@2@YAXAAV?$vector@VRMGObject@rmgdlg@@V?$allocator@VRMGObject@rmgdlg@@@std@@@0@W4eSorting@52@_N@Z@@Z 1000e880 f   RMG_SettingsDlg.obj
 0001:0000db74       $LN206                     1000eb74     RMG_SettingsDlg.obj
 0001:0000db90       ??$_Push_heap_by_index@PAVRMGObject@rmgdlg@@V12@V<lambda_1>@?1??SortRmgObjects@sorting@2@YAXAAV?$vector@VRMGObject@rmgdlg@@V?$allocator@VRMGObject@rmgdlg@@@std@@@std@@W4eSorting@52@_N@Z@@std@@YAXPAVRMGObject@rmgdlg@@HH$$QAV12@V<lambda_1>@?1??SortRmgObjects@sorting@2@YAXAAV?$vector@VRMGObject@rmgdlg@@V?$allocator@VRMGObject@rmgdlg@@@std@@@0@W4eSorting@52@_N@Z@@Z 1000eb90 f   RMG_SettingsDlg.obj
 0001:0000de74       $LN205                     1000ee74     RMG_SettingsDlg.obj
 0001:0000de90       ??$_Med3_unchecked@PAVRMGObject@rmgdlg@@V<lambda_1>@?1??SortRmgObjects@sorting@2@YAXAAV?$vector@VRMGObject@rmgdlg@@V?$allocator@VRMGObject@rmgdlg@@@std@@@std@@W4eSorting@52@_N@Z@@std@@YAXPAVRMGObject@rmgdlg@@00V<lambda_1>@?1??SortRmgObjects@sorting@2@YAXAAV?$vector@VRMGObject@rmgdlg@@V?$allocator@VRMGObject@rmgdlg@@@std@@@0@W4eSorting@52@_N@Z@@Z 1000ee90 f   RMG_SettingsDlg.obj
 0001:0000f58f       _tidy_global               1001058f f   libcpmt:locale0.obj
 0001:0000fa40       ??$__std_find_trivial_impl@U_Find_traits_4@?A0x8417fefe@@I@?A0x8417fefe@@YGPBXPBX0I@Z 10010a40 f   libcpmt:vector_algorithms.obj
 0001:0000fe40       _mtx_do_lock               10010e40 f   libcpmt:mutex.obj
 0001:0000ffe5       ?initialize_pointers@@YAHXZ 10010fe5 f   libcpmt:winapisupp.obj
 0001:0001017f       ?find_pe_section@@YAPAU_IMAGE_SECTION_HEADER@@QAEI@Z 1001117f f   LIBCMT:utility.obj
 0001:00010621       ?dllmain_crt_dispatch@@YGHQAUHINSTANCE__@@KQAX@Z 10011621 f   LIBCMT:dll_dllmain.obj
 0001:00010674       ?dllmain_crt_process_attach@@YAHQAUHINSTANCE__@@QAX@Z 10011674 f   LIBCMT:dll_dllmain.obj
 0001:0001077b       ?dllmain_crt_process_detach@@YAH_N@Z 1001177b f   LIBCMT:dll_dllmain.obj
 0001:00010829       ?dllmain_dispatch@@YAHQAUHINSTANCE__@@KQAX@Z 10011829 f   LIBCMT:dll_dllmain.obj
 0001:00010934       ?dllmain_raw@@YGHQAUHINSTANCE__@@KQAX@Z 10011934 f   LIBCMT:dll_dllmain.obj
 0001:00010d80       $$000000                   10011d80     LIBCMT:alloca16.obj
 0001:00010d96       alloca_8                   10011d96     LIBCMT:alloca16.obj
 0001:00010db0       $$000000                   10011db0     LIBCMT:ulldiv.obj
 0001:00010dd2       L1                         10011dd2     LIBCMT:ulldiv.obj
 0001:00010de0       L3                         10011de0     LIBCMT:ulldiv.obj
 0001:00010e0e       L4                         10011e0e     LIBCMT:ulldiv.obj
 0001:00010e0f       L5                         10011e0f     LIBCMT:ulldiv.obj
 0001:00010e13       L2                         10011e13     LIBCMT:ulldiv.obj
 0001:00010e20       $$000000                   10011e20     LIBCMT:ullrem.obj
 0001:00010e41       L1                         10011e41     LIBCMT:ullrem.obj
 0001:00010e4f       L3                         10011e4f     LIBCMT:ullrem.obj
 0001:00010e7a       L4                         10011e7a     LIBCMT:ullrem.obj
 0001:00010e82       L5                         10011e82     LIBCMT:ullrem.obj
 0001:00010e91       L2                         10011e91     LIBCMT:ullrem.obj
 0001:00010ea0       $$000000                   10011ea0     LIBCMT:llmul.obj
 0001:00010eb9       hard                       10011eb9     LIBCMT:llmul.obj
 0001:00011010       $$000000                   10012010     LIBCMT:sehprolg4.obj
 0001:00011055       ___get_entropy             10012055 f   LIBCMT:gs_support.obj
 0001:00011390       $$000000                   10012390     LIBCMT:chkstk.obj
 0001:000113a4       cs10                       100123a4     LIBCMT:chkstk.obj
 0001:000113b2       cs20                       100123b2     LIBCMT:chkstk.obj
 0001:0001181b       ?_FilterSetCurrentException@@YAKPAU_EXCEPTION_POINTERS@@E@Z 1001281b f   libvcruntime:ehhelpers.obj
 0001:00011a40       $$000000                   10012a40     libvcruntime:memcpy.obj
 0001:00011a40       $$000000                   10012a40     libvcruntime:memmove.obj
 0001:00011a60       CopyUp                     10012a60     libvcruntime:memcpy.obj
 0001:00011a60       CopyUp                     10012a60     libvcruntime:memmove.obj
 0001:00011a84       CopyUpLargeMov             10012a84     libvcruntime:memcpy.obj
 0001:00011a84       CopyUpLargeMov             10012a84     libvcruntime:memmove.obj
 0001:00011a97       CopyUpSSE2Check            10012a97     libvcruntime:memcpy.obj
 0001:00011a97       CopyUpSSE2Check            10012a97     libvcruntime:memmove.obj
 0001:00011ab0       AtomChk                    10012ab0     libvcruntime:memcpy.obj
 0001:00011ab0       AtomChk                    10012ab0     libvcruntime:memmove.obj
 0001:00011ad6       PalignHead4                10012ad6     libvcruntime:memcpy.obj
 0001:00011ad6       PalignHead4                10012ad6     libvcruntime:memmove.obj
 0001:00011ae9       PalignHead8                10012ae9     libvcruntime:memcpy.obj
 0001:00011ae9       PalignHead8                10012ae9     libvcruntime:memmove.obj
 0001:00011b00       PalignLoop                 10012b00     libvcruntime:memcpy.obj
 0001:00011b00       PalignLoop                 10012b00     libvcruntime:memmove.obj
 0001:00011b12       MovPalign12                10012b12     libvcruntime:memcpy.obj
 0001:00011b12       MovPalign12                10012b12     libvcruntime:memmove.obj
 0001:00011b1c       PalignLoop12               10012b1c     libvcruntime:memcpy.obj
 0001:00011b1c       PalignLoop12               10012b1c     libvcruntime:memmove.obj
 0001:00011b6d       MovPalign8                 10012b6d     libvcruntime:memcpy.obj
 0001:00011b6d       MovPalign8                 10012b6d     libvcruntime:memmove.obj
 0001:00011b78       PalignLoop8                10012b78     libvcruntime:memcpy.obj
 0001:00011b78       PalignLoop8                10012b78     libvcruntime:memmove.obj
 0001:00011bc6       MovPalign4                 10012bc6     libvcruntime:memcpy.obj
 0001:00011bc6       MovPalign4                 10012bc6     libvcruntime:memmove.obj
 0001:00011bd0       PalignLoop4                10012bd0     libvcruntime:memcpy.obj
 0001:00011bd0       PalignLoop4                10012bd0     libvcruntime:memmove.obj
 0001:00011c1c       PalignTail                 10012c1c     libvcruntime:memcpy.obj
 0001:00011c1c       PalignTail                 10012c1c     libvcruntime:memmove.obj
 0001:00011c34       PalignTail4                10012c34     libvcruntime:memcpy.obj
 0001:00011c34       PalignTail4                10012c34     libvcruntime:memmove.obj
 0001:00011c47       PalignTail8                10012c47     libvcruntime:memcpy.obj
 0001:00011c47       PalignTail8                10012c47     libvcruntime:memmove.obj
 0001:00011c5e       PalignTailLE3              10012c5e     libvcruntime:memcpy.obj
 0001:00011c5e       PalignTailLE3              10012c5e     libvcruntime:memmove.obj
 0001:00011c67       Dword_align                10012c67     libvcruntime:memcpy.obj
 0001:00011c67       Dword_align                10012c67     libvcruntime:memmove.obj
 0001:00011c6f       Dword_up_align_loop        10012c6f     libvcruntime:memcpy.obj
 0001:00011c6f       Dword_up_align_loop        10012c6f     libvcruntime:memmove.obj
 0001:00011c82       Dword_align_Ok             10012c82     libvcruntime:memcpy.obj
 0001:00011c82       Dword_align_Ok             10012c82     libvcruntime:memmove.obj
 0001:00011c9c       ByteCopyUp                 10012c9c     libvcruntime:memcpy.obj
 0001:00011c9c       ByteCopyUp                 10012c9c     libvcruntime:memmove.obj
 0001:00011ca4       TrailingUpVec              10012ca4     libvcruntime:memcpy.obj
 0001:00011ca4       TrailingUpVec              10012ca4     libvcruntime:memmove.obj
 0001:00011cb4       TrailingUp0                10012cb4     libvcruntime:memcpy.obj
 0001:00011cb4       TrailingUp0                10012cb4     libvcruntime:memmove.obj
 0001:00011cbc       TrailingUp1                10012cbc     libvcruntime:memcpy.obj
 0001:00011cbc       TrailingUp1                10012cbc     libvcruntime:memmove.obj
 0001:00011cc8       TrailingUp2                10012cc8     libvcruntime:memcpy.obj
 0001:00011cc8       TrailingUp2                10012cc8     libvcruntime:memmove.obj
 0001:00011cdc       TrailingUp3                10012cdc     libvcruntime:memcpy.obj
 0001:00011cdc       TrailingUp3                10012cdc     libvcruntime:memmove.obj
 0001:00011cf4       CopyDown                   10012cf4     libvcruntime:memcpy.obj
 0001:00011cf4       CopyDown                   10012cf4     libvcruntime:memmove.obj
 0001:00011d19       CopyDownNotAligned         10012d19     libvcruntime:memcpy.obj
 0001:00011d19       CopyDownNotAligned         10012d19     libvcruntime:memmove.obj
 0001:00011d20       CopyDownAlignLoop          10012d20     libvcruntime:memcpy.obj
 0001:00011d20       CopyDownAlignLoop          10012d20     libvcruntime:memmove.obj
 0001:00011d2d       CopyDownAligned            10012d2d     libvcruntime:memcpy.obj
 0001:00011d2d       CopyDownAligned            10012d2d     libvcruntime:memmove.obj
 0001:00011d50       TrailingDownVec            10012d50     libvcruntime:memcpy.obj
 0001:00011d50       TrailingDownVec            10012d50     libvcruntime:memmove.obj
 0001:00011d60       TrailingDown0              10012d60     libvcruntime:memcpy.obj
 0001:00011d60       TrailingDown0              10012d60     libvcruntime:memmove.obj
 0001:00011d68       TrailingDown1              10012d68     libvcruntime:memcpy.obj
 0001:00011d68       TrailingDown1              10012d68     libvcruntime:memmove.obj
 0001:00011d78       TrailingDown2              10012d78     libvcruntime:memcpy.obj
 0001:00011d78       TrailingDown2              10012d78     libvcruntime:memmove.obj
 0001:00011d8c       TrailingDown3              10012d8c     libvcruntime:memcpy.obj
 0001:00011d8c       TrailingDown3              10012d8c     libvcruntime:memmove.obj
 0001:00011da5       XmmMovLargeAlignTest       10012da5     libvcruntime:memcpy.obj
 0001:00011da5       XmmMovLargeAlignTest       10012da5     libvcruntime:memmove.obj
 0001:00011dad       XmmMovAlignLoop            10012dad     libvcruntime:memcpy.obj
 0001:00011dad       XmmMovAlignLoop            10012dad     libvcruntime:memmove.obj
 0001:00011dbc       XmmMovLargeLoop            10012dbc     libvcruntime:memcpy.obj
 0001:00011dbc       XmmMovLargeLoop            10012dbc     libvcruntime:memmove.obj
 0001:00011e2c       XmmMovSmallTest            10012e2c     libvcruntime:memcpy.obj
 0001:00011e2c       XmmMovSmallTest            10012e2c     libvcruntime:memmove.obj
 0001:00011e31       XmmMovSmallLoop            10012e31     libvcruntime:memcpy.obj
 0001:00011e31       XmmMovSmallLoop            10012e31     libvcruntime:memmove.obj
 0001:00011e54       CopyDownSmall              10012e54     libvcruntime:memcpy.obj
 0001:00011e54       CopyDownSmall              10012e54     libvcruntime:memmove.obj
 0001:00011e5c       CopyDownDwordLoop          10012e5c     libvcruntime:memcpy.obj
 0001:00011e5c       CopyDownDwordLoop          10012e5c     libvcruntime:memmove.obj
 0001:00011e71       CopyDownByteTest           10012e71     libvcruntime:memcpy.obj
 0001:00011e71       CopyDownByteTest           10012e71     libvcruntime:memmove.obj
 0001:00011e75       CopyDownByteLoop           10012e75     libvcruntime:memcpy.obj
 0001:00011e75       CopyDownByteLoop           10012e75     libvcruntime:memmove.obj
 0001:00011e84       CopyDownReturn             10012e84     libvcruntime:memcpy.obj
 0001:00011e84       CopyDownReturn             10012e84     libvcruntime:memmove.obj
 0001:00011e90       XmmCopy                    10012e90     libvcruntime:memcpy.obj
 0001:00011e90       XmmCopy                    10012e90     libvcruntime:memmove.obj
 0001:00011e9d       XmmCopyAligned             10012e9d     libvcruntime:memcpy.obj
 0001:00011e9d       XmmCopyAligned             10012e9d     libvcruntime:memmove.obj
 0001:00011eb0       XmmCopyLargeLoop           10012eb0     libvcruntime:memcpy.obj
 0001:00011eb0       XmmCopyLargeLoop           10012eb0     libvcruntime:memmove.obj
 0001:00011f0d       XmmCopySmallTest           10012f0d     libvcruntime:memcpy.obj
 0001:00011f0d       XmmCopySmallTest           10012f0d     libvcruntime:memmove.obj
 0001:00011f20       XmmCopySmallLoop           10012f20     libvcruntime:memcpy.obj
 0001:00011f20       XmmCopySmallLoop           10012f20     libvcruntime:memmove.obj
 0001:00011f3b       CopyUpDwordMov             10012f3b     libvcruntime:memcpy.obj
 0001:00011f3b       CopyUpDwordMov             10012f3b     libvcruntime:memmove.obj
 0001:00011f40       CopyUpDwordTest            10012f40     libvcruntime:memcpy.obj
 0001:00011f40       CopyUpDwordTest            10012f40     libvcruntime:memmove.obj
 0001:00011f47       CopyUpDwordLoop            10012f47     libvcruntime:memcpy.obj
 0001:00011f47       CopyUpDwordLoop            10012f47     libvcruntime:memmove.obj
 0001:00011f56       CopyUpByteTest             10012f56     libvcruntime:memcpy.obj
 0001:00011f56       CopyUpByteTest             10012f56     libvcruntime:memmove.obj
 0001:00011f5d       CopyUpByteLoop             10012f5d     libvcruntime:memcpy.obj
 0001:00011f5d       CopyUpByteLoop             10012f5d     libvcruntime:memmove.obj
 0001:00011f70       CopyUpReturn               10012f70     libvcruntime:memcpy.obj
 0001:00011f70       CopyUpReturn               10012f70     libvcruntime:memmove.obj
 0001:00011f80       XmmCopyUnaligned           10012f80     libvcruntime:memcpy.obj
 0001:00011f80       XmmCopyUnaligned           10012f80     libvcruntime:memmove.obj
 0001:00011f93       XmmAlignByte               10012f93     libvcruntime:memcpy.obj
 0001:00011f93       XmmAlignByte               10012f93     libvcruntime:memmove.obj
 0001:00011f9c       XmmAlignDwordTest          10012f9c     libvcruntime:memcpy.obj
 0001:00011f9c       XmmAlignDwordTest          10012f9c     libvcruntime:memmove.obj
 0001:00011fa1       XmmAlignDwordLoop          10012fa1     libvcruntime:memcpy.obj
 0001:00011fa1       XmmAlignDwordLoop          10012fa1     libvcruntime:memmove.obj
 0001:00011fae       XmmAlignAdjustCnt          10012fae     libvcruntime:memcpy.obj
 0001:00011fae       XmmAlignAdjustCnt          10012fae     libvcruntime:memmove.obj
 0001:00011fe0       $$000000                   10012fe0     libvcruntime:memchr.obj
 0001:00011ffb       str_misaligned             10012ffb     libvcruntime:memchr.obj
 0001:00012011       main_loop_start            10013011     libvcruntime:memchr.obj
 0001:00012027       return_from_main           10013027     libvcruntime:memchr.obj
 0001:00012028       tail_less_then_4           10013028     libvcruntime:memchr.obj
 0001:0001202d       tail_loop                  1001302d     libvcruntime:memchr.obj
 0001:0001203b       retnull                    1001303b     libvcruntime:memchr.obj
 0001:0001203d       main_loop                  1001303d     libvcruntime:memchr.obj
 0001:00012042       main_loop_entry            10013042     libvcruntime:memchr.obj
 0001:0001205d       char_is_found              1001305d     libvcruntime:memchr.obj
 0001:00012075       byte_3                     10013075     libvcruntime:memchr.obj
 0001:00012076       found                      10013076     libvcruntime:memchr.obj
 0001:0001207b       byte_2                     1001307b     libvcruntime:memchr.obj
 0001:00012081       byte_1                     10013081     libvcruntime:memchr.obj
 0001:00012087       byte_0                     10013087     libvcruntime:memchr.obj
 0001:00012090       $$000000                   10013090     libvcruntime:memset.obj
 0001:000120d5       XMMMov                     100130d5     libvcruntime:memset.obj
 0001:00012110       LargeRangeBytes            10013110     libvcruntime:memset.obj
 0001:0001214d       XmmMovSmall                1001314d     libvcruntime:memset.obj
 0001:00012160       XmmSmallLoop               10013160     libvcruntime:memset.obj
 0001:00012165       MidRangeBytes              10013165     libvcruntime:memset.obj
 0001:00012181       XMMTrailingBytes           10013181     libvcruntime:memset.obj
 0001:00012195       SmallMov                   10013195     libvcruntime:memset.obj
 0001:0001219d       ByteLoop                   1001319d     libvcruntime:memset.obj
 0001:000121ab       DwordTest                  100131ab     libvcruntime:memset.obj
 0001:000121bb       QwordTest                  100131bb     libvcruntime:memset.obj
 0001:000121d0       QwordLoop                  100131d0     libvcruntime:memset.obj
 0001:000121e3       toend                      100131e3     libvcruntime:memset.obj
 0001:0001352e       $LN1250                    1001452e     libvcruntime:memcmp.obj
 0001:00013600       _ValidateLocalCookies      10014600 f   libvcruntime:chandler4.obj
 0001:0001396a       ??$BuildCatchObjectHelperInternal@V__FrameHandler3@@@@YAHPAUEHExceptionRecord@@PAXPBU_s_HandlerType@@PBU_s_CatchableType@@@Z 1001496a f   libvcruntime:frame.obj
 0001:00013aa8       ??$BuildCatchObjectInternal@V__FrameHandler3@@@@YAXPAUEHExceptionRecord@@PAXPBU_s_HandlerType@@PBU_s_CatchableType@@@Z 10014aa8 f   libvcruntime:frame.obj
 0001:00013b41       ??$CatchIt@V__FrameHandler3@@@@YAXPAUEHExceptionRecord@@PAUEHRegistrationNode@@PAU_CONTEXT@@PAXPBU_s_FuncInfo@@PBU_s_HandlerType@@PBU_s_CatchableType@@PBU_s_TryBlockMapEntry@@H1EE@Z 10014b41 f   libvcruntime:frame.obj
 0001:00013bc2       ??$FindHandler@V__FrameHandler3@@@@YAXPAUEHExceptionRecord@@PAUEHRegistrationNode@@PAU_CONTEXT@@PAXPBU_s_FuncInfo@@EH1@Z 10014bc2 f   libvcruntime:frame.obj
 0001:00013f65       ??$FindHandlerForForeignException@V__FrameHandler3@@@@YAXPAUEHExceptionRecord@@PAUEHRegistrationNode@@PAU_CONTEXT@@PAXPBU_s_FuncInfo@@HH1@Z 10014f65 f   libvcruntime:frame.obj
 0001:00014286       ?CallCatchBlock@@YAPAXPAUEHExceptionRecord@@PAUEHRegistrationNode@@PAU_CONTEXT@@PBU_s_FuncInfo@@PAXHK@Z 10015286 f   libvcruntime:frame.obj
 0001:00014455       ?CallUnexpected@@YAXPBU_s_ESTypeList@@@Z 10015455 f   libvcruntime:frame.obj
 0001:00014475       __catch$?CallUnexpected@@YAXPBU_s_ESTypeList@@@Z$0 10015475 f   libvcruntime:frame.obj
 0001:00014494       ?ExFilterRethrow@@YAHPAU_EXCEPTION_POINTERS@@@Z 10015494 f   libvcruntime:frame.obj
 0001:000145de       ?IsInExceptionSpec@@YAEPAUEHExceptionRecord@@PBU_s_ESTypeList@@@Z 100155de f   libvcruntime:frame.obj
 0001:000146b0       $$000000                   100156b0     libvcruntime:lowhelpr.obj
 0001:000146ef       _NLG_Continue              100156ef     libvcruntime:lowhelpr.obj
 0001:000147a0       $$000000                   100157a0     libvcruntime:exsup4.obj
 0001:000147d2       _lu_top                    100157d2     libvcruntime:exsup4.obj
 0001:00014831       _lu_done                   10015831     libvcruntime:exsup4.obj
 0001:00014840       $$000000                   10015840     libvcruntime:exsup4.obj
 0001:00014840       __unwind_handler4          10015840 f   libvcruntime:exsup4.obj
 0001:00014890       $$000000                   10015890     libvcruntime:exsup4.obj
 0001:000148b0       $$000000                   100158b0     libvcruntime:exsup4.obj
 0001:000148d0       $$000000                   100158d0     libvcruntime:exsup4.obj
 0001:000148e5       ReturnPoint                100158e5     libvcruntime:exsup4.obj
 0001:000148f0       $$000000                   100158f0     libvcruntime:exsup4.obj
 0001:00014907       ?try_get_function@@YAPAXW4function_id@?A0x14174aea@@QBDQBW4module_id@2@2@Z 10015907 f   libvcruntime:winapi_downlevel.obj
 0001:000149a7       ?try_load_library_from_system_directory@@YAPAUHINSTANCE__@@QB_W@Z 100159a7 f   libvcruntime:winapi_downlevel.obj
 0001:00014b70       $$000000                   10015b70     libvcruntime:exsup.obj
 0001:00014b80       $$000000                   10015b80     libvcruntime:exsup.obj
 0001:00014b8b       __NLG_Go                   10015b8b     libvcruntime:exsup.obj
 0001:00014ba0       $$000000                   10015ba0     libvcruntime:exsup.obj
 0001:00014ba3       ??$common_vsprintf@Vformat_validation_base@__crt_stdio_output@@D@@YAH_KQADIQBDQAU__crt_locale_pointers@@1@Z 10015ba3 f   libucrt:output.obj
 0001:00014d21       ??$common_vsprintf@Vstandard_base@__crt_stdio_output@@D@@YAH_KQADIQBDQAU__crt_locale_pointers@@1@Z 10015d21 f   libucrt:output.obj
 0001:00014e9f       ??$common_vsprintf_s@D@@YAH_KQADIQBDQAU__crt_locale_pointers@@1@Z 10015e9f f   libucrt:output.obj
 0001:0001554d       $LN48                      1001654d     libucrt:output.obj
 0001:00015661       $LN50                      10016661     libucrt:output.obj
 0001:00015b7c       $LN18                      10016b7c     libucrt:output.obj
 0001:00015b90       $LN17                      10016b90     libucrt:output.obj
 0001:00016db7       ??$thread_start@P6GIPAX@Z$00@@YGKQAX@Z 10017db7 f   libucrt:thread.obj
 0001:00016e35       ??1?$__crt_unique_heap_ptr@U__acrt_thread_parameter@@Uthread_parameter_free_policy@?A0x4e93fcdd@@@@QAE@XZ 10017e35 f   libucrt:thread.obj
 0001:00016e6c       ?common_end_thread@@YAXI@Z 10017e6c f   libucrt:thread.obj
 0001:00016ec3       ?create_thread_parameter@@YAPAU__acrt_thread_parameter@@QAX0@Z 10017ec3 f   libucrt:thread.obj
 0001:000171c2       ??$common_atof_l@D@@YANQBDQAU__crt_locale_pointers@@@Z 100181c2 f   libucrt:atof.obj
 0001:000179ea       $LN30                      100189ea     libucrt:atof.obj
 0001:00017a12       ??R<lambda_32aa245da1b5b882fa96db788295c8b2>@@QBE_NXZ 10018a12 f   libucrt:atof.obj
 0001:0001a242       _memcpy_s                  1001b242 f   libucrt:atof.obj
 0001:0001a242       _memcpy_s                  1001b242 f   libucrt:cfout.obj
 0001:0001a242       _memcpy_s                  1001b242 f   libucrt:mbctype.obj
 0001:0001a3c9       ??$?RV<lambda_f5952838e36297a1e2e9d6c748429792>@@AAV<lambda_2116bde18c9e5f34230805ea4a4660ed>@@V<lambda_3c7107de1cc98bf330a3031f42c322a3>@@@?$__crt_seh_guarded_call@PAD@@QAEPAD$$QAV<lambda_f5952838e36297a1e2e9d6c748429792>@@AAV<lambda_2116bde18c9e5f34230805ea4a4660ed>@@$$QAV<lambda_3c7107de1cc98bf330a3031f42c322a3>@@@Z 1001b3c9 f   libucrt:setlocale.obj
 0001:0001a424       ??R<lambda_2116bde18c9e5f34230805ea4a4660ed>@@QBEPADXZ 1001b424 f   libucrt:setlocale.obj
 0001:0001a583       _call_wsetlocale           1001b583 f   libucrt:setlocale.obj
 0001:0001ad50       $$000000                   1001bd50     libucrt:strcspn.obj
 0001:0001aeee       ??$__acrt_convert_wcs_mbs_cp@D_WV<lambda_62f6974d9771e494a5ea317cc32e971c>@@U__crt_win32_buffer_internal_dynamic_resizing@@@@YAHQBDAAV?$__crt_win32_buffer@_WU__crt_win32_buffer_internal_dynamic_resizing@@@@ABV<lambda_62f6974d9771e494a5ea317cc32e971c>@@I@Z 1001beee f   libucrt:strftime.obj
 0001:0001b4ba       ??$?RV<lambda_03b1d95aef87969028cfba75ccab2455>@@AAV<lambda_6e4b09c48022b2350581041d5f6b0c4c>@@V<lambda_22bdf7517842c4b3e53723af5aa32b9e>@@@?$__crt_seh_guarded_call@X@@QAEX$$QAV<lambda_03b1d95aef87969028cfba75ccab2455>@@AAV<lambda_6e4b09c48022b2350581041d5f6b0c4c>@@$$QAV<lambda_22bdf7517842c4b3e53723af5aa32b9e>@@@Z 1001c4ba f   libucrt:exit.obj
 0001:0001b507       ??R<lambda_6e4b09c48022b2350581041d5f6b0c4c>@@QBE@XZ 1001c507 f   libucrt:exit.obj
 0001:0001b5e1       ?atexit_exception_filter@@YAHK@Z 1001c5e1 f   libucrt:exit.obj
 0001:0001b5f4       ?common_exit@@YAXHW4_crt_exit_cleanup_mode@@W4_crt_exit_return_mode@@@Z 1001c5f4 f   libucrt:exit.obj
 0001:0001b658       ?exit_or_terminate_process@@YAXI@Z 1001c658 f   libucrt:exit.obj
 0001:0001b69a       ?is_managed_app@@YA_NXZ    1001c69a f   libucrt:exit.obj
 0001:0001b6dd       ?try_cor_exit_process@@YAXI@Z 1001c6dd f   libucrt:exit.obj
 0001:0001b76b       ??$common_configure_argv@D@@YAHW4_crt_argv_mode@@@Z 1001c76b f   libucrt:argv_parsing.obj
 0001:0001b8a1       ??$parse_command_line@D@@YAXPADPAPAD0PAI2@Z 1001c8a1 f   libucrt:argv_parsing.obj
 0001:0001ba6f       ??$common_initialize_environment_nolock@D@@YAHXZ 1001ca6f f   libucrt:environment_initialization.obj
 0001:0001bac2       ??$create_environment@D@@YAQAPADQAD@Z 1001cac2 f   libucrt:environment_initialization.obj
 0001:0001bb92       ??$free_environment@D@@YAXQAPAD@Z 1001cb92 f   libucrt:environment_initialization.obj
 0001:0001bb92       ??$free_environment@_W@@YAXQAPA_W@Z 1001cb92 f   libucrt:environment_initialization.obj
 0001:0001bbea       ??$uninitialize_environment_internal@D@@YAXAAPAPAD@Z 1001cbea f   libucrt:environment_initialization.obj
 0001:0001bc05       ??$uninitialize_environment_internal@_W@@YAXAAPAPA_W@Z 1001cc05 f   libucrt:environment_initialization.obj
 0001:0001bc5c       ??$?RV<lambda_69a2805e680e0e292e8ba93315fe43a8>@@AAV<lambda_f03950bc5685219e0bcd2087efbe011e>@@V<lambda_03fcd07e894ec930e3f35da366ca99d6>@@@?$__crt_seh_guarded_call@H@@QAEH$$QAV<lambda_69a2805e680e0e292e8ba93315fe43a8>@@AAV<lambda_f03950bc5685219e0bcd2087efbe011e>@@$$QAV<lambda_03fcd07e894ec930e3f35da366ca99d6>@@@Z 1001cc5c f   libucrt:onexit.obj
 0001:0001bcb7       ??$?RV<lambda_8e746cf0007f6ed984d6f78af1fec997>@@AAV<lambda_22ebabd17bc4fa466a2aca6d8deb888d>@@V<lambda_18ed0c0b38a6dc0daf1e7ac6d6adf05e>@@@?$__crt_seh_guarded_call@H@@QAEH$$QAV<lambda_8e746cf0007f6ed984d6f78af1fec997>@@AAV<lambda_22ebabd17bc4fa466a2aca6d8deb888d>@@$$QAV<lambda_18ed0c0b38a6dc0daf1e7ac6d6adf05e>@@@Z 1001ccb7 f   libucrt:onexit.obj
 0001:0001bd31       ??R<lambda_22ebabd17bc4fa466a2aca6d8deb888d>@@QBEHXZ 1001cd31 f   libucrt:onexit.obj
 0001:0001be5a       ??R<lambda_f03950bc5685219e0bcd2087efbe011e>@@QBEHXZ 1001ce5a f   libucrt:onexit.obj
 0001:0001bfd3       _initialize_global_variables 1001cfd3 f   libucrt:initialization.obj
 0001:0001bfe0       _initialize_c              1001cfe0 f   libucrt:initialization.obj
 0001:0001bffa       _initialize_environment    1001cffa f   libucrt:initialization.obj
 0001:0001bffa       _initialize_global_state_isolation 1001cffa f   libucrt:initialization.obj
 0001:0001bffa       _report_memory_leaks       1001cffa f   libucrt:initialization.obj
 0001:0001bffa       _uninitialize_c            1001cffa f   libucrt:initialization.obj
 0001:0001bffa       _uninitialize_global_state_isolation 1001cffa f   libucrt:initialization.obj
 0001:0001bffd       _uninitialize_environment  1001cffd f   libucrt:initialization.obj
 0001:0001c005       _initialize_pointers       1001d005 f   libucrt:initialization.obj
 0001:0001c033       _uninitialize_vcruntime    1001d033 f   libucrt:initialization.obj
 0001:0001c03c       _uninitialize_allocated_memory 1001d03c f   libucrt:initialization.obj
 0001:0001c053       _uninitialize_allocated_io_buffers 1001d053 f   libucrt:initialization.obj
 0001:0001c0a3       ??R<lambda_af42a3ee9806e9a7305d451646e05244>@@QBEXAAPAU__crt_multibyte_data@@@Z 1001d0a3 f   libucrt:initialization.obj
 0001:0001c210       $$000000                   1001d210     libucrt:strncmp.obj
 0001:0001c62b       ??$?RV<lambda_15ade71b0218206bbe3333a0c9b79046>@@AAV<lambda_da44e0f8b0f19ba52fefafb335991732>@@V<lambda_207f2d024fc103971653565357d6cd41>@@@?$__crt_seh_guarded_call@X@@QAEX$$QAV<lambda_15ade71b0218206bbe3333a0c9b79046>@@AAV<lambda_da44e0f8b0f19ba52fefafb335991732>@@$$QAV<lambda_207f2d024fc103971653565357d6cd41>@@@Z 1001d62b f   libucrt:per_thread_data.obj
 0001:0001c67d       ??$?RV<lambda_38edbb1296d33220d7e4dd0ed76b244a>@@AAV<lambda_5ce1d447e08cb34b2473517608e21441>@@V<lambda_fb385d3da700c9147fc39e65dd577a8c>@@@?$__crt_seh_guarded_call@X@@QAEX$$QAV<lambda_38edbb1296d33220d7e4dd0ed76b244a>@@AAV<lambda_5ce1d447e08cb34b2473517608e21441>@@$$QAV<lambda_fb385d3da700c9147fc39e65dd577a8c>@@@Z 1001d67d f   libucrt:per_thread_data.obj
 0001:0001c6e8       ??$?RV<lambda_6affb1475c98b40b75cdec977db92e3c>@@AAV<lambda_b8d4b9c228a6ecc3f80208dbb4b4a104>@@V<lambda_608742c3c92a14382c1684fc64f96c88>@@@?$__crt_seh_guarded_call@X@@QAEX$$QAV<lambda_6affb1475c98b40b75cdec977db92e3c>@@AAV<lambda_b8d4b9c228a6ecc3f80208dbb4b4a104>@@$$QAV<lambda_608742c3c92a14382c1684fc64f96c88>@@@Z 1001d6e8 f   libucrt:per_thread_data.obj
 0001:0001c73d       ??$?RV<lambda_a7e850c220f1c8d1e6efeecdedd162c6>@@AAV<lambda_46720907175c18b6c9d2717bc0d2d362>@@V<lambda_9048902d66e8d99359bc9897bbb930a8>@@@?$__crt_seh_guarded_call@X@@QAEX$$QAV<lambda_a7e850c220f1c8d1e6efeecdedd162c6>@@AAV<lambda_46720907175c18b6c9d2717bc0d2d362>@@$$QAV<lambda_9048902d66e8d99359bc9897bbb930a8>@@@Z 1001d73d f   libucrt:per_thread_data.obj
 0001:0001c797       ?construct_ptd@@YAXQAU__acrt_ptd@@QAPAU__crt_locale_data@@@Z 1001d797 f   libucrt:per_thread_data.obj
 0001:0001c830       ?destroy_fls@@YGXPAX@Z     1001d830 f   libucrt:per_thread_data.obj
 0001:0001c851       ?destroy_ptd@@YAXQAU__acrt_ptd@@@Z 1001d851 f   libucrt:per_thread_data.obj
 0001:0001c91e       ?replace_current_thread_locale_nolock@@YAXQAU__acrt_ptd@@QAU__crt_locale_data@@@Z 1001d91e f   libucrt:per_thread_data.obj
 0001:0001cca3       ?fe_to_nearest@@YA_NQBN_KF@Z 1001dca3 f   libucrt:cvt.obj
 0001:0001cd46       ?fp_format_a@@YAHQBNPADIQADIH_NIQAU__crt_locale_pointers@@W4__acrt_rounding_mode@@@Z 1001dd46 f   libucrt:cvt.obj
 0001:0001d055       ?fp_format_e@@YAHQBNQADI1IH_NIQAU__crt_locale_pointers@@W4__acrt_rounding_mode@@@Z 1001e055 f   libucrt:cvt.obj
 0001:0001d0fd       ?fp_format_e_internal@@YAHQADIH_NIQAU_strflt@@1QAU__crt_locale_pointers@@@Z 1001e0fd f   libucrt:cvt.obj
 0001:0001d245       ?fp_format_f@@YAHQBNQADI1IHQAU__crt_locale_pointers@@W4__acrt_rounding_mode@@@Z 1001e245 f   libucrt:cvt.obj
 0001:0001d2d6       ?fp_format_f_internal@@YAHQADIHQAU_strflt@@_NQAU__crt_locale_pointers@@@Z 1001e2d6 f   libucrt:cvt.obj
 0001:0001d3ce       ?fp_format_g@@YAHQBNQADI1IH_NIW4__acrt_rounding_mode@@QAU__crt_locale_pointers@@@Z 1001e3ce f   libucrt:cvt.obj
 0001:0001d498       ?fp_format_nan_or_infinity@@YAHW4__acrt_fp_class@@_NPADI1@Z 1001e498 f   libucrt:cvt.obj
 0001:0001d52d       ?shift_bytes@@YAXQADI0H@Z  1001e52d f   libucrt:cvt.obj
 0001:0001d561       ?should_round_up@@YA_NQBN_KFW4__acrt_rounding_mode@@@Z 1001e561 f   libucrt:cvt.obj
 0001:0001d78c       ??$?RV<lambda_4fdada1b837b2abbf20876fac97688ad>@@AAV<lambda_b57350f2640456a0859d250846f69caf>@@V<lambda_eed5e4f92b5b7d55fa22c48c484aaa54>@@@?$__crt_seh_guarded_call@X@@QAEX$$QAV<lambda_4fdada1b837b2abbf20876fac97688ad>@@AAV<lambda_b57350f2640456a0859d250846f69caf>@@$$QAV<lambda_eed5e4f92b5b7d55fa22c48c484aaa54>@@@Z 1001e78c f   libucrt:wsetlocale.obj
 0001:0001d7d9       ??$?RV<lambda_ac03c5d59bd18b09cb88b28331f6bfed>@@AAV<lambda_2a444430fde8c29194d880d93eed5e8f>@@AAV<lambda_02db5278e8aef8b5e4976579d73f5304>@@@?$__crt_seh_guarded_call@X@@QAEX$$QAV<lambda_ac03c5d59bd18b09cb88b28331f6bfed>@@AAV<lambda_2a444430fde8c29194d880d93eed5e8f>@@AAV<lambda_02db5278e8aef8b5e4976579d73f5304>@@@Z 1001e7d9 f   libucrt:wsetlocale.obj
 0001:0001d81e       ??$?RV<lambda_e5124f882df8998aaf41531e079ba474>@@AAV<lambda_3e16ef9562a7dcce91392c22ab16ea36>@@V<lambda_e25ca0880e6ef98be67edffd8c599615>@@@?$__crt_seh_guarded_call@X@@QAEX$$QAV<lambda_e5124f882df8998aaf41531e079ba474>@@AAV<lambda_3e16ef9562a7dcce91392c22ab16ea36>@@$$QAV<lambda_e25ca0880e6ef98be67edffd8c599615>@@@Z 1001e81e f   libucrt:wsetlocale.obj
 0001:0001d906       ??R<lambda_2a444430fde8c29194d880d93eed5e8f>@@QBE@XZ 1001e906 f   libucrt:wsetlocale.obj
 0001:0001d970       ??R<lambda_b57350f2640456a0859d250846f69caf>@@QBEXXZ 1001e970 f   libucrt:wsetlocale.obj
 0001:0001dd39       __copytlocinfo_nolock      1001ed39 f   libucrt:wsetlocale.obj
 0001:0001dd68       __expandlocale             1001ed68 f   libucrt:wsetlocale.obj
 0001:0001e1f2       __wsetlocale_get_all       1001f1f2 f   libucrt:wsetlocale.obj
 0001:0001e38d       __wsetlocale_nolock        1001f38d f   libucrt:wsetlocale.obj
 0001:0001e67d       __wsetlocale_set_cat       1001f67d f   libucrt:wsetlocale.obj
 0001:0001ea22       _get_default_code_page     1001fa22 f   libucrt:wsetlocale.obj
 0001:0001ea51       _parse_bcp47               1001fa51 f   libucrt:wsetlocale.obj
 0001:0001ec3b       _parse_bcp47_code_page     1001fc3b f   libucrt:wsetlocale.obj
 0001:0001ec7a       _parse_bcp47_language      1001fc7a f   libucrt:wsetlocale.obj
 0001:0001ecec       _parse_bcp47_region        1001fcec f   libucrt:wsetlocale.obj
 0001:0001eda5       _parse_bcp47_script        1001fda5 f   libucrt:wsetlocale.obj
 0001:0001ee15       _string_is_alpha           1001fe15 f   libucrt:wsetlocale.obj
 0001:0001ee52       ?initialize_inherited_file_handles_nolock@@YAXXZ 1001fe52 f   libucrt:ioinit.obj
 0001:0001ef08       ?initialize_stdio_handles_nolock@@YAXXZ 1001ff08 f   libucrt:ioinit.obj
 0001:0001f1d9       ?<lambda_invoker_stdcall>@<lambda_29d3c280b90b41c2ae070ffca879996a>@@CGHPA_W@Z 100201d9 f   libucrt:winapi_thunks.obj
 0001:0001f1e6       ??$?RV<lambda_6b4b7855443974f2b4b77000ea21c99c>@@AAV<lambda_8f7d3b162ab39427f4fa9995c67a7986>@@V<lambda_cc9a5ba8a5d8428b9634eab82665e5dc>@@@?$__crt_seh_guarded_call@H@@QAEH$$QAV<lambda_6b4b7855443974f2b4b77000ea21c99c>@@AAV<lambda_8f7d3b162ab39427f4fa9995c67a7986>@@$$QAV<lambda_cc9a5ba8a5d8428b9634eab82665e5dc>@@@Z 100201e6 f   libucrt:winapi_thunks.obj
 0001:0001f262       ??R<lambda_29d3c280b90b41c2ae070ffca879996a>@@QBEHPA_W@Z 10020262 f   libucrt:winapi_thunks.obj
 0001:0001f291       ?try_get_AreFileApisANSI@@YAP6GHXZXZ 10020291 f   libucrt:winapi_thunks.obj
 0001:0001f2ab       ?try_get_CompareStringEx@@YAP6GHPB_WK0H0HPAU_nlsversioninfo@@PAXJ@ZXZ 100202ab f   libucrt:winapi_thunks.obj
 0001:0001f2c5       ?try_get_EnumSystemLocalesEx@@YAP6GHP6GHPA_WKJ@ZKJPAX@ZXZ 100202c5 f   libucrt:winapi_thunks.obj
 0001:0001f2df       ?try_get_GetDateFormatEx@@YAP6GHPB_WKPBU_SYSTEMTIME@@0PA_WH0@ZXZ 100202df f   libucrt:winapi_thunks.obj
 0001:0001f2f9       ?try_get_GetLocaleInfoEx@@YAP6GHPB_WKPA_WH@ZXZ 100202f9 f   libucrt:winapi_thunks.obj
 0001:0001f313       ?try_get_GetTimeFormatEx@@YAP6GHPB_WKPBU_SYSTEMTIME@@0PA_WH@ZXZ 10020313 f   libucrt:winapi_thunks.obj
 0001:0001f32d       ?try_get_GetUserDefaultLocaleName@@YAP6GHPA_WH@ZXZ 1002032d f   libucrt:winapi_thunks.obj
 0001:0001f347       ?try_get_IsValidLocaleName@@YAP6GHPB_W@ZXZ 10020347 f   libucrt:winapi_thunks.obj
 0001:0001f361       ?try_get_LCIDToLocaleName@@YAP6GHKPA_WHK@ZXZ 10020361 f   libucrt:winapi_thunks.obj
 0001:0001f37b       ?try_get_LCMapStringEx@@YAP6GHPB_WK0HPA_WHPAU_nlsversioninfo@@PAXJ@ZXZ 1002037b f   libucrt:winapi_thunks.obj
 0001:0001f395       ?try_get_LocaleNameToLCID@@YAP6GKPB_WK@ZXZ 10020395 f   libucrt:winapi_thunks.obj
 0001:0001f3af       ?try_get_first_available_module@@YAPAUHINSTANCE__@@QBW4module_id@?A0x391cf84c@@0@Z 100203af f   libucrt:winapi_thunks.obj
 0001:0001f476       ?try_get_function@@YAPAXW4function_id@?A0x391cf84c@@QBDQBW4module_id@2@2@Z 10020476 f   libucrt:winapi_thunks.obj
 0001:0001fa71       ?__acrt_LCMapStringA_stat@@YAHPAU__crt_locale_pointers@@PB_WKPBDHPADHHH@Z 10020a71 f   libucrt:lcmapstringa.obj
 0001:0001fcb1       ??$?RV<lambda_cbab9ec6f41b0180b23cc171c22676b0>@@AAV<lambda_44731a7d0e6d81c3e6aa82d741081786>@@V<lambda_4b292cb8dd18144e164572427af410ab>@@@?$__crt_seh_guarded_call@P6AXH@Z@@QAEP6AXH@Z$$QAV<lambda_cbab9ec6f41b0180b23cc171c22676b0>@@AAV<lambda_44731a7d0e6d81c3e6aa82d741081786>@@$$QAV<lambda_4b292cb8dd18144e164572427af410ab>@@@Z 10020cb1 f   libucrt:signal.obj
 0001:0001fd15       ?get_global_action_nolock@@YAPAP6AXH@ZH@Z 10020d15 f   libucrt:signal.obj
 0001:0001fd57       ?siglookup@@YAPAU__crt_signal_action_t@@HQAU1@@Z 10020d57 f   libucrt:signal.obj
 0001:0001ffb7       ?_mbstowcs_l_helper@@YAIPA_WPBDIPAU__crt_locale_pointers@@@Z 10020fb7 f   libucrt:mbstowcs.obj
 0001:0002025a       ?_wcstombs_l_helper@@YAIPADPB_WIPAU__crt_locale_pointers@@@Z 1002125a f   libucrt:wcstombs.obj
 0001:000205c0       ?InternalGetLocaleInfoA@@YAHQAU__crt_locale_pointers@@QB_WKQADH@Z 100215c0 f   libucrt:getlocaleinfoa.obj
 0001:00021423       ??$?RV<lambda_2866be3712abc81a800a822484c830d8>@@AAV<lambda_39ca0ed439415581b5b15c265174cece>@@V<lambda_2b24c74d71094a6cd0cb82e44167d71b>@@@?$__crt_seh_guarded_call@X@@QAEX$$QAV<lambda_2866be3712abc81a800a822484c830d8>@@AAV<lambda_39ca0ed439415581b5b15c265174cece>@@$$QAV<lambda_2b24c74d71094a6cd0cb82e44167d71b>@@@Z 10022423 f   libucrt:fflush.obj
 0001:000214af       ??$?RV<lambda_2cc53f568c5a2bb6f192f930a45d44ea>@@AAV<lambda_ab61a845afdef5b7c387490eaf3616ee>@@V<lambda_c2ffc0b7726aa6be21d5f0026187e748>@@@?$__crt_seh_guarded_call@X@@QAEX$$QAV<lambda_2cc53f568c5a2bb6f192f930a45d44ea>@@AAV<lambda_ab61a845afdef5b7c387490eaf3616ee>@@$$QAV<lambda_c2ffc0b7726aa6be21d5f0026187e748>@@@Z 100224af f   libucrt:fflush.obj
 0001:0002155b       ?common_flush_all@@YAH_N@Z 1002255b f   libucrt:fflush.obj
 0001:000215a8       ?common_flush_all_should_try_to_flush_stream@@YA_NV__crt_stdio_stream@@QAH@Z 100225a8 f   libucrt:fflush.obj
 0001:000215db       ?is_stream_flushable_or_commitable@@YA_NJ@Z 100225db f   libucrt:fflush.obj
 0001:00021a1a       ?<lambda_invoker_cdecl>@<lambda_838c7f62c73c983481e27c09e84b0b5d>@@CAHPBX0@Z 10022a1a f   libucrt:argv_wildcards.obj
 0001:00021a32       ??$__acrt_convert_wcs_mbs_cp@_WDV<lambda_28bda7af82a03b66c1cb3803a755f95d>@@U__crt_win32_buffer_internal_dynamic_resizing@@@@YAHQB_WAAV?$__crt_win32_buffer@DU__crt_win32_buffer_internal_dynamic_resizing@@@@ABV<lambda_28bda7af82a03b66c1cb3803a755f95d>@@I@Z 10022a32 f   libucrt:argv_wildcards.obj
 0001:00021b01       ??$common_expand_argv_wildcards@D@@YAHQAPADQAPAPAD@Z 10022b01 f   libucrt:argv_wildcards.obj
 0001:00021cf0       ??$copy_and_add_argument_to_buffer@D@@YAHQBD0IAAV?$argument_list@D@?A0x5f5c8891@@@Z 10022cf0 f   libucrt:argv_wildcards.obj
 0001:00021da1       ??$expand_argument_wildcards@D@@YAHQAD0AAV?$argument_list@D@?A0x5f5c8891@@@Z 10022da1 f   libucrt:argv_wildcards.obj
 0001:00022034       ?expand_if_necessary@?$argument_list@D@?A0x5f5c8891@@AAEHXZ 10023034 f   libucrt:argv_wildcards.obj
 0001:000220c6       ??$__acrt_convert_wcs_mbs_cp@_WDV<lambda_0fec1a7b3f42a53036604e18c2d5e07e>@@U__crt_win32_buffer_no_resizing@@@@YAHQB_WAAV?$__crt_win32_buffer@DU__crt_win32_buffer_no_resizing@@@@ABV<lambda_0fec1a7b3f42a53036604e18c2d5e07e>@@I@Z 100230c6 f   libucrt:getmodulefilenamea.obj
 0001:0002222e       ??$?RV<lambda_ceb1ee4838e85a9d631eb091e2fbe199>@@AAV<lambda_ae742caa10f662c28703da3d2ea5e57e>@@V<lambda_cd08b5d6af4937fe54fc07d0c9bf6b37>@@@?$__crt_seh_guarded_call@X@@QAEX$$QAV<lambda_ceb1ee4838e85a9d631eb091e2fbe199>@@AAV<lambda_ae742caa10f662c28703da3d2ea5e57e>@@$$QAV<lambda_cd08b5d6af4937fe54fc07d0c9bf6b37>@@@Z 1002322e f   libucrt:mbctype.obj
 0001:0002227b       ??R<lambda_ae742caa10f662c28703da3d2ea5e57e>@@QBEXXZ 1002327b f   libucrt:mbctype.obj
 0001:000222fe       ?CPtoLocaleName@@YAPB_WH@Z 100232fe f   libucrt:mbctype.obj
 0001:0002233c       ?getSystemCP@@YAHH@Z       1002333c f   libucrt:mbctype.obj
 0001:000223ad       ?setSBCS@@YAXPAU__crt_multibyte_data@@@Z 100233ad f   libucrt:mbctype.obj
 0001:00022412       ?setSBUpLow@@YAXPAU__crt_multibyte_data@@@Z 10023412 f   libucrt:mbctype.obj
 0001:00022592       ?setmbcp_internal@@YAHH_NQAU__acrt_ptd@@QAPAU__crt_multibyte_data@@@Z 10023592 f   libucrt:mbctype.obj
 0001:000226a6       ?update_thread_multibyte_data_internal@@YAPAU__crt_multibyte_data@@QAU__acrt_ptd@@QAPAU1@@Z 100236a6 f   libucrt:mbctype.obj
 0001:00022994       ?x_ismbbtype_l@@YAHPAU__crt_locale_pointers@@IHH@Z 10023994 f   libucrt:ismbbyte.obj
 0001:00022a1c       ?find_end_of_double_null_terminated_sequence@@YAPB_WQB_W@Z 10023a1c f   libucrt:get_environment_from_os.obj
 0001:00022cf0       ??R<lambda_3d301b9e52f5099be73030e1f0bf487e>@@QBEIPBD@Z 10023cf0 f   libucrt:mbrtowc.obj
 0001:000232c6       ?should_round_up@@YA_NQBDHW4__acrt_has_trailing_digits@@W4__acrt_rounding_mode@@@Z 100242c6 f   libucrt:_fptostr.obj
 0001:000250a4       ?free_crt_array_internal@@YAXQAPBXI@Z 100260a4 f   libucrt:inittime.obj
 0001:000250dc       ?initialize_lc_time@@YA_NQAU__crt_lc_time_data@@QAU__crt_locale_data@@@Z 100260dc f   libucrt:inittime.obj
 0001:0002552c       ??$common_tcsncat_s@_W@@YAHQA_WIQB_WI@Z 1002652c f   libucrt:wcsncat_s.obj
 0001:0002561e       ??$common_tcsncpy_s@_W@@YAHQA_WIQB_WI@Z 1002661e f   libucrt:wcsncpy_s.obj
 0001:0002579b       _GetLocaleNameFromDefault  1002679b f   libucrt:get_qualified_locale.obj
 0001:00025822       _GetLocaleNameFromLangCountry 10026822 f   libucrt:get_qualified_locale.obj
 0001:000258bb       _GetLocaleNameFromLanguage 100268bb f   libucrt:get_qualified_locale.obj
 0001:00025914       _GetPrimaryLen             10026914 f   libucrt:get_qualified_locale.obj
 0001:00025948       _LangCountryEnumProcEx@12  10026948 f   libucrt:get_qualified_locale.obj
 0001:00025c28       _LanguageEnumProcEx@12     10026c28 f   libucrt:get_qualified_locale.obj
 0001:00025ce7       _ProcessCodePage           10026ce7 f   libucrt:get_qualified_locale.obj
 0001:00025ddd       _TestDefaultCountry        10026ddd f   libucrt:get_qualified_locale.obj
 0001:00025e2a       _TranslateName             10026e2a f   libucrt:get_qualified_locale.obj
 0001:00026092       _CountryEnumProc@4         10027092 f   libucrt:getqloc_downlevel.obj
 0001:00026139       _GetLcidFromCountry        10027139 f   libucrt:getqloc_downlevel.obj
 0001:00026184       _GetLcidFromLangCountry    10027184 f   libucrt:getqloc_downlevel.obj
 0001:0002621f       _GetLcidFromLanguage       1002721f f   libucrt:getqloc_downlevel.obj
 0001:0002627e       _GetPrimaryLen             1002727e f   libucrt:getqloc_downlevel.obj
 0001:000262aa       _LangCountryEnumProc@4     100272aa f   libucrt:getqloc_downlevel.obj
 0001:000264fd       _LanguageEnumProc@4        100274fd f   libucrt:getqloc_downlevel.obj
 0001:000265d2       _LcidFromHexString         100275d2 f   libucrt:getqloc_downlevel.obj
 0001:00026623       _ProcessCodePage           10027623 f   libucrt:getqloc_downlevel.obj
 0001:00026704       _TestDefaultCountry        10027704 f   libucrt:getqloc_downlevel.obj
 0001:00026729       _TestDefaultLanguage       10027729 f   libucrt:getqloc_downlevel.obj
 0001:00026797       _TranslateName             10027797 f   libucrt:getqloc_downlevel.obj
 0001:00026c95       ?GetTableIndexFromLocaleName@@YAHPB_W@Z 10027c95 f   libucrt:lcidtoname_downlevel.obj
 0001:00026dbb       ?to_abstract_control@@YA?AW4__acrt_fenv_abstract_control@@W4__acrt_fenv_machine_sse_control@@@Z 10027dbb f   libucrt:_fenvutils.obj
 0001:00026e77       ?to_abstract_control@@YA?AW4__acrt_fenv_abstract_control@@W4__acrt_fenv_machine_x87_control@@@Z 10027e77 f   libucrt:_fenvutils.obj
 0001:00026f30       ?to_machine_sse_control@@YA?AW4__acrt_fenv_machine_sse_control@@W4__acrt_fenv_abstract_control@@@Z 10027f30 f   libucrt:_fenvutils.obj
 0001:00026ffd       ?to_machine_x87_control@@YA?AW4__acrt_fenv_machine_x87_control@@W4__acrt_fenv_abstract_control@@@Z 10027ffd f   libucrt:_fenvutils.obj
 0001:0002748f       ??$common_tcsncpy_s@D@@YAHQADIQBDI@Z 1002848f f   libucrt:strncpy_s.obj
 0001:00027648       ??$?RV<lambda_9e9de3de5fa147e2223d7db92bc10aa6>@@AAV<lambda_38ce7e780aa69e748d6df282ebc68efe>@@V<lambda_8ca6da459f0f6780f1cff60fdc3d00e5>@@@?$__crt_seh_guarded_call@H@@QAEH$$QAV<lambda_9e9de3de5fa147e2223d7db92bc10aa6>@@AAV<lambda_38ce7e780aa69e748d6df282ebc68efe>@@$$QAV<lambda_8ca6da459f0f6780f1cff60fdc3d00e5>@@@Z 10028648 f   libucrt:commit.obj
 0001:00027767       ?write_double_translated_ansi_nolock@@YA?AUwrite_result@?A0x17268360@@HQBDI@Z 10028767 f   libucrt:write.obj
 0001:00027b13       ?write_double_translated_unicode_nolock@@YA?AUwrite_result@?A0x17268360@@QBDI@Z 10028b13 f   libucrt:write.obj
 0001:00027b7b       ?write_requires_double_translation_nolock@@YA_NH@Z 10028b7b f   libucrt:write.obj
 0001:00027bec       ?write_text_ansi_nolock@@YA?AUwrite_result@?A0x17268360@@HQBDI@Z 10028bec f   libucrt:write.obj
 0001:00027cc7       ?write_text_utf16le_nolock@@YA?AUwrite_result@?A0x17268360@@HQBDI@Z 10028cc7 f   libucrt:write.obj
 0001:00027db0       ?write_text_utf8_nolock@@YA?AUwrite_result@?A0x17268360@@HQBDI@Z 10028db0 f   libucrt:write.obj
 0001:000281ae       ??$common_lseek_nolock@_J@@YA_JH_JH@Z 100291ae f   libucrt:lseek.obj
 0001:000287e0       $$000000                   100297e0     libucrt:strpbrk.obj
 0001:000288c4       ?initialize_multibyte@@YAHXZ 100298c4 f   libucrt:multibyte_initializer.obj
 0001:00028bd0       $$000000                   10029bd0     libucrt:log10_impl.obj
 0001:00028ce0       $$000000                   10029ce0     libucrt:ceil_pentium4.obj
 0001:00028dfd       ??$common_xtox@K_W@@YAHKQA_WII_N@Z 10029dfd f   libucrt:xtoa.obj
 0001:00028eb0       ??$common_xtox_s@K_W@@YAHKQA_WII_N@Z 10029eb0 f   libucrt:xtoa.obj
 0001:00029163       ??$?RV<lambda_218ce3db14220d0be481dae8ef3383b6>@@AAV<lambda_628dfdc04ba53c8bfc02c9951375f3f5>@@V<lambda_57dc472bd5c9d5f3b2cbca59b8a843ae>@@@?$__crt_seh_guarded_call@H@@QAEH$$QAV<lambda_218ce3db14220d0be481dae8ef3383b6>@@AAV<lambda_628dfdc04ba53c8bfc02c9951375f3f5>@@$$QAV<lambda_57dc472bd5c9d5f3b2cbca59b8a843ae>@@@Z 1002a163 f   libucrt:close.obj
 0001:000293c3       ___hw_cw_sse2              1002a3c3 f   libucrt:ieee87.obj
 0001:00029849       __hw_cw                    1002a849 f   libucrt:ieee87.obj
 0001:00029900       $$000000                   1002a900     libucrt:log10_pentium4.obj
 0001:00029b90       $$000000                   1002ab90     libucrt:87tran.obj
 0001:00029da0       $$000000                   1002ada0     libucrt:87disp.obj
 0001:0002a000       $$000000                   1002b000     libucrt:common.obj
 0001:0002a190       $$000000                   1002b190     libucrt:genexcep.obj
 0001:0002a48c       ?__dcrt_lowio_initialize_console_output@@YAXXZ 1002b48c f   libucrt:initcon.obj
 0001:0002a540       $$000000                   1002b540     libucrt:_strnicm.obj
 0001:0002aa50       $$000000                   1002ba50     LIBCMT:ulldvrm.obj
 0001:0002aa81       L1                         1002ba81     LIBCMT:ulldvrm.obj
 0001:0002aa8f       L3                         1002ba8f     LIBCMT:ulldvrm.obj
 0001:0002aabd       L4                         1002babd     LIBCMT:ulldvrm.obj
 0001:0002aac6       L5                         1002bac6     LIBCMT:ulldvrm.obj
 0001:0002aac8       L2                         1002bac8     LIBCMT:ulldvrm.obj
 0001:0002aaf0       $$000000                   1002baf0     LIBCMT:llshl.obj
 0001:0002ab00       MORE32                     1002bb00     LIBCMT:llshl.obj
 0001:0002ab0a       RETZERO                    1002bb0a     LIBCMT:llshl.obj
 0001:0002ab10       $$000000                   1002bb10     LIBCMT:ullshr.obj
 0001:0002ab20       MORE32                     1002bb20     LIBCMT:ullshr.obj
 0001:0002ab2a       RETZERO                    1002bb2a     LIBCMT:ullshr.obj
 0001:0002ab30       $$000000                   1002bb30     LIBCMT:lldvrm.obj
 0001:0002ab54       L1                         1002bb54     LIBCMT:lldvrm.obj
 0001:0002ab70       L2                         1002bb70     LIBCMT:lldvrm.obj
 0001:0002ab9c       L3                         1002bb9c     LIBCMT:lldvrm.obj
 0001:0002abaa       L5                         1002bbaa     LIBCMT:lldvrm.obj
 0001:0002abd8       L6                         1002bbd8     LIBCMT:lldvrm.obj
 0001:0002abe1       L7                         1002bbe1     LIBCMT:lldvrm.obj
 0001:0002abe3       L4                         1002bbe3     LIBCMT:lldvrm.obj
 0001:0002abf5       L9                         1002bbf5     LIBCMT:lldvrm.obj
 0001:0002ac09       L8                         1002bc09     LIBCMT:lldvrm.obj
 0001:0002ac10       $$000000                   1002bc10     LIBCMT:ftol2.obj
 0001:0002ac20       $$000000                   1002bc20     LIBCMT:ftol2.obj
 0001:0002ac31       L3B                        1002bc31     LIBCMT:ftol2.obj
 0001:0002ac74       L3F                        1002bc74     LIBCMT:ftol2.obj
 0001:0002ac7c       L40                        1002bc7c     LIBCMT:ftol2.obj
 0001:0002ac8f       L41                        1002bc8f     LIBCMT:ftol2.obj
 0001:0002aca0       $$000000                   1002bca0     libvcruntime:strrchr.obj
 0001:0002acdd       strrchr_sse_loop           1002bcdd     libvcruntime:strrchr.obj
 0001:0002ad0d       strrchr_sse_break          1002bd0d     libvcruntime:strrchr.obj
 0001:0002ad2d       strrchr_sttni              1002bd2d     libvcruntime:strrchr.obj
 0001:0002ad3f       strrchr_sttni_chars        1002bd3f     libvcruntime:strrchr.obj
 0001:0002ad54       strrchr_sttni_aligned      1002bd54     libvcruntime:strrchr.obj
 0001:0002ad58       strrchr_sttni_xmm          1002bd58     libvcruntime:strrchr.obj
 0001:0002ad6b       exit                       1002bd6b     libvcruntime:strrchr.obj
 0001:0002ad6e       strrchr_zero               1002bd6e     libvcruntime:strrchr.obj
 0001:0002ad93       strchr_zero_loop           1002bd93     libvcruntime:strrchr.obj
 0001:0002ada7       strchr_zero_result         1002bda7     libvcruntime:strrchr.obj
 0001:0002adae       strrchr_no_sse             1002bdae     libvcruntime:strrchr.obj
 0001:0002add1       returndi                   1002bdd1     libvcruntime:strrchr.obj
 0001:0002add3       toend                      1002bdd3     libvcruntime:strrchr.obj
 0001:0002f130       ??0<lambda_1>@?6??LoadCreatureBanksFromJson@CreatureBankManager@CreatureBanksExtender@cbanks@@QAEHFF@Z@QAE@ABF@Z 10030130 f   CreatureBanksExtender.obj
 0001:0002f150       ??R<lambda_1>@?6??LoadCreatureBanksFromJson@CreatureBankManager@CreatureBanksExtender@cbanks@@QAEHFF@Z@QBE@XZ 10030150 f   CreatureBanksExtender.obj
 0001:0002fe70       $LN609                     10030e70     CreatureBanksExtender.obj
 0001:00030528       $LN12                      10031528     CreatureBanksExtender.obj
 0001:0003060c       $LN14                      1003160c     CreatureBanksExtender.obj
 0001:00030624       $LN13                      10031624     CreatureBanksExtender.obj
 0001:000318e4       $LN96                      100328e4     CreatureBanksExtender.obj
 0001:000319c0       ??1CreatureName@?4??ShowMultiplePicsArmyMessage@cbanks@@YAHPBDHHHPAUH3Army@h3@@@Z@QAE@XZ 100329c0 f   CreatureBanksExtender.obj
 0001:00031a00       ??0CreatureName@?4??ShowMultiplePicsArmyMessage@cbanks@@YAHPBDHHHPAUH3Army@h3@@@Z@QAE@XZ 10032a00 f   CreatureBanksExtender.obj
 0001:00038b7c       $LN14                      10039b7c     WarehousesExtender.obj
 0001:0003cac4       $LN101                     1003dac4     RMGObjectsEditor.obj
 0001:0003cae8       $LN100                     1003dae8     RMGObjectsEditor.obj
 0001:0003fe30       ??0<lambda_1>@?8??FindDataInObjectGeneratorsList@rmgdlg@@YAXAAV?$vector@U?$pair@UH3ObjectAttributes@h3@@PAUH3LoadedPcx16@2@@std@@V?$allocator@U?$pair@UH3ObjectAttributes@h3@@PAUH3LoadedPcx16@2@@std@@@2@@std@@@Z@QAE@AAPBUH3RmgObjectGenerator@h3@@@Z 10040e30 f   RMG_SettingsDlg.obj
 0001:0003fe40       ??R<lambda_1>@?8??FindDataInObjectGeneratorsList@rmgdlg@@YAXAAV?$vector@U?$pair@UH3ObjectAttributes@h3@@PAUH3LoadedPcx16@2@@std@@V?$allocator@U?$pair@UH3ObjectAttributes@h3@@PAUH3LoadedPcx16@2@@std@@@2@@std@@@Z@QBE_NABU?$pair@UH3ObjectAttributes@h3@@PAUH3LoadedPcx16@2@@4@@Z 10040e40 f   RMG_SettingsDlg.obj
 0001:0003ffd0       ??0<lambda_1>@?7??GetObjectPrototypesByTypes@rmgdlg@@YAXAAV?$vector@U?$pair@UH3ObjectAttributes@h3@@PAUH3LoadedPcx16@2@@std@@V?$allocator@U?$pair@UH3ObjectAttributes@h3@@PAUH3LoadedPcx16@2@@std@@@2@@std@@PBHI@Z@QAE@ABUH3ObjectAttributes@h3@@@Z 10040fd0 f   RMG_SettingsDlg.obj
 0001:0003ffe0       ??R<lambda_1>@?7??GetObjectPrototypesByTypes@rmgdlg@@YAXAAV?$vector@U?$pair@UH3ObjectAttributes@h3@@PAUH3LoadedPcx16@2@@std@@V?$allocator@U?$pair@UH3ObjectAttributes@h3@@PAUH3LoadedPcx16@2@@std@@@2@@std@@PBHI@Z@QBE_NABU?$pair@UH3ObjectAttributes@h3@@PAUH3LoadedPcx16@2@@4@@Z 10040fe0 f   RMG_SettingsDlg.obj
 0001:00041180       ??0<unnamed-type-lastSorting>@ObjectsPage@RMG_SettingsDlg@rmgdlg@@QAE@XZ 10042180 f   RMG_SettingsDlg.obj
 0001:00042e38       $LN113                     10043e38     RMG_SettingsDlg.obj
 0001:00042e54       $LN112                     10043e54     RMG_SettingsDlg.obj
 0001:00043b00       ??0<lambda_1>@?1??SortRmgObjects@sorting@rmgdlg@@YAXAAV?$vector@VRMGObject@rmgdlg@@V?$allocator@VRMGObject@rmgdlg@@@std@@@std@@W4eSorting@23@_N@Z@QAE@ABW4623@@Z 10044b00 f   RMG_SettingsDlg.obj
 0001:00043b10       ??R<lambda_1>@?1??SortRmgObjects@sorting@rmgdlg@@YAXAAV?$vector@VRMGObject@rmgdlg@@V?$allocator@VRMGObject@rmgdlg@@@std@@@std@@W4eSorting@23@_N@Z@QBE_NABVRMGObject@3@3@Z 10044b10 f   RMG_SettingsDlg.obj
 0001:00043c2c       $LN204                     10044c2c     RMG_SettingsDlg.obj
 0001:00044bc0       $$000000                   10045bc0     LIBCMT:ftol3.obj
 0001:00044bdf       _ftol3_default             10045bdf     LIBCMT:ftol3.obj
 0001:00044bf3       _ftol3_notsafe             10045bf3     LIBCMT:ftol3.obj
 0001:00044c13       _ftol3_mincheck            10045c13     LIBCMT:ftol3.obj
 0001:00044c19       _ftol3_NaN                 10045c19     LIBCMT:ftol3.obj
 0001:00044c21       _ftol3_retmin              10045c21     LIBCMT:ftol3.obj
 0001:00044c5f       ?FindMITargetTypeInstance@@YAPBU_s_RTTIBaseClassDescriptor@@PAXPBU_s_RTTICompleteObjectLocator@@PAUTypeDescriptor@@H2@Z 10045c5f f   libvcruntime:rtti.obj
 0001:00044d48       ?FindSITargetTypeInstance@@YAPBU_s_RTTIBaseClassDescriptor@@PBU_s_RTTICompleteObjectLocator@@PAUTypeDescriptor@@1@Z 10045d48 f   libvcruntime:rtti.obj
 0001:00044e31       ?FindVITargetTypeInstance@@YAPBU_s_RTTIBaseClassDescriptor@@PAXPBU_s_RTTICompleteObjectLocator@@PAUTypeDescriptor@@H2@Z 10045e31 f   libvcruntime:rtti.obj
 0001:00044f90       ?PMDtoOffset@@YAHPAXABUPMD@@@Z 10045f90 f   libvcruntime:rtti.obj
 0001:00044fb4       ?TypeidsEqual@@YA_NQBUTypeDescriptor@@0@Z 10045fb4 f   libvcruntime:rtti.obj
 0001:00045130       __ehhandler$??1H3String@h3@@QAE@XZ 10046130 f   AncientLampExtender.obj
 0001:00045130       __ehhandler$??$_Invoke@V?$tuple@P6AXABV?$vector@UObjectSound@SoundManager@sound@@V?$allocator@UObjectSound@SoundManager@sound@@@std@@@std@@@ZV12@@std@@$0A@$00@thread@std@@CGIPAX@Z 10046130 f   ObjectsExtender.obj
 0001:00045130       __ehhandler$??1_Sentry_base@?$basic_istream@DU?$char_traits@D@std@@@std@@QAE@XZ 10046130 f   ObjectsExtender.obj
 0001:00045130       __ehhandler$??1_Sentry_base@?$basic_ostream@DU?$char_traits@D@std@@@std@@QAE@XZ 10046130 f   ObjectsExtender.obj
 0001:00045130       __ehhandler$??$_Invoke@V?$tuple@P6AXPBF@ZPBF@std@@$0A@$00@thread@std@@CGIPAX@Z 10046130 f   RMGObjectsEditor.obj
 0001:00045130       __ehhandler$??$_Invoke@V?$tuple@P6AXXZ@std@@$0A@@thread@std@@CGIPAX@Z 10046130 f   RMG_SettingsDlg.obj
 0001:00045130       __ehhandler$??1?$H3BinaryLoader@UH3LoadedDef@h3@@@h3@@QAE@XZ 10046130 f   RMG_SettingsDlg.obj
 0001:00045130       __ehhandler$??1?$H3BinaryLoader@UH3LoadedPcx@h3@@@h3@@QAE@XZ 10046130 f   RMG_SettingsDlg.obj
 0001:00045130       __ehhandler$??1?$array@V?$vector@HV?$allocator@H@std@@@std@@$03@std@@QAE@XZ 10046130 f   RMG_SettingsDlg.obj
 0001:00045130       __ehhandler$??1H3BasePalette565@h3@@QAE@XZ 10046130 f   RMG_SettingsDlg.obj
 0001:00045140       __unwindfunclet$?Format@H3String@h3@@SA?AU12@PBDZZ$1 10046140 f   AncientLampExtender.obj
 0001:0004515e       __ehhandler$?Format@H3String@h3@@SA?AU12@PBDZZ 1004615e f   AncientLampExtender.obj
 0001:00045170       __ehhandler$??__F?currentCreatureBank@CreatureBanksExtender@cbanks@@0UCurrent@12@A@@YAXXZ 10046170 f   CreatureBanksExtender.obj
 0001:00045170       __ehhandler$??$swap@U?$H3Vector@PAUH3RmgObjectGenerator@h3@@@h3@@$0A@@std@@YAXAAU?$H3Vector@PAUH3RmgObjectGenerator@h3@@@h3@@0@Z 10046170 f   RMGObjectsEditor.obj
 0001:00045170       __ehhandler$??__Finstance@?1??Get@RMGObjectsEditor@editor@@SAAAV12@XZ@YAXXZ 10046170 f   RMGObjectsEditor.obj
 0001:00045170       __ehhandler$?CreateText@H3BaseDlg@h3@@QAEPAUH3DlgText@2@HHHHPBD0HHW4eTextAlignment@NTextAlignment@NH3Dlg@2@H@Z 10046170 f   RMG_SettingsDlg.obj
 0001:00045170       __ehhandler$?_Change_array@?$vector@U?$pair@UH3ObjectAttributes@h3@@PAUH3LoadedPcx16@2@@std@@V?$allocator@U?$pair@UH3ObjectAttributes@h3@@PAUH3LoadedPcx16@2@@std@@@2@@std@@AAEXQAU?$pair@UH3ObjectAttributes@h3@@PAUH3LoadedPcx16@2@@2@II@Z 10046170 f   RMG_SettingsDlg.obj
 0001:00045180       __unwindfunclet$??0H3CreatureBankSetup@h3@@QAE@XZ$0 10046180 f   CreatureBanksExtender.obj
 0001:0004518d       __ehhandler$??0H3CreatureBankSetup@h3@@QAE@XZ 1004618d f   CreatureBanksExtender.obj
 0001:000451a0       __ehhandler$??$_Destroy_range@V?$allocator@UH3CreatureBankSetup@h3@@@std@@@std@@YAXPAUH3CreatureBankSetup@h3@@QAU12@AAV?$allocator@UH3CreatureBankSetup@h3@@@0@@Z 100461a0 f   CreatureBanksExtender.obj
 0001:000451a0       __ehhandler$??1?$_Uninitialized_backout_al@V?$allocator@UH3CreatureBankSetup@h3@@@std@@@std@@QAE@XZ 100461a0 f   CreatureBanksExtender.obj
 0001:000451a0       __ehhandler$??1H3CreatureBankSetup@h3@@QAE@XZ 100461a0 f   CreatureBanksExtender.obj
 0001:000451a0       __ehhandler$??1?$basic_ios@DU?$char_traits@D@std@@@std@@UAE@XZ 100461a0 f   ObjectsExtender.obj
 0001:000451a0       __ehhandler$??1sentry@?$basic_istream@DU?$char_traits@D@std@@@std@@QAE@XZ 100461a0 f   ObjectsExtender.obj
 0001:000451a0       __ehhandler$??1sentry@?$basic_ostream@DU?$char_traits@D@std@@@std@@QAE@XZ 100461a0 f   ObjectsExtender.obj
 0001:000451a0       __ehhandler$??_D?$basic_istringstream@DU?$char_traits@D@std@@V?$allocator@D@2@@std@@QAEXXZ 100461a0 f   ObjectsExtender.obj
 0001:000451a0       __ehhandler$??_G?$basic_ios@DU?$char_traits@D@std@@@std@@UAEPAXI@Z 100461a0 f   ObjectsExtender.obj
 0001:000451a0       __ehhandler$??_G?$basic_istream@DU?$char_traits@D@std@@@std@@UAEPAXI@Z 100461a0 f   ObjectsExtender.obj
 0001:000451a0       __ehhandler$??_G?$basic_istringstream@DU?$char_traits@D@std@@V?$allocator@D@2@@std@@UAEPAXI@Z 100461a0 f   ObjectsExtender.obj
 0001:000451a0       __ehhandler$??_G?$ctype@D@std@@MAEPAXI@Z 100461a0 f   ObjectsExtender.obj
 0001:000451a0       __ehhandler$??_Gios_base@std@@UAEPAXI@Z 100461a0 f   ObjectsExtender.obj
 0001:000451a0       __ehhandler$??1?$H3Vector@PAUH3RmgObjectGenerator@h3@@@h3@@QAE@XZ 100461a0 f   RMGObjectsEditor.obj
 0001:000451a0       __ehhandler$??_GRMGObjectsEditor@editor@@EAEPAXI@Z 100461a0 f   RMGObjectsEditor.obj
 0001:000451a0       __ehhandler$??$_Destroy_range@V?$allocator@U?$pair@UH3ObjectAttributes@h3@@PAUH3LoadedPcx16@2@@std@@@std@@@std@@YAXPAU?$pair@UH3ObjectAttributes@h3@@PAUH3LoadedPcx16@2@@0@QAU10@AAV?$allocator@U?$pair@UH3ObjectAttributes@h3@@PAUH3LoadedPcx16@2@@std@@@0@@Z 100461a0 f   RMG_SettingsDlg.obj
 0001:000451a0       __ehhandler$??1?$_Uninitialized_backout_al@V?$allocator@U?$pair@UH3ObjectAttributes@h3@@PAUH3LoadedPcx16@2@@std@@@std@@@std@@QAE@XZ 100461a0 f   RMG_SettingsDlg.obj
 0001:000451a0       __ehhandler$??1?$pair@UH3ObjectAttributes@h3@@$$T@std@@QAE@XZ 100461a0 f   RMG_SettingsDlg.obj
 0001:000451a0       __ehhandler$??1H3Dlg@h3@@QAE@XZ 100461a0 f   RMG_SettingsDlg.obj
 0001:000451a0       __ehhandler$??1H3NetworkDlg@h3@@QAE@XZ 100461a0 f   RMG_SettingsDlg.obj
 0001:000451a0       __ehhandler$??_GRMG_SettingsDlg@rmgdlg@@EAEPAXI@Z 100461a0 f   RMG_SettingsDlg.obj
 0001:000451a0       __ehhandler$?_Tidy@?$vector@U?$pair@UH3ObjectAttributes@h3@@PAUH3LoadedPcx16@2@@std@@V?$allocator@U?$pair@UH3ObjectAttributes@h3@@PAUH3LoadedPcx16@2@@std@@@2@@std@@AAEXXZ 100461a0 f   RMG_SettingsDlg.obj
 0001:000451b0       __unwindfunclet$??$emplace@H@?$_Hash@V?$_Uset_traits@HV?$_Uhash_compare@HU?$hash@H@std@@U?$equal_to@H@2@@std@@V?$allocator@H@2@$0A@@std@@@std@@QAE?AU?$pair@V?$_List_const_iterator@V?$_List_val@U?$_List_simple_types@H@std@@@std@@@std@@_N@1@$$QAH@Z$1 100461b0 f   CreatureBanksExtender.obj
 0001:000451b0       __unwindfunclet$??$emplace@I@?$_Hash@V?$_Uset_traits@IV?$_Uhash_compare@IU?$hash@I@std@@U?$equal_to@I@2@@std@@V?$allocator@I@2@$0A@@std@@@std@@QAE?AU?$pair@V?$_List_const_iterator@V?$_List_val@U?$_List_simple_types@I@std@@@std@@@std@@_N@1@$$QAI@Z$1 100461b0 f   RMGObjectsEditor.obj
 0001:000451b0       __unwindfunclet$??$emplace@E@?$_Hash@V?$_Uset_traits@EV?$_Uhash_compare@EU?$hash@E@std@@U?$equal_to@E@2@@std@@V?$allocator@E@2@$0A@@std@@@std@@QAE?AU?$pair@V?$_List_const_iterator@V?$_List_val@U?$_List_simple_types@E@std@@@std@@@std@@_N@1@$$QAE@Z$1 100461b0 f   UniversityExtender.obj
 0001:000451b8       __unwindfunclet$??$emplace@H@?$_Hash@V?$_Uset_traits@HV?$_Uhash_compare@HU?$hash@H@std@@U?$equal_to@H@2@@std@@V?$allocator@H@2@$0A@@std@@@std@@QAE?AU?$pair@V?$_List_const_iterator@V?$_List_val@U?$_List_simple_types@H@std@@@std@@@std@@_N@1@$$QAH@Z$0 100461b8 f   CreatureBanksExtender.obj
 0001:000451b8       __unwindfunclet$??$emplace@I@?$_Hash@V?$_Uset_traits@IV?$_Uhash_compare@IU?$hash@I@std@@U?$equal_to@I@2@@std@@V?$allocator@I@2@$0A@@std@@@std@@QAE?AU?$pair@V?$_List_const_iterator@V?$_List_val@U?$_List_simple_types@I@std@@@std@@@std@@_N@1@$$QAI@Z$0 100461b8 f   RMGObjectsEditor.obj
 0001:000451b8       __unwindfunclet$??$emplace@E@?$_Hash@V?$_Uset_traits@EV?$_Uhash_compare@EU?$hash@E@std@@U?$equal_to@E@2@@std@@V?$allocator@E@2@$0A@@std@@@std@@QAE?AU?$pair@V?$_List_const_iterator@V?$_List_val@U?$_List_simple_types@E@std@@@std@@@std@@_N@1@$$QAE@Z$0 100461b8 f   UniversityExtender.obj
 0001:000451c5       __ehhandler$??$emplace@H@?$_Hash@V?$_Uset_traits@HV?$_Uhash_compare@HU?$hash@H@std@@U?$equal_to@H@2@@std@@V?$allocator@H@2@$0A@@std@@@std@@QAE?AU?$pair@V?$_List_const_iterator@V?$_List_val@U?$_List_simple_types@H@std@@@std@@@std@@_N@1@$$QAH@Z 100461c5 f   CreatureBanksExtender.obj
 0001:000451c5       __ehhandler$??$emplace@I@?$_Hash@V?$_Uset_traits@IV?$_Uhash_compare@IU?$hash@I@std@@U?$equal_to@I@2@@std@@V?$allocator@I@2@$0A@@std@@@std@@QAE?AU?$pair@V?$_List_const_iterator@V?$_List_val@U?$_List_simple_types@I@std@@@std@@@std@@_N@1@$$QAI@Z 100461c5 f   RMGObjectsEditor.obj
 0001:000451c5       __ehhandler$??$emplace@E@?$_Hash@V?$_Uset_traits@EV?$_Uhash_compare@EU?$hash@E@std@@U?$equal_to@E@2@@std@@V?$allocator@E@2@$0A@@std@@@std@@QAE?AU?$pair@V?$_List_const_iterator@V?$_List_val@U?$_List_simple_types@E@std@@@std@@@std@@_N@1@$$QAE@Z 100461c5 f   UniversityExtender.obj
 0001:000451e0       __unwindfunclet$??$_Reallocate@$00@?$vector@UH3CreatureBankSetup@h3@@V?$allocator@UH3CreatureBankSetup@h3@@@std@@@std@@AAEXAAI@Z$2 100461e0 f   CreatureBanksExtender.obj
 0001:000451e0       __unwindfunclet$??$_Reallocate@$0A@@?$vector@UH3CreatureBankSetup@h3@@V?$allocator@UH3CreatureBankSetup@h3@@@std@@@std@@AAEXAAI@Z$2 100461e0 f   CreatureBanksExtender.obj
 0001:000451ed       __ehhandler$??$_Reallocate@$00@?$vector@UH3CreatureBankSetup@h3@@V?$allocator@UH3CreatureBankSetup@h3@@@std@@@std@@AAEXAAI@Z 100461ed f   CreatureBanksExtender.obj
 0001:000451ed       __ehhandler$??$_Reallocate@$0A@@?$vector@UH3CreatureBankSetup@h3@@V?$allocator@UH3CreatureBankSetup@h3@@@std@@@std@@AAEXAAI@Z 100461ed f   CreatureBanksExtender.obj
 0001:00045200       __ehhandler$??$_Emplace_reallocate@AAUH3CreatureBankSetup@h3@@@?$vector@UH3CreatureBankSetup@h3@@V?$allocator@UH3CreatureBankSetup@h3@@@std@@@std@@AAEPAUH3CreatureBankSetup@h3@@QAU23@AAU23@@Z 10046200 f   CreatureBanksExtender.obj
 0001:00045210       __unwindfunclet$??$_Uninitialized_copy@PAUH3CreatureBankSetup@h3@@PAU12@V?$allocator@UH3CreatureBankSetup@h3@@@std@@@std@@YAPAUH3CreatureBankSetup@h3@@PAU12@00AAV?$allocator@UH3CreatureBankSetup@h3@@@0@@Z$0 10046210 f   CreatureBanksExtender.obj
 0001:00045210       __unwindfunclet$??$_Uninitialized_value_construct_n@V?$allocator@UH3CreatureBankSetup@h3@@@std@@@std@@YAPAUH3CreatureBankSetup@h3@@PAU12@IAAV?$allocator@UH3CreatureBankSetup@h3@@@0@@Z$0 10046210 f   CreatureBanksExtender.obj
 0001:0004521d       __ehhandler$??$_Uninitialized_copy@PAUH3CreatureBankSetup@h3@@PAU12@V?$allocator@UH3CreatureBankSetup@h3@@@std@@@std@@YAPAUH3CreatureBankSetup@h3@@PAU12@00AAV?$allocator@UH3CreatureBankSetup@h3@@@0@@Z 1004621d f   CreatureBanksExtender.obj
 0001:0004521d       __ehhandler$??$_Uninitialized_value_construct_n@V?$allocator@UH3CreatureBankSetup@h3@@@std@@@std@@YAPAUH3CreatureBankSetup@h3@@PAU12@IAAV?$allocator@UH3CreatureBankSetup@h3@@@0@@Z 1004621d f   CreatureBanksExtender.obj
 0001:00045230       __unwindfunclet$??$_Resize_reallocate@U_Value_init_tag@std@@@?$vector@UH3CreatureBankSetup@h3@@V?$allocator@UH3CreatureBankSetup@h3@@@std@@@std@@AAEXIABU_Value_init_tag@1@@Z$2 10046230 f   CreatureBanksExtender.obj
 0001:0004523d       __ehhandler$??$_Resize_reallocate@U_Value_init_tag@std@@@?$vector@UH3CreatureBankSetup@h3@@V?$allocator@UH3CreatureBankSetup@h3@@@std@@@std@@AAEXIABU_Value_init_tag@1@@Z 1004623d f   CreatureBanksExtender.obj
 0001:00045250       __ehhandler$?Reserve@?$H3Vector@UH3PictureCategories@h3@@@h3@@QAEHI@Z 10046250 f   CreatureBanksExtender.obj
 0001:00045250       __ehhandler$?Reserve@?$H3Vector@V?$array@H$01@std@@@h3@@QAEHI@Z 10046250 f   CreatureBanksExtender.obj
 0001:00045250       __ehhandler$?Reserve@?$H3Vector@PAUH3RmgObjectGenerator@h3@@@h3@@QAEHI@Z 10046250 f   ObjectsExtender.obj
 0001:00045250       __ehhandler$?Reserve@?$H3Vector@PBD@h3@@QAEHI@Z 10046250 f   ObjectsExtender.obj
 0001:00045250       __ehhandler$?Reserve@?$H3Vector@H@h3@@QAEHI@Z 10046250 f   RMG_SettingsDlg.obj
 0001:00045250       __ehhandler$?Reserve@?$H3Vector@PAUH3DlgItem@h3@@@h3@@QAEHI@Z 10046250 f   RMG_SettingsDlg.obj
 0001:00045260       __ehhandler$??$_Uninitialized_move@PAUH3CreatureBankSetup@h3@@V?$allocator@UH3CreatureBankSetup@h3@@@std@@@std@@YAPAUH3CreatureBankSetup@h3@@QAU12@0PAU12@AAV?$allocator@UH3CreatureBankSetup@h3@@@0@@Z 10046260 f   CreatureBanksExtender.obj
 0001:00045270       __unwindfunclet$??0_System_error@std@@IAE@Verror_code@1@ABV?$basic_string@DU?$char_traits@D@std@@V?$allocator@D@2@@1@@Z$3 10046270 f   ObjectsExtender.obj
 0001:00045278       __unwindfunclet$??0_System_error@std@@IAE@Verror_code@1@ABV?$basic_string@DU?$char_traits@D@std@@V?$allocator@D@2@@1@@Z$4 10046278 f   ObjectsExtender.obj
 0001:00045285       __ehhandler$??0_System_error@std@@IAE@Verror_code@1@ABV?$basic_string@DU?$char_traits@D@std@@V?$allocator@D@2@@1@@Z 10046285 f   ObjectsExtender.obj
 0001:000452a0       __unwindfunclet$?_Getcat@?$ctype@D@std@@SAIPAPBVfacet@locale@2@PBV42@@Z$0 100462a0 f   ObjectsExtender.obj
 0001:000452af       __unwindfunclet$?_Getcat@?$ctype@D@std@@SAIPAPBVfacet@locale@2@PBV42@@Z$2 100462af f   ObjectsExtender.obj
 0001:000452b7       __unwindfunclet$?_Getcat@?$ctype@D@std@@SAIPAPBVfacet@locale@2@PBV42@@Z$3 100462b7 f   ObjectsExtender.obj
 0001:000452bf       __unwindfunclet$?_Getcat@?$ctype@D@std@@SAIPAPBVfacet@locale@2@PBV42@@Z$4 100462bf f   ObjectsExtender.obj
 0001:000452c7       __unwindfunclet$?_Getcat@?$ctype@D@std@@SAIPAPBVfacet@locale@2@PBV42@@Z$5 100462c7 f   ObjectsExtender.obj
 0001:000452cf       __unwindfunclet$?_Getcat@?$ctype@D@std@@SAIPAPBVfacet@locale@2@PBV42@@Z$6 100462cf f   ObjectsExtender.obj
 0001:000452d7       __unwindfunclet$?_Getcat@?$ctype@D@std@@SAIPAPBVfacet@locale@2@PBV42@@Z$7 100462d7 f   ObjectsExtender.obj
 0001:000452df       __unwindfunclet$?_Getcat@?$ctype@D@std@@SAIPAPBVfacet@locale@2@PBV42@@Z$8 100462df f   ObjectsExtender.obj
 0001:000452ec       __ehhandler$?_Getcat@?$ctype@D@std@@SAIPAPBVfacet@locale@2@PBV42@@Z 100462ec f   ObjectsExtender.obj
 0001:00045300       __unwindfunclet$??0failure@ios_base@std@@QAE@PBDABVerror_code@2@@Z$1 10046300 f   ObjectsExtender.obj
 0001:0004530d       __ehhandler$??0failure@ios_base@std@@QAE@PBDABVerror_code@2@@Z 1004630d f   ObjectsExtender.obj
 0001:00045320       __unwindfunclet$?GetEraModList@modList@@YAHAAV?$vector@V?$basic_string@DU?$char_traits@D@std@@V?$allocator@D@2@@std@@V?$allocator@V?$basic_string@DU?$char_traits@D@std@@V?$allocator@D@2@@std@@@2@@std@@H@Z$26 10046320 f   ObjectsExtender.obj
 0001:00045328       __unwindfunclet$?GetEraModList@modList@@YAHAAV?$vector@V?$basic_string@DU?$char_traits@D@std@@V?$allocator@D@2@@std@@V?$allocator@V?$basic_string@DU?$char_traits@D@std@@V?$allocator@D@2@@std@@@2@@std@@H@Z$0 10046328 f   ObjectsExtender.obj
 0001:00045330       __unwindfunclet$?GetEraModList@modList@@YAHAAV?$vector@V?$basic_string@DU?$char_traits@D@std@@V?$allocator@D@2@@std@@V?$allocator@V?$basic_string@DU?$char_traits@D@std@@V?$allocator@D@2@@std@@@2@@std@@H@Z$1 10046330 f   ObjectsExtender.obj
 0001:0004533b       __unwindfunclet$?GetEraModList@modList@@YAHAAV?$vector@V?$basic_string@DU?$char_traits@D@std@@V?$allocator@D@2@@std@@V?$allocator@V?$basic_string@DU?$char_traits@D@std@@V?$allocator@D@2@@std@@@2@@std@@H@Z$2 1004633b f   ObjectsExtender.obj
 0001:00045343       __unwindfunclet$?GetEraModList@modList@@YAHAAV?$vector@V?$basic_string@DU?$char_traits@D@std@@V?$allocator@D@2@@std@@V?$allocator@V?$basic_string@DU?$char_traits@D@std@@V?$allocator@D@2@@std@@@2@@std@@H@Z$7 10046343 f   ObjectsExtender.obj
 0001:0004534b       __unwindfunclet$?GetEraModList@modList@@YAHAAV?$vector@V?$basic_string@DU?$char_traits@D@std@@V?$allocator@D@2@@std@@V?$allocator@V?$basic_string@DU?$char_traits@D@std@@V?$allocator@D@2@@std@@@2@@std@@H@Z$3 1004634b f   ObjectsExtender.obj
 0001:00045358       __ehhandler$?GetEraModList@modList@@YAHAAV?$vector@V?$basic_string@DU?$char_traits@D@std@@V?$allocator@D@2@@std@@V?$allocator@V?$basic_string@DU?$char_traits@D@std@@V?$allocator@D@2@@std@@@2@@std@@H@Z 10046358 f   ObjectsExtender.obj
 0001:00045370       __unwindfunclet$??__E?additionalPropertiesMap@ObjectProperty@extender@@2V?$unordered_map@V?$basic_string@DU?$char_traits@D@std@@V?$allocator@D@2@@std@@V12@U?$hash@V?$basic_string@DU?$char_traits@D@std@@V?$allocator@D@2@@std@@@2@U?$equal_to@V?$basic_string@DU?$char_traits@D@std@@V?$allocator@D@2@@std@@@2@V?$allocator@U?$pair@$$CBV?$basic_string@DU?$char_traits@D@std@@V?$allocator@D@2@@std@@V12@@std@@@2@@std@@A@@YAXXZ$1 10046370 f   ObjectsExtender.obj
 0001:0004537a       __unwindfunclet$??__E?additionalPropertiesMap@ObjectProperty@extender@@2V?$unordered_map@V?$basic_string@DU?$char_traits@D@std@@V?$allocator@D@2@@std@@V12@U?$hash@V?$basic_string@DU?$char_traits@D@std@@V?$allocator@D@2@@std@@@2@U?$equal_to@V?$basic_string@DU?$char_traits@D@std@@V?$allocator@D@2@@std@@@2@V?$allocator@U?$pair@$$CBV?$basic_string@DU?$char_traits@D@std@@V?$allocator@D@2@@std@@V12@@std@@@2@@std@@A@@YAXXZ$2 1004637a f   ObjectsExtender.obj
 0001:00045389       __ehhandler$??__E?additionalPropertiesMap@ObjectProperty@extender@@2V?$unordered_map@V?$basic_string@DU?$char_traits@D@std@@V?$allocator@D@2@@std@@V12@U?$hash@V?$basic_string@DU?$char_traits@D@std@@V?$allocator@D@2@@std@@@2@U?$equal_to@V?$basic_string@DU?$char_traits@D@std@@V?$allocator@D@2@@std@@@2@V?$allocator@U?$pair@$$CBV?$basic_string@DU?$char_traits@D@std@@V?$allocator@D@2@@std@@V12@@std@@@2@@std@@A@@YAXXZ 10046389 f   ObjectsExtender.obj
 0001:000453a0       __unwindfunclet$??0?$basic_istringstream@DU?$char_traits@D@std@@V?$allocator@D@2@@std@@QAE@ABV?$basic_string@DU?$char_traits@D@std@@V?$allocator@D@2@@1@H@Z$0 100463a0 f   ObjectsExtender.obj
 0001:000453bc       __unwindfunclet$??0?$basic_istringstream@DU?$char_traits@D@std@@V?$allocator@D@2@@std@@QAE@ABV?$basic_string@DU?$char_traits@D@std@@V?$allocator@D@2@@1@H@Z$5 100463bc f   ObjectsExtender.obj
 0001:000453c4       __unwindfunclet$??0?$basic_istringstream@DU?$char_traits@D@std@@V?$allocator@D@2@@std@@QAE@ABV?$basic_string@DU?$char_traits@D@std@@V?$allocator@D@2@@1@H@Z$1 100463c4 f   ObjectsExtender.obj
 0001:000453cf       __unwindfunclet$??0?$basic_istringstream@DU?$char_traits@D@std@@V?$allocator@D@2@@std@@QAE@ABV?$basic_string@DU?$char_traits@D@std@@V?$allocator@D@2@@1@H@Z$7 100463cf f   ObjectsExtender.obj
 0001:000453dc       __ehhandler$??0?$basic_istringstream@DU?$char_traits@D@std@@V?$allocator@D@2@@std@@QAE@ABV?$basic_string@DU?$char_traits@D@std@@V?$allocator@D@2@@1@H@Z 100463dc f   ObjectsExtender.obj
 0001:000453f0       __unwindfunclet$??$use_facet@V?$ctype@D@std@@@std@@YAABV?$ctype@D@0@ABVlocale@0@@Z$0 100463f0 f   ObjectsExtender.obj
 0001:000453f8       __unwindfunclet$??$use_facet@V?$ctype@D@std@@@std@@YAABV?$ctype@D@0@ABVlocale@0@@Z$1 100463f8 f   ObjectsExtender.obj
 0001:00045405       __ehhandler$??$use_facet@V?$ctype@D@std@@@std@@YAABV?$ctype@D@0@ABVlocale@0@@Z 10046405 f   ObjectsExtender.obj
 0001:00045420       __unwindfunclet$??$getline@DU?$char_traits@D@std@@V?$allocator@D@2@@std@@YAAAV?$basic_istream@DU?$char_traits@D@std@@@0@AAV10@AAV?$basic_string@DU?$char_traits@D@std@@V?$allocator@D@2@@0@@Z$0 10046420 f   ObjectsExtender.obj
 0001:0004542d       __ehhandler$??$getline@DU?$char_traits@D@std@@V?$allocator@D@2@@std@@YAAAV?$basic_istream@DU?$char_traits@D@std@@@0@AAV10@AAV?$basic_string@DU?$char_traits@D@std@@V?$allocator@D@2@@0@@Z 1004642d f   ObjectsExtender.obj
 0001:00045440       __unwindfunclet$??$?5DU?$char_traits@D@std@@V?$allocator@D@1@@std@@YAAAV?$basic_istream@DU?$char_traits@D@std@@@0@AAV10@AAV?$basic_string@DU?$char_traits@D@std@@V?$allocator@D@2@@0@@Z$6 10046440 f   ObjectsExtender.obj
 0001:00045448       __unwindfunclet$??$?5DU?$char_traits@D@std@@V?$allocator@D@1@@std@@YAAAV?$basic_istream@DU?$char_traits@D@std@@@0@AAV10@AAV?$basic_string@DU?$char_traits@D@std@@V?$allocator@D@2@@0@@Z$2 10046448 f   ObjectsExtender.obj
 0001:00045450       __unwindfunclet$??$?5DU?$char_traits@D@std@@V?$allocator@D@1@@std@@YAAAV?$basic_istream@DU?$char_traits@D@std@@@0@AAV10@AAV?$basic_string@DU?$char_traits@D@std@@V?$allocator@D@2@@0@@Z$3 10046450 f   ObjectsExtender.obj
 0001:0004545d       __ehhandler$??$?5DU?$char_traits@D@std@@V?$allocator@D@1@@std@@YAAAV?$basic_istream@DU?$char_traits@D@std@@@0@AAV10@AAV?$basic_string@DU?$char_traits@D@std@@V?$allocator@D@2@@0@@Z 1004645d f   ObjectsExtender.obj
 0001:00045470       __unwindfunclet$??$emplace@URMGObjectSetable@extender@@@?$_Hash@V?$_Uset_traits@URMGObjectSetable@extender@@V?$_Uhash_compare@URMGObjectSetable@extender@@UHashFunction@12@U?$equal_to@URMGObjectSetable@extender@@@std@@@std@@V?$allocator@URMGObjectSetable@extender@@@4@$0A@@std@@@std@@QAE?AU?$pair@V?$_List_const_iterator@V?$_List_val@U?$_List_simple_types@URMGObjectSetable@extender@@@std@@@std@@@std@@_N@1@$$QAURMGObjectSetable@extender@@@Z$1 10046470 f   ObjectsExtender.obj
 0001:00045470       __unwindfunclet$??$emplace@U?$pair@KH@std@@@?$_Hash@V?$_Umap_traits@KHV?$_Uhash_compare@KU?$hash@K@std@@U?$equal_to@K@2@@std@@V?$allocator@U?$pair@$$CBKH@std@@@2@$0A@@std@@@std@@QAE?AU?$pair@V?$_List_iterator@V?$_List_val@U?$_List_simple_types@U?$pair@$$CBKH@std@@@std@@@std@@@std@@_N@1@$$QAU?$pair@KH@1@@Z$1 10046470 f   SoundManager.obj
 0001:00045478       __unwindfunclet$??$emplace@URMGObjectSetable@extender@@@?$_Hash@V?$_Uset_traits@URMGObjectSetable@extender@@V?$_Uhash_compare@URMGObjectSetable@extender@@UHashFunction@12@U?$equal_to@URMGObjectSetable@extender@@@std@@@std@@V?$allocator@URMGObjectSetable@extender@@@4@$0A@@std@@@std@@QAE?AU?$pair@V?$_List_const_iterator@V?$_List_val@U?$_List_simple_types@URMGObjectSetable@extender@@@std@@@std@@@std@@_N@1@$$QAURMGObjectSetable@extender@@@Z$0 10046478 f   ObjectsExtender.obj
 0001:00045478       __unwindfunclet$??$emplace@U?$pair@KH@std@@@?$_Hash@V?$_Umap_traits@KHV?$_Uhash_compare@KU?$hash@K@std@@U?$equal_to@K@2@@std@@V?$allocator@U?$pair@$$CBKH@std@@@2@$0A@@std@@@std@@QAE?AU?$pair@V?$_List_iterator@V?$_List_val@U?$_List_simple_types@U?$pair@$$CBKH@std@@@std@@@std@@@std@@_N@1@$$QAU?$pair@KH@1@@Z$0 10046478 f   SoundManager.obj
 0001:00045485       __ehhandler$??$emplace@URMGObjectSetable@extender@@@?$_Hash@V?$_Uset_traits@URMGObjectSetable@extender@@V?$_Uhash_compare@URMGObjectSetable@extender@@UHashFunction@12@U?$equal_to@URMGObjectSetable@extender@@@std@@@std@@V?$allocator@URMGObjectSetable@extender@@@4@$0A@@std@@@std@@QAE?AU?$pair@V?$_List_const_iterator@V?$_List_val@U?$_List_simple_types@URMGObjectSetable@extender@@@std@@@std@@@std@@_N@1@$$QAURMGObjectSetable@extender@@@Z 10046485 f   ObjectsExtender.obj
 0001:00045485       __ehhandler$??$emplace@U?$pair@KH@std@@@?$_Hash@V?$_Umap_traits@KHV?$_Uhash_compare@KU?$hash@K@std@@U?$equal_to@K@2@@std@@V?$allocator@U?$pair@$$CBKH@std@@@2@$0A@@std@@@std@@QAE?AU?$pair@V?$_List_iterator@V?$_List_val@U?$_List_simple_types@U?$pair@$$CBKH@std@@@std@@@std@@@std@@_N@1@$$QAU?$pair@KH@1@@Z 10046485 f   SoundManager.obj
 0001:000454a0       __unwindfunclet$?_Ipfx@?$basic_istream@DU?$char_traits@D@std@@@std@@QAE_N_N@Z$2 100464a0 f   ObjectsExtender.obj
 0001:000454ad       __ehhandler$?_Ipfx@?$basic_istream@DU?$char_traits@D@std@@@std@@QAE_N_N@Z 100464ad f   ObjectsExtender.obj
 0001:000454c0       __unwindfunclet$?flush@?$basic_ostream@DU?$char_traits@D@std@@@std@@QAEAAV12@XZ$3 100464c0 f   ObjectsExtender.obj
 0001:000454c8       __unwindfunclet$?flush@?$basic_ostream@DU?$char_traits@D@std@@@std@@QAEAAV12@XZ$2 100464c8 f   ObjectsExtender.obj
 0001:000454d5       __ehhandler$?flush@?$basic_ostream@DU?$char_traits@D@std@@@std@@QAEAAV12@XZ 100464d5 f   ObjectsExtender.obj
 0001:000454f0       __ehhandler$?_Osfx@?$basic_ostream@DU?$char_traits@D@std@@@std@@QAEXXZ 100464f0 f   ObjectsExtender.obj
 0001:00045500       __unwindfunclet$??$getline@DU?$char_traits@D@std@@V?$allocator@D@2@@std@@YAAAV?$basic_istream@DU?$char_traits@D@std@@@0@$$QAV10@AAV?$basic_string@DU?$char_traits@D@std@@V?$allocator@D@2@@0@D@Z$5 10046500 f   ObjectsExtender.obj
 0001:00045508       __unwindfunclet$??$getline@DU?$char_traits@D@std@@V?$allocator@D@2@@std@@YAAAV?$basic_istream@DU?$char_traits@D@std@@@0@$$QAV10@AAV?$basic_string@DU?$char_traits@D@std@@V?$allocator@D@2@@0@D@Z$2 10046508 f   ObjectsExtender.obj
 0001:00045515       __ehhandler$??$getline@DU?$char_traits@D@std@@V?$allocator@D@2@@std@@YAAAV?$basic_istream@DU?$char_traits@D@std@@@0@$$QAV10@AAV?$basic_string@DU?$char_traits@D@std@@V?$allocator@D@2@@0@D@Z 10046515 f   ObjectsExtender.obj
 0001:00045530       __ehhandler$??$_Emplace_reallocate@AAV?$basic_string@DU?$char_traits@D@std@@V?$allocator@D@2@@std@@@?$vector@V?$basic_string@DU?$char_traits@D@std@@V?$allocator@D@2@@std@@V?$allocator@V?$basic_string@DU?$char_traits@D@std@@V?$allocator@D@2@@std@@@2@@std@@AAEPAV?$basic_string@DU?$char_traits@D@std@@V?$allocator@D@2@@1@QAV21@AAV21@@Z 10046530 f   ObjectsExtender.obj
 0001:00045540       __unwindfunclet$??$emplace@U?$pair@V?$basic_string@DU?$char_traits@D@std@@V?$allocator@D@2@@std@@V12@@std@@@?$_Hash@V?$_Umap_traits@V?$basic_string@DU?$char_traits@D@std@@V?$allocator@D@2@@std@@V12@V?$_Uhash_compare@V?$basic_string@DU?$char_traits@D@std@@V?$allocator@D@2@@std@@U?$hash@V?$basic_string@DU?$char_traits@D@std@@V?$allocator@D@2@@std@@@2@U?$equal_to@V?$basic_string@DU?$char_traits@D@std@@V?$allocator@D@2@@std@@@2@@2@V?$allocator@U?$pair@$$CBV?$basic_string@DU?$char_traits@D@std@@V?$allocator@D@2@@std@@V12@@std@@@2@$0A@@std@@@std@@QAE?AU?$pair@V?$_List_iterator@V?$_List_val@U?$_List_simple_types@U?$pair@$$CBV?$basic_string@DU?$char_traits@D@std@@V?$allocator@D@2@@std@@V12@@std@@@std@@@std@@@std@@_N@1@$$QAU?$pair@V?$basic_string@DU?$char_traits@D@std@@V?$allocator@D@2@@std@@V12@@1@@Z$1 10046540 f   ObjectsExtender.obj
 0001:00045548       __unwindfunclet$??$emplace@U?$pair@V?$basic_string@DU?$char_traits@D@std@@V?$allocator@D@2@@std@@V12@@std@@@?$_Hash@V?$_Umap_traits@V?$basic_string@DU?$char_traits@D@std@@V?$allocator@D@2@@std@@V12@V?$_Uhash_compare@V?$basic_string@DU?$char_traits@D@std@@V?$allocator@D@2@@std@@U?$hash@V?$basic_string@DU?$char_traits@D@std@@V?$allocator@D@2@@std@@@2@U?$equal_to@V?$basic_string@DU?$char_traits@D@std@@V?$allocator@D@2@@std@@@2@@2@V?$allocator@U?$pair@$$CBV?$basic_string@DU?$char_traits@D@std@@V?$allocator@D@2@@std@@V12@@std@@@2@$0A@@std@@@std@@QAE?AU?$pair@V?$_List_iterator@V?$_List_val@U?$_List_simple_types@U?$pair@$$CBV?$basic_string@DU?$char_traits@D@std@@V?$allocator@D@2@@std@@V12@@std@@@std@@@std@@@std@@_N@1@$$QAU?$pair@V?$basic_string@DU?$char_traits@D@std@@V?$allocator@D@2@@std@@V12@@1@@Z$0 10046548 f   ObjectsExtender.obj
 0001:00045555       __ehhandler$??$emplace@U?$pair@V?$basic_string@DU?$char_traits@D@std@@V?$allocator@D@2@@std@@V12@@std@@@?$_Hash@V?$_Umap_traits@V?$basic_string@DU?$char_traits@D@std@@V?$allocator@D@2@@std@@V12@V?$_Uhash_compare@V?$basic_string@DU?$char_traits@D@std@@V?$allocator@D@2@@std@@U?$hash@V?$basic_string@DU?$char_traits@D@std@@V?$allocator@D@2@@std@@@2@U?$equal_to@V?$basic_string@DU?$char_traits@D@std@@V?$allocator@D@2@@std@@@2@@2@V?$allocator@U?$pair@$$CBV?$basic_string@DU?$char_traits@D@std@@V?$allocator@D@2@@std@@V12@@std@@@2@$0A@@std@@@std@@QAE?AU?$pair@V?$_List_iterator@V?$_List_val@U?$_List_simple_types@U?$pair@$$CBV?$basic_string@DU?$char_traits@D@std@@V?$allocator@D@2@@std@@V12@@std@@@std@@@std@@@std@@_N@1@$$QAU?$pair@V?$basic_string@DU?$char_traits@D@std@@V?$allocator@D@2@@std@@V12@@1@@Z 10046555 f   ObjectsExtender.obj
 0001:00045570       __unwindfunclet$??$_Insert_range_unchecked@PAPBDPAPBD@?$_Hash@V?$_Uset_traits@PBDV?$_Uhash_compare@PBDU?$hash@PBD@std@@U?$equal_to@PBD@2@@std@@V?$allocator@PBD@2@$0A@@std@@@std@@IAEXPAPBDQAPBD@Z$1 10046570 f   ObjectsExtender.obj
 0001:00045578       __unwindfunclet$??$_Insert_range_unchecked@PAPBDPAPBD@?$_Hash@V?$_Uset_traits@PBDV?$_Uhash_compare@PBDU?$hash@PBD@std@@U?$equal_to@PBD@2@@std@@V?$allocator@PBD@2@$0A@@std@@@std@@IAEXPAPBDQAPBD@Z$0 10046578 f   ObjectsExtender.obj
 0001:00045585       __ehhandler$??$_Insert_range_unchecked@PAPBDPAPBD@?$_Hash@V?$_Uset_traits@PBDV?$_Uhash_compare@PBDU?$hash@PBD@std@@U?$equal_to@PBD@2@@std@@V?$allocator@PBD@2@$0A@@std@@@std@@IAEXPAPBDQAPBD@Z 10046585 f   ObjectsExtender.obj
 0001:000455a0       __ehhandler$??1PseudoH3RmgRandomMapGenerator@editor@@QAE@XZ 100465a0 f   RMGObjectsEditor.obj
 0001:000455b0       __ehhandler$??1?$H3Vector@UH3ObjectAttributes@h3@@@h3@@QAE@XZ 100465b0 f   RMGObjectsEditor.obj
 0001:000455c0       __unwindfunclet$?FrameRegion@H3LoadedPcx16@h3@@QAEHHHHHHHH@Z$0 100465c0 f   RMG_SettingsDlg.obj
 0001:000455c8       __unwindfunclet$?FrameRegion@H3LoadedPcx16@h3@@QAEHHHHHHHH@Z$1 100465c8 f   RMG_SettingsDlg.obj
 0001:000455d8       __ehhandler$?FrameRegion@H3LoadedPcx16@h3@@QAEHHHHHHHH@Z 100465d8 f   RMG_SettingsDlg.obj
 0001:000455f0       __unwindfunclet$??0H3Dlg@h3@@QAE@HHHHHHH@Z$0 100465f0 f   RMG_SettingsDlg.obj
 0001:000455fd       __ehhandler$??0H3Dlg@h3@@QAE@HHHHHHH@Z 100465fd f   RMG_SettingsDlg.obj
 0001:00045610       __unwindfunclet$?AddBackground@H3Dlg@h3@@QAEHHHHHHHHH@Z$2 10046610 f   RMG_SettingsDlg.obj
 0001:0004561d       __ehhandler$?AddBackground@H3Dlg@h3@@QAEHHHHHHHHH@Z 1004661d f   RMG_SettingsDlg.obj
 0001:00045630       __ehhandler$??$_Reallocate@$00@?$vector@U?$pair@UH3ObjectAttributes@h3@@PAUH3LoadedPcx16@2@@std@@V?$allocator@U?$pair@UH3ObjectAttributes@h3@@PAUH3LoadedPcx16@2@@std@@@2@@std@@AAEXAAI@Z 10046630 f   RMG_SettingsDlg.obj
 0001:00045630       __ehhandler$??$_Reallocate@$0A@@?$vector@U?$pair@UH3ObjectAttributes@h3@@PAUH3LoadedPcx16@2@@std@@V?$allocator@U?$pair@UH3ObjectAttributes@h3@@PAUH3LoadedPcx16@2@@std@@@2@@std@@AAEXAAI@Z 10046630 f   RMG_SettingsDlg.obj
 0001:00045640       __unwindfunclet$??$_Assign_counted_range@PAU?$pair@UH3ObjectAttributes@h3@@PAUH3LoadedPcx16@2@@std@@@?$vector@U?$pair@UH3ObjectAttributes@h3@@PAUH3LoadedPcx16@2@@std@@V?$allocator@U?$pair@UH3ObjectAttributes@h3@@PAUH3LoadedPcx16@2@@std@@@2@@std@@AAEXPAU?$pair@UH3ObjectAttributes@h3@@PAUH3LoadedPcx16@2@@1@I@Z$0 10046640 f   RMG_SettingsDlg.obj
 0001:00045648       __unwindfunclet$??$_Assign_counted_range@PAU?$pair@UH3ObjectAttributes@h3@@PAUH3LoadedPcx16@2@@std@@@?$vector@U?$pair@UH3ObjectAttributes@h3@@PAUH3LoadedPcx16@2@@std@@V?$allocator@U?$pair@UH3ObjectAttributes@h3@@PAUH3LoadedPcx16@2@@std@@@2@@std@@AAEXPAU?$pair@UH3ObjectAttributes@h3@@PAUH3LoadedPcx16@2@@1@I@Z$5 10046648 f   RMG_SettingsDlg.obj
 0001:00045655       __ehhandler$??$_Assign_counted_range@PAU?$pair@UH3ObjectAttributes@h3@@PAUH3LoadedPcx16@2@@std@@@?$vector@U?$pair@UH3ObjectAttributes@h3@@PAUH3LoadedPcx16@2@@std@@V?$allocator@U?$pair@UH3ObjectAttributes@h3@@PAUH3LoadedPcx16@2@@std@@@2@@std@@AAEXPAU?$pair@UH3ObjectAttributes@h3@@PAUH3LoadedPcx16@2@@1@I@Z 10046655 f   RMG_SettingsDlg.obj
 0001:00045670       __ehhandler$??$_Emplace_reallocate@ABUH3ObjectAttributes@h3@@ABQAUH3LoadedPcx16@2@@?$vector@VRMGObject@rmgdlg@@V?$allocator@VRMGObject@rmgdlg@@@std@@@std@@AAEPAVRMGObject@rmgdlg@@QAV23@ABUH3ObjectAttributes@h3@@ABQAUH3LoadedPcx16@5@@Z 10046670 f   RMG_SettingsDlg.obj
 0001:00045680       __ehhandler$??$_Emplace_reallocate@U?$pair@UH3ObjectAttributes@h3@@$$T@std@@@?$vector@U?$pair@UH3ObjectAttributes@h3@@PAUH3LoadedPcx16@2@@std@@V?$allocator@U?$pair@UH3ObjectAttributes@h3@@PAUH3LoadedPcx16@2@@std@@@2@@std@@AAEPAU?$pair@UH3ObjectAttributes@h3@@PAUH3LoadedPcx16@2@@1@QAU21@$$QAU?$pair@UH3ObjectAttributes@h3@@$$T@1@@Z 10046680 f   RMG_SettingsDlg.obj
 0001:00045690       __ehhandler$??$_Emplace_reallocate@AAU?$pair@UH3ObjectAttributes@h3@@PAUH3LoadedPcx16@2@@std@@@?$vector@U?$pair@UH3ObjectAttributes@h3@@PAUH3LoadedPcx16@2@@std@@V?$allocator@U?$pair@UH3ObjectAttributes@h3@@PAUH3LoadedPcx16@2@@std@@@2@@std@@AAEPAU?$pair@UH3ObjectAttributes@h3@@PAUH3LoadedPcx16@2@@1@QAU21@AAU21@@Z 10046690 f   RMG_SettingsDlg.obj
 0001:000456a0       __unwindfunclet$??$_Insertion_sort_unchecked@PAVRMGObject@rmgdlg@@V<lambda_1>@?1??SortRmgObjects@sorting@2@YAXAAV?$vector@VRMGObject@rmgdlg@@V?$allocator@VRMGObject@rmgdlg@@@std@@@std@@W4eSorting@52@_N@Z@@std@@YAPAVRMGObject@rmgdlg@@QAV12@0V<lambda_1>@?1??SortRmgObjects@sorting@2@YAXAAV?$vector@VRMGObject@rmgdlg@@V?$allocator@VRMGObject@rmgdlg@@@std@@@0@W4eSorting@52@_N@Z@@Z$0 100466a0 f   RMG_SettingsDlg.obj
 0001:000456a8       __unwindfunclet$??$_Insertion_sort_unchecked@PAVRMGObject@rmgdlg@@V<lambda_1>@?1??SortRmgObjects@sorting@2@YAXAAV?$vector@VRMGObject@rmgdlg@@V?$allocator@VRMGObject@rmgdlg@@@std@@@std@@W4eSorting@52@_N@Z@@std@@YAPAVRMGObject@rmgdlg@@QAV12@0V<lambda_1>@?1??SortRmgObjects@sorting@2@YAXAAV?$vector@VRMGObject@rmgdlg@@V?$allocator@VRMGObject@rmgdlg@@@std@@@0@W4eSorting@52@_N@Z@@Z$1 100466a8 f   RMG_SettingsDlg.obj
 0001:000456b0       __unwindfunclet$??$_Insertion_sort_unchecked@PAVRMGObject@rmgdlg@@V<lambda_1>@?1??SortRmgObjects@sorting@2@YAXAAV?$vector@VRMGObject@rmgdlg@@V?$allocator@VRMGObject@rmgdlg@@@std@@@std@@W4eSorting@52@_N@Z@@std@@YAPAVRMGObject@rmgdlg@@QAV12@0V<lambda_1>@?1??SortRmgObjects@sorting@2@YAXAAV?$vector@VRMGObject@rmgdlg@@V?$allocator@VRMGObject@rmgdlg@@@std@@@0@W4eSorting@52@_N@Z@@Z$22 100466b0 f   RMG_SettingsDlg.obj
 0001:000456b8       __unwindfunclet$??$_Insertion_sort_unchecked@PAVRMGObject@rmgdlg@@V<lambda_1>@?1??SortRmgObjects@sorting@2@YAXAAV?$vector@VRMGObject@rmgdlg@@V?$allocator@VRMGObject@rmgdlg@@@std@@@std@@W4eSorting@52@_N@Z@@std@@YAPAVRMGObject@rmgdlg@@QAV12@0V<lambda_1>@?1??SortRmgObjects@sorting@2@YAXAAV?$vector@VRMGObject@rmgdlg@@V?$allocator@VRMGObject@rmgdlg@@@std@@@0@W4eSorting@52@_N@Z@@Z$23 100466b8 f   RMG_SettingsDlg.obj
 0001:000456c5       __ehhandler$??$_Insertion_sort_unchecked@PAVRMGObject@rmgdlg@@V<lambda_1>@?1??SortRmgObjects@sorting@2@YAXAAV?$vector@VRMGObject@rmgdlg@@V?$allocator@VRMGObject@rmgdlg@@@std@@@std@@W4eSorting@52@_N@Z@@std@@YAPAVRMGObject@rmgdlg@@QAV12@0V<lambda_1>@?1??SortRmgObjects@sorting@2@YAXAAV?$vector@VRMGObject@rmgdlg@@V?$allocator@VRMGObject@rmgdlg@@@std@@@0@W4eSorting@52@_N@Z@@Z 100466c5 f   RMG_SettingsDlg.obj
 0001:000456e0       __unwindfunclet$??$_Make_heap_unchecked@PAVRMGObject@rmgdlg@@V<lambda_1>@?1??SortRmgObjects@sorting@2@YAXAAV?$vector@VRMGObject@rmgdlg@@V?$allocator@VRMGObject@rmgdlg@@@std@@@std@@W4eSorting@52@_N@Z@@std@@YAXPAVRMGObject@rmgdlg@@0V<lambda_1>@?1??SortRmgObjects@sorting@2@YAXAAV?$vector@VRMGObject@rmgdlg@@V?$allocator@VRMGObject@rmgdlg@@@std@@@0@W4eSorting@52@_N@Z@@Z$0 100466e0 f   RMG_SettingsDlg.obj
 0001:000456e8       __unwindfunclet$??$_Make_heap_unchecked@PAVRMGObject@rmgdlg@@V<lambda_1>@?1??SortRmgObjects@sorting@2@YAXAAV?$vector@VRMGObject@rmgdlg@@V?$allocator@VRMGObject@rmgdlg@@@std@@@std@@W4eSorting@52@_N@Z@@std@@YAXPAVRMGObject@rmgdlg@@0V<lambda_1>@?1??SortRmgObjects@sorting@2@YAXAAV?$vector@VRMGObject@rmgdlg@@V?$allocator@VRMGObject@rmgdlg@@@std@@@0@W4eSorting@52@_N@Z@@Z$1 100466e8 f   RMG_SettingsDlg.obj
 0001:000456f5       __ehhandler$??$_Make_heap_unchecked@PAVRMGObject@rmgdlg@@V<lambda_1>@?1??SortRmgObjects@sorting@2@YAXAAV?$vector@VRMGObject@rmgdlg@@V?$allocator@VRMGObject@rmgdlg@@@std@@@std@@W4eSorting@52@_N@Z@@std@@YAXPAVRMGObject@rmgdlg@@0V<lambda_1>@?1??SortRmgObjects@sorting@2@YAXAAV?$vector@VRMGObject@rmgdlg@@V?$allocator@VRMGObject@rmgdlg@@@std@@@0@W4eSorting@52@_N@Z@@Z 100466f5 f   RMG_SettingsDlg.obj
 0001:00045710       __unwindfunclet$??$_Partition_by_median_guess_unchecked@PAVRMGObject@rmgdlg@@V<lambda_1>@?1??SortRmgObjects@sorting@2@YAXAAV?$vector@VRMGObject@rmgdlg@@V?$allocator@VRMGObject@rmgdlg@@@std@@@std@@W4eSorting@52@_N@Z@@std@@YA?AU?$pair@PAVRMGObject@rmgdlg@@PAV12@@0@PAVRMGObject@rmgdlg@@0V<lambda_1>@?1??SortRmgObjects@sorting@3@YAXAAV?$vector@VRMGObject@rmgdlg@@V?$allocator@VRMGObject@rmgdlg@@@std@@@0@W4eSorting@63@_N@Z@@Z$88 10046710 f   RMG_SettingsDlg.obj
 0001:00045718       __unwindfunclet$??$_Partition_by_median_guess_unchecked@PAVRMGObject@rmgdlg@@V<lambda_1>@?1??SortRmgObjects@sorting@2@YAXAAV?$vector@VRMGObject@rmgdlg@@V?$allocator@VRMGObject@rmgdlg@@@std@@@std@@W4eSorting@52@_N@Z@@std@@YA?AU?$pair@PAVRMGObject@rmgdlg@@PAV12@@0@PAVRMGObject@rmgdlg@@0V<lambda_1>@?1??SortRmgObjects@sorting@3@YAXAAV?$vector@VRMGObject@rmgdlg@@V?$allocator@VRMGObject@rmgdlg@@@std@@@0@W4eSorting@63@_N@Z@@Z$89 10046718 f   RMG_SettingsDlg.obj
 0001:00045720       __unwindfunclet$??$_Partition_by_median_guess_unchecked@PAVRMGObject@rmgdlg@@V<lambda_1>@?1??SortRmgObjects@sorting@2@YAXAAV?$vector@VRMGObject@rmgdlg@@V?$allocator@VRMGObject@rmgdlg@@@std@@@std@@W4eSorting@52@_N@Z@@std@@YA?AU?$pair@PAVRMGObject@rmgdlg@@PAV12@@0@PAVRMGObject@rmgdlg@@0V<lambda_1>@?1??SortRmgObjects@sorting@3@YAXAAV?$vector@VRMGObject@rmgdlg@@V?$allocator@VRMGObject@rmgdlg@@@std@@@0@W4eSorting@63@_N@Z@@Z$132 10046720 f   RMG_SettingsDlg.obj
 0001:00045728       __unwindfunclet$??$_Partition_by_median_guess_unchecked@PAVRMGObject@rmgdlg@@V<lambda_1>@?1??SortRmgObjects@sorting@2@YAXAAV?$vector@VRMGObject@rmgdlg@@V?$allocator@VRMGObject@rmgdlg@@@std@@@std@@W4eSorting@52@_N@Z@@std@@YA?AU?$pair@PAVRMGObject@rmgdlg@@PAV12@@0@PAVRMGObject@rmgdlg@@0V<lambda_1>@?1??SortRmgObjects@sorting@3@YAXAAV?$vector@VRMGObject@rmgdlg@@V?$allocator@VRMGObject@rmgdlg@@@std@@@0@W4eSorting@63@_N@Z@@Z$133 10046728 f   RMG_SettingsDlg.obj
 0001:00045730       __unwindfunclet$??$_Partition_by_median_guess_unchecked@PAVRMGObject@rmgdlg@@V<lambda_1>@?1??SortRmgObjects@sorting@2@YAXAAV?$vector@VRMGObject@rmgdlg@@V?$allocator@VRMGObject@rmgdlg@@@std@@@std@@W4eSorting@52@_N@Z@@std@@YA?AU?$pair@PAVRMGObject@rmgdlg@@PAV12@@0@PAVRMGObject@rmgdlg@@0V<lambda_1>@?1??SortRmgObjects@sorting@3@YAXAAV?$vector@VRMGObject@rmgdlg@@V?$allocator@VRMGObject@rmgdlg@@@std@@@0@W4eSorting@63@_N@Z@@Z$110 10046730 f   RMG_SettingsDlg.obj
 0001:00045738       __unwindfunclet$??$_Partition_by_median_guess_unchecked@PAVRMGObject@rmgdlg@@V<lambda_1>@?1??SortRmgObjects@sorting@2@YAXAAV?$vector@VRMGObject@rmgdlg@@V?$allocator@VRMGObject@rmgdlg@@@std@@@std@@W4eSorting@52@_N@Z@@std@@YA?AU?$pair@PAVRMGObject@rmgdlg@@PAV12@@0@PAVRMGObject@rmgdlg@@0V<lambda_1>@?1??SortRmgObjects@sorting@3@YAXAAV?$vector@VRMGObject@rmgdlg@@V?$allocator@VRMGObject@rmgdlg@@@std@@@0@W4eSorting@63@_N@Z@@Z$111 10046738 f   RMG_SettingsDlg.obj
 0001:00045740       __unwindfunclet$??$_Partition_by_median_guess_unchecked@PAVRMGObject@rmgdlg@@V<lambda_1>@?1??SortRmgObjects@sorting@2@YAXAAV?$vector@VRMGObject@rmgdlg@@V?$allocator@VRMGObject@rmgdlg@@@std@@@std@@W4eSorting@52@_N@Z@@std@@YA?AU?$pair@PAVRMGObject@rmgdlg@@PAV12@@0@PAVRMGObject@rmgdlg@@0V<lambda_1>@?1??SortRmgObjects@sorting@3@YAXAAV?$vector@VRMGObject@rmgdlg@@V?$allocator@VRMGObject@rmgdlg@@@std@@@0@W4eSorting@63@_N@Z@@Z$154 10046740 f   RMG_SettingsDlg.obj
 0001:00045748       __unwindfunclet$??$_Partition_by_median_guess_unchecked@PAVRMGObject@rmgdlg@@V<lambda_1>@?1??SortRmgObjects@sorting@2@YAXAAV?$vector@VRMGObject@rmgdlg@@V?$allocator@VRMGObject@rmgdlg@@@std@@@std@@W4eSorting@52@_N@Z@@std@@YA?AU?$pair@PAVRMGObject@rmgdlg@@PAV12@@0@PAVRMGObject@rmgdlg@@0V<lambda_1>@?1??SortRmgObjects@sorting@3@YAXAAV?$vector@VRMGObject@rmgdlg@@V?$allocator@VRMGObject@rmgdlg@@@std@@@0@W4eSorting@63@_N@Z@@Z$155 10046748 f   RMG_SettingsDlg.obj
 0001:00045750       __unwindfunclet$??$_Partition_by_median_guess_unchecked@PAVRMGObject@rmgdlg@@V<lambda_1>@?1??SortRmgObjects@sorting@2@YAXAAV?$vector@VRMGObject@rmgdlg@@V?$allocator@VRMGObject@rmgdlg@@@std@@@std@@W4eSorting@52@_N@Z@@std@@YA?AU?$pair@PAVRMGObject@rmgdlg@@PAV12@@0@PAVRMGObject@rmgdlg@@0V<lambda_1>@?1??SortRmgObjects@sorting@3@YAXAAV?$vector@VRMGObject@rmgdlg@@V?$allocator@VRMGObject@rmgdlg@@@std@@@0@W4eSorting@63@_N@Z@@Z$44 10046750 f   RMG_SettingsDlg.obj
 0001:00045758       __unwindfunclet$??$_Partition_by_median_guess_unchecked@PAVRMGObject@rmgdlg@@V<lambda_1>@?1??SortRmgObjects@sorting@2@YAXAAV?$vector@VRMGObject@rmgdlg@@V?$allocator@VRMGObject@rmgdlg@@@std@@@std@@W4eSorting@52@_N@Z@@std@@YA?AU?$pair@PAVRMGObject@rmgdlg@@PAV12@@0@PAVRMGObject@rmgdlg@@0V<lambda_1>@?1??SortRmgObjects@sorting@3@YAXAAV?$vector@VRMGObject@rmgdlg@@V?$allocator@VRMGObject@rmgdlg@@@std@@@0@W4eSorting@63@_N@Z@@Z$45 10046758 f   RMG_SettingsDlg.obj
 0001:00045760       __unwindfunclet$??$_Partition_by_median_guess_unchecked@PAVRMGObject@rmgdlg@@V<lambda_1>@?1??SortRmgObjects@sorting@2@YAXAAV?$vector@VRMGObject@rmgdlg@@V?$allocator@VRMGObject@rmgdlg@@@std@@@std@@W4eSorting@52@_N@Z@@std@@YA?AU?$pair@PAVRMGObject@rmgdlg@@PAV12@@0@PAVRMGObject@rmgdlg@@0V<lambda_1>@?1??SortRmgObjects@sorting@3@YAXAAV?$vector@VRMGObject@rmgdlg@@V?$allocator@VRMGObject@rmgdlg@@@std@@@0@W4eSorting@63@_N@Z@@Z$66 10046760 f   RMG_SettingsDlg.obj
 0001:00045768       __unwindfunclet$??$_Partition_by_median_guess_unchecked@PAVRMGObject@rmgdlg@@V<lambda_1>@?1??SortRmgObjects@sorting@2@YAXAAV?$vector@VRMGObject@rmgdlg@@V?$allocator@VRMGObject@rmgdlg@@@std@@@std@@W4eSorting@52@_N@Z@@std@@YA?AU?$pair@PAVRMGObject@rmgdlg@@PAV12@@0@PAVRMGObject@rmgdlg@@0V<lambda_1>@?1??SortRmgObjects@sorting@3@YAXAAV?$vector@VRMGObject@rmgdlg@@V?$allocator@VRMGObject@rmgdlg@@@std@@@0@W4eSorting@63@_N@Z@@Z$67 10046768 f   RMG_SettingsDlg.obj
 0001:00045770       __unwindfunclet$??$_Partition_by_median_guess_unchecked@PAVRMGObject@rmgdlg@@V<lambda_1>@?1??SortRmgObjects@sorting@2@YAXAAV?$vector@VRMGObject@rmgdlg@@V?$allocator@VRMGObject@rmgdlg@@@std@@@std@@W4eSorting@52@_N@Z@@std@@YA?AU?$pair@PAVRMGObject@rmgdlg@@PAV12@@0@PAVRMGObject@rmgdlg@@0V<lambda_1>@?1??SortRmgObjects@sorting@3@YAXAAV?$vector@VRMGObject@rmgdlg@@V?$allocator@VRMGObject@rmgdlg@@@std@@@0@W4eSorting@63@_N@Z@@Z$0 10046770 f   RMG_SettingsDlg.obj
 0001:0004577b       __unwindfunclet$??$_Partition_by_median_guess_unchecked@PAVRMGObject@rmgdlg@@V<lambda_1>@?1??SortRmgObjects@sorting@2@YAXAAV?$vector@VRMGObject@rmgdlg@@V?$allocator@VRMGObject@rmgdlg@@@std@@@std@@W4eSorting@52@_N@Z@@std@@YA?AU?$pair@PAVRMGObject@rmgdlg@@PAV12@@0@PAVRMGObject@rmgdlg@@0V<lambda_1>@?1??SortRmgObjects@sorting@3@YAXAAV?$vector@VRMGObject@rmgdlg@@V?$allocator@VRMGObject@rmgdlg@@@std@@@0@W4eSorting@63@_N@Z@@Z$1 1004677b f   RMG_SettingsDlg.obj
 0001:00045786       __unwindfunclet$??$_Partition_by_median_guess_unchecked@PAVRMGObject@rmgdlg@@V<lambda_1>@?1??SortRmgObjects@sorting@2@YAXAAV?$vector@VRMGObject@rmgdlg@@V?$allocator@VRMGObject@rmgdlg@@@std@@@std@@W4eSorting@52@_N@Z@@std@@YA?AU?$pair@PAVRMGObject@rmgdlg@@PAV12@@0@PAVRMGObject@rmgdlg@@0V<lambda_1>@?1??SortRmgObjects@sorting@3@YAXAAV?$vector@VRMGObject@rmgdlg@@V?$allocator@VRMGObject@rmgdlg@@@std@@@0@W4eSorting@63@_N@Z@@Z$22 10046786 f   RMG_SettingsDlg.obj
 0001:00045791       __unwindfunclet$??$_Partition_by_median_guess_unchecked@PAVRMGObject@rmgdlg@@V<lambda_1>@?1??SortRmgObjects@sorting@2@YAXAAV?$vector@VRMGObject@rmgdlg@@V?$allocator@VRMGObject@rmgdlg@@@std@@@std@@W4eSorting@52@_N@Z@@std@@YA?AU?$pair@PAVRMGObject@rmgdlg@@PAV12@@0@PAVRMGObject@rmgdlg@@0V<lambda_1>@?1??SortRmgObjects@sorting@3@YAXAAV?$vector@VRMGObject@rmgdlg@@V?$allocator@VRMGObject@rmgdlg@@@std@@@0@W4eSorting@63@_N@Z@@Z$23 10046791 f   RMG_SettingsDlg.obj
 0001:000457a1       __ehhandler$??$_Partition_by_median_guess_unchecked@PAVRMGObject@rmgdlg@@V<lambda_1>@?1??SortRmgObjects@sorting@2@YAXAAV?$vector@VRMGObject@rmgdlg@@V?$allocator@VRMGObject@rmgdlg@@@std@@@std@@W4eSorting@52@_N@Z@@std@@YA?AU?$pair@PAVRMGObject@rmgdlg@@PAV12@@0@PAVRMGObject@rmgdlg@@0V<lambda_1>@?1??SortRmgObjects@sorting@3@YAXAAV?$vector@VRMGObject@rmgdlg@@V?$allocator@VRMGObject@rmgdlg@@@std@@@0@W4eSorting@63@_N@Z@@Z 100467a1 f   RMG_SettingsDlg.obj
 0001:000457b0       __unwindfunclet$??$_Pop_heap_hole_by_index@PAVRMGObject@rmgdlg@@V12@V<lambda_1>@?1??SortRmgObjects@sorting@2@YAXAAV?$vector@VRMGObject@rmgdlg@@V?$allocator@VRMGObject@rmgdlg@@@std@@@std@@W4eSorting@52@_N@Z@@std@@YAXPAVRMGObject@rmgdlg@@HH$$QAV12@V<lambda_1>@?1??SortRmgObjects@sorting@2@YAXAAV?$vector@VRMGObject@rmgdlg@@V?$allocator@VRMGObject@rmgdlg@@@std@@@0@W4eSorting@52@_N@Z@@Z$0 100467b0 f   RMG_SettingsDlg.obj
 0001:000457b8       __unwindfunclet$??$_Pop_heap_hole_by_index@PAVRMGObject@rmgdlg@@V12@V<lambda_1>@?1??SortRmgObjects@sorting@2@YAXAAV?$vector@VRMGObject@rmgdlg@@V?$allocator@VRMGObject@rmgdlg@@@std@@@std@@W4eSorting@52@_N@Z@@std@@YAXPAVRMGObject@rmgdlg@@HH$$QAV12@V<lambda_1>@?1??SortRmgObjects@sorting@2@YAXAAV?$vector@VRMGObject@rmgdlg@@V?$allocator@VRMGObject@rmgdlg@@@std@@@0@W4eSorting@52@_N@Z@@Z$1 100467b8 f   RMG_SettingsDlg.obj
 0001:000457c5       __ehhandler$??$_Pop_heap_hole_by_index@PAVRMGObject@rmgdlg@@V12@V<lambda_1>@?1??SortRmgObjects@sorting@2@YAXAAV?$vector@VRMGObject@rmgdlg@@V?$allocator@VRMGObject@rmgdlg@@@std@@@std@@W4eSorting@52@_N@Z@@std@@YAXPAVRMGObject@rmgdlg@@HH$$QAV12@V<lambda_1>@?1??SortRmgObjects@sorting@2@YAXAAV?$vector@VRMGObject@rmgdlg@@V?$allocator@VRMGObject@rmgdlg@@@std@@@0@W4eSorting@52@_N@Z@@Z 100467c5 f   RMG_SettingsDlg.obj
 0001:000457e0       __unwindfunclet$??$_Push_heap_by_index@PAVRMGObject@rmgdlg@@V12@V<lambda_1>@?1??SortRmgObjects@sorting@2@YAXAAV?$vector@VRMGObject@rmgdlg@@V?$allocator@VRMGObject@rmgdlg@@@std@@@std@@W4eSorting@52@_N@Z@@std@@YAXPAVRMGObject@rmgdlg@@HH$$QAV12@V<lambda_1>@?1??SortRmgObjects@sorting@2@YAXAAV?$vector@VRMGObject@rmgdlg@@V?$allocator@VRMGObject@rmgdlg@@@std@@@0@W4eSorting@52@_N@Z@@Z$0 100467e0 f   RMG_SettingsDlg.obj
 0001:000457e8       __unwindfunclet$??$_Push_heap_by_index@PAVRMGObject@rmgdlg@@V12@V<lambda_1>@?1??SortRmgObjects@sorting@2@YAXAAV?$vector@VRMGObject@rmgdlg@@V?$allocator@VRMGObject@rmgdlg@@@std@@@std@@W4eSorting@52@_N@Z@@std@@YAXPAVRMGObject@rmgdlg@@HH$$QAV12@V<lambda_1>@?1??SortRmgObjects@sorting@2@YAXAAV?$vector@VRMGObject@rmgdlg@@V?$allocator@VRMGObject@rmgdlg@@@std@@@0@W4eSorting@52@_N@Z@@Z$1 100467e8 f   RMG_SettingsDlg.obj
 0001:000457f5       __ehhandler$??$_Push_heap_by_index@PAVRMGObject@rmgdlg@@V12@V<lambda_1>@?1??SortRmgObjects@sorting@2@YAXAAV?$vector@VRMGObject@rmgdlg@@V?$allocator@VRMGObject@rmgdlg@@@std@@@std@@W4eSorting@52@_N@Z@@std@@YAXPAVRMGObject@rmgdlg@@HH$$QAV12@V<lambda_1>@?1??SortRmgObjects@sorting@2@YAXAAV?$vector@VRMGObject@rmgdlg@@V?$allocator@VRMGObject@rmgdlg@@@std@@@0@W4eSorting@52@_N@Z@@Z 100467f5 f   RMG_SettingsDlg.obj
 0001:00045810       __unwindfunclet$??__E?soundManager@SoundManager@sound@@2U12@A@@YAXXZ$0 10046810 f   SoundManager.obj
 0001:0004581a       __unwindfunclet$??__E?soundManager@SoundManager@sound@@2U12@A@@YAXXZ$1 1004681a f   SoundManager.obj
 0001:00045824       __unwindfunclet$??__E?soundManager@SoundManager@sound@@2U12@A@@YAXXZ$2 10046824 f   SoundManager.obj
 0001:0004582e       __unwindfunclet$??__E?soundManager@SoundManager@sound@@2U12@A@@YAXXZ$5 1004682e f   SoundManager.obj
 0001:00045839       __unwindfunclet$??__E?soundManager@SoundManager@sound@@2U12@A@@YAXXZ$6 10046839 f   SoundManager.obj
 0001:00045849       __ehhandler$??__E?soundManager@SoundManager@sound@@2U12@A@@YAXXZ 10046849 f   SoundManager.obj
 0001:00045860       __unwindfunclet$??$emplace@U?$pair@V?$basic_string@DU?$char_traits@D@std@@V?$allocator@D@2@@std@@I@std@@@?$_Hash@V?$_Umap_traits@V?$basic_string@DU?$char_traits@D@std@@V?$allocator@D@2@@std@@IV?$_Uhash_compare@V?$basic_string@DU?$char_traits@D@std@@V?$allocator@D@2@@std@@U?$hash@V?$basic_string@DU?$char_traits@D@std@@V?$allocator@D@2@@std@@@2@U?$equal_to@V?$basic_string@DU?$char_traits@D@std@@V?$allocator@D@2@@std@@@2@@2@V?$allocator@U?$pair@$$CBV?$basic_string@DU?$char_traits@D@std@@V?$allocator@D@2@@std@@I@std@@@2@$0A@@std@@@std@@QAE?AU?$pair@V?$_List_iterator@V?$_List_val@U?$_List_simple_types@U?$pair@$$CBV?$basic_string@DU?$char_traits@D@std@@V?$allocator@D@2@@std@@I@std@@@std@@@std@@@std@@_N@1@$$QAU?$pair@V?$basic_string@DU?$char_traits@D@std@@V?$allocator@D@2@@std@@I@1@@Z$1 10046860 f   SoundManager.obj
 0001:00045868       __unwindfunclet$??$emplace@U?$pair@V?$basic_string@DU?$char_traits@D@std@@V?$allocator@D@2@@std@@I@std@@@?$_Hash@V?$_Umap_traits@V?$basic_string@DU?$char_traits@D@std@@V?$allocator@D@2@@std@@IV?$_Uhash_compare@V?$basic_string@DU?$char_traits@D@std@@V?$allocator@D@2@@std@@U?$hash@V?$basic_string@DU?$char_traits@D@std@@V?$allocator@D@2@@std@@@2@U?$equal_to@V?$basic_string@DU?$char_traits@D@std@@V?$allocator@D@2@@std@@@2@@2@V?$allocator@U?$pair@$$CBV?$basic_string@DU?$char_traits@D@std@@V?$allocator@D@2@@std@@I@std@@@2@$0A@@std@@@std@@QAE?AU?$pair@V?$_List_iterator@V?$_List_val@U?$_List_simple_types@U?$pair@$$CBV?$basic_string@DU?$char_traits@D@std@@V?$allocator@D@2@@std@@I@std@@@std@@@std@@@std@@_N@1@$$QAU?$pair@V?$basic_string@DU?$char_traits@D@std@@V?$allocator@D@2@@std@@I@1@@Z$0 10046868 f   SoundManager.obj
 0001:00045875       __ehhandler$??$emplace@U?$pair@V?$basic_string@DU?$char_traits@D@std@@V?$allocator@D@2@@std@@I@std@@@?$_Hash@V?$_Umap_traits@V?$basic_string@DU?$char_traits@D@std@@V?$allocator@D@2@@std@@IV?$_Uhash_compare@V?$basic_string@DU?$char_traits@D@std@@V?$allocator@D@2@@std@@U?$hash@V?$basic_string@DU?$char_traits@D@std@@V?$allocator@D@2@@std@@@2@U?$equal_to@V?$basic_string@DU?$char_traits@D@std@@V?$allocator@D@2@@std@@@2@@2@V?$allocator@U?$pair@$$CBV?$basic_string@DU?$char_traits@D@std@@V?$allocator@D@2@@std@@I@std@@@2@$0A@@std@@@std@@QAE?AU?$pair@V?$_List_iterator@V?$_List_val@U?$_List_simple_types@U?$pair@$$CBV?$basic_string@DU?$char_traits@D@std@@V?$allocator@D@2@@std@@I@std@@@std@@@std@@@std@@_N@1@$$QAU?$pair@V?$basic_string@DU?$char_traits@D@std@@V?$allocator@D@2@@std@@I@1@@Z 10046875 f   SoundManager.obj
 0001:00045890       __unwindfunclet$??$emplace@U?$pair@PBDI@std@@@?$_Hash@V?$_Umap_traits@V?$basic_string@DU?$char_traits@D@std@@V?$allocator@D@2@@std@@IV?$_Uhash_compare@V?$basic_string@DU?$char_traits@D@std@@V?$allocator@D@2@@std@@U?$hash@V?$basic_string@DU?$char_traits@D@std@@V?$allocator@D@2@@std@@@2@U?$equal_to@V?$basic_string@DU?$char_traits@D@std@@V?$allocator@D@2@@std@@@2@@2@V?$allocator@U?$pair@$$CBV?$basic_string@DU?$char_traits@D@std@@V?$allocator@D@2@@std@@I@std@@@2@$0A@@std@@@std@@QAE?AU?$pair@V?$_List_iterator@V?$_List_val@U?$_List_simple_types@U?$pair@$$CBV?$basic_string@DU?$char_traits@D@std@@V?$allocator@D@2@@std@@I@std@@@std@@@std@@@std@@_N@1@$$QAU?$pair@PBDI@1@@Z$1 10046890 f   SoundManager.obj
 0001:00045898       __unwindfunclet$??$emplace@U?$pair@PBDI@std@@@?$_Hash@V?$_Umap_traits@V?$basic_string@DU?$char_traits@D@std@@V?$allocator@D@2@@std@@IV?$_Uhash_compare@V?$basic_string@DU?$char_traits@D@std@@V?$allocator@D@2@@std@@U?$hash@V?$basic_string@DU?$char_traits@D@std@@V?$allocator@D@2@@std@@@2@U?$equal_to@V?$basic_string@DU?$char_traits@D@std@@V?$allocator@D@2@@std@@@2@@2@V?$allocator@U?$pair@$$CBV?$basic_string@DU?$char_traits@D@std@@V?$allocator@D@2@@std@@I@std@@@2@$0A@@std@@@std@@QAE?AU?$pair@V?$_List_iterator@V?$_List_val@U?$_List_simple_types@U?$pair@$$CBV?$basic_string@DU?$char_traits@D@std@@V?$allocator@D@2@@std@@I@std@@@std@@@std@@@std@@_N@1@$$QAU?$pair@PBDI@1@@Z$0 10046898 f   SoundManager.obj
 0001:000458a5       __ehhandler$??$emplace@U?$pair@PBDI@std@@@?$_Hash@V?$_Umap_traits@V?$basic_string@DU?$char_traits@D@std@@V?$allocator@D@2@@std@@IV?$_Uhash_compare@V?$basic_string@DU?$char_traits@D@std@@V?$allocator@D@2@@std@@U?$hash@V?$basic_string@DU?$char_traits@D@std@@V?$allocator@D@2@@std@@@2@U?$equal_to@V?$basic_string@DU?$char_traits@D@std@@V?$allocator@D@2@@std@@@2@@2@V?$allocator@U?$pair@$$CBV?$basic_string@DU?$char_traits@D@std@@V?$allocator@D@2@@std@@I@std@@@2@$0A@@std@@@std@@QAE?AU?$pair@V?$_List_iterator@V?$_List_val@U?$_List_simple_types@U?$pair@$$CBV?$basic_string@DU?$char_traits@D@std@@V?$allocator@D@2@@std@@I@std@@@std@@@std@@@std@@_N@1@$$QAU?$pair@PBDI@1@@Z 100468a5 f   SoundManager.obj
 0001:000458b1       __unwindfunclet$??0system_error@std@@QAE@HABVerror_category@1@PBD@Z$0 100468b1 f   libcpmt:thread0.obj
 0001:000458be       __ehhandler$??0system_error@std@@QAE@HABVerror_category@1@PBD@Z 100468be f   libcpmt:thread0.obj
 0001:000458e5       __unwindfunclet$?_Init@locale@std@@CAPAV_Locimp@12@_N@Z$0 100468e5 f   libcpmt:locale0.obj
 0001:000458f2       __ehhandler$?_Init@locale@std@@CAPAV_Locimp@12@_N@Z 100468f2 f   libcpmt:locale0.obj
 0001:0004590f       __ehhandler$?_Tidy@ios_base@std@@AAEXXZ 1004690f f   libcpmt:ios.obj
 0001:0004592c       __ehhandler$__Cnd_do_broadcast_at_thread_exit 1004692c f   libcpmt:xnotify.obj
 0001:00045949       __ehhandler$??1_Init_atexit@@QAE@XZ 10046949 f   libcpmt:iosptrs.obj
 0001:00045949       __ehhandler$___crtGetSystemTimePreciseAsFileTime 10046949 f   libcpmt:winapisupp.obj
 0001:00045966       __ehhandler$?CallUnexpected@@YAXPBU_s_ESTypeList@@@Z 10046966 f   libvcruntime:frame.obj
 0001:00045983       __unwindfunclet$?_wcstombs_l_helper@@YAIPADPB_WIPAU__crt_locale_pointers@@@Z$0 10046983 f   libucrt:wcstombs.obj
 0001:0004598b       __ehhandler$?_wcstombs_l_helper@@YAIPADPB_WIPAU__crt_locale_pointers@@@Z 1004698b f   libucrt:wcstombs.obj
 0001:000459b0       __ehhandler$??_V@YAXPAX@Z  100469b0 f   era.obj
 0001:000459bc       __ehhandler$??3@YAXPAX@Z   100469bc f   era.obj
 0001:000459c8       __unwindfunclet$?ConnectEra@Era@@YAXPAUHINSTANCE__@@PBD@Z$0 100469c8 f   era.obj
 0001:000459d0       __unwindfunclet$?ConnectEra@Era@@YAXPAUHINSTANCE__@@PBD@Z$1 100469d0 f   era.obj
 0001:000459d8       __unwindfunclet$?ConnectEra@Era@@YAXPAUHINSTANCE__@@PBD@Z$2 100469d8 f   era.obj
 0001:000459e0       __unwindfunclet$?ConnectEra@Era@@YAXPAUHINSTANCE__@@PBD@Z$3 100469e0 f   era.obj
 0001:000459ed       __ehhandler$?ConnectEra@Era@@YAXPAUHINSTANCE__@@PBD@Z 100469ed f   era.obj
 0001:00045a00       __unwindfunclet$?CrBanksTxt_AfterLoad@@YGHPAVLoHook@@PAUHookContext@@@Z$0 10046a00 f   dllmain.obj
 0001:00045a0c       __unwindfunclet$?CrBanksTxt_AfterLoad@@YGHPAVLoHook@@PAUHookContext@@@Z$1 10046a0c f   dllmain.obj
 0001:00045a16       __unwindfunclet$?CrBanksTxt_AfterLoad@@YGHPAVLoHook@@PAUHookContext@@@Z$2 10046a16 f   dllmain.obj
 0001:00045a22       __unwindfunclet$?CrBanksTxt_AfterLoad@@YGHPAVLoHook@@PAUHookContext@@@Z$4 10046a22 f   dllmain.obj
 0001:00045a2e       __unwindfunclet$?CrBanksTxt_AfterLoad@@YGHPAVLoHook@@PAUHookContext@@@Z$5 10046a2e f   dllmain.obj
 0001:00045a38       __unwindfunclet$?CrBanksTxt_AfterLoad@@YGHPAVLoHook@@PAUHookContext@@@Z$6 10046a38 f   dllmain.obj
 0001:00045a44       __unwindfunclet$?CrBanksTxt_AfterLoad@@YGHPAVLoHook@@PAUHookContext@@@Z$7 10046a44 f   dllmain.obj
 0001:00045a4e       __unwindfunclet$?CrBanksTxt_AfterLoad@@YGHPAVLoHook@@PAUHookContext@@@Z$8 10046a4e f   dllmain.obj
 0001:00045a5a       __unwindfunclet$?CrBanksTxt_AfterLoad@@YGHPAVLoHook@@PAUHookContext@@@Z$9 10046a5a f   dllmain.obj
 0001:00045a64       __unwindfunclet$?CrBanksTxt_AfterLoad@@YGHPAVLoHook@@PAUHookContext@@@Z$10 10046a64 f   dllmain.obj
 0001:00045a70       __unwindfunclet$?CrBanksTxt_AfterLoad@@YGHPAVLoHook@@PAUHookContext@@@Z$12 10046a70 f   dllmain.obj
 0001:00045a7c       __unwindfunclet$?CrBanksTxt_AfterLoad@@YGHPAVLoHook@@PAUHookContext@@@Z$13 10046a7c f   dllmain.obj
 0001:00045a86       __unwindfunclet$?CrBanksTxt_AfterLoad@@YGHPAVLoHook@@PAUHookContext@@@Z$14 10046a86 f   dllmain.obj
 0001:00045a92       __unwindfunclet$?CrBanksTxt_AfterLoad@@YGHPAVLoHook@@PAUHookContext@@@Z$16 10046a92 f   dllmain.obj
 0001:00045a9e       __unwindfunclet$?CrBanksTxt_AfterLoad@@YGHPAVLoHook@@PAUHookContext@@@Z$17 10046a9e f   dllmain.obj
 0001:00045aa8       __unwindfunclet$?CrBanksTxt_AfterLoad@@YGHPAVLoHook@@PAUHookContext@@@Z$18 10046aa8 f   dllmain.obj
 0001:00045ab4       __unwindfunclet$?CrBanksTxt_AfterLoad@@YGHPAVLoHook@@PAUHookContext@@@Z$19 10046ab4 f   dllmain.obj
 0001:00045abe       __unwindfunclet$?CrBanksTxt_AfterLoad@@YGHPAVLoHook@@PAUHookContext@@@Z$20 10046abe f   dllmain.obj
 0001:00045aca       __unwindfunclet$?CrBanksTxt_AfterLoad@@YGHPAVLoHook@@PAUHookContext@@@Z$21 10046aca f   dllmain.obj
 0001:00045ad4       __unwindfunclet$?CrBanksTxt_AfterLoad@@YGHPAVLoHook@@PAUHookContext@@@Z$22 10046ad4 f   dllmain.obj
 0001:00045ae0       __unwindfunclet$?CrBanksTxt_AfterLoad@@YGHPAVLoHook@@PAUHookContext@@@Z$23 10046ae0 f   dllmain.obj
 0001:00045aea       __unwindfunclet$?CrBanksTxt_AfterLoad@@YGHPAVLoHook@@PAUHookContext@@@Z$24 10046aea f   dllmain.obj
 0001:00045af6       __unwindfunclet$?CrBanksTxt_AfterLoad@@YGHPAVLoHook@@PAUHookContext@@@Z$25 10046af6 f   dllmain.obj
 0001:00045b00       __unwindfunclet$?CrBanksTxt_AfterLoad@@YGHPAVLoHook@@PAUHookContext@@@Z$26 10046b00 f   dllmain.obj
 0001:00045b0c       __unwindfunclet$?CrBanksTxt_AfterLoad@@YGHPAVLoHook@@PAUHookContext@@@Z$28 10046b0c f   dllmain.obj
 0001:00045b18       __unwindfunclet$?CrBanksTxt_AfterLoad@@YGHPAVLoHook@@PAUHookContext@@@Z$29 10046b18 f   dllmain.obj
 0001:00045b22       __unwindfunclet$?CrBanksTxt_AfterLoad@@YGHPAVLoHook@@PAUHookContext@@@Z$31 10046b22 f   dllmain.obj
 0001:00045b2e       __unwindfunclet$?CrBanksTxt_AfterLoad@@YGHPAVLoHook@@PAUHookContext@@@Z$33 10046b2e f   dllmain.obj
 0001:00045b3a       __unwindfunclet$?CrBanksTxt_AfterLoad@@YGHPAVLoHook@@PAUHookContext@@@Z$34 10046b3a f   dllmain.obj
 0001:00045b49       __ehhandler$?CrBanksTxt_AfterLoad@@YGHPAVLoHook@@PAUHookContext@@@Z 10046b49 f   dllmain.obj
 0001:00045b55       __unwindfunclet$?OnReportVersion@@YGXPAUTEvent@Era@@@Z$0 10046b55 f   dllmain.obj
 0001:00045b62       __ehhandler$?OnReportVersion@@YGXPAUTEvent@Era@@@Z 10046b62 f   dllmain.obj
 0001:00045b70       __ehhandler$?CreateRMGObjectGen@AncientLampExtender@ancientLamp@@EBEPAUH3RmgObjectGenerator@h3@@ABURMGObjectInfo@@@Z 10046b70 f   AncientLampExtender.obj
 0001:00045b7c       __ehhandler$?SetHintInH3TextBuffer@AncientLampExtender@ancientLamp@@EBEHPAUH3MapItem@h3@@PBUH3Hero@4@PBUH3Player@4@H@Z 10046b7c f   AncientLampExtender.obj
 0001:00045b88       __ehhandler$?VisitMapItem@AncientLampExtender@ancientLamp@@EBEHPAUH3Hero@h3@@PAUH3MapItem@4@UH3Position@4@H@Z 10046b88 f   AncientLampExtender.obj
 0001:00045b94       __unwindfunclet$?AskQuestion@ancientLamp@@YAHPBUH3MapItem@h3@@@Z$0 10046b94 f   AncientLampExtender.obj
 0001:00045b9c       __unwindfunclet$?AskQuestion@ancientLamp@@YAHPBUH3MapItem@h3@@@Z$1 10046b9c f   AncientLampExtender.obj
 0001:00045ba9       __ehhandler$?AskQuestion@ancientLamp@@YAHPBUH3MapItem@h3@@@Z 10046ba9 f   AncientLampExtender.obj
 0001:00045bb5       __ehhandler$?SetAiMapItemWeight@AncientLampExtender@ancientLamp@@EBEHPAUH3MapItem@h3@@PAUH3Hero@4@PBUH3Player@4@AAHPAHUH3Position@4@@Z 10046bb5 f   AncientLampExtender.obj
 0001:00045bc1       __unwindfunclet$?Get@AncientLampExtender@ancientLamp@@SAAAV12@XZ$0 10046bc1 f   AncientLampExtender.obj
 0001:00045bd2       __ehhandler$?Get@AncientLampExtender@ancientLamp@@SAAAV12@XZ 10046bd2 f   AncientLampExtender.obj
 0001:00045be0       __ehhandler$?CreateRMGObjectGen@ColosseumOfTheMagiExtender@colosseumOfTheMagi@@EBEPAUH3RmgObjectGenerator@h3@@ABURMGObjectInfo@@@Z 10046be0 f   ColosseumOfTheMagiExtender.obj
 0001:00045bec       __ehhandler$?SetHintInH3TextBuffer@ColosseumOfTheMagiExtender@colosseumOfTheMagi@@EBEHPAUH3MapItem@h3@@PBUH3Hero@4@PBUH3Player@4@H@Z 10046bec f   ColosseumOfTheMagiExtender.obj
 0001:00045bf8       __ehhandler$?VisitMapItem@ColosseumOfTheMagiExtender@colosseumOfTheMagi@@EBEHPAUH3Hero@h3@@PAUH3MapItem@4@UH3Position@4@H@Z 10046bf8 f   ColosseumOfTheMagiExtender.obj
 0001:00045c04       __unwindfunclet$?AskQuestionWithTwoOptions@colosseumOfTheMagi@@YA?AW4ePick@H3Messagebox@h3@@PBUH3MapItem@4@@Z$0 10046c04 f   ColosseumOfTheMagiExtender.obj
 0001:00045c0c       __unwindfunclet$?AskQuestionWithTwoOptions@colosseumOfTheMagi@@YA?AW4ePick@H3Messagebox@h3@@PBUH3MapItem@4@@Z$1 10046c0c f   ColosseumOfTheMagiExtender.obj
 0001:00045c19       __ehhandler$?AskQuestionWithTwoOptions@colosseumOfTheMagi@@YA?AW4ePick@H3Messagebox@h3@@PBUH3MapItem@4@@Z 10046c19 f   ColosseumOfTheMagiExtender.obj
 0001:00045c25       __unwindfunclet$?ShowMessage@colosseumOfTheMagi@@YAXPBUH3MapItem@h3@@@Z$0 10046c25 f   ColosseumOfTheMagiExtender.obj
 0001:00045c2d       __unwindfunclet$?ShowMessage@colosseumOfTheMagi@@YAXPBUH3MapItem@h3@@@Z$1 10046c2d f   ColosseumOfTheMagiExtender.obj
 0001:00045c3a       __ehhandler$?ShowMessage@colosseumOfTheMagi@@YAXPBUH3MapItem@h3@@@Z 10046c3a f   ColosseumOfTheMagiExtender.obj
 0001:00045c46       __ehhandler$?SetAiMapItemWeight@ColosseumOfTheMagiExtender@colosseumOfTheMagi@@EBEHPAUH3MapItem@h3@@PAUH3Hero@4@PBUH3Player@4@AAHPAHUH3Position@4@@Z 10046c46 f   ColosseumOfTheMagiExtender.obj
 0001:00045c52       __unwindfunclet$??0ColosseumOfTheMagiExtender@colosseumOfTheMagi@@AAE@XZ$0 10046c52 f   ColosseumOfTheMagiExtender.obj
 0001:00045c5f       __ehhandler$??0ColosseumOfTheMagiExtender@colosseumOfTheMagi@@AAE@XZ 10046c5f f   ColosseumOfTheMagiExtender.obj
 0001:00045c6b       __unwindfunclet$?Get@ColosseumOfTheMagiExtender@colosseumOfTheMagi@@SAAAV12@XZ$0 10046c6b f   ColosseumOfTheMagiExtender.obj
 0001:00045c77       __unwindfunclet$?Get@ColosseumOfTheMagiExtender@colosseumOfTheMagi@@SAAAV12@XZ$1 10046c77 f   ColosseumOfTheMagiExtender.obj
 0001:00045c86       __ehhandler$?Get@ColosseumOfTheMagiExtender@colosseumOfTheMagi@@SAAAV12@XZ 10046c86 f   ColosseumOfTheMagiExtender.obj
 0001:00045ca0       __ehhandler$?OnBeforeSaveGame@CreatureBanksExtender@cbanks@@CGXPAUTEvent@Era@@@Z 10046ca0 f   CreatureBanksExtender.obj
 0001:00045cac       __ehhandler$?WriteSaveData@CustomCreatureBank@CreatureBanksExtender@cbanks@@QBEXXZ 10046cac f   CreatureBanksExtender.obj
 0001:00045cb8       __unwindfunclet$?GenerateSpells@CustomCreatureBank@CreatureBanksExtender@cbanks@@AAEXABUCustomRewardSetupState@23@@Z$4 10046cb8 f   CreatureBanksExtender.obj
 0001:00045cc0       __unwindfunclet$?GenerateSpells@CustomCreatureBank@CreatureBanksExtender@cbanks@@AAEXABUCustomRewardSetupState@23@@Z$5 10046cc0 f   CreatureBanksExtender.obj
 0001:00045cc8       __unwindfunclet$?GenerateSpells@CustomCreatureBank@CreatureBanksExtender@cbanks@@AAEXABUCustomRewardSetupState@23@@Z$0 10046cc8 f   CreatureBanksExtender.obj
 0001:00045cd0       __unwindfunclet$?GenerateSpells@CustomCreatureBank@CreatureBanksExtender@cbanks@@AAEXABUCustomRewardSetupState@23@@Z$1 10046cd0 f   CreatureBanksExtender.obj
 0001:00045cdd       __ehhandler$?GenerateSpells@CustomCreatureBank@CreatureBanksExtender@cbanks@@AAEXABUCustomRewardSetupState@23@@Z 10046cdd f   CreatureBanksExtender.obj
 0001:00045ce9       __ehhandler$?ShrinkToFit@CreatureBankManager@CreatureBanksExtender@cbanks@@AAEXXZ 10046ce9 f   CreatureBanksExtender.obj
 0001:00045cf5       __ehhandler$?Reserve@CreatureBankManager@CreatureBanksExtender@cbanks@@AAEXI@Z 10046cf5 f   CreatureBanksExtender.obj
 0001:00045d01       __ehhandler$?Resize@CreatureBankManager@CreatureBanksExtender@cbanks@@AAEXI@Z 10046d01 f   CreatureBanksExtender.obj
 0001:00045d0d       __unwindfunclet$?LoadCreatureBanksFromJson@CreatureBankManager@CreatureBanksExtender@cbanks@@QAEHFF@Z$42 10046d0d f   CreatureBanksExtender.obj
 0001:00045d18       __unwindfunclet$?LoadCreatureBanksFromJson@CreatureBankManager@CreatureBanksExtender@cbanks@@QAEHFF@Z$0 10046d18 f   CreatureBanksExtender.obj
 0001:00045d23       __unwindfunclet$?LoadCreatureBanksFromJson@CreatureBankManager@CreatureBanksExtender@cbanks@@QAEHFF@Z$1 10046d23 f   CreatureBanksExtender.obj
 0001:00045d2e       __unwindfunclet$?LoadCreatureBanksFromJson@CreatureBankManager@CreatureBanksExtender@cbanks@@QAEHFF@Z$2 10046d2e f   CreatureBanksExtender.obj
 0001:00045d3b       __ehhandler$?LoadCreatureBanksFromJson@CreatureBankManager@CreatureBanksExtender@cbanks@@QAEHFF@Z 10046d3b f   CreatureBanksExtender.obj
 0001:00045d47       __ehhandler$??0CustomRewardSetupState@CreatureBanksExtender@cbanks@@QAE@HI@Z 10046d47 f   CreatureBanksExtender.obj
 0001:00045d53       __ehhandler$?CreateRMGObjectGen@CreatureBanksExtender@cbanks@@MBEPAUH3RmgObjectGenerator@h3@@ABURMGObjectInfo@@@Z 10046d53 f   CreatureBanksExtender.obj
 0001:00045d5f       __ehhandler$?GetCreatureBankType@CreatureBanksExtender@cbanks@@SAHHH@Z 10046d5f f   CreatureBanksExtender.obj
 0001:00045d6b       __unwindfunclet$?CrBank_AskForVisitMessage@CreatureBanksExtender@cbanks@@CGXPAVHiHook@@PADHHHHHHHHHHH@Z$1 10046d6b f   CreatureBanksExtender.obj
 0001:00045d73       __unwindfunclet$?CrBank_AskForVisitMessage@CreatureBanksExtender@cbanks@@CGXPAVHiHook@@PADHHHHHHHHHHH@Z$3 10046d73 f   CreatureBanksExtender.obj
 0001:00045d80       __ehhandler$?CrBank_AskForVisitMessage@CreatureBanksExtender@cbanks@@CGXPAVHiHook@@PADHHHHHHHHHHH@Z 10046d80 f   CreatureBanksExtender.obj
 0001:00045d8c       __ehhandler$?CrBank_BeforeEndingText@CreatureBanksExtender@cbanks@@CGHPAVHiHook@@PAUH3String@h3@@IKK@Z 10046d8c f   CreatureBanksExtender.obj
 0001:00045d98       __unwindfunclet$?OnAfterReloadLanguageData@CreatureBanksExtender@cbanks@@CGXPAUTEvent@Era@@@Z$0 10046d98 f   CreatureBanksExtender.obj
 0001:00045da0       __unwindfunclet$?OnAfterReloadLanguageData@CreatureBanksExtender@cbanks@@CGXPAUTEvent@Era@@@Z$1 10046da0 f   CreatureBanksExtender.obj
 0001:00045dad       __ehhandler$?OnAfterReloadLanguageData@CreatureBanksExtender@cbanks@@CGXPAUTEvent@Era@@@Z 10046dad f   CreatureBanksExtender.obj
 0001:00045db9       __unwindfunclet$??0CreatureBanksExtender@cbanks@@AAE@XZ$0 10046db9 f   CreatureBanksExtender.obj
 0001:00045dc1       __unwindfunclet$??0CreatureBanksExtender@cbanks@@AAE@XZ$1 10046dc1 f   CreatureBanksExtender.obj
 0001:00045dd1       __ehhandler$??0CreatureBanksExtender@cbanks@@AAE@XZ 10046dd1 f   CreatureBanksExtender.obj
 0001:00045ddd       __ehhandler$??1CreatureName@?4??ShowMultiplePicsArmyMessage@cbanks@@YAHPBDHHHPAUH3Army@h3@@@Z@QAE@XZ 10046ddd f   CreatureBanksExtender.obj
 0001:00045de9       __ehhandler$?ShowMultiplePicsArmyMessage@cbanks@@YAHPBDHHHPAUH3Army@h3@@@Z 10046de9 f   CreatureBanksExtender.obj
 0001:00045df5       __ehhandler$?GetArmyMessage@cbanks@@YAHPBUH3CreatureBank@h3@@AAUH3String@3@_N@Z 10046df5 f   CreatureBanksExtender.obj
 0001:00045e01       __unwindfunclet$?Get@CreatureBanksExtender@cbanks@@SAAAV12@XZ$0 10046e01 f   CreatureBanksExtender.obj
 0001:00045e0d       __unwindfunclet$?Get@CreatureBanksExtender@cbanks@@SAAAV12@XZ$1 10046e0d f   CreatureBanksExtender.obj
 0001:00045e17       __unwindfunclet$?Get@CreatureBanksExtender@cbanks@@SAAAV12@XZ$2 10046e17 f   CreatureBanksExtender.obj
 0001:00045e26       __ehhandler$?Get@CreatureBanksExtender@cbanks@@SAAAV12@XZ 10046e26 f   CreatureBanksExtender.obj
 0001:00045e40       __ehhandler$?CreateRMGObjectGen@DreamTeacherExtender@dreamTeacher@@EBEPAUH3RmgObjectGenerator@h3@@ABURMGObjectInfo@@@Z 10046e40 f   DreamTeacherExtender.obj
 0001:00045e4c       __ehhandler$?SetHintInH3TextBuffer@DreamTeacherExtender@dreamTeacher@@EBEHPAUH3MapItem@h3@@PBUH3Hero@4@PBUH3Player@4@H@Z 10046e4c f   DreamTeacherExtender.obj
 0001:00045e58       __ehhandler$?VisitMapItem@DreamTeacherExtender@dreamTeacher@@EBEHPAUH3Hero@h3@@PAUH3MapItem@4@UH3Position@4@H@Z 10046e58 f   DreamTeacherExtender.obj
 0001:00045e64       __unwindfunclet$?ShowMessage@dreamTeacher@@YAXPBUH3MapItem@h3@@H_N@Z$0 10046e64 f   DreamTeacherExtender.obj
 0001:00045e6c       __unwindfunclet$?ShowMessage@dreamTeacher@@YAXPBUH3MapItem@h3@@H_N@Z$1 10046e6c f   DreamTeacherExtender.obj
 0001:00045e74       __unwindfunclet$?ShowMessage@dreamTeacher@@YAXPBUH3MapItem@h3@@H_N@Z$2 10046e74 f   DreamTeacherExtender.obj
 0001:00045e81       __ehhandler$?ShowMessage@dreamTeacher@@YAXPBUH3MapItem@h3@@H_N@Z 10046e81 f   DreamTeacherExtender.obj
 0001:00045e8d       __ehhandler$?SetAiMapItemWeight@DreamTeacherExtender@dreamTeacher@@EBEHPAUH3MapItem@h3@@PAUH3Hero@4@PBUH3Player@4@AAHPAHUH3Position@4@@Z 10046e8d f   DreamTeacherExtender.obj
 0001:00045e99       __unwindfunclet$??0DreamTeacherExtender@dreamTeacher@@AAE@XZ$0 10046e99 f   DreamTeacherExtender.obj
 0001:00045ea6       __ehhandler$??0DreamTeacherExtender@dreamTeacher@@AAE@XZ 10046ea6 f   DreamTeacherExtender.obj
 0001:00045eb2       __unwindfunclet$?Get@DreamTeacherExtender@dreamTeacher@@SAAAV12@XZ$0 10046eb2 f   DreamTeacherExtender.obj
 0001:00045ebe       __unwindfunclet$?Get@DreamTeacherExtender@dreamTeacher@@SAAAV12@XZ$1 10046ebe f   DreamTeacherExtender.obj
 0001:00045ecd       __ehhandler$?Get@DreamTeacherExtender@dreamTeacher@@SAAAV12@XZ 10046ecd f   DreamTeacherExtender.obj
 0001:00045ee0       __ehhandler$?CreateRMGObjectGen@GazeboExtender@gazebo@@EBEPAUH3RmgObjectGenerator@h3@@ABURMGObjectInfo@@@Z 10046ee0 f   GazeboExtender.obj
 0001:00045eec       __ehhandler$?SetHintInH3TextBuffer@GazeboExtender@gazebo@@EBEHPAUH3MapItem@h3@@PBUH3Hero@4@PBUH3Player@4@H@Z 10046eec f   GazeboExtender.obj
 0001:00045ef8       __ehhandler$?VisitMapItem@GazeboExtender@gazebo@@EBEHPAUH3Hero@h3@@PAUH3MapItem@4@UH3Position@4@H@Z 10046ef8 f   GazeboExtender.obj
 0001:00045f04       __unwindfunclet$?AskQuestion@gazebo@@YAHPBUH3MapItem@h3@@H@Z$0 10046f04 f   GazeboExtender.obj
 0001:00045f0c       __unwindfunclet$?AskQuestion@gazebo@@YAHPBUH3MapItem@h3@@H@Z$1 10046f0c f   GazeboExtender.obj
 0001:00045f19       __ehhandler$?AskQuestion@gazebo@@YAHPBUH3MapItem@h3@@H@Z 10046f19 f   GazeboExtender.obj
 0001:00045f25       __unwindfunclet$?ShowMessage@gazebo@@YAXPBUH3MapItem@h3@@H_N@Z$0 10046f25 f   GazeboExtender.obj
 0001:00045f2d       __unwindfunclet$?ShowMessage@gazebo@@YAXPBUH3MapItem@h3@@H_N@Z$1 10046f2d f   GazeboExtender.obj
 0001:00045f35       __unwindfunclet$?ShowMessage@gazebo@@YAXPBUH3MapItem@h3@@H_N@Z$2 10046f35 f   GazeboExtender.obj
 0001:00045f42       __ehhandler$?ShowMessage@gazebo@@YAXPBUH3MapItem@h3@@H_N@Z 10046f42 f   GazeboExtender.obj
 0001:00045f4e       __ehhandler$?SetAiMapItemWeight@GazeboExtender@gazebo@@EBEHPAUH3MapItem@h3@@PAUH3Hero@4@PBUH3Player@4@AAHPAHUH3Position@4@@Z 10046f4e f   GazeboExtender.obj
 0001:00045f5a       __unwindfunclet$??0GazeboExtender@gazebo@@AAE@XZ$0 10046f5a f   GazeboExtender.obj
 0001:00045f67       __ehhandler$??0GazeboExtender@gazebo@@AAE@XZ 10046f67 f   GazeboExtender.obj
 0001:00045f73       __unwindfunclet$?Get@GazeboExtender@gazebo@@SAAAV12@XZ$0 10046f73 f   GazeboExtender.obj
 0001:00045f7f       __unwindfunclet$?Get@GazeboExtender@gazebo@@SAAAV12@XZ$1 10046f7f f   GazeboExtender.obj
 0001:00045f8e       __ehhandler$?Get@GazeboExtender@gazebo@@SAAAV12@XZ 10046f8e f   GazeboExtender.obj
 0001:00045fa0       __ehhandler$?InitNewGameMapItemSetup@GraveExtender@grave@@EBEHPAUH3MapItem@h3@@@Z 10046fa0 f   GraveExtender.obj
 0001:00045fac       __ehhandler$?CreateRMGObjectGen@GraveExtender@grave@@EBEPAUH3RmgObjectGenerator@h3@@ABURMGObjectInfo@@@Z 10046fac f   GraveExtender.obj
 0001:00045fb8       __ehhandler$?SetHintInH3TextBuffer@GraveExtender@grave@@EBEHPAUH3MapItem@h3@@PBUH3Hero@4@PBUH3Player@4@H@Z 10046fb8 f   GraveExtender.obj
 0001:00045fc4       __ehhandler$?VisitMapItem@GraveExtender@grave@@EBEHPAUH3Hero@h3@@PAUH3MapItem@4@UH3Position@4@H@Z 10046fc4 f   GraveExtender.obj
 0001:00045fd0       __unwindfunclet$?ShowMessage@grave@@YAXPBUH3MapItem@h3@@_NHH@Z$0 10046fd0 f   GraveExtender.obj
 0001:00045fd8       __unwindfunclet$?ShowMessage@grave@@YAXPBUH3MapItem@h3@@_NHH@Z$1 10046fd8 f   GraveExtender.obj
 0001:00045fe0       __unwindfunclet$?ShowMessage@grave@@YAXPBUH3MapItem@h3@@_NHH@Z$2 10046fe0 f   GraveExtender.obj
 0001:00045fed       __ehhandler$?ShowMessage@grave@@YAXPBUH3MapItem@h3@@_NHH@Z 10046fed f   GraveExtender.obj
 0001:00045ff9       __unwindfunclet$??0GraveExtender@grave@@AAE@XZ$0 10046ff9 f   GraveExtender.obj
 0001:00046006       __ehhandler$??0GraveExtender@grave@@AAE@XZ 10047006 f   GraveExtender.obj
 0001:00046012       __unwindfunclet$?Get@GraveExtender@grave@@SAAAV12@XZ$0 10047012 f   GraveExtender.obj
 0001:0004601e       __unwindfunclet$?Get@GraveExtender@grave@@SAAAV12@XZ$1 1004701e f   GraveExtender.obj
 0001:0004602d       __ehhandler$?Get@GraveExtender@grave@@SAAAV12@XZ 1004702d f   GraveExtender.obj
 0001:00046040       __ehhandler$?CreateRMGObjectGen@HermitsShackExtender@hermitsShack@@EBEPAUH3RmgObjectGenerator@h3@@ABURMGObjectInfo@@@Z 10047040 f   HermitsShackExtender.obj
 0001:0004604c       __ehhandler$?SetHintInH3TextBuffer@HermitsShackExtender@hermitsShack@@EBEHPAUH3MapItem@h3@@PBUH3Hero@4@PBUH3Player@4@H@Z 1004704c f   HermitsShackExtender.obj
 0001:00046058       __ehhandler$?VisitMapItem@HermitsShackExtender@hermitsShack@@EBEHPAUH3Hero@h3@@PAUH3MapItem@4@UH3Position@4@H@Z 10047058 f   HermitsShackExtender.obj
 0001:00046064       __unwindfunclet$?ShowMessage@hermitsShack@@YAXPBUH3MapItem@h3@@HH_N@Z$0 10047064 f   HermitsShackExtender.obj
 0001:0004606c       __unwindfunclet$?ShowMessage@hermitsShack@@YAXPBUH3MapItem@h3@@HH_N@Z$1 1004706c f   HermitsShackExtender.obj
 0001:00046074       __unwindfunclet$?ShowMessage@hermitsShack@@YAXPBUH3MapItem@h3@@HH_N@Z$2 10047074 f   HermitsShackExtender.obj
 0001:0004607c       __unwindfunclet$?ShowMessage@hermitsShack@@YAXPBUH3MapItem@h3@@HH_N@Z$3 1004707c f   HermitsShackExtender.obj
 0001:00046089       __ehhandler$?ShowMessage@hermitsShack@@YAXPBUH3MapItem@h3@@HH_N@Z 10047089 f   HermitsShackExtender.obj
 0001:00046095       __ehhandler$?SetAiMapItemWeight@HermitsShackExtender@hermitsShack@@EBEHPAUH3MapItem@h3@@PAUH3Hero@4@PBUH3Player@4@AAHPAHUH3Position@4@@Z 10047095 f   HermitsShackExtender.obj
 0001:000460a1       __unwindfunclet$??0HermitsShackExtender@hermitsShack@@AAE@XZ$0 100470a1 f   HermitsShackExtender.obj
 0001:000460ae       __ehhandler$??0HermitsShackExtender@hermitsShack@@AAE@XZ 100470ae f   HermitsShackExtender.obj
 0001:000460ba       __unwindfunclet$?Get@HermitsShackExtender@hermitsShack@@SAAAV12@XZ$0 100470ba f   HermitsShackExtender.obj
 0001:000460c6       __unwindfunclet$?Get@HermitsShackExtender@hermitsShack@@SAAAV12@XZ$1 100470c6 f   HermitsShackExtender.obj
 0001:000460d5       __ehhandler$?Get@HermitsShackExtender@hermitsShack@@SAAAV12@XZ 100470d5 f   HermitsShackExtender.obj
 0001:000460f0       __ehhandler$?CreateRMGObjectGen@HillFortExtender@hillFort@@MBEPAUH3RmgObjectGenerator@h3@@ABURMGObjectInfo@@@Z 100470f0 f   HillFortExtender.obj
 0001:000460fc       __unwindfunclet$??0HillFortExtender@hillFort@@AAE@XZ$0 100470fc f   HillFortExtender.obj
 0001:00046109       __ehhandler$??0HillFortExtender@hillFort@@AAE@XZ 10047109 f   HillFortExtender.obj
 0001:00046115       __unwindfunclet$?Get@HillFortExtender@hillFort@@SAAAV12@XZ$0 10047115 f   HillFortExtender.obj
 0001:00046121       __unwindfunclet$?Get@HillFortExtender@hillFort@@SAAAV12@XZ$1 10047121 f   HillFortExtender.obj
 0001:00046130       __ehhandler$?Get@HillFortExtender@hillFort@@SAAAV12@XZ 10047130 f   HillFortExtender.obj
 0001:00046140       __ehhandler$?CreateRMGObjectGen@JunkmanExtender@junkman@@EBEPAUH3RmgObjectGenerator@h3@@ABURMGObjectInfo@@@Z 10047140 f   JunkmanExtender.obj
 0001:0004614c       __ehhandler$?SetHintInH3TextBuffer@JunkmanExtender@junkman@@EBEHPAUH3MapItem@h3@@PBUH3Hero@4@PBUH3Player@4@H@Z 1004714c f   JunkmanExtender.obj
 0001:00046158       __ehhandler$?VisitMapItem@JunkmanExtender@junkman@@EBEHPAUH3Hero@h3@@PAUH3MapItem@4@UH3Position@4@H@Z 10047158 f   JunkmanExtender.obj
 0001:00046164       __unwindfunclet$?Get@JunkmanExtender@junkman@@SAAAV12@XZ$0 10047164 f   JunkmanExtender.obj
 0001:00046175       __ehhandler$?Get@JunkmanExtender@junkman@@SAAAV12@XZ 10047175 f   JunkmanExtender.obj
 0001:00046190       __ehhandler$?CreateRMGObjectGen@MineralSpringExtender@mineralSpring@@EBEPAUH3RmgObjectGenerator@h3@@ABURMGObjectInfo@@@Z 10047190 f   MineralSpringExtender.obj
 0001:0004619c       __ehhandler$?SetHintInH3TextBuffer@MineralSpringExtender@mineralSpring@@EBEHPAUH3MapItem@h3@@PBUH3Hero@4@PBUH3Player@4@H@Z 1004719c f   MineralSpringExtender.obj
 0001:000461a8       __ehhandler$?VisitMapItem@MineralSpringExtender@mineralSpring@@EBEHPAUH3Hero@h3@@PAUH3MapItem@4@UH3Position@4@H@Z 100471a8 f   MineralSpringExtender.obj
 0001:000461b4       __unwindfunclet$?ShowMessage@mineralSpring@@YAXPBUH3MapItem@h3@@_N@Z$0 100471b4 f   MineralSpringExtender.obj
 0001:000461bc       __unwindfunclet$?ShowMessage@mineralSpring@@YAXPBUH3MapItem@h3@@_N@Z$1 100471bc f   MineralSpringExtender.obj
 0001:000461c4       __unwindfunclet$?ShowMessage@mineralSpring@@YAXPBUH3MapItem@h3@@_N@Z$2 100471c4 f   MineralSpringExtender.obj
 0001:000461d1       __ehhandler$?ShowMessage@mineralSpring@@YAXPBUH3MapItem@h3@@_N@Z 100471d1 f   MineralSpringExtender.obj
 0001:000461dd       __ehhandler$?SetAiMapItemWeight@MineralSpringExtender@mineralSpring@@EBEHPAUH3MapItem@h3@@PAUH3Hero@4@PBUH3Player@4@AAHPAHUH3Position@4@@Z 100471dd f   MineralSpringExtender.obj
 0001:000461e9       __unwindfunclet$??0MineralSpringExtender@mineralSpring@@AAE@XZ$0 100471e9 f   MineralSpringExtender.obj
 0001:000461f6       __ehhandler$??0MineralSpringExtender@mineralSpring@@AAE@XZ 100471f6 f   MineralSpringExtender.obj
 0001:00046202       __unwindfunclet$?Get@MineralSpringExtender@mineralSpring@@SAAAV12@XZ$0 10047202 f   MineralSpringExtender.obj
 0001:0004620e       __unwindfunclet$?Get@MineralSpringExtender@mineralSpring@@SAAAV12@XZ$1 1004720e f   MineralSpringExtender.obj
 0001:0004621d       __ehhandler$?Get@MineralSpringExtender@mineralSpring@@SAAAV12@XZ 1004721d f   MineralSpringExtender.obj
 0001:00046230       __ehhandler$?CreateRMGObjectGen@ObservatoryExtender@observatory@@EBEPAUH3RmgObjectGenerator@h3@@ABURMGObjectInfo@@@Z 10047230 f   ObservatoryExtender.obj
 0001:0004623c       __ehhandler$?OnNewWeek_StartFunc@observatory@@YGHPAVLoHook@@PAUHookContext@@@Z 1004723c f   ObservatoryExtender.obj
 0001:00046248       __ehhandler$?OnCalcScoutingRadius_BeforeReturn@observatory@@YGHPAVLoHook@@PAUHookContext@@@Z 10047248 f   ObservatoryExtender.obj
 0001:00046254       __ehhandler$?SetHintInH3TextBuffer@ObservatoryExtender@observatory@@EBEHPAUH3MapItem@h3@@PBUH3Hero@4@PBUH3Player@4@H@Z 10047254 f   ObservatoryExtender.obj
 0001:00046260       __ehhandler$?VisitMapItem@ObservatoryExtender@observatory@@EBEHPAUH3Hero@h3@@PAUH3MapItem@4@UH3Position@4@H@Z 10047260 f   ObservatoryExtender.obj
 0001:0004626c       __unwindfunclet$?ShowMessage@observatory@@YAXPBUH3MapItem@h3@@_N@Z$0 1004726c f   ObservatoryExtender.obj
 0001:00046274       __unwindfunclet$?ShowMessage@observatory@@YAXPBUH3MapItem@h3@@_N@Z$1 10047274 f   ObservatoryExtender.obj
 0001:0004627c       __unwindfunclet$?ShowMessage@observatory@@YAXPBUH3MapItem@h3@@_N@Z$2 1004727c f   ObservatoryExtender.obj
 0001:00046289       __ehhandler$?ShowMessage@observatory@@YAXPBUH3MapItem@h3@@_N@Z 10047289 f   ObservatoryExtender.obj
 0001:00046295       __ehhandler$?SetAiMapItemWeight@ObservatoryExtender@observatory@@EBEHPAUH3MapItem@h3@@PAUH3Hero@4@PBUH3Player@4@AAHPAHUH3Position@4@@Z 10047295 f   ObservatoryExtender.obj
 0001:000462a1       __unwindfunclet$??0ObservatoryExtender@observatory@@AAE@XZ$0 100472a1 f   ObservatoryExtender.obj
 0001:000462ae       __ehhandler$??0ObservatoryExtender@observatory@@AAE@XZ 100472ae f   ObservatoryExtender.obj
 0001:000462ba       __unwindfunclet$?Get@ObservatoryExtender@observatory@@SAAAV12@XZ$0 100472ba f   ObservatoryExtender.obj
 0001:000462c6       __unwindfunclet$?Get@ObservatoryExtender@observatory@@SAAAV12@XZ$1 100472c6 f   ObservatoryExtender.obj
 0001:000462d5       __ehhandler$?Get@ObservatoryExtender@observatory@@SAAAV12@XZ 100472d5 f   ObservatoryExtender.obj
 0001:000462f0       __ehhandler$?Shrine__AtGetHint@ShrinesExternder@shrines@@CGHPAVLoHook@@PAUHookContext@@@Z 100472f0 f   ShrinesExternder.obj
 0001:000462fc       __ehhandler$?GetCustomHint@ShrinesExternder@shrines@@CAPBDPBUH3MapItem@h3@@@Z 100472fc f   ShrinesExternder.obj
 0001:00046308       __ehhandler$?Shrine__AtGetName@ShrinesExternder@shrines@@CGHPAVLoHook@@PAUHookContext@@@Z 10047308 f   ShrinesExternder.obj
 0001:00046314       __ehhandler$?GetCustomName@ShrinesExternder@shrines@@CAPBDPBUH3MapItem@h3@@@Z 10047314 f   ShrinesExternder.obj
 0001:00046320       __ehhandler$?Shrine__AtWisdomCheck@ShrinesExternder@shrines@@CGHPAVLoHook@@PAUHookContext@@@Z 10047320 f   ShrinesExternder.obj
 0001:0004632c       __ehhandler$?Shrine__AtVisit@ShrinesExternder@shrines@@CGHPAVLoHook@@PAUHookContext@@@Z 1004732c f   ShrinesExternder.obj
 0001:00046338       __ehhandler$?CreateRMGObjectGen@ShrinesExternder@shrines@@MBEPAUH3RmgObjectGenerator@h3@@ABURMGObjectInfo@@@Z 10047338 f   ShrinesExternder.obj
 0001:00046344       __unwindfunclet$??0ShrinesExternder@shrines@@AAE@XZ$0 10047344 f   ShrinesExternder.obj
 0001:00046351       __ehhandler$??0ShrinesExternder@shrines@@AAE@XZ 10047351 f   ShrinesExternder.obj
 0001:0004635d       __unwindfunclet$?Get@ShrinesExternder@shrines@@SAAAV12@XZ$0 1004735d f   ShrinesExternder.obj
 0001:00046369       __unwindfunclet$?Get@ShrinesExternder@shrines@@SAAAV12@XZ$1 10047369 f   ShrinesExternder.obj
 0001:00046378       __ehhandler$?Get@ShrinesExternder@shrines@@SAAAV12@XZ 10047378 f   ShrinesExternder.obj
 0001:00046390       __ehhandler$?CreateRMGObjectGen@SkeletonTransformerExtender@skeletonTransformer@@EBEPAUH3RmgObjectGenerator@h3@@ABURMGObjectInfo@@@Z 10047390 f   SkeletonTransformerExtender.obj
 0001:0004639c       __ehhandler$?SetHintInH3TextBuffer@SkeletonTransformerExtender@skeletonTransformer@@EBEHPAUH3MapItem@h3@@PBUH3Hero@4@PBUH3Player@4@H@Z 1004739c f   SkeletonTransformerExtender.obj
 0001:000463a8       __ehhandler$?VisitMapItem@SkeletonTransformerExtender@skeletonTransformer@@EBEHPAUH3Hero@h3@@PAUH3MapItem@4@UH3Position@4@H@Z 100473a8 f   SkeletonTransformerExtender.obj
 0001:000463b4       __unwindfunclet$?Get@SkeletonTransformerExtender@skeletonTransformer@@SAAAV12@XZ$0 100473b4 f   SkeletonTransformerExtender.obj
 0001:000463c5       __ehhandler$?Get@SkeletonTransformerExtender@skeletonTransformer@@SAAAV12@XZ 100473c5 f   SkeletonTransformerExtender.obj
 0001:000463e0       __ehhandler$?CreateRMGObjectGen@TempleOfLoyaltyExtender@templeOfLoyalty@@EBEPAUH3RmgObjectGenerator@h3@@ABURMGObjectInfo@@@Z 100473e0 f   TempleOfLoyaltyExtender.obj
 0001:000463ec       __ehhandler$?TempleOfLoyalty_SetArmyFractionsCountValue@templeOfLoyalty@@YGHPAVLoHook@@PAUHookContext@@@Z 100473ec f   TempleOfLoyaltyExtender.obj
 0001:000463f8       __ehhandler$?TempleOfLoyalty_SetArmyFractionsCountDesc@templeOfLoyalty@@YGHPAVLoHook@@PAUHookContext@@@Z 100473f8 f   TempleOfLoyaltyExtender.obj
 0001:00046404       __ehhandler$?OnEveryDay@templeOfLoyalty@@YGXPAUTEvent@Era@@@Z 10047404 f   TempleOfLoyaltyExtender.obj
 0001:00046410       __ehhandler$?SetHintInH3TextBuffer@TempleOfLoyaltyExtender@templeOfLoyalty@@EBEHPAUH3MapItem@h3@@PBUH3Hero@4@PBUH3Player@4@H@Z 10047410 f   TempleOfLoyaltyExtender.obj
 0001:0004641c       __ehhandler$?VisitMapItem@TempleOfLoyaltyExtender@templeOfLoyalty@@EBEHPAUH3Hero@h3@@PAUH3MapItem@4@UH3Position@4@H@Z 1004741c f   TempleOfLoyaltyExtender.obj
 0001:00046428       __unwindfunclet$?ShowMessage@templeOfLoyalty@@YAXPBUH3MapItem@h3@@_N@Z$0 10047428 f   TempleOfLoyaltyExtender.obj
 0001:00046430       __unwindfunclet$?ShowMessage@templeOfLoyalty@@YAXPBUH3MapItem@h3@@_N@Z$1 10047430 f   TempleOfLoyaltyExtender.obj
 0001:00046438       __unwindfunclet$?ShowMessage@templeOfLoyalty@@YAXPBUH3MapItem@h3@@_N@Z$2 10047438 f   TempleOfLoyaltyExtender.obj
 0001:00046445       __ehhandler$?ShowMessage@templeOfLoyalty@@YAXPBUH3MapItem@h3@@_N@Z 10047445 f   TempleOfLoyaltyExtender.obj
 0001:00046451       __ehhandler$?SetAiMapItemWeight@TempleOfLoyaltyExtender@templeOfLoyalty@@EBEHPAUH3MapItem@h3@@PAUH3Hero@4@PBUH3Player@4@AAHPAHUH3Position@4@@Z 10047451 f   TempleOfLoyaltyExtender.obj
 0001:0004645d       __unwindfunclet$??0TempleOfLoyaltyExtender@templeOfLoyalty@@AAE@XZ$0 1004745d f   TempleOfLoyaltyExtender.obj
 0001:0004646a       __ehhandler$??0TempleOfLoyaltyExtender@templeOfLoyalty@@AAE@XZ 1004746a f   TempleOfLoyaltyExtender.obj
 0001:00046476       __unwindfunclet$?Get@TempleOfLoyaltyExtender@templeOfLoyalty@@SAAAV12@XZ$0 10047476 f   TempleOfLoyaltyExtender.obj
 0001:00046482       __unwindfunclet$?Get@TempleOfLoyaltyExtender@templeOfLoyalty@@SAAAV12@XZ$1 10047482 f   TempleOfLoyaltyExtender.obj
 0001:00046491       __ehhandler$?Get@TempleOfLoyaltyExtender@templeOfLoyalty@@SAAAV12@XZ 10047491 f   TempleOfLoyaltyExtender.obj
 0001:000464a0       __ehhandler$?CreateRMGObjectGen@TrailblazerExtender@trailblazer@@EBEPAUH3RmgObjectGenerator@h3@@ABURMGObjectInfo@@@Z 100474a0 f   TrailblazerExtender.obj
 0001:000464ac       __ehhandler$?CreatePatches@TrailblazerExtender@trailblazer@@EAEXXZ 100474ac f   TrailblazerExtender.obj
 0001:000464b8       __ehhandler$?Get_Step_Cost@trailblazer@@YGHPAVHiHook@@PAUH3MapItem@h3@@DHHHHHHH@Z 100474b8 f   TrailblazerExtender.obj
 0001:000464c4       __ehhandler$?OnNewWeek_StartFunc@trailblazer@@YGHPAVLoHook@@PAUHookContext@@@Z 100474c4 f   TrailblazerExtender.obj
 0001:000464d0       __ehhandler$?SetHintInH3TextBuffer@TrailblazerExtender@trailblazer@@EBEHPAUH3MapItem@h3@@PBUH3Hero@4@PBUH3Player@4@H@Z 100474d0 f   TrailblazerExtender.obj
 0001:000464dc       __ehhandler$?VisitMapItem@TrailblazerExtender@trailblazer@@EBEHPAUH3Hero@h3@@PAUH3MapItem@4@UH3Position@4@H@Z 100474dc f   TrailblazerExtender.obj
 0001:000464e8       __unwindfunclet$?ShowMessage@trailblazer@@YAXPBUH3MapItem@h3@@_N@Z$0 100474e8 f   TrailblazerExtender.obj
 0001:000464f0       __unwindfunclet$?ShowMessage@trailblazer@@YAXPBUH3MapItem@h3@@_N@Z$1 100474f0 f   TrailblazerExtender.obj
 0001:000464f8       __unwindfunclet$?ShowMessage@trailblazer@@YAXPBUH3MapItem@h3@@_N@Z$2 100474f8 f   TrailblazerExtender.obj
 0001:00046505       __ehhandler$?ShowMessage@trailblazer@@YAXPBUH3MapItem@h3@@_N@Z 10047505 f   TrailblazerExtender.obj
 0001:00046511       __ehhandler$?SetAiMapItemWeight@TrailblazerExtender@trailblazer@@EBEHPAUH3MapItem@h3@@PAUH3Hero@4@PBUH3Player@4@AAHPAHUH3Position@4@@Z 10047511 f   TrailblazerExtender.obj
 0001:0004651d       __unwindfunclet$??0TrailblazerExtender@trailblazer@@AAE@XZ$0 1004751d f   TrailblazerExtender.obj
 0001:0004652a       __ehhandler$??0TrailblazerExtender@trailblazer@@AAE@XZ 1004752a f   TrailblazerExtender.obj
 0001:00046536       __unwindfunclet$?Get@TrailblazerExtender@trailblazer@@SAAAV12@XZ$0 10047536 f   TrailblazerExtender.obj
 0001:00046542       __unwindfunclet$?Get@TrailblazerExtender@trailblazer@@SAAAV12@XZ$1 10047542 f   TrailblazerExtender.obj
 0001:00046551       __ehhandler$?Get@TrailblazerExtender@trailblazer@@SAAAV12@XZ 10047551 f   TrailblazerExtender.obj
 0001:00046560       __ehhandler$?University_AtGetName@university@@YGHPAVLoHook@@PAUHookContext@@@Z 10047560 f   UniversityExtender.obj
 0001:0004656c       __ehhandler$?UniversityDlg_SetWidgetText@university@@YGHPAVLoHook@@PAUHookContext@@@Z 1004756c f   UniversityExtender.obj
 0001:00046578       __ehhandler$?SetHintInH3TextBuffer@UniversityExtender@university@@MBEHPAUH3MapItem@h3@@PBUH3Hero@4@PBUH3Player@4@H@Z 10047578 f   UniversityExtender.obj
 0001:00046584       __unwindfunclet$?AfterLoadingObjectTxtProc@UniversityExtender@university@@MAEXPBF@Z$6 10047584 f   UniversityExtender.obj
 0001:0004658c       __unwindfunclet$?AfterLoadingObjectTxtProc@UniversityExtender@university@@MAEXPBF@Z$7 1004758c f   UniversityExtender.obj
 0001:00046594       __unwindfunclet$?AfterLoadingObjectTxtProc@UniversityExtender@university@@MAEXPBF@Z$0 10047594 f   UniversityExtender.obj
 0001:000465a1       __ehhandler$?AfterLoadingObjectTxtProc@UniversityExtender@university@@MAEXPBF@Z 100475a1 f   UniversityExtender.obj
 0001:000465ad       __ehhandler$?CreateRMGObjectGen@UniversityExtender@university@@MBEPAUH3RmgObjectGenerator@h3@@ABURMGObjectInfo@@@Z 100475ad f   UniversityExtender.obj
 0001:000465b9       __unwindfunclet$?Get@UniversityExtender@university@@SAAAV12@XZ$0 100475b9 f   UniversityExtender.obj
 0001:000465ca       __ehhandler$?Get@UniversityExtender@university@@SAAAV12@XZ 100475ca f   UniversityExtender.obj
 0001:000465e0       __ehhandler$?CreateRMGObjectGen@WarehousesExtender@warehouses@@EBEPAUH3RmgObjectGenerator@h3@@ABURMGObjectInfo@@@Z 100475e0 f   WarehousesExtender.obj
 0001:000465ec       __ehhandler$?SetAiMapItemWeight@WarehousesExtender@warehouses@@EBEHPAUH3MapItem@h3@@PAUH3Hero@4@PBUH3Player@4@AAHPAHUH3Position@4@@Z 100475ec f   WarehousesExtender.obj
 0001:000465f8       __ehhandler$?VisitMapItem@WarehousesExtender@warehouses@@EBEHPAUH3Hero@h3@@PAUH3MapItem@4@UH3Position@4@H@Z 100475f8 f   WarehousesExtender.obj
 0001:00046604       __ehhandler$?SetHintInH3TextBuffer@WarehousesExtender@warehouses@@EBEHPAUH3MapItem@h3@@PBUH3Hero@4@PBUH3Player@4@H@Z 10047604 f   WarehousesExtender.obj
 0001:00046610       __unwindfunclet$?ShowMessage@warehouses@@YAXPBUH3MapItem@h3@@HH@Z$0 10047610 f   WarehousesExtender.obj
 0001:00046618       __unwindfunclet$?ShowMessage@warehouses@@YAXPBUH3MapItem@h3@@HH@Z$1 10047618 f   WarehousesExtender.obj
 0001:00046620       __unwindfunclet$?ShowMessage@warehouses@@YAXPBUH3MapItem@h3@@HH@Z$2 10047620 f   WarehousesExtender.obj
 0001:00046639       __unwindfunclet$?ShowMessage@warehouses@@YAXPBUH3MapItem@h3@@HH@Z$3 10047639 f   WarehousesExtender.obj
 0001:00046657       __ehhandler$?ShowMessage@warehouses@@YAXPBUH3MapItem@h3@@HH@Z 10047657 f   WarehousesExtender.obj
 0001:00046663       __unwindfunclet$?Get@WarehousesExtender@warehouses@@SAAAV12@XZ$0 10047663 f   WarehousesExtender.obj
 0001:00046674       __ehhandler$?Get@WarehousesExtender@warehouses@@SAAAV12@XZ 10047674 f   WarehousesExtender.obj
 0001:00046680       __ehhandler$?CreateRMGObjectGen@WateringPlaceExtender@wateringPlace@@EBEPAUH3RmgObjectGenerator@h3@@ABURMGObjectInfo@@@Z 10047680 f   WateringPlaceExtender.obj
 0001:0004668c       __ehhandler$?OnEveryDay@wateringPlace@@YGXPAUTEvent@Era@@@Z 1004768c f   WateringPlaceExtender.obj
 0001:00046698       __ehhandler$?SetHintInH3TextBuffer@WateringPlaceExtender@wateringPlace@@EBEHPAUH3MapItem@h3@@PBUH3Hero@4@PBUH3Player@4@H@Z 10047698 f   WateringPlaceExtender.obj
 0001:000466a4       __ehhandler$?VisitMapItem@WateringPlaceExtender@wateringPlace@@EBEHPAUH3Hero@h3@@PAUH3MapItem@4@UH3Position@4@H@Z 100476a4 f   WateringPlaceExtender.obj
 0001:000466b0       __unwindfunclet$?AskQuestion@wateringPlace@@YAHPBUH3MapItem@h3@@@Z$0 100476b0 f   WateringPlaceExtender.obj
 0001:000466b8       __unwindfunclet$?AskQuestion@wateringPlace@@YAHPBUH3MapItem@h3@@@Z$1 100476b8 f   WateringPlaceExtender.obj
 0001:000466c5       __ehhandler$?AskQuestion@wateringPlace@@YAHPBUH3MapItem@h3@@@Z 100476c5 f   WateringPlaceExtender.obj
 0001:000466d1       __unwindfunclet$?ShowMessage@wateringPlace@@YAXPBUH3MapItem@h3@@@Z$0 100476d1 f   WateringPlaceExtender.obj
 0001:000466d9       __unwindfunclet$?ShowMessage@wateringPlace@@YAXPBUH3MapItem@h3@@@Z$1 100476d9 f   WateringPlaceExtender.obj
 0001:000466e6       __ehhandler$?ShowMessage@wateringPlace@@YAXPBUH3MapItem@h3@@@Z 100476e6 f   WateringPlaceExtender.obj
 0001:000466f2       __ehhandler$?SetAiMapItemWeight@WateringPlaceExtender@wateringPlace@@EBEHPAUH3MapItem@h3@@PAUH3Hero@4@PBUH3Player@4@AAHPAHUH3Position@4@@Z 100476f2 f   WateringPlaceExtender.obj
 0001:000466fe       __unwindfunclet$??0WateringPlaceExtender@wateringPlace@@AAE@XZ$0 100476fe f   WateringPlaceExtender.obj
 0001:0004670b       __ehhandler$??0WateringPlaceExtender@wateringPlace@@AAE@XZ 1004770b f   WateringPlaceExtender.obj
 0001:00046717       __unwindfunclet$?Get@WateringPlaceExtender@wateringPlace@@SAAAV12@XZ$0 10047717 f   WateringPlaceExtender.obj
 0001:00046723       __unwindfunclet$?Get@WateringPlaceExtender@wateringPlace@@SAAAV12@XZ$1 10047723 f   WateringPlaceExtender.obj
 0001:00046732       __ehhandler$?Get@WateringPlaceExtender@wateringPlace@@SAAAV12@XZ 10047732 f   WateringPlaceExtender.obj
 0001:00046740       __ehhandler$?AfterLoadingObjectTxtProc@WoGObjectsExtender@wog@@MAEXPBF@Z 10047740 f   WoGObjectsExtender.obj
 0001:0004674c       __ehhandler$?CreateRMGObjectGen@WoGObjectsExtender@wog@@MBEPAUH3RmgObjectGenerator@h3@@ABURMGObjectInfo@@@Z 1004774c f   WoGObjectsExtender.obj
 0001:00046758       __unwindfunclet$?Get@WoGObjectsExtender@wog@@SAAAV12@XZ$0 10047758 f   WoGObjectsExtender.obj
 0001:00046769       __ehhandler$?Get@WoGObjectsExtender@wog@@SAAAV12@XZ 10047769 f   WoGObjectsExtender.obj
 0001:00046780       __ehhandler$?AddProperty@ObjectProperty@extender@@SAHAAV?$basic_string@DU?$char_traits@D@std@@V?$allocator@D@2@@std@@@Z 10047780 f   ObjectsExtender.obj
 0001:0004678c       __ehhandler$?GetMapKey@ObjectProperty@extender@@SA?AV?$basic_string@DU?$char_traits@D@std@@V?$allocator@D@2@@std@@PBD@Z 1004778c f   ObjectsExtender.obj
 0001:00046798       __ehhandler$?ShowObjectHint@ObjectsExtender@extender@@CAHPAVLoHook@@PAUHookContext@@H@Z 10047798 f   ObjectsExtender.obj
 0001:000467a4       __unwindfunclet$?AddObjectsToObjectGenList@ObjectsExtender@extender@@SAXPAU?$H3Vector@PAUH3RmgObjectGenerator@h3@@@h3@@@Z$4 100477a4 f   ObjectsExtender.obj
 0001:000467ac       __unwindfunclet$?AddObjectsToObjectGenList@ObjectsExtender@extender@@SAXPAU?$H3Vector@PAUH3RmgObjectGenerator@h3@@@h3@@@Z$5 100477ac f   ObjectsExtender.obj
 0001:000467b4       __unwindfunclet$?AddObjectsToObjectGenList@ObjectsExtender@extender@@SAXPAU?$H3Vector@PAUH3RmgObjectGenerator@h3@@@h3@@@Z$0 100477b4 f   ObjectsExtender.obj
 0001:000467c1       __ehhandler$?AddObjectsToObjectGenList@ObjectsExtender@extender@@SAXPAU?$H3Vector@PAUH3RmgObjectGenerator@h3@@@h3@@@Z 100477c1 f   ObjectsExtender.obj
 0001:000467cd       __unwindfunclet$?H3GameMainSetup__LoadObjects@ObjectsExtender@extender@@CGXPAVHiHook@@PBUH3MainSetup@h3@@@Z$0 100477cd f   ObjectsExtender.obj
 0001:000467d5       __unwindfunclet$?H3GameMainSetup__LoadObjects@ObjectsExtender@extender@@CGXPAVHiHook@@PBUH3MainSetup@h3@@@Z$27 100477d5 f   ObjectsExtender.obj
 0001:000467e4       __unwindfunclet$?H3GameMainSetup__LoadObjects@ObjectsExtender@extender@@CGXPAVHiHook@@PBUH3MainSetup@h3@@@Z$26 100477e4 f   ObjectsExtender.obj
 0001:000467ec       __unwindfunclet$?H3GameMainSetup__LoadObjects@ObjectsExtender@extender@@CGXPAVHiHook@@PBUH3MainSetup@h3@@@Z$7 100477ec f   ObjectsExtender.obj
 0001:000467f4       __unwindfunclet$?H3GameMainSetup__LoadObjects@ObjectsExtender@extender@@CGXPAVHiHook@@PBUH3MainSetup@h3@@@Z$22 100477f4 f   ObjectsExtender.obj
 0001:000467fc       __unwindfunclet$?H3GameMainSetup__LoadObjects@ObjectsExtender@extender@@CGXPAVHiHook@@PBUH3MainSetup@h3@@@Z$20 100477fc f   ObjectsExtender.obj
 0001:00046809       __ehhandler$?H3GameMainSetup__LoadObjects@ObjectsExtender@extender@@CGXPAVHiHook@@PBUH3MainSetup@h3@@@Z 10047809 f   ObjectsExtender.obj
 0001:00046815       __ehhandler$?LoadMapObjectPropertiesFromLoadedMods@ObjectsExtender@extender@@CAXXZ 10047815 f   ObjectsExtender.obj
 0001:00046821       __ehhandler$?LoadMapObjectPropertiesByTypeSubtypes@ObjectsExtender@extender@@CAXXZ 10047821 f   ObjectsExtender.obj
 0001:0004682d       __unwindfunclet$?LoadObjectsTxt@ObjectsExtender@extender@@CGHPAVLoHook@@PAUHookContext@@@Z$12 1004782d f   ObjectsExtender.obj
 0001:00046835       __unwindfunclet$?LoadObjectsTxt@ObjectsExtender@extender@@CGHPAVLoHook@@PAUHookContext@@@Z$13 10047835 f   ObjectsExtender.obj
 0001:0004683d       __unwindfunclet$?LoadObjectsTxt@ObjectsExtender@extender@@CGHPAVLoHook@@PAUHookContext@@@Z$11 1004783d f   ObjectsExtender.obj
 0001:00046845       __unwindfunclet$?LoadObjectsTxt@ObjectsExtender@extender@@CGHPAVLoHook@@PAUHookContext@@@Z$1 10047845 f   ObjectsExtender.obj
 0001:0004684d       __unwindfunclet$?LoadObjectsTxt@ObjectsExtender@extender@@CGHPAVLoHook@@PAUHookContext@@@Z$3 1004784d f   ObjectsExtender.obj
 0001:00046855       __unwindfunclet$?LoadObjectsTxt@ObjectsExtender@extender@@CGHPAVLoHook@@PAUHookContext@@@Z$2 10047855 f   ObjectsExtender.obj
 0001:00046862       __ehhandler$?LoadObjectsTxt@ObjectsExtender@extender@@CGHPAVLoHook@@PAUHookContext@@@Z 10047862 f   ObjectsExtender.obj
 0001:0004686e       __ehhandler$?CreateRMGObjectGen@ObjectsExtender@extender@@MBEPAUH3RmgObjectGenerator@h3@@ABURMGObjectInfo@@@Z 1004786e f   ObjectsExtender.obj
 0001:0004687a       __ehhandler$?CreateDefaultH3RmgObjectGenerator@ObjectsExtender@extender@@KAPAUH3RmgObjectGenerator@h3@@ABURMGObjectInfo@@@Z 1004787a f   ObjectsExtender.obj
 0001:00046890       __ehhandler$?Clear@GeneratedInfo@@QAEXPBUH3RmgRandomMapGenerator@h3@@@Z 10047890 f   RMGObjectsEditor.obj
 0001:0004689c       __unwindfunclet$?Assign@GeneratedInfo@@QAEXPBUH3RmgRandomMapGenerator@h3@@AAY0OI@$$CBV?$vector@URMGObjectInfo@@V?$allocator@URMGObjectInfo@@@std@@@std@@@Z$29 1004789c f   RMGObjectsEditor.obj
 0001:000468a4       __unwindfunclet$?Assign@GeneratedInfo@@QAEXPBUH3RmgRandomMapGenerator@h3@@AAY0OI@$$CBV?$vector@URMGObjectInfo@@V?$allocator@URMGObjectInfo@@@std@@@std@@@Z$30 100478a4 f   RMGObjectsEditor.obj
 0001:000468ac       __unwindfunclet$?Assign@GeneratedInfo@@QAEXPBUH3RmgRandomMapGenerator@h3@@AAY0OI@$$CBV?$vector@URMGObjectInfo@@V?$allocator@URMGObjectInfo@@@std@@@std@@@Z$2 100478ac f   RMGObjectsEditor.obj
 0001:000468b4       __unwindfunclet$?Assign@GeneratedInfo@@QAEXPBUH3RmgRandomMapGenerator@h3@@AAY0OI@$$CBV?$vector@URMGObjectInfo@@V?$allocator@URMGObjectInfo@@@std@@@std@@@Z$3 100478b4 f   RMGObjectsEditor.obj
 0001:000468bc       __unwindfunclet$?Assign@GeneratedInfo@@QAEXPBUH3RmgRandomMapGenerator@h3@@AAY0OI@$$CBV?$vector@URMGObjectInfo@@V?$allocator@URMGObjectInfo@@@std@@@std@@@Z$4 100478bc f   RMGObjectsEditor.obj
 0001:000468c4       __unwindfunclet$?Assign@GeneratedInfo@@QAEXPBUH3RmgRandomMapGenerator@h3@@AAY0OI@$$CBV?$vector@URMGObjectInfo@@V?$allocator@URMGObjectInfo@@@std@@@std@@@Z$5 100478c4 f   RMGObjectsEditor.obj
 0001:000468cc       __unwindfunclet$?Assign@GeneratedInfo@@QAEXPBUH3RmgRandomMapGenerator@h3@@AAY0OI@$$CBV?$vector@URMGObjectInfo@@V?$allocator@URMGObjectInfo@@@std@@@std@@@Z$6 100478cc f   RMGObjectsEditor.obj
 0001:000468d4       __unwindfunclet$?Assign@GeneratedInfo@@QAEXPBUH3RmgRandomMapGenerator@h3@@AAY0OI@$$CBV?$vector@URMGObjectInfo@@V?$allocator@URMGObjectInfo@@@std@@@std@@@Z$7 100478d4 f   RMGObjectsEditor.obj
 0001:000468e1       __ehhandler$?Assign@GeneratedInfo@@QAEXPBUH3RmgRandomMapGenerator@h3@@AAY0OI@$$CBV?$vector@URMGObjectInfo@@V?$allocator@URMGObjectInfo@@@std@@@std@@@Z 100478e1 f   RMGObjectsEditor.obj
 0001:000468ed       __ehhandler$?GetObjectName@RMGObjectInfo@@SAPBDHH@Z 100478ed f   RMGObjectsEditor.obj
 0001:000468f9       __ehhandler$?LoadUserProperties@RMGObjectInfo@@SAXPBF@Z 100478f9 f   RMGObjectsEditor.obj
 0001:00046905       __ehhandler$?InitDefaultProperties@RMGObjectInfo@@SAXABUObjectLimitsInfo@@PBF@Z 10047905 f   RMGObjectsEditor.obj
 0001:00046911       __ehhandler$?WriteToINI@RMGObjectInfo@@QBEHXZ 10047911 f   RMGObjectsEditor.obj
 0001:0004691d       __ehhandler$?GetName@RMGObjectInfo@@QBEPBDXZ 1004791d f   RMGObjectsEditor.obj
 0001:00046929       __ehhandler$?RMG__RMGObjGenScroll__CreateObject@RMGObjectsEditor@editor@@CGPAUH3RmgObject@h3@@PAVHiHook@@PAU_RMGObjGenScroll_@@PAUH3RmgObjectPropsRef@4@PAUH3RmgRandomMapGenerator@4@PAUH3RmgZoneGenerator@4@@Z 10047929 f   RMGObjectsEditor.obj
 0001:00046935       __ehhandler$?AfterMapGeneration@RMGObjectsEditor@editor@@AAEXPAUH3RmgRandomMapGenerator@h3@@@Z 10047935 f   RMGObjectsEditor.obj
 0001:00046941       __ehhandler$?RMG__AfterMapGenerated@RMGObjectsEditor@editor@@CGXPAVHiHook@@PAUH3RmgRandomMapGenerator@h3@@@Z 10047941 f   RMGObjectsEditor.obj
 0001:0004694d       __ehhandler$?RMG__CreateObjectGenerators@RMGObjectsEditor@editor@@CGXPAVHiHook@@PAUH3RmgRandomMapGenerator@h3@@@Z 1004794d f   RMGObjectsEditor.obj
 0001:00046959       __ehhandler$??1RMGObjectsEditor@editor@@EAE@XZ 10047959 f   RMGObjectsEditor.obj
 0001:00046965       __ehhandler$?InitDefaultProperties@RMGObjectsEditor@editor@@AAEXPBF@Z 10047965 f   RMGObjectsEditor.obj
 0001:00046971       __unwindfunclet$??0RMGObjectsEditor@editor@@AAE@XZ$0 10047971 f   RMGObjectsEditor.obj
 0001:0004697c       __unwindfunclet$??0RMGObjectsEditor@editor@@AAE@XZ$1 1004797c f   RMGObjectsEditor.obj
 0001:0004698f       __ehhandler$??0RMGObjectsEditor@editor@@AAE@XZ 1004798f f   RMGObjectsEditor.obj
 0001:0004699b       __unwindfunclet$?Init@RMGObjectsEditor@editor@@SAXPBF@Z$2 1004799b f   RMGObjectsEditor.obj
 0001:000469a3       __unwindfunclet$?Init@RMGObjectsEditor@editor@@SAXPBF@Z$0 100479a3 f   RMGObjectsEditor.obj
 0001:000469b0       __ehhandler$?Init@RMGObjectsEditor@editor@@SAXPBF@Z 100479b0 f   RMGObjectsEditor.obj
 0001:000469bc       __ehhandler$?Get@RMGObjectsEditor@editor@@SAAAV12@XZ 100479bc f   RMGObjectsEditor.obj
 0001:000469d0       __unwindfunclet$?GameStart@rmgdlg@@YGXPAVHiHook@@K@Z$3 100479d0 f   RMG_SettingsDlg.obj
 0001:000469d8       __unwindfunclet$?GameStart@rmgdlg@@YGXPAVHiHook@@K@Z$0 100479d8 f   RMG_SettingsDlg.obj
 0001:000469e5       __ehhandler$?GameStart@rmgdlg@@YGXPAVHiHook@@K@Z 100479e5 f   RMG_SettingsDlg.obj
 0001:000469f1       __ehhandler$?CreateGraphics@rmgdlg@@YAXABU?$H3Vector@PAUH3RmgObjectGenerator@h3@@@h3@@@Z 100479f1 f   RMG_SettingsDlg.obj
 0001:000469fd       __ehhandler$?CreateResizedObjectPcx@rmgdlg@@YAXXZ 100479fd f   RMG_SettingsDlg.obj
 0001:00046a09       __unwindfunclet$?NewScenarioDlg_Create@RMG_SettingsDlg@rmgdlg@@CGXPAVHiHook@@PAUH3SelectScenarioDialog@h3@@K@Z$0 10047a09 f   RMG_SettingsDlg.obj
 0001:00046a16       __ehhandler$?NewScenarioDlg_Create@RMG_SettingsDlg@rmgdlg@@CGXPAVHiHook@@PAUH3SelectScenarioDialog@h3@@K@Z 10047a16 f   RMG_SettingsDlg.obj
 0001:00046a22       __unwindfunclet$?SelectScenarioDlgRandomizeProc@rmgdlg@@YIHPAUH3Msg@h3@@@Z$0 10047a22 f   RMG_SettingsDlg.obj
 0001:00046a2f       __ehhandler$?SelectScenarioDlgRandomizeProc@rmgdlg@@YIHPAUH3Msg@h3@@@Z 10047a2f f   RMG_SettingsDlg.obj
 0001:00046a3b       __unwindfunclet$?H3SelectScenarioDialog_ShowRandomMapsSettings@RMG_SettingsDlg@rmgdlg@@CGHPAVLoHook@@PAUHookContext@@@Z$0 10047a3b f   RMG_SettingsDlg.obj
 0001:00046a48       __ehhandler$?H3SelectScenarioDialog_ShowRandomMapsSettings@RMG_SettingsDlg@rmgdlg@@CGHPAVLoHook@@PAUHookContext@@@Z 10047a48 f   RMG_SettingsDlg.obj
 0001:00046a54       __unwindfunclet$?Dlg_SelectScenario_Proc@RMG_SettingsDlg@rmgdlg@@CGHPAVLoHook@@PAUHookContext@@@Z$0 10047a54 f   RMG_SettingsDlg.obj
 0001:00046a5f       __unwindfunclet$?Dlg_SelectScenario_Proc@RMG_SettingsDlg@rmgdlg@@CGHPAVLoHook@@PAUHookContext@@@Z$1 10047a5f f   RMG_SettingsDlg.obj
 0001:00046a6c       __ehhandler$?Dlg_SelectScenario_Proc@RMG_SettingsDlg@rmgdlg@@CGHPAVLoHook@@PAUHookContext@@@Z 10047a6c f   RMG_SettingsDlg.obj
 0001:00046a78       __unwindfunclet$?GetObjectPrototypesLists@rmgdlg@@YAXXZ$0 10047a78 f   RMG_SettingsDlg.obj
 0001:00046a80       __unwindfunclet$?GetObjectPrototypesLists@rmgdlg@@YAXXZ$1 10047a80 f   RMG_SettingsDlg.obj
 0001:00046a88       __unwindfunclet$?GetObjectPrototypesLists@rmgdlg@@YAXXZ$2 10047a88 f   RMG_SettingsDlg.obj
 0001:00046a90       __unwindfunclet$?GetObjectPrototypesLists@rmgdlg@@YAXXZ$5 10047a90 f   RMG_SettingsDlg.obj
 0001:00046a98       __unwindfunclet$?GetObjectPrototypesLists@rmgdlg@@YAXXZ$6 10047a98 f   RMG_SettingsDlg.obj
 0001:00046aa3       __unwindfunclet$?GetObjectPrototypesLists@rmgdlg@@YAXXZ$16 10047aa3 f   RMG_SettingsDlg.obj
 0001:00046ab0       __ehhandler$?GetObjectPrototypesLists@rmgdlg@@YAXXZ 10047ab0 f   RMG_SettingsDlg.obj
 0001:00046abc       __unwindfunclet$?FindDataInObjectGeneratorsList@rmgdlg@@YAXAAV?$vector@U?$pair@UH3ObjectAttributes@h3@@PAUH3LoadedPcx16@2@@std@@V?$allocator@U?$pair@UH3ObjectAttributes@h3@@PAUH3LoadedPcx16@2@@std@@@2@@std@@@Z$0 10047abc f   RMG_SettingsDlg.obj
 0001:00046ac9       __ehhandler$?FindDataInObjectGeneratorsList@rmgdlg@@YAXAAV?$vector@U?$pair@UH3ObjectAttributes@h3@@PAUH3LoadedPcx16@2@@std@@V?$allocator@U?$pair@UH3ObjectAttributes@h3@@PAUH3LoadedPcx16@2@@std@@@2@@std@@@Z 10047ac9 f   RMG_SettingsDlg.obj
 0001:00046ad5       __unwindfunclet$?GetObjectPrototypesByTypes@rmgdlg@@YAXAAV?$vector@U?$pair@UH3ObjectAttributes@h3@@PAUH3LoadedPcx16@2@@std@@V?$allocator@U?$pair@UH3ObjectAttributes@h3@@PAUH3LoadedPcx16@2@@std@@@2@@std@@PBHI@Z$0 10047ad5 f   RMG_SettingsDlg.obj
 0001:00046ae2       __ehhandler$?GetObjectPrototypesByTypes@rmgdlg@@YAXAAV?$vector@U?$pair@UH3ObjectAttributes@h3@@PAUH3LoadedPcx16@2@@std@@V?$allocator@U?$pair@UH3ObjectAttributes@h3@@PAUH3LoadedPcx16@2@@std@@@2@@std@@PBHI@Z 10047ae2 f   RMG_SettingsDlg.obj
 0001:00046aee       __unwindfunclet$??0PageHeader@ObjectsPage@RMG_SettingsDlg@rmgdlg@@QAE@HHHHH@Z$0 10047aee f   RMG_SettingsDlg.obj
 0001:00046af9       __unwindfunclet$??0PageHeader@ObjectsPage@RMG_SettingsDlg@rmgdlg@@QAE@HHHHH@Z$1 10047af9 f   RMG_SettingsDlg.obj
 0001:00046b04       __unwindfunclet$??0PageHeader@ObjectsPage@RMG_SettingsDlg@rmgdlg@@QAE@HHHHH@Z$2 10047b04 f   RMG_SettingsDlg.obj
 0001:00046b0c       __unwindfunclet$??0PageHeader@ObjectsPage@RMG_SettingsDlg@rmgdlg@@QAE@HHHHH@Z$3 10047b0c f   RMG_SettingsDlg.obj
 0001:00046b17       __unwindfunclet$??0PageHeader@ObjectsPage@RMG_SettingsDlg@rmgdlg@@QAE@HHHHH@Z$4 10047b17 f   RMG_SettingsDlg.obj
 0001:00046b22       __unwindfunclet$??0PageHeader@ObjectsPage@RMG_SettingsDlg@rmgdlg@@QAE@HHHHH@Z$5 10047b22 f   RMG_SettingsDlg.obj
 0001:00046b32       __ehhandler$??0PageHeader@ObjectsPage@RMG_SettingsDlg@rmgdlg@@QAE@HHHHH@Z 10047b32 f   RMG_SettingsDlg.obj
 0001:00046b3e       __ehhandler$??0RMGObject@rmgdlg@@QAE@ABUH3ObjectAttributes@h3@@PAUH3LoadedPcx16@3@@Z 10047b3e f   RMG_SettingsDlg.obj
 0001:00046b4a       __ehhandler$?SetActivePage@RMG_SettingsDlg@rmgdlg@@AAEHPAUPage@12@@Z 10047b4a f   RMG_SettingsDlg.obj
 0001:00046b56       __ehhandler$?ShowObjectExtendedInfo@BanksPage@RMG_SettingsDlg@rmgdlg@@UBEHPBUObjectsPanel@23@ABUH3Msg@h3@@@Z 10047b56 f   RMG_SettingsDlg.obj
 0001:00046b62       __ehhandler$?ShowObjectExtendedInfo@ObjectsPage@RMG_SettingsDlg@rmgdlg@@MBEHPBUObjectsPanel@23@ABUH3Msg@h3@@@Z 10047b62 f   RMG_SettingsDlg.obj
 0001:00046b6e       __ehhandler$?FillObjects@ObjectsPage@RMG_SettingsDlg@rmgdlg@@MAEXH@Z 10047b6e f   RMG_SettingsDlg.obj
 0001:00046b7a       __unwindfunclet$??0ObjectsPage@RMG_SettingsDlg@rmgdlg@@QAE@PAUH3DlgCaptionButton@h3@@ABV?$vector@U?$pair@UH3ObjectAttributes@h3@@PAUH3LoadedPcx16@2@@std@@V?$allocator@U?$pair@UH3ObjectAttributes@h3@@PAUH3LoadedPcx16@2@@std@@@2@@std@@H@Z$0 10047b7a f   RMG_SettingsDlg.obj
 0001:00046b82       __unwindfunclet$??0ObjectsPage@RMG_SettingsDlg@rmgdlg@@QAE@PAUH3DlgCaptionButton@h3@@ABV?$vector@U?$pair@UH3ObjectAttributes@h3@@PAUH3LoadedPcx16@2@@std@@V?$allocator@U?$pair@UH3ObjectAttributes@h3@@PAUH3LoadedPcx16@2@@std@@@2@@std@@H@Z$1 10047b82 f   RMG_SettingsDlg.obj
 0001:00046b8d       __unwindfunclet$??0ObjectsPage@RMG_SettingsDlg@rmgdlg@@QAE@PAUH3DlgCaptionButton@h3@@ABV?$vector@U?$pair@UH3ObjectAttributes@h3@@PAUH3LoadedPcx16@2@@std@@V?$allocator@U?$pair@UH3ObjectAttributes@h3@@PAUH3LoadedPcx16@2@@std@@@2@@std@@H@Z$2 10047b8d f   RMG_SettingsDlg.obj
 0001:00046b98       __unwindfunclet$??0ObjectsPage@RMG_SettingsDlg@rmgdlg@@QAE@PAUH3DlgCaptionButton@h3@@ABV?$vector@U?$pair@UH3ObjectAttributes@h3@@PAUH3LoadedPcx16@2@@std@@V?$allocator@U?$pair@UH3ObjectAttributes@h3@@PAUH3LoadedPcx16@2@@std@@@2@@std@@H@Z$3 10047b98 f   RMG_SettingsDlg.obj
 0001:00046ba7       __unwindfunclet$??0ObjectsPage@RMG_SettingsDlg@rmgdlg@@QAE@PAUH3DlgCaptionButton@h3@@ABV?$vector@U?$pair@UH3ObjectAttributes@h3@@PAUH3LoadedPcx16@2@@std@@V?$allocator@U?$pair@UH3ObjectAttributes@h3@@PAUH3LoadedPcx16@2@@std@@@2@@std@@H@Z$4 10047ba7 f   RMG_SettingsDlg.obj
 0001:00046bbb       __ehhandler$??0ObjectsPage@RMG_SettingsDlg@rmgdlg@@QAE@PAUH3DlgCaptionButton@h3@@ABV?$vector@U?$pair@UH3ObjectAttributes@h3@@PAUH3LoadedPcx16@2@@std@@V?$allocator@U?$pair@UH3ObjectAttributes@h3@@PAUH3LoadedPcx16@2@@std@@@2@@std@@H@Z 10047bbb f   RMG_SettingsDlg.obj
 0001:00046bc7       __ehhandler$??1RMG_SettingsDlg@rmgdlg@@EAE@XZ 10047bc7 f   RMG_SettingsDlg.obj
 0001:00046bd3       __ehhandler$?PanelInfoToObjectInfo@ObjectsPanel@RMG_SettingsDlg@rmgdlg@@QAEXXZ 10047bd3 f   RMG_SettingsDlg.obj
 0001:00046bdf       __ehhandler$?ObjectInfoToPanelInfo@ObjectsPanel@RMG_SettingsDlg@rmgdlg@@QAEXXZ 10047bdf f   RMG_SettingsDlg.obj
 0001:00046beb       __ehhandler$?SetObject@ObjectsPanel@RMG_SettingsDlg@rmgdlg@@QAEXPAVRMGObject@3@@Z 10047beb f   RMG_SettingsDlg.obj
 0001:00046bf7       __unwindfunclet$??0ObjectsPanel@RMG_SettingsDlg@rmgdlg@@QAE@HHPAUPage@12@@Z$0 10047bf7 f   RMG_SettingsDlg.obj
 0001:00046c07       __ehhandler$??0ObjectsPanel@RMG_SettingsDlg@rmgdlg@@QAE@HHPAUPage@12@@Z 10047c07 f   RMG_SettingsDlg.obj
 0001:00046c13       __ehhandler$?CreateHorizontalScrollBar@ObjectsPage@RMG_SettingsDlg@rmgdlg@@IAEXXZ 10047c13 f   RMG_SettingsDlg.obj
 0001:00046c1f       __ehhandler$?CreateVerticalScrollBar@ObjectsPage@RMG_SettingsDlg@rmgdlg@@IAEXXZ 10047c1f f   RMG_SettingsDlg.obj
 0001:00046c2b       __ehhandler$?SaveRMGObjectsInfo@RMG_SettingsDlg@rmgdlg@@ABEHH@Z 10047c2b f   RMG_SettingsDlg.obj
 0001:00046c37       __ehhandler$?WriteIniDlgSettings@RMG_SettingsDlg@rmgdlg@@ABEHXZ 10047c37 f   RMG_SettingsDlg.obj
 0001:00046c43       __ehhandler$?ReadIniDlgSettings@RMG_SettingsDlg@rmgdlg@@AAEHXZ 10047c43 f   RMG_SettingsDlg.obj
 0001:00046c4f       __ehhandler$?OnOK@RMG_SettingsDlg@rmgdlg@@EAEXXZ 10047c4f f   RMG_SettingsDlg.obj
 0001:00046c5b       __ehhandler$?RemoveEditsFocus@RMG_SettingsDlg@rmgdlg@@ABEHH@Z 10047c5b f   RMG_SettingsDlg.obj
 0001:00046c67       __ehhandler$?OnHelp@RMG_SettingsDlg@rmgdlg@@ABEXXZ 10047c67 f   RMG_SettingsDlg.obj
 0001:00046c73       __unwindfunclet$??0RMG_SettingsDlg@rmgdlg@@QAE@HHHH@Z$0 10047c73 f   RMG_SettingsDlg.obj
 0001:00046c7b       __unwindfunclet$??0RMG_SettingsDlg@rmgdlg@@QAE@HHHH@Z$1 10047c7b f   RMG_SettingsDlg.obj
 0001:00046c89       __unwindfunclet$??0RMG_SettingsDlg@rmgdlg@@QAE@HHHH@Z$2 10047c89 f   RMG_SettingsDlg.obj
 0001:00046c97       __unwindfunclet$??0RMG_SettingsDlg@rmgdlg@@QAE@HHHH@Z$3 10047c97 f   RMG_SettingsDlg.obj
 0001:00046c9f       __unwindfunclet$??0RMG_SettingsDlg@rmgdlg@@QAE@HHHH@Z$4 10047c9f f   RMG_SettingsDlg.obj
 0001:00046ca7       __unwindfunclet$??0RMG_SettingsDlg@rmgdlg@@QAE@HHHH@Z$5 10047ca7 f   RMG_SettingsDlg.obj
 0001:00046caf       __unwindfunclet$??0RMG_SettingsDlg@rmgdlg@@QAE@HHHH@Z$6 10047caf f   RMG_SettingsDlg.obj
 0001:00046cb7       __unwindfunclet$??0RMG_SettingsDlg@rmgdlg@@QAE@HHHH@Z$7 10047cb7 f   RMG_SettingsDlg.obj
 0001:00046cc6       __unwindfunclet$??0RMG_SettingsDlg@rmgdlg@@QAE@HHHH@Z$8 10047cc6 f   RMG_SettingsDlg.obj
 0001:00046cd5       __unwindfunclet$??0RMG_SettingsDlg@rmgdlg@@QAE@HHHH@Z$9 10047cd5 f   RMG_SettingsDlg.obj
 0001:00046ce4       __unwindfunclet$??0RMG_SettingsDlg@rmgdlg@@QAE@HHHH@Z$10 10047ce4 f   RMG_SettingsDlg.obj
 0001:00046cf8       __ehhandler$??0RMG_SettingsDlg@rmgdlg@@QAE@HHHH@Z 10047cf8 f   RMG_SettingsDlg.obj
 0001:00046d04       __unwindfunclet$??R<lambda_1>@?1??SortRmgObjects@sorting@rmgdlg@@YAXAAV?$vector@VRMGObject@rmgdlg@@V?$allocator@VRMGObject@rmgdlg@@@std@@@std@@W4eSorting@23@_N@Z@QBE_NABVRMGObject@3@3@Z$0 10047d04 f   RMG_SettingsDlg.obj
 0001:00046d0c       __unwindfunclet$??R<lambda_1>@?1??SortRmgObjects@sorting@rmgdlg@@YAXAAV?$vector@VRMGObject@rmgdlg@@V?$allocator@VRMGObject@rmgdlg@@@std@@@std@@W4eSorting@23@_N@Z@QBE_NABVRMGObject@3@3@Z$1 10047d0c f   RMG_SettingsDlg.obj
 0001:00046d19       __ehhandler$??R<lambda_1>@?1??SortRmgObjects@sorting@rmgdlg@@YAXAAV?$vector@VRMGObject@rmgdlg@@V?$allocator@VRMGObject@rmgdlg@@@std@@@std@@W4eSorting@23@_N@Z@QBE_NABVRMGObject@3@3@Z 10047d19 f   RMG_SettingsDlg.obj
 0001:00046d30       __unwindfunclet$?H3AdventureManager__ObjectVisit_SoundPlay@SoundManager@sound@@CGHPAVLoHook@@PAUHookContext@@@Z$0 10047d30 f   SoundManager.obj
 0001:00046d38       __unwindfunclet$?H3AdventureManager__ObjectVisit_SoundPlay@SoundManager@sound@@CGHPAVLoHook@@PAUHookContext@@@Z$1 10047d38 f   SoundManager.obj
 0001:00046d45       __ehhandler$?H3AdventureManager__ObjectVisit_SoundPlay@SoundManager@sound@@CGHPAVLoHook@@PAUHookContext@@@Z 10047d45 f   SoundManager.obj
 0001:00046d51       __unwindfunclet$?CreateNewLoopSoundsTable@SoundManager@sound@@AAEXABV?$vector@UObjectSound@SoundManager@sound@@V?$allocator@UObjectSound@SoundManager@sound@@@std@@@std@@@Z$18 10047d51 f   SoundManager.obj
 0001:00046d59       __unwindfunclet$?CreateNewLoopSoundsTable@SoundManager@sound@@AAEXABV?$vector@UObjectSound@SoundManager@sound@@V?$allocator@UObjectSound@SoundManager@sound@@@std@@@std@@@Z$19 10047d59 f   SoundManager.obj
 0001:00046d61       __unwindfunclet$?CreateNewLoopSoundsTable@SoundManager@sound@@AAEXABV?$vector@UObjectSound@SoundManager@sound@@V?$allocator@UObjectSound@SoundManager@sound@@@std@@@std@@@Z$0 10047d61 f   SoundManager.obj
 0001:00046d69       __unwindfunclet$?CreateNewLoopSoundsTable@SoundManager@sound@@AAEXABV?$vector@UObjectSound@SoundManager@sound@@V?$allocator@UObjectSound@SoundManager@sound@@@std@@@std@@@Z$1 10047d69 f   SoundManager.obj
 0001:00046d71       __unwindfunclet$?CreateNewLoopSoundsTable@SoundManager@sound@@AAEXABV?$vector@UObjectSound@SoundManager@sound@@V?$allocator@UObjectSound@SoundManager@sound@@@std@@@std@@@Z$2 10047d71 f   SoundManager.obj
 0001:00046d7c       __unwindfunclet$?CreateNewLoopSoundsTable@SoundManager@sound@@AAEXABV?$vector@UObjectSound@SoundManager@sound@@V?$allocator@UObjectSound@SoundManager@sound@@@std@@@std@@@Z$3 10047d7c f   SoundManager.obj
 0001:00046d89       __ehhandler$?CreateNewLoopSoundsTable@SoundManager@sound@@AAEXABV?$vector@UObjectSound@SoundManager@sound@@V?$allocator@UObjectSound@SoundManager@sound@@@std@@@std@@@Z 10047d89 f   SoundManager.obj
 0001:00046da0       ??__F_instance@?1??Get@AncientLampExtender@ancientLamp@@SAAAV12@XZ@YAXXZ 10047da0 f   AncientLampExtender.obj
 0001:00046db0       ??__F_instance@?1??Get@ColosseumOfTheMagiExtender@colosseumOfTheMagi@@SAAAV12@XZ@YAXXZ 10047db0 f   ColosseumOfTheMagiExtender.obj
 0001:00046dc0       ??__F?currentCreatureBank@CreatureBanksExtender@cbanks@@0UCurrent@12@A@@YAXXZ 10047dc0 f   CreatureBanksExtender.obj
 0001:00046e00       ??__F_instance@?1??Get@CreatureBanksExtender@cbanks@@SAAAV12@XZ@YAXXZ 10047e00 f   CreatureBanksExtender.obj
 0001:00046e20       ??__F_instance@?1??Get@DreamTeacherExtender@dreamTeacher@@SAAAV12@XZ@YAXXZ 10047e20 f   DreamTeacherExtender.obj
 0001:00046e30       ??__F_instance@?1??Get@GazeboExtender@gazebo@@SAAAV12@XZ@YAXXZ 10047e30 f   GazeboExtender.obj
 0001:00046e40       ??__F_instance@?1??Get@GraveExtender@grave@@SAAAV12@XZ@YAXXZ 10047e40 f   GraveExtender.obj
 0001:00046e50       ??__F_instance@?1??Get@HermitsShackExtender@hermitsShack@@SAAAV12@XZ@YAXXZ 10047e50 f   HermitsShackExtender.obj
 0001:00046e60       ??__F_instance@?1??Get@HillFortExtender@hillFort@@SAAAV12@XZ@YAXXZ 10047e60 f   HillFortExtender.obj
 0001:00046e70       ??__F_instance@?1??Get@JunkmanExtender@junkman@@SAAAV12@XZ@YAXXZ 10047e70 f   JunkmanExtender.obj
 0001:00046e80       ??__F_instance@?1??Get@MineralSpringExtender@mineralSpring@@SAAAV12@XZ@YAXXZ 10047e80 f   MineralSpringExtender.obj
 0001:00046e90       ??__F_instance@?1??Get@ObservatoryExtender@observatory@@SAAAV12@XZ@YAXXZ 10047e90 f   ObservatoryExtender.obj
 0001:00046ea0       ??__F_instance@?1??Get@ShrinesExternder@shrines@@SAAAV12@XZ@YAXXZ 10047ea0 f   ShrinesExternder.obj
 0001:00046eb0       ??__F_instance@?1??Get@SkeletonTransformerExtender@skeletonTransformer@@SAAAV12@XZ@YAXXZ 10047eb0 f   SkeletonTransformerExtender.obj
 0001:00046ec0       ??__F_instance@?1??Get@TempleOfLoyaltyExtender@templeOfLoyalty@@SAAAV12@XZ@YAXXZ 10047ec0 f   TempleOfLoyaltyExtender.obj
 0001:00046ed0       ??__F_instance@?1??Get@TrailblazerExtender@trailblazer@@SAAAV12@XZ@YAXXZ 10047ed0 f   TrailblazerExtender.obj
 0001:00046ee0       ??__F_instance@?1??Get@UniversityExtender@university@@SAAAV12@XZ@YAXXZ 10047ee0 f   UniversityExtender.obj
 0001:00046f00       ??__F_instance@?1??Get@WarehousesExtender@warehouses@@SAAAV12@XZ@YAXXZ 10047f00 f   WarehousesExtender.obj
 0001:00046f10       ??__F_instance@?1??Get@WateringPlaceExtender@wateringPlace@@SAAAV12@XZ@YAXXZ 10047f10 f   WateringPlaceExtender.obj
 0001:00046f20       ??__F_instance@?1??Get@WoGObjectsExtender@wog@@SAAAV12@XZ@YAXXZ 10047f20 f   WoGObjectsExtender.obj
 0001:00046f30       ??__F?extenders@ObjectsExtender@extender@@0V?$vector@PAVObjectsExtender@extender@@V?$allocator@PAVObjectsExtender@extender@@@std@@@std@@A@@YAXXZ 10047f30 f   ObjectsExtender.obj
 0001:00046f90       ??__F?additionalRmgObjects@ObjectsExtender@extender@@1V?$vector@URMGObjectInfo@@V?$allocator@URMGObjectInfo@@@std@@@std@@A@@YAXXZ 10047f90 f   ObjectsExtender.obj
 0001:00046fa0       ??__F?additionalPropertiesMap@ObjectProperty@extender@@2V?$unordered_map@V?$basic_string@DU?$char_traits@D@std@@V?$allocator@D@2@@std@@V12@U?$hash@V?$basic_string@DU?$char_traits@D@std@@V?$allocator@D@2@@std@@@2@U?$equal_to@V?$basic_string@DU?$char_traits@D@std@@V?$allocator@D@2@@std@@@2@V?$allocator@U?$pair@$$CBV?$basic_string@DU?$char_traits@D@std@@V?$allocator@D@2@@std@@V12@@std@@@2@@std@@A@@YAXXZ 10047fa0 f   ObjectsExtender.obj
 0001:00047010       ??__Fwords@?1??GetMapKey@ObjectProperty@extender@@SA?AV?$basic_string@DU?$char_traits@D@std@@V?$allocator@D@2@@std@@PBD@Z@YAXXZ 10048010 f   ObjectsExtender.obj
 0001:00047020       ??__F?currentRMGObjectsInfoByType@RMGObjectInfo@@2PAV?$vector@URMGObjectInfo@@V?$allocator@URMGObjectInfo@@@std@@@std@@A@@YAXXZ 10048020 f   RMGObjectsEditor.obj
 0001:00047040       ??__F?defaultRMGObjectsInfoByType@RMGObjectInfo@@2PAV?$vector@URMGObjectInfo@@V?$allocator@URMGObjectInfo@@@std@@@std@@A@@YAXXZ 10048040 f   RMGObjectsEditor.obj
 0001:00047060       ??__Finstance@?1??Get@RMGObjectsEditor@editor@@SAAAV12@XZ@YAXXZ 10048060 f   RMGObjectsEditor.obj
 0001:000470e0       ??__F?m_banks@RMG_SettingsDlg@rmgdlg@@0V?$vector@U?$pair@UH3ObjectAttributes@h3@@PAUH3LoadedPcx16@2@@std@@V?$allocator@U?$pair@UH3ObjectAttributes@h3@@PAUH3LoadedPcx16@2@@std@@@2@@std@@A@@YAXXZ 100480e0 f   RMG_SettingsDlg.obj
 0001:000470f0       ??__F?m_commonObjects@RMG_SettingsDlg@rmgdlg@@0V?$vector@U?$pair@UH3ObjectAttributes@h3@@PAUH3LoadedPcx16@2@@std@@V?$allocator@U?$pair@UH3ObjectAttributes@h3@@PAUH3LoadedPcx16@2@@std@@@2@@std@@A@@YAXXZ 100480f0 f   RMG_SettingsDlg.obj
 0001:00047100       ??__F?m_dwellings@RMG_SettingsDlg@rmgdlg@@0V?$vector@U?$pair@UH3ObjectAttributes@h3@@PAUH3LoadedPcx16@2@@std@@V?$allocator@U?$pair@UH3ObjectAttributes@h3@@PAUH3LoadedPcx16@2@@std@@@2@@std@@A@@YAXXZ 10048100 f   RMG_SettingsDlg.obj
 0001:00047110       ??__F?m_wogObjects@RMG_SettingsDlg@rmgdlg@@0V?$vector@U?$pair@UH3ObjectAttributes@h3@@PAUH3LoadedPcx16@2@@std@@V?$allocator@U?$pair@UH3ObjectAttributes@h3@@PAUH3LoadedPcx16@2@@std@@@2@@std@@A@@YAXXZ 10048110 f   RMG_SettingsDlg.obj
 0001:00047120       ??__F?m_objectAttributes@RMG_SettingsDlg@rmgdlg@@0V?$vector@PAV?$vector@U?$pair@UH3ObjectAttributes@h3@@PAUH3LoadedPcx16@2@@std@@V?$allocator@U?$pair@UH3ObjectAttributes@h3@@PAUH3LoadedPcx16@2@@std@@@2@@std@@V?$allocator@PAV?$vector@U?$pair@UH3ObjectAttributes@h3@@PAUH3LoadedPcx16@2@@std@@V?$allocator@U?$pair@UH3ObjectAttributes@h3@@PAUH3LoadedPcx16@2@@std@@@2@@std@@@2@@std@@B@@YAXXZ 10048120 f   RMG_SettingsDlg.obj
 0001:00047180       ??__F?soundManager@SoundManager@sound@@2U12@A@@YAXXZ 10048180 f   SoundManager.obj
 0001:0004729a       ??__Finitlocks@std@@YAXXZ  1004829a f   libcpmt:xlock.obj
 0001:000472a4       ??__F_Fac_tidy_reg@std@@YAXXZ 100482a4 f   libcpmt:locale0.obj
 0001:000472ae       ??__Fclassic_locale@std@@YAXXZ 100482ae f   libcpmt:locale0.obj
 0001:000472b8       ??__Finit_atexit@@YAXXZ    100482b8 f   libcpmt:iosptrs.obj
 0001:000472c2       ??__Finitlocks@std@@YAXXZ  100482c2 f   libcpmt:iosptrs.obj
 0002:00000160       ?initlocks$initializer$@std@@3P6AXXZA 10049160     libcpmt:xlock.obj
 0002:00000164       ?initlocks$initializer$@std@@3P6AXXZA 10049164     libcpmt:iosptrs.obj
 0002:00000168       ?init_atexit$initializer$@@3P6AXXZA 10049168     libcpmt:iosptrs.obj
 0002:0000016c       ?_Fac_tidy_reg$initializer$@std@@3P6AXXZA 1004916c     libcpmt:locale0.obj
 0002:00000170       ?classic_locale$initializer$@std@@3P6AXXZA 10049170     libcpmt:locale0.obj
 0002:00000174       ?hEra$initializer$@Era@@3P6AXXZA 10049174     era.obj
 0002:00000178       ?AllocErmFunc$initializer$@Era@@3P6AXXZA 10049178     era.obj
 0002:0000017c       ?ClearAllIniCache$initializer$@Era@@3P6AXXZA 1004917c     era.obj
 0002:00000180       ?ClearIniCache$initializer$@Era@@3P6AXXZA 10049180     era.obj
 0002:00000184       ?CreatePlugin$initializer$@Era@@3P6AXXZA 10049184     era.obj
 0002:00000188       ?DecorateInt$initializer$@Era@@3P6AXXZA 10049188     era.obj
 0002:0000018c       ?EmptyIniCache$initializer$@Era@@3P6AXXZA 1004918c     era.obj
 0002:00000190       ?ExecErmCmd$initializer$@Era@@3P6AXXZA 10049190     era.obj
 0002:00000194       ?ExecPersistedErmCmd$initializer$@Era@@3P6AXXZA 10049194     era.obj
 0002:00000198       ?ExtractErm$initializer$@Era@@3P6AXXZA 10049198     era.obj
 0002:0000019c       ?FastQuitToGameMenu$initializer$@Era@@3P6AXXZA 1004919c     era.obj
 0002:000001a0       ?FatalError$initializer$@Era@@3P6AXXZA 100491a0     era.obj
 0002:000001a4       ?FindNextObject$initializer$@Era@@3P6AXXZA 100491a4     era.obj
 0002:000001a8       ?FireErmEvent$initializer$@Era@@3P6AXXZA 100491a8     era.obj
 0002:000001ac       ?FireEvent$initializer$@Era@@3P6AXXZA 100491ac     era.obj
 0002:000001b0       ?FormatQuantity$initializer$@Era@@3P6AXXZA 100491b0     era.obj
 0002:000001b4       ?FreeAppliedPatch$initializer$@Era@@3P6AXXZA 100491b4     era.obj
 0002:000001b8       ?GenerateDebugInfo$initializer$@Era@@3P6AXXZA 100491b8     era.obj
 0002:000001bc       ?GetAppliedPatchSize$initializer$@Era@@3P6AXXZA 100491bc     era.obj
 0002:000001c0       ?GetArgXVars$initializer$@Era@@3P6AXXZA 100491c0     era.obj
 0002:000001c4       ?GetAssocVarIntValue$initializer$@Era@@3P6AXXZA 100491c4     era.obj
 0002:000001c8       ?GetAssocVarStrValue$initializer$@Era@@3P6AXXZA 100491c8     era.obj
 0002:000001cc       ?GetButtonID$initializer$@Era@@3P6AXXZA 100491cc     era.obj
 0002:000001d0       ?GetCampaignFileName$initializer$@Era@@3P6AXXZA 100491d0     era.obj
 0002:000001d4       ?GetCampaignMapInd$initializer$@Era@@3P6AXXZA 100491d4     era.obj
 0002:000001d8       ?GetEraRegistryIntValue$initializer$@Era@@3P6AXXZA 100491d8     era.obj
 0002:000001dc       ?GetEraRegistryStrValue$initializer$@Era@@3P6AXXZA 100491dc     era.obj
 0002:000001e0       ?GetGameState$initializer$@Era@@3P6AXXZA 100491e0     era.obj
 0002:000001e4       ?GetMapFileName$initializer$@Era@@3P6AXXZA 100491e4     era.obj
 0002:000001e8       ?GetProcessGuid$initializer$@Era@@3P6AXXZA 100491e8     era.obj
 0002:000001ec       ?GetRealAddr$initializer$@Era@@3P6AXXZA 100491ec     era.obj
 0002:000001f0       ?GetRetXVars$initializer$@Era@@3P6AXXZA 100491f0     era.obj
 0002:000001f4       ?GetTriggerReadableName$initializer$@Era@@3P6AXXZA 100491f4     era.obj
 0002:000001f8       ?GetVersionNum$initializer$@Era@@3P6AXXZA 100491f8     era.obj
 0002:000001fc       ?GlobalRedirectFile$initializer$@Era@@3P6AXXZA 100491fc     era.obj
 0002:00000200       ?Hash32$initializer$@Era@@3P6AXXZA 10049200     era.obj
 0002:00000204       ?IsCampaign$initializer$@Era@@3P6AXXZA 10049204     era.obj
 0002:00000208       ?IsCommanderId$initializer$@Era@@3P6AXXZA 10049208     era.obj
 0002:0000020c       ?IsPatchOverwritten$initializer$@Era@@3P6AXXZA 1004920c     era.obj
 0002:00000210       ?LoadImageAsPcx16$initializer$@Era@@3P6AXXZA 10049210     era.obj
 0002:00000214       ?LogMemoryState$initializer$@Era@@3P6AXXZA 10049214     era.obj
 0002:00000218       ?MemFree$initializer$@Era@@3P6AXXZA 10049218     era.obj
 0002:0000021c       ?MergeIniWithDefault$initializer$@Era@@3P6AXXZA 1004921c     era.obj
 0002:00000220       ?NameColor$initializer$@Era@@3P6AXXZA 10049220     era.obj
 0002:00000224       ?NameTrigger$initializer$@Era@@3P6AXXZA 10049224     era.obj
 0002:00000228       ?NotifyError$initializer$@Era@@3P6AXXZA 10049228     era.obj
 0002:0000022c       ?PatchExists$initializer$@Era@@3P6AXXZA 1004922c     era.obj
 0002:00000230       ?PcxPngExists$initializer$@Era@@3P6AXXZA 10049230     era.obj
 0002:00000234       ?PersistErmCmd$initializer$@Era@@3P6AXXZA 10049234     era.obj
 0002:00000238       ?PluginExists$initializer$@Era@@3P6AXXZA 10049238     era.obj
 0002:0000023c       ?RandomRangeWithFreeParam$initializer$@Era@@3P6AXXZA 1004923c     era.obj
 0002:00000240       ?ReadSavegameSection$initializer$@Era@@3P6AXXZA 10049240     era.obj
 0002:00000244       ?ReadStrFromIni$initializer$@Era@@3P6AXXZA 10049244     era.obj
 0002:00000248       ?RedirectFile$initializer$@Era@@3P6AXXZA 10049248     era.obj
 0002:0000024c       ?RedirectMemoryBlock$initializer$@Era@@3P6AXXZA 1004924c     era.obj
 0002:00000250       ?RegisterHandler$initializer$@Era@@3P6AXXZA 10049250     era.obj
 0002:00000254       ?RegisterMemoryConsumer$initializer$@Era@@3P6AXXZA 10049254     era.obj
 0002:00000258       ?ReloadErm$initializer$@Era@@3P6AXXZA 10049258     era.obj
 0002:0000025c       ?ReloadLanguageData$initializer$@Era@@3P6AXXZA 1004925c     era.obj
 0002:00000260       ?ReportPluginVersion$initializer$@Era@@3P6AXXZA 10049260     era.obj
 0002:00000264       ?RollbackAppliedPatch$initializer$@Era@@3P6AXXZA 10049264     era.obj
 0002:00000268       ?SaveIni$initializer$@Era@@3P6AXXZA 10049268     era.obj
 0002:0000026c       ?SetAssocVarIntValue$initializer$@Era@@3P6AXXZA 1004926c     era.obj
 0002:00000270       ?SetAssocVarStrValue$initializer$@Era@@3P6AXXZA 10049270     era.obj
 0002:00000274       ?SetEraRegistryIntValue$initializer$@Era@@3P6AXXZA 10049274     era.obj
 0002:00000278       ?SetEraRegistryStrValue$initializer$@Era@@3P6AXXZA 10049278     era.obj
 0002:0000027c       ?SetIsCommanderIdFunc$initializer$@Era@@3P6AXXZA 1004927c     era.obj
 0002:00000280       ?SetIsElixirOfLifeStackFunc$initializer$@Era@@3P6AXXZA 10049280     era.obj
 0002:00000284       ?SetLanguage$initializer$@Era@@3P6AXXZA 10049284     era.obj
 0002:00000288       ?SetMultiPurposeDlgHandler$initializer$@Era@@3P6AXXZA 10049288     era.obj
 0002:0000028c       ?SetRegenerationAbility$initializer$@Era@@3P6AXXZA 1004928c     era.obj
 0002:00000290       ?SetStdRegenerationEffect$initializer$@Era@@3P6AXXZA 10049290     era.obj
 0002:00000294       ?ShowErmError$initializer$@Era@@3P6AXXZA 10049294     era.obj
 0002:00000298       ?ShowMessage$initializer$@Era@@3P6AXXZA 10049298     era.obj
 0002:0000029c       ?ShowMultiPurposeDlg$initializer$@Era@@3P6AXXZA 1004929c     era.obj
 0002:000002a0       ?SplitMix32$initializer$@Era@@3P6AXXZA 100492a0     era.obj
 0002:000002a4       ?ToStaticStr$initializer$@Era@@3P6AXXZA 100492a4     era.obj
 0002:000002a8       ?trStatic$initializer$@Era@@3P6AXXZA 100492a8     era.obj
 0002:000002ac       ?trTemp$initializer$@Era@@3P6AXXZA 100492ac     era.obj
 0002:000002b0       ?WriteAtCode$initializer$@Era@@3P6AXXZA 100492b0     era.obj
 0002:000002b4       ?WriteLog$initializer$@Era@@3P6AXXZA 100492b4     era.obj
 0002:000002b8       ?WriteSavegameSection$initializer$@Era@@3P6AXXZA 100492b8     era.obj
 0002:000002bc       ?WriteStrToIni$initializer$@Era@@3P6AXXZA 100492bc     era.obj
 0002:000002c0       ?GetEraVersion$initializer$@Era@@3P6AXXZA 100492c0     era.obj
 0002:000002c4       ?_Hook$initializer$@Era@@3P6AXXZA 100492c4     era.obj
 0002:000002c8       ?_Splice$initializer$@Era@@3P6AXXZA 100492c8     era.obj
 0002:000002cc       ?_tr$initializer$@Era@@3P6AXXZA 100492cc     era.obj
 0002:000002d0       ??currentCreatureBank$initializer$@CreatureBanksExtender@cbanks@@0P6AXXZA@@3P6AXXZA 100492d0     CreatureBanksExtender.obj
 0002:000002d4       ??extenders$initializer$@ObjectsExtender@extender@@0P6AXXZA@@3P6AXXZA 100492d4     ObjectsExtender.obj
 0002:000002d8       ??additionalRmgObjects$initializer$@ObjectsExtender@extender@@1P6AXXZA@@3P6AXXZA 100492d8     ObjectsExtender.obj
 0002:000002dc       ??additionalPropertiesMap$initializer$@ObjectProperty@extender@@2P6AXXZA@@3P6AXXZA 100492dc     ObjectsExtender.obj
 0002:000002e0       ??currentRMGObjectsInfoByType$initializer$@RMGObjectInfo@@2P6AXXZA@@3P6AXXZA 100492e0     RMGObjectsEditor.obj
 0002:000002e4       ??defaultRMGObjectsInfoByType$initializer$@RMGObjectInfo@@2P6AXXZA@@3P6AXXZA 100492e4     RMGObjectsEditor.obj
 0002:000002e8       ??m_banks$initializer$@RMG_SettingsDlg@rmgdlg@@0P6AXXZA@@3P6AXXZA 100492e8     RMG_SettingsDlg.obj
 0002:000002ec       ??m_commonObjects$initializer$@RMG_SettingsDlg@rmgdlg@@0P6AXXZA@@3P6AXXZA 100492ec     RMG_SettingsDlg.obj
 0002:000002f0       ??m_dwellings$initializer$@RMG_SettingsDlg@rmgdlg@@0P6AXXZA@@3P6AXXZA 100492f0     RMG_SettingsDlg.obj
 0002:000002f4       ??m_wogObjects$initializer$@RMG_SettingsDlg@rmgdlg@@0P6AXXZA@@3P6AXXZA 100492f4     RMG_SettingsDlg.obj
 0002:000002f8       ??m_objectAttributes$initializer$@RMG_SettingsDlg@rmgdlg@@0P6AXXZA@@3P6AXXZA 100492f8     RMG_SettingsDlg.obj
 0002:000002fc       ??soundManager$initializer$@SoundManager@sound@@2P6AXXZA@@3P6AXXZA 100492fc     SoundManager.obj
 0002:00000308       ?pinit@@3P6AHXZA           10049308     libcpmt:winapisupp.obj
 0002:000003b8       ?msgs@std@@3QBQBDB         100493b8     libcpmt:thread0.obj
 0002:000003d4       ?codes@std@@3QBW4errc@1@B  100493d4     libcpmt:thread0.obj
 0002:00000510       ?_Win_errtab@?A0xdad2e229@@3QBU_Win_errtab_t@1@B 10049510     libcpmt:syserror.obj
 0002:000007b0       ?_Sys_errtab@?A0xdad2e229@@3QBU_Sys_errtab_t@1@B 100497b0     libcpmt:syserror.obj
 0002:00000fc0       ?_Tail_masks@?1??_Avx2_tail_mask_32@?A0x8417fefe@@YA?AT__m256i@@I@Z@4QBIB 10049fc0     libcpmt:vector_algorithms.obj
 0002:00001040       ?_Whitespace_bitmap@?A0xfa98056f@@3U_Whitespace_bitmap_t@1@B 1004a040     libcpmt:syserror_import_lib.obj
 0002:00001174       _digits                    1004a174     libcpmt:xstoul.obj
 0002:0000119c       _ndigs                     1004a19c     libcpmt:xstoul.obj
 0002:000011c4       _digits                    1004a1c4     libcpmt:xstoull.obj
 0002:000011ec       _ndigs                     1004a1ec     libcpmt:xstoull.obj
 0002:0000126c       _GS_ExceptionPointers      1004a26c     LIBCMT:gs_report.obj
 0002:00001298       ?tokenTable@@3QBUStringLiteral@@B 1004a298     libvcruntime:undname.obj
 0002:00001320       ?nameTable@@3QBUStringLiteral@@B 1004a320     libvcruntime:undname.obj
 0002:000015b8       ?rttiTable@@3QBUStringLiteral@@B 1004a5b8     libvcruntime:undname.obj
 0002:000015e0       ?IndirectionName@@3QBUStringLiteral@@B 1004a5e0     libvcruntime:undname.obj
 0002:00001610       ?PrefixName@@3QBUStringLiteral@@B 1004a610     libvcruntime:undname.obj
 0002:00001c44       ?module_names@?A0x14174aea@@3QBQB_WB 1004ac44     libvcruntime:winapi_downlevel.obj
 0002:00001cec       ?candidate_modules@?1??try_get_FlsAlloc@@YAP6GKP6GXPAX@Z@ZXZ@4QBW4module_id@?A0x14174aea@@B 1004acec     libvcruntime:winapi_downlevel.obj
 0002:00001d00       ?candidate_modules@?1??try_get_FlsFree@@YAP6GHK@ZXZ@4QBW4module_id@?A0x14174aea@@B 1004ad00     libvcruntime:winapi_downlevel.obj
 0002:00001d10       ?candidate_modules@?1??try_get_FlsGetValue@@YAP6GPAXK@ZXZ@4QBW4module_id@?A0x14174aea@@B 1004ad10     libvcruntime:winapi_downlevel.obj
 0002:00001d24       ?candidate_modules@?1??try_get_FlsSetValue@@YAP6GHKPAX@ZXZ@4QBW4module_id@?A0x14174aea@@B 1004ad24     libvcruntime:winapi_downlevel.obj
 0002:00001d38       ?candidate_modules@?1??try_get_InitializeCriticalSectionEx@@YAP6GHPAU_RTL_CRITICAL_SECTION@@KK@ZXZ@4QBW4module_id@?A0x14174aea@@B 1004ad38     libvcruntime:winapi_downlevel.obj
 0002:000038d8       ?errtable@@3QBUerrentry@?A0x31fdb9ec@@B 1004c8d8     libucrt:errno.obj
 0002:00003b08       ___acrt_initializers       1004cb08     libucrt:initialization.obj
 0002:00003b88       ?strings@?1??fp_format_nan_or_infinity@@YAHW4__acrt_fp_class@@_NPADI1@Z@4QAY03QBDA 1004cb88     libucrt:cvt.obj
 0002:00003c10       __first_127char            1004cc10     libucrt:wsetlocale.obj
 0002:00004240       ?module_names@?A0x391cf84c@@3QBQB_WB 1004d240     libucrt:winapi_thunks.obj
 0002:000046b8       ?candidate_modules@?1??try_get_AreFileApisANSI@@YAP6GHXZXZ@4QBW4module_id@?A0x391cf84c@@B 1004d6b8     libucrt:winapi_thunks.obj
 0002:000046cc       ?candidate_modules@?1??try_get_CompareStringEx@@YAP6GHPB_WK0H0HPAU_nlsversioninfo@@PAXJ@ZXZ@4QBW4module_id@?A0x391cf84c@@B 1004d6cc     libucrt:winapi_thunks.obj
 0002:000046e4       ?candidate_modules@?1??try_get_EnumSystemLocalesEx@@YAP6GHP6GHPA_WKJ@ZKJPAX@ZXZ@4QBW4module_id@?A0x391cf84c@@B 1004d6e4     libucrt:winapi_thunks.obj
 0002:00004700       ?candidate_modules@?1??try_get_FlsAlloc@@YAP6GKP6GXPAX@Z@ZXZ@4QBW4module_id@?A0x391cf84c@@B 1004d700     libucrt:winapi_thunks.obj
 0002:00004708       ?candidate_modules@?1??try_get_FlsFree@@YAP6GHK@ZXZ@4QBW4module_id@?A0x391cf84c@@B 1004d708     libucrt:winapi_thunks.obj
 0002:00004710       ?candidate_modules@?1??try_get_FlsGetValue@@YAP6GPAXK@ZXZ@4QBW4module_id@?A0x391cf84c@@B 1004d710     libucrt:winapi_thunks.obj
 0002:00004718       ?candidate_modules@?1??try_get_FlsSetValue@@YAP6GHKPAX@ZXZ@4QBW4module_id@?A0x391cf84c@@B 1004d718     libucrt:winapi_thunks.obj
 0002:00004720       ?candidate_modules@?1??try_get_GetDateFormatEx@@YAP6GHPB_WKPBU_SYSTEMTIME@@0PA_WH0@ZXZ@4QBW4module_id@?A0x391cf84c@@B 1004d720     libucrt:winapi_thunks.obj
 0002:00004738       ?candidate_modules@?1??try_get_GetLocaleInfoEx@@YAP6GHPB_WKPA_WH@ZXZ@4QBW4module_id@?A0x391cf84c@@B 1004d738     libucrt:winapi_thunks.obj
 0002:00004750       ?candidate_modules@?1??try_get_GetTimeFormatEx@@YAP6GHPB_WKPBU_SYSTEMTIME@@0PA_WH@ZXZ@4QBW4module_id@?A0x391cf84c@@B 1004d750     libucrt:winapi_thunks.obj
 0002:00004768       ?candidate_modules@?1??try_get_GetUserDefaultLocaleName@@YAP6GHPA_WH@ZXZ@4QBW4module_id@?A0x391cf84c@@B 1004d768     libucrt:winapi_thunks.obj
 0002:0000478c       ?candidate_modules@?1??try_get_InitializeCriticalSectionEx@@YAP6GHPAU_RTL_CRITICAL_SECTION@@KK@ZXZ@4QBW4module_id@?A0x391cf84c@@B 1004d78c     libucrt:winapi_thunks.obj
 0002:00004794       ?candidate_modules@?1??try_get_IsValidLocaleName@@YAP6GHPB_W@ZXZ@4QBW4module_id@?A0x391cf84c@@B 1004d794     libucrt:winapi_thunks.obj
 0002:000047b0       ?candidate_modules@?1??try_get_LCMapStringEx@@YAP6GHPB_WK0HPA_WHPAU_nlsversioninfo@@PAXJ@ZXZ@4QBW4module_id@?A0x391cf84c@@B 1004d7b0     libucrt:winapi_thunks.obj
 0002:000047c8       ?candidate_modules@?1??try_get_LCIDToLocaleName@@YAP6GHKPA_WHK@ZXZ@4QBW4module_id@?A0x391cf84c@@B 1004d7c8     libucrt:winapi_thunks.obj
 0002:000047e4       ?candidate_modules@?1??try_get_LocaleNameToLCID@@YAP6GKPB_WK@ZXZ@4QBW4module_id@?A0x391cf84c@@B 1004d7e4     libucrt:winapi_thunks.obj
 0002:00004800       ?candidate_modules@?1??try_get_RoInitialize@@YAP6GJW4RO_INIT_TYPE@@@ZXZ@4QBW4module_id@?A0x391cf84c@@B 1004d800     libucrt:winapi_thunks.obj
 0002:00004814       ?candidate_modules@?1??try_get_RoUninitialize@@YAP6GXXZXZ@4QBW4module_id@?A0x391cf84c@@B 1004d814     libucrt:winapi_thunks.obj
 0002:00004828       ?candidate_modules@?1??try_get_AppPolicyGetProcessTerminationMethod@@YAP6GJPAXPAW4AppPolicyProcessTerminationMethod@@@ZXZ@4QBW4module_id@?A0x391cf84c@@B 1004d828     libucrt:winapi_thunks.obj
 0002:00004854       ?candidate_modules@?1??try_get_AppPolicyGetThreadInitializationType@@YAP6GJPAXPAW4AppPolicyThreadInitializationType@@@ZXZ@4QBW4module_id@?A0x391cf84c@@B 1004d854     libucrt:winapi_thunks.obj
 0002:00004880       ?_names@?1??_get_fname@@9@9 1004d880     libucrt:fpexcept.obj
 0002:00004a48       _over                      1004da48     libucrt:fpctrl.obj
 0002:00004a54       _under                     1004da54     libucrt:fpctrl.obj
 0002:00004a60       ?_mb_locale_names@@3QBQB_WB 1004da60     libucrt:mbctype.obj
 0002:00005898       ?LcidToLocaleNameTable@?A0x881e4c05@@3QBULcidToLocaleName@1@B 1004e898     libucrt:lcidtoname_downlevel.obj
 0002:000069b8       ?LocaleNameToIndexTable@?A0x881e4c05@@3QBULocaleNameIndex@1@B 1004f9b8     libucrt:lcidtoname_downlevel.obj
 0002:00007910       LOG_name                   10050910     libucrt:log10_impl.obj
 0002:00007920       _One                       10050920     libucrt:ceil_pentium4.obj
 0002:00007930       _Bns                       10050930     libucrt:ceil_pentium4.obj
 0002:00007940       _Zero                      10050940     libucrt:ceil_pentium4.obj
 0002:00007950       _S                         10050950     libucrt:ceil_pentium4.obj
 0002:00007960       _NegZero                   10050960     libucrt:ceil_pentium4.obj
 0002:00007970       emask                      10050970     libucrt:log10_pentium4.obj
 0002:00007980       CC                         10050980     libucrt:log10_pentium4.obj
 0002:00007990       Magic                      10050990     libucrt:log10_pentium4.obj
 0002:000079a0       hi_mask                    100509a0     libucrt:log10_pentium4.obj
 0002:000079b0       LOG10_2                    100509b0     libucrt:log10_pentium4.obj
 0002:000079c0       place_L                    100509c0     libucrt:log10_pentium4.obj
 0002:000079e0       One                        100509e0     libucrt:log10_pentium4.obj
 0002:000079f0       Zero                       100509f0     libucrt:log10_pentium4.obj
 0002:00007a00       Two52                      10050a00     libucrt:log10_pentium4.obj
 0002:00007a10       Infs                       10050a10     libucrt:log10_pentium4.obj
 0002:00007a20       NaN                        10050a20     libucrt:log10_pentium4.obj
 0002:00007a30       coeff                      10050a30     libucrt:log10_pentium4.obj
 0002:00007a8e       _log2max                   10050a8e     libucrt:87tran.obj
 0002:00007a98       _smallarg                  10050a98     libucrt:87tran.obj
 0002:00007aa2       _half                      10050aa2     libucrt:87tran.obj
 0002:00007aee       One                        10050aee     libucrt:87disp.obj
 0002:00007af6       Three                      10050af6     libucrt:87disp.obj
 0002:00007afe       XAMtoTagTab                10050afe     libucrt:87disp.obj
 0002:00007b10       One                        10050b10     libucrt:common.obj
 0002:00007b24       DblMax                     10050b24     libucrt:common.obj
 0002:00007b2c       DblMin                     10050b2c     libucrt:common.obj
 0002:00007b34       IeeeAdjO                   10050b34     libucrt:common.obj
 0002:00007b3c       IeeeAdjU                   10050b3c     libucrt:common.obj
 0002:00007b44       _infinity                  10050b44     libucrt:common.obj
 0002:00007b4c       _zero                      10050b4c     libucrt:common.obj
 0002:00008390       two32                      10051390     LIBCMT:ftol2.obj
 0002:00008394       two63                      10051394     LIBCMT:ftol2.obj
 0002:00008398       _NaN                       10051398     LIBCMT:ftol2.obj
 0002:000083d0       ?KEY_EQUALS@h3@@3QBDB      100513d0     DrawPcx16ResizedBicubic.obj
 0002:000083d4       ?NEW_LINE@h3@@3QBDB        100513d4     DrawPcx16ResizedBicubic.obj
 0002:000083d7       ?_Fake_alloc@std@@3U_Fake_allocator@1@B 100513d7     DrawPcx16ResizedBicubic.obj
 0002:000083d8       ?BOM_HEADER@h3@@3QBDB      100513d8     DrawPcx16ResizedBicubic.obj
 0002:000083dc       ?_Fake_alloc@std@@3U_Fake_allocator@1@B 100513dc     era.obj
 0002:000083dd       ?_Fake_alloc@std@@3U_Fake_allocator@1@B 100513dd     dllmain.obj
 0002:000083de       ?_Fake_alloc@std@@3U_Fake_allocator@1@B 100513de     AncientLampExtender.obj
 0002:000083df       ?_Fake_alloc@std@@3U_Fake_allocator@1@B 100513df     ColosseumOfTheMagiExtender.obj
 0002:000083ec       ?KEY_EQUALS@h3@@3QBDB      100513ec     dllmain.obj
 0002:000083f0       ?NEW_LINE@h3@@3QBDB        100513f0     dllmain.obj
 0002:000083f3       ?_Fake_alloc@std@@3U_Fake_allocator@1@B 100513f3     CreatureBanksExtender.obj
 0002:000083f4       ?BOM_HEADER@h3@@3QBDB      100513f4     dllmain.obj
 0002:000083f8       ?KEY_EQUALS@h3@@3QBDB      100513f8     AncientLampExtender.obj
 0002:000083fc       ?NEW_LINE@h3@@3QBDB        100513fc     AncientLampExtender.obj
 0002:000083ff       ?_Fake_alloc@std@@3U_Fake_allocator@1@B 100513ff     DreamTeacherExtender.obj
 0002:00008400       ?BOM_HEADER@h3@@3QBDB      10051400     AncientLampExtender.obj
 0002:00008404       ?KEY_EQUALS@h3@@3QBDB      10051404     ColosseumOfTheMagiExtender.obj
 0002:00008408       ?NEW_LINE@h3@@3QBDB        10051408     ColosseumOfTheMagiExtender.obj
 0002:0000840b       ?_Fake_alloc@std@@3U_Fake_allocator@1@B 1005140b     GazeboExtender.obj
 0002:0000840c       ?BOM_HEADER@h3@@3QBDB      1005140c     ColosseumOfTheMagiExtender.obj
 0002:00008410       ?KEY_EQUALS@h3@@3QBDB      10051410     CreatureBanksExtender.obj
 0002:00008414       ?NEW_LINE@h3@@3QBDB        10051414     CreatureBanksExtender.obj
 0002:00008417       ?_Fake_alloc@std@@3U_Fake_allocator@1@B 10051417     GraveExtender.obj
 0002:00008418       ?BOM_HEADER@h3@@3QBDB      10051418     CreatureBanksExtender.obj
 0002:0000841c       ?KEY_EQUALS@h3@@3QBDB      1005141c     DreamTeacherExtender.obj
 0002:00008420       ?NEW_LINE@h3@@3QBDB        10051420     DreamTeacherExtender.obj
 0002:00008423       ?_Fake_alloc@std@@3U_Fake_allocator@1@B 10051423     HermitsShackExtender.obj
 0002:00008424       ?BOM_HEADER@h3@@3QBDB      10051424     DreamTeacherExtender.obj
 0002:00008428       ?KEY_EQUALS@h3@@3QBDB      10051428     GazeboExtender.obj
 0002:0000842c       ?NEW_LINE@h3@@3QBDB        1005142c     GazeboExtender.obj
 0002:0000842f       ?_Fake_alloc@std@@3U_Fake_allocator@1@B 1005142f     HillFortExtender.obj
 0002:00008430       ?BOM_HEADER@h3@@3QBDB      10051430     GazeboExtender.obj
 0002:00008434       ?KEY_EQUALS@h3@@3QBDB      10051434     GraveExtender.obj
 0002:00008438       ?NEW_LINE@h3@@3QBDB        10051438     GraveExtender.obj
 0002:0000843b       ?_Fake_alloc@std@@3U_Fake_allocator@1@B 1005143b     JunkmanExtender.obj
 0002:0000843c       ?BOM_HEADER@h3@@3QBDB      1005143c     GraveExtender.obj
 0002:00008440       ?KEY_EQUALS@h3@@3QBDB      10051440     HermitsShackExtender.obj
 0002:00008444       ?NEW_LINE@h3@@3QBDB        10051444     HermitsShackExtender.obj
 0002:00008447       ?_Fake_alloc@std@@3U_Fake_allocator@1@B 10051447     MineralSpringExtender.obj
 0002:00008448       ?BOM_HEADER@h3@@3QBDB      10051448     HermitsShackExtender.obj
 0002:0000844c       ?KEY_EQUALS@h3@@3QBDB      1005144c     HillFortExtender.obj
 0002:00008450       ?NEW_LINE@h3@@3QBDB        10051450     HillFortExtender.obj
 0002:00008453       ?_Fake_alloc@std@@3U_Fake_allocator@1@B 10051453     ObservatoryExtender.obj
 0002:00008454       ?BOM_HEADER@h3@@3QBDB      10051454     HillFortExtender.obj
 0002:00008458       ?KEY_EQUALS@h3@@3QBDB      10051458     JunkmanExtender.obj
 0002:0000845c       ?NEW_LINE@h3@@3QBDB        1005145c     JunkmanExtender.obj
 0002:0000845f       ?_Fake_alloc@std@@3U_Fake_allocator@1@B 1005145f     ShrinesExternder.obj
 0002:00008460       ?BOM_HEADER@h3@@3QBDB      10051460     JunkmanExtender.obj
 0002:00008464       ?KEY_EQUALS@h3@@3QBDB      10051464     MineralSpringExtender.obj
 0002:00008468       ?NEW_LINE@h3@@3QBDB        10051468     MineralSpringExtender.obj
 0002:0000846b       ?_Fake_alloc@std@@3U_Fake_allocator@1@B 1005146b     SkeletonTransformerExtender.obj
 0002:0000846c       ?BOM_HEADER@h3@@3QBDB      1005146c     MineralSpringExtender.obj
 0002:00008470       ?KEY_EQUALS@h3@@3QBDB      10051470     ObservatoryExtender.obj
 0002:00008474       ?NEW_LINE@h3@@3QBDB        10051474     ObservatoryExtender.obj
 0002:00008477       ?_Fake_alloc@std@@3U_Fake_allocator@1@B 10051477     TempleOfLoyaltyExtender.obj
 0002:00008478       ?BOM_HEADER@h3@@3QBDB      10051478     ObservatoryExtender.obj
 0002:0000847c       ?KEY_EQUALS@h3@@3QBDB      1005147c     ShrinesExternder.obj
 0002:00008480       ?NEW_LINE@h3@@3QBDB        10051480     ShrinesExternder.obj
 0002:00008483       ?_Fake_alloc@std@@3U_Fake_allocator@1@B 10051483     TrailblazerExtender.obj
 0002:00008484       ?BOM_HEADER@h3@@3QBDB      10051484     ShrinesExternder.obj
 0002:00008488       ?KEY_EQUALS@h3@@3QBDB      10051488     SkeletonTransformerExtender.obj
 0002:0000848c       ?NEW_LINE@h3@@3QBDB        1005148c     SkeletonTransformerExtender.obj
 0002:0000848f       ?_Fake_alloc@std@@3U_Fake_allocator@1@B 1005148f     UniversityExtender.obj
 0002:00008490       ?BOM_HEADER@h3@@3QBDB      10051490     SkeletonTransformerExtender.obj
 0002:00008494       ?KEY_EQUALS@h3@@3QBDB      10051494     TempleOfLoyaltyExtender.obj
 0002:00008498       ?NEW_LINE@h3@@3QBDB        10051498     TempleOfLoyaltyExtender.obj
 0002:0000849b       ?_Fake_alloc@std@@3U_Fake_allocator@1@B 1005149b     WarehousesExtender.obj
 0002:0000849c       ?BOM_HEADER@h3@@3QBDB      1005149c     TempleOfLoyaltyExtender.obj
 0002:000084a0       ?KEY_EQUALS@h3@@3QBDB      100514a0     TrailblazerExtender.obj
 0002:000084a4       ?NEW_LINE@h3@@3QBDB        100514a4     TrailblazerExtender.obj
 0002:000084a7       ?_Fake_alloc@std@@3U_Fake_allocator@1@B 100514a7     WateringPlaceExtender.obj
 0002:000084a8       ?BOM_HEADER@h3@@3QBDB      100514a8     TrailblazerExtender.obj
 0002:000084ac       ?KEY_EQUALS@h3@@3QBDB      100514ac     UniversityExtender.obj
 0002:000084b0       ?NEW_LINE@h3@@3QBDB        100514b0     UniversityExtender.obj
 0002:000084b3       ?_Fake_alloc@std@@3U_Fake_allocator@1@B 100514b3     WoGObjectsExtender.obj
 0002:000084b4       ?BOM_HEADER@h3@@3QBDB      100514b4     UniversityExtender.obj
 0002:000084b8       ?KEY_EQUALS@h3@@3QBDB      100514b8     WarehousesExtender.obj
 0002:000084bc       ?NEW_LINE@h3@@3QBDB        100514bc     WarehousesExtender.obj
 0002:000084bf       ?_Fake_alloc@std@@3U_Fake_allocator@1@B 100514bf     ObjectsExtender.obj
 0002:000084c0       ?BOM_HEADER@h3@@3QBDB      100514c0     WarehousesExtender.obj
 0002:000084c4       ?KEY_EQUALS@h3@@3QBDB      100514c4     WateringPlaceExtender.obj
 0002:000084c8       ?NEW_LINE@h3@@3QBDB        100514c8     WateringPlaceExtender.obj
 0002:000084cb       ?_Fake_alloc@std@@3U_Fake_allocator@1@B 100514cb     RMGObjectsEditor.obj
 0002:000084cc       ?BOM_HEADER@h3@@3QBDB      100514cc     WateringPlaceExtender.obj
 0002:000084d0       ?KEY_EQUALS@h3@@3QBDB      100514d0     WoGObjectsExtender.obj
 0002:000084d4       ?NEW_LINE@h3@@3QBDB        100514d4     WoGObjectsExtender.obj
 0002:000084d7       ?_Fake_alloc@std@@3U_Fake_allocator@1@B 100514d7     RMG_SettingsDlg.obj
 0002:000084d8       ?BOM_HEADER@h3@@3QBDB      100514d8     WoGObjectsExtender.obj
 0002:000084dc       ?KEY_EQUALS@h3@@3QBDB      100514dc     ObjectsExtender.obj
 0002:000084e0       ?NEW_LINE@h3@@3QBDB        100514e0     ObjectsExtender.obj
 0002:000084e3       ?_Fake_alloc@std@@3U_Fake_allocator@1@B 100514e3     SoundManager.obj
 0002:000084e4       ?BOM_HEADER@h3@@3QBDB      100514e4     ObjectsExtender.obj
 0002:000084e8       ?KEY_EQUALS@h3@@3QBDB      100514e8     RMGObjectsEditor.obj
 0002:000084ec       ?NEW_LINE@h3@@3QBDB        100514ec     RMGObjectsEditor.obj
 0002:000084f0       ?BOM_HEADER@h3@@3QBDB      100514f0     RMGObjectsEditor.obj
 0002:000084f4       ?KEY_EQUALS@h3@@3QBDB      100514f4     RMG_SettingsDlg.obj
 0002:000084f8       ?NEW_LINE@h3@@3QBDB        100514f8     RMG_SettingsDlg.obj
 0002:000084fc       ?BOM_HEADER@h3@@3QBDB      100514fc     RMG_SettingsDlg.obj
 0002:00008500       ?DLGBLUEBOX@HDassets@NH3Dlg@h3@@3QBDB 10051500     RMG_SettingsDlg.obj
 0002:00008504       ?DLGBLUEBACK@HDassets@NH3Dlg@h3@@3QBDB 10051504     RMG_SettingsDlg.obj
 0002:00008508       ?HD_STATUSBAR_PCX@HDassets@NH3Dlg@h3@@3QBDB 10051508     RMG_SettingsDlg.obj
 0002:0000850c       ?KEY_EQUALS@h3@@3QBDB      1005150c     SoundManager.obj
 0002:00008510       ?NEW_LINE@h3@@3QBDB        10051510     SoundManager.obj
 0002:00008514       ?BOM_HEADER@h3@@3QBDB      10051514     SoundManager.obj
 0002:0000a760       _bias_low                  10053760     LIBCMT:ftol3.obj
 0002:0000a770       _bias_high                 10053770     LIBCMT:ftol3.obj
 0002:0000a780       _DP2to32                   10053780     LIBCMT:ftol3.obj
 0002:0000a788       _NaN                       10053788     LIBCMT:ftol3.obj
 0002:0000a78c       _onept5                    1005378c     LIBCMT:ftol3.obj
 0002:0000c648       __ehfuncinfo$??1H3String@h3@@QAE@XZ 10055648     AncientLampExtender.obj
 0002:0000c648       __ehfuncinfo$??$_Invoke@V?$tuple@P6AXABV?$vector@UObjectSound@SoundManager@sound@@V?$allocator@UObjectSound@SoundManager@sound@@@std@@@std@@@ZV12@@std@@$0A@$00@thread@std@@CGIPAX@Z 10055648     ObjectsExtender.obj
 0002:0000c648       __ehfuncinfo$??1_Sentry_base@?$basic_istream@DU?$char_traits@D@std@@@std@@QAE@XZ 10055648     ObjectsExtender.obj
 0002:0000c648       __ehfuncinfo$??1_Sentry_base@?$basic_ostream@DU?$char_traits@D@std@@@std@@QAE@XZ 10055648     ObjectsExtender.obj
 0002:0000c648       __ehfuncinfo$??$_Invoke@V?$tuple@P6AXPBF@ZPBF@std@@$0A@$00@thread@std@@CGIPAX@Z 10055648     RMGObjectsEditor.obj
 0002:0000c648       __ehfuncinfo$??$_Invoke@V?$tuple@P6AXXZ@std@@$0A@@thread@std@@CGIPAX@Z 10055648     RMG_SettingsDlg.obj
 0002:0000c648       __ehfuncinfo$??1?$H3BinaryLoader@UH3LoadedDef@h3@@@h3@@QAE@XZ 10055648     RMG_SettingsDlg.obj
 0002:0000c648       __ehfuncinfo$??1?$H3BinaryLoader@UH3LoadedPcx@h3@@@h3@@QAE@XZ 10055648     RMG_SettingsDlg.obj
 0002:0000c648       __ehfuncinfo$??1?$array@V?$vector@HV?$allocator@H@std@@@std@@$03@std@@QAE@XZ 10055648     RMG_SettingsDlg.obj
 0002:0000c648       __ehfuncinfo$??1H3BasePalette565@h3@@QAE@XZ 10055648     RMG_SettingsDlg.obj
 0002:0000c648       __ehfuncinfo$?_Tidy@ios_base@std@@AAEXXZ 10055648     libcpmt:ios.obj
 0002:0000c648       __ehfuncinfo$??1_Init_atexit@@QAE@XZ 10055648     libcpmt:iosptrs.obj
 0002:0000c648       __ehfuncinfo$___crtGetSystemTimePreciseAsFileTime 10055648     libcpmt:winapisupp.obj
 0002:0000c648       __ehfuncinfo$__Cnd_do_broadcast_at_thread_exit 10055648     libcpmt:xnotify.obj
 0002:0000c66c       __ehfuncinfo$?Format@H3String@h3@@SA?AU12@PBDZZ 1005566c     AncientLampExtender.obj
 0002:0000c690       __unwindtable$?Format@H3String@h3@@SA?AU12@PBDZZ 10055690     AncientLampExtender.obj
 0002:0000c698       __ehfuncinfo$??__F?currentCreatureBank@CreatureBanksExtender@cbanks@@0UCurrent@12@A@@YAXXZ 10055698     CreatureBanksExtender.obj
 0002:0000c698       __ehfuncinfo$??$swap@U?$H3Vector@PAUH3RmgObjectGenerator@h3@@@h3@@$0A@@std@@YAXAAU?$H3Vector@PAUH3RmgObjectGenerator@h3@@@h3@@0@Z 10055698     RMGObjectsEditor.obj
 0002:0000c698       __ehfuncinfo$??__Finstance@?1??Get@RMGObjectsEditor@editor@@SAAAV12@XZ@YAXXZ 10055698     RMGObjectsEditor.obj
 0002:0000c698       __ehfuncinfo$?CreateText@H3BaseDlg@h3@@QAEPAUH3DlgText@2@HHHHPBD0HHW4eTextAlignment@NTextAlignment@NH3Dlg@2@H@Z 10055698     RMG_SettingsDlg.obj
 0002:0000c698       __ehfuncinfo$?_Change_array@?$vector@U?$pair@UH3ObjectAttributes@h3@@PAUH3LoadedPcx16@2@@std@@V?$allocator@U?$pair@UH3ObjectAttributes@h3@@PAUH3LoadedPcx16@2@@std@@@2@@std@@AAEXQAU?$pair@UH3ObjectAttributes@h3@@PAUH3LoadedPcx16@2@@2@II@Z 10055698     RMG_SettingsDlg.obj
 0002:0000c6bc       __unwindtable$??__F?currentCreatureBank@CreatureBanksExtender@cbanks@@0UCurrent@12@A@@YAXXZ 100556bc     CreatureBanksExtender.obj
 0002:0000c6bc       __unwindtable$??$swap@U?$H3Vector@PAUH3RmgObjectGenerator@h3@@@h3@@$0A@@std@@YAXAAU?$H3Vector@PAUH3RmgObjectGenerator@h3@@@h3@@0@Z 100556bc     RMGObjectsEditor.obj
 0002:0000c6bc       __unwindtable$??__Finstance@?1??Get@RMGObjectsEditor@editor@@SAAAV12@XZ@YAXXZ 100556bc     RMGObjectsEditor.obj
 0002:0000c6bc       __unwindtable$?CreateText@H3BaseDlg@h3@@QAEPAUH3DlgText@2@HHHHPBD0HHW4eTextAlignment@NTextAlignment@NH3Dlg@2@H@Z 100556bc     RMG_SettingsDlg.obj
 0002:0000c6bc       __unwindtable$?_Change_array@?$vector@U?$pair@UH3ObjectAttributes@h3@@PAUH3LoadedPcx16@2@@std@@V?$allocator@U?$pair@UH3ObjectAttributes@h3@@PAUH3LoadedPcx16@2@@std@@@2@@std@@AAEXQAU?$pair@UH3ObjectAttributes@h3@@PAUH3LoadedPcx16@2@@2@II@Z 100556bc     RMG_SettingsDlg.obj
 0002:0000c6c4       __ehfuncinfo$??0H3CreatureBankSetup@h3@@QAE@XZ 100556c4     CreatureBanksExtender.obj
 0002:0000c6e8       __unwindtable$??0H3CreatureBankSetup@h3@@QAE@XZ 100556e8     CreatureBanksExtender.obj
 0002:0000c6f0       __ehfuncinfo$??$_Destroy_range@V?$allocator@UH3CreatureBankSetup@h3@@@std@@@std@@YAXPAUH3CreatureBankSetup@h3@@QAU12@AAV?$allocator@UH3CreatureBankSetup@h3@@@0@@Z 100556f0     CreatureBanksExtender.obj
 0002:0000c6f0       __ehfuncinfo$??1?$_Uninitialized_backout_al@V?$allocator@UH3CreatureBankSetup@h3@@@std@@@std@@QAE@XZ 100556f0     CreatureBanksExtender.obj
 0002:0000c6f0       __ehfuncinfo$??1H3CreatureBankSetup@h3@@QAE@XZ 100556f0     CreatureBanksExtender.obj
 0002:0000c6f0       __ehfuncinfo$??1?$basic_ios@DU?$char_traits@D@std@@@std@@UAE@XZ 100556f0     ObjectsExtender.obj
 0002:0000c6f0       __ehfuncinfo$??1sentry@?$basic_istream@DU?$char_traits@D@std@@@std@@QAE@XZ 100556f0     ObjectsExtender.obj
 0002:0000c6f0       __ehfuncinfo$??1sentry@?$basic_ostream@DU?$char_traits@D@std@@@std@@QAE@XZ 100556f0     ObjectsExtender.obj
 0002:0000c6f0       __ehfuncinfo$??_D?$basic_istringstream@DU?$char_traits@D@std@@V?$allocator@D@2@@std@@QAEXXZ 100556f0     ObjectsExtender.obj
 0002:0000c6f0       __ehfuncinfo$??_G?$basic_ios@DU?$char_traits@D@std@@@std@@UAEPAXI@Z 100556f0     ObjectsExtender.obj
 0002:0000c6f0       __ehfuncinfo$??_G?$basic_istream@DU?$char_traits@D@std@@@std@@UAEPAXI@Z 100556f0     ObjectsExtender.obj
 0002:0000c6f0       __ehfuncinfo$??_G?$basic_istringstream@DU?$char_traits@D@std@@V?$allocator@D@2@@std@@UAEPAXI@Z 100556f0     ObjectsExtender.obj
 0002:0000c6f0       __ehfuncinfo$??_G?$ctype@D@std@@MAEPAXI@Z 100556f0     ObjectsExtender.obj
 0002:0000c6f0       __ehfuncinfo$??_Gios_base@std@@UAEPAXI@Z 100556f0     ObjectsExtender.obj
 0002:0000c6f0       __ehfuncinfo$??1?$H3Vector@PAUH3RmgObjectGenerator@h3@@@h3@@QAE@XZ 100556f0     RMGObjectsEditor.obj
 0002:0000c6f0       __ehfuncinfo$??_GRMGObjectsEditor@editor@@EAEPAXI@Z 100556f0     RMGObjectsEditor.obj
 0002:0000c6f0       __ehfuncinfo$??$_Destroy_range@V?$allocator@U?$pair@UH3ObjectAttributes@h3@@PAUH3LoadedPcx16@2@@std@@@std@@@std@@YAXPAU?$pair@UH3ObjectAttributes@h3@@PAUH3LoadedPcx16@2@@0@QAU10@AAV?$allocator@U?$pair@UH3ObjectAttributes@h3@@PAUH3LoadedPcx16@2@@std@@@0@@Z 100556f0     RMG_SettingsDlg.obj
 0002:0000c6f0       __ehfuncinfo$??1?$_Uninitialized_backout_al@V?$allocator@U?$pair@UH3ObjectAttributes@h3@@PAUH3LoadedPcx16@2@@std@@@std@@@std@@QAE@XZ 100556f0     RMG_SettingsDlg.obj
 0002:0000c6f0       __ehfuncinfo$??1?$pair@UH3ObjectAttributes@h3@@$$T@std@@QAE@XZ 100556f0     RMG_SettingsDlg.obj
 0002:0000c6f0       __ehfuncinfo$??1H3Dlg@h3@@QAE@XZ 100556f0     RMG_SettingsDlg.obj
 0002:0000c6f0       __ehfuncinfo$??1H3NetworkDlg@h3@@QAE@XZ 100556f0     RMG_SettingsDlg.obj
 0002:0000c6f0       __ehfuncinfo$??_GRMG_SettingsDlg@rmgdlg@@EAEPAXI@Z 100556f0     RMG_SettingsDlg.obj
 0002:0000c6f0       __ehfuncinfo$?_Tidy@?$vector@U?$pair@UH3ObjectAttributes@h3@@PAUH3LoadedPcx16@2@@std@@V?$allocator@U?$pair@UH3ObjectAttributes@h3@@PAUH3LoadedPcx16@2@@std@@@2@@std@@AAEXXZ 100556f0     RMG_SettingsDlg.obj
 0002:0000c714       __unwindtable$??$_Destroy_range@V?$allocator@UH3CreatureBankSetup@h3@@@std@@@std@@YAXPAUH3CreatureBankSetup@h3@@QAU12@AAV?$allocator@UH3CreatureBankSetup@h3@@@0@@Z 10055714     CreatureBanksExtender.obj
 0002:0000c714       __unwindtable$??1?$_Uninitialized_backout_al@V?$allocator@UH3CreatureBankSetup@h3@@@std@@@std@@QAE@XZ 10055714     CreatureBanksExtender.obj
 0002:0000c714       __unwindtable$??1H3CreatureBankSetup@h3@@QAE@XZ 10055714     CreatureBanksExtender.obj
 0002:0000c714       __unwindtable$??1?$basic_ios@DU?$char_traits@D@std@@@std@@UAE@XZ 10055714     ObjectsExtender.obj
 0002:0000c714       __unwindtable$??1sentry@?$basic_istream@DU?$char_traits@D@std@@@std@@QAE@XZ 10055714     ObjectsExtender.obj
 0002:0000c714       __unwindtable$??1sentry@?$basic_ostream@DU?$char_traits@D@std@@@std@@QAE@XZ 10055714     ObjectsExtender.obj
 0002:0000c714       __unwindtable$??_D?$basic_istringstream@DU?$char_traits@D@std@@V?$allocator@D@2@@std@@QAEXXZ 10055714     ObjectsExtender.obj
 0002:0000c714       __unwindtable$??_G?$basic_ios@DU?$char_traits@D@std@@@std@@UAEPAXI@Z 10055714     ObjectsExtender.obj
 0002:0000c714       __unwindtable$??_G?$basic_istream@DU?$char_traits@D@std@@@std@@UAEPAXI@Z 10055714     ObjectsExtender.obj
 0002:0000c714       __unwindtable$??_G?$basic_istringstream@DU?$char_traits@D@std@@V?$allocator@D@2@@std@@UAEPAXI@Z 10055714     ObjectsExtender.obj
 0002:0000c714       __unwindtable$??_G?$ctype@D@std@@MAEPAXI@Z 10055714     ObjectsExtender.obj
 0002:0000c714       __unwindtable$??_Gios_base@std@@UAEPAXI@Z 10055714     ObjectsExtender.obj
 0002:0000c714       __unwindtable$??1?$H3Vector@PAUH3RmgObjectGenerator@h3@@@h3@@QAE@XZ 10055714     RMGObjectsEditor.obj
 0002:0000c714       __unwindtable$??_GRMGObjectsEditor@editor@@EAEPAXI@Z 10055714     RMGObjectsEditor.obj
 0002:0000c714       __unwindtable$??$_Destroy_range@V?$allocator@U?$pair@UH3ObjectAttributes@h3@@PAUH3LoadedPcx16@2@@std@@@std@@@std@@YAXPAU?$pair@UH3ObjectAttributes@h3@@PAUH3LoadedPcx16@2@@0@QAU10@AAV?$allocator@U?$pair@UH3ObjectAttributes@h3@@PAUH3LoadedPcx16@2@@std@@@0@@Z 10055714     RMG_SettingsDlg.obj
 0002:0000c714       __unwindtable$??1?$_Uninitialized_backout_al@V?$allocator@U?$pair@UH3ObjectAttributes@h3@@PAUH3LoadedPcx16@2@@std@@@std@@@std@@QAE@XZ 10055714     RMG_SettingsDlg.obj
 0002:0000c714       __unwindtable$??1?$pair@UH3ObjectAttributes@h3@@$$T@std@@QAE@XZ 10055714     RMG_SettingsDlg.obj
 0002:0000c714       __unwindtable$??1H3Dlg@h3@@QAE@XZ 10055714     RMG_SettingsDlg.obj
 0002:0000c714       __unwindtable$??1H3NetworkDlg@h3@@QAE@XZ 10055714     RMG_SettingsDlg.obj
 0002:0000c714       __unwindtable$??_GRMG_SettingsDlg@rmgdlg@@EAEPAXI@Z 10055714     RMG_SettingsDlg.obj
 0002:0000c714       __unwindtable$?_Tidy@?$vector@U?$pair@UH3ObjectAttributes@h3@@PAUH3LoadedPcx16@2@@std@@V?$allocator@U?$pair@UH3ObjectAttributes@h3@@PAUH3LoadedPcx16@2@@std@@@2@@std@@AAEXXZ 10055714     RMG_SettingsDlg.obj
 0002:0000c71c       __ehfuncinfo$??$emplace@H@?$_Hash@V?$_Uset_traits@HV?$_Uhash_compare@HU?$hash@H@std@@U?$equal_to@H@2@@std@@V?$allocator@H@2@$0A@@std@@@std@@QAE?AU?$pair@V?$_List_const_iterator@V?$_List_val@U?$_List_simple_types@H@std@@@std@@@std@@_N@1@$$QAH@Z 1005571c     CreatureBanksExtender.obj
 0002:0000c71c       __ehfuncinfo$??$emplace@I@?$_Hash@V?$_Uset_traits@IV?$_Uhash_compare@IU?$hash@I@std@@U?$equal_to@I@2@@std@@V?$allocator@I@2@$0A@@std@@@std@@QAE?AU?$pair@V?$_List_const_iterator@V?$_List_val@U?$_List_simple_types@I@std@@@std@@@std@@_N@1@$$QAI@Z 1005571c     RMGObjectsEditor.obj
 0002:0000c71c       __ehfuncinfo$??$emplace@E@?$_Hash@V?$_Uset_traits@EV?$_Uhash_compare@EU?$hash@E@std@@U?$equal_to@E@2@@std@@V?$allocator@E@2@$0A@@std@@@std@@QAE?AU?$pair@V?$_List_const_iterator@V?$_List_val@U?$_List_simple_types@E@std@@@std@@@std@@_N@1@$$QAE@Z 1005571c     UniversityExtender.obj
 0002:0000c740       __unwindtable$??$emplace@H@?$_Hash@V?$_Uset_traits@HV?$_Uhash_compare@HU?$hash@H@std@@U?$equal_to@H@2@@std@@V?$allocator@H@2@$0A@@std@@@std@@QAE?AU?$pair@V?$_List_const_iterator@V?$_List_val@U?$_List_simple_types@H@std@@@std@@@std@@_N@1@$$QAH@Z 10055740     CreatureBanksExtender.obj
 0002:0000c740       __unwindtable$??$emplace@I@?$_Hash@V?$_Uset_traits@IV?$_Uhash_compare@IU?$hash@I@std@@U?$equal_to@I@2@@std@@V?$allocator@I@2@$0A@@std@@@std@@QAE?AU?$pair@V?$_List_const_iterator@V?$_List_val@U?$_List_simple_types@I@std@@@std@@@std@@_N@1@$$QAI@Z 10055740     RMGObjectsEditor.obj
 0002:0000c740       __unwindtable$??$emplace@E@?$_Hash@V?$_Uset_traits@EV?$_Uhash_compare@EU?$hash@E@std@@U?$equal_to@E@2@@std@@V?$allocator@E@2@$0A@@std@@@std@@QAE?AU?$pair@V?$_List_const_iterator@V?$_List_val@U?$_List_simple_types@E@std@@@std@@@std@@_N@1@$$QAE@Z 10055740     UniversityExtender.obj
 0002:0000c750       __ehfuncinfo$??$_Reallocate@$00@?$vector@UH3CreatureBankSetup@h3@@V?$allocator@UH3CreatureBankSetup@h3@@@std@@@std@@AAEXAAI@Z 10055750     CreatureBanksExtender.obj
 0002:0000c750       __ehfuncinfo$??$_Reallocate@$0A@@?$vector@UH3CreatureBankSetup@h3@@V?$allocator@UH3CreatureBankSetup@h3@@@std@@@std@@AAEXAAI@Z 10055750     CreatureBanksExtender.obj
 0002:0000c774       __unwindtable$??$_Reallocate@$00@?$vector@UH3CreatureBankSetup@h3@@V?$allocator@UH3CreatureBankSetup@h3@@@std@@@std@@AAEXAAI@Z 10055774     CreatureBanksExtender.obj
 0002:0000c774       __unwindtable$??$_Reallocate@$0A@@?$vector@UH3CreatureBankSetup@h3@@V?$allocator@UH3CreatureBankSetup@h3@@@std@@@std@@AAEXAAI@Z 10055774     CreatureBanksExtender.obj
 0002:0000c794       __tryblocktable$??$_Reallocate@$00@?$vector@UH3CreatureBankSetup@h3@@V?$allocator@UH3CreatureBankSetup@h3@@@std@@@std@@AAEXAAI@Z 10055794     CreatureBanksExtender.obj
 0002:0000c794       __tryblocktable$??$_Reallocate@$0A@@?$vector@UH3CreatureBankSetup@h3@@V?$allocator@UH3CreatureBankSetup@h3@@@std@@@std@@AAEXAAI@Z 10055794     CreatureBanksExtender.obj
 0002:0000c7a8       __catchsym$??$_Reallocate@$00@?$vector@UH3CreatureBankSetup@h3@@V?$allocator@UH3CreatureBankSetup@h3@@@std@@@std@@AAEXAAI@Z$5 100557a8     CreatureBanksExtender.obj
 0002:0000c7a8       __catchsym$??$_Reallocate@$0A@@?$vector@UH3CreatureBankSetup@h3@@V?$allocator@UH3CreatureBankSetup@h3@@@std@@@std@@AAEXAAI@Z$5 100557a8     CreatureBanksExtender.obj
 0002:0000c7b8       __ehfuncinfo$??$_Emplace_reallocate@AAUH3CreatureBankSetup@h3@@@?$vector@UH3CreatureBankSetup@h3@@V?$allocator@UH3CreatureBankSetup@h3@@@std@@@std@@AAEPAUH3CreatureBankSetup@h3@@QAU23@AAU23@@Z 100557b8     CreatureBanksExtender.obj
 0002:0000c7dc       __unwindtable$??$_Emplace_reallocate@AAUH3CreatureBankSetup@h3@@@?$vector@UH3CreatureBankSetup@h3@@V?$allocator@UH3CreatureBankSetup@h3@@@std@@@std@@AAEPAUH3CreatureBankSetup@h3@@QAU23@AAU23@@Z 100557dc     CreatureBanksExtender.obj
 0002:0000c7ec       __tryblocktable$??$_Emplace_reallocate@AAUH3CreatureBankSetup@h3@@@?$vector@UH3CreatureBankSetup@h3@@V?$allocator@UH3CreatureBankSetup@h3@@@std@@@std@@AAEPAUH3CreatureBankSetup@h3@@QAU23@AAU23@@Z 100557ec     CreatureBanksExtender.obj
 0002:0000c800       __catchsym$??$_Emplace_reallocate@AAUH3CreatureBankSetup@h3@@@?$vector@UH3CreatureBankSetup@h3@@V?$allocator@UH3CreatureBankSetup@h3@@@std@@@std@@AAEPAUH3CreatureBankSetup@h3@@QAU23@AAU23@@Z$2 10055800     CreatureBanksExtender.obj
 0002:0000c810       __ehfuncinfo$??$_Uninitialized_copy@PAUH3CreatureBankSetup@h3@@PAU12@V?$allocator@UH3CreatureBankSetup@h3@@@std@@@std@@YAPAUH3CreatureBankSetup@h3@@PAU12@00AAV?$allocator@UH3CreatureBankSetup@h3@@@0@@Z 10055810     CreatureBanksExtender.obj
 0002:0000c810       __ehfuncinfo$??$_Uninitialized_value_construct_n@V?$allocator@UH3CreatureBankSetup@h3@@@std@@@std@@YAPAUH3CreatureBankSetup@h3@@PAU12@IAAV?$allocator@UH3CreatureBankSetup@h3@@@0@@Z 10055810     CreatureBanksExtender.obj
 0002:0000c834       __unwindtable$??$_Uninitialized_copy@PAUH3CreatureBankSetup@h3@@PAU12@V?$allocator@UH3CreatureBankSetup@h3@@@std@@@std@@YAPAUH3CreatureBankSetup@h3@@PAU12@00AAV?$allocator@UH3CreatureBankSetup@h3@@@0@@Z 10055834     CreatureBanksExtender.obj
 0002:0000c834       __unwindtable$??$_Uninitialized_value_construct_n@V?$allocator@UH3CreatureBankSetup@h3@@@std@@@std@@YAPAUH3CreatureBankSetup@h3@@PAU12@IAAV?$allocator@UH3CreatureBankSetup@h3@@@0@@Z 10055834     CreatureBanksExtender.obj
 0002:0000c844       __ehfuncinfo$??$_Resize_reallocate@U_Value_init_tag@std@@@?$vector@UH3CreatureBankSetup@h3@@V?$allocator@UH3CreatureBankSetup@h3@@@std@@@std@@AAEXIABU_Value_init_tag@1@@Z 10055844     CreatureBanksExtender.obj
 0002:0000c868       __unwindtable$??$_Resize_reallocate@U_Value_init_tag@std@@@?$vector@UH3CreatureBankSetup@h3@@V?$allocator@UH3CreatureBankSetup@h3@@@std@@@std@@AAEXIABU_Value_init_tag@1@@Z 10055868     CreatureBanksExtender.obj
 0002:0000c888       __tryblocktable$??$_Resize_reallocate@U_Value_init_tag@std@@@?$vector@UH3CreatureBankSetup@h3@@V?$allocator@UH3CreatureBankSetup@h3@@@std@@@std@@AAEXIABU_Value_init_tag@1@@Z 10055888     CreatureBanksExtender.obj
 0002:0000c89c       __catchsym$??$_Resize_reallocate@U_Value_init_tag@std@@@?$vector@UH3CreatureBankSetup@h3@@V?$allocator@UH3CreatureBankSetup@h3@@@std@@@std@@AAEXIABU_Value_init_tag@1@@Z$5 1005589c     CreatureBanksExtender.obj
 0002:0000c8ac       __ehfuncinfo$?Reserve@?$H3Vector@UH3PictureCategories@h3@@@h3@@QAEHI@Z 100558ac     CreatureBanksExtender.obj
 0002:0000c8ac       __ehfuncinfo$?Reserve@?$H3Vector@V?$array@H$01@std@@@h3@@QAEHI@Z 100558ac     CreatureBanksExtender.obj
 0002:0000c8ac       __ehfuncinfo$?Reserve@?$H3Vector@PAUH3RmgObjectGenerator@h3@@@h3@@QAEHI@Z 100558ac     ObjectsExtender.obj
 0002:0000c8ac       __ehfuncinfo$?Reserve@?$H3Vector@PBD@h3@@QAEHI@Z 100558ac     ObjectsExtender.obj
 0002:0000c8ac       __ehfuncinfo$?Reserve@?$H3Vector@H@h3@@QAEHI@Z 100558ac     RMG_SettingsDlg.obj
 0002:0000c8ac       __ehfuncinfo$?Reserve@?$H3Vector@PAUH3DlgItem@h3@@@h3@@QAEHI@Z 100558ac     RMG_SettingsDlg.obj
 0002:0000c8d0       __unwindtable$?Reserve@?$H3Vector@UH3PictureCategories@h3@@@h3@@QAEHI@Z 100558d0     CreatureBanksExtender.obj
 0002:0000c8d0       __unwindtable$?Reserve@?$H3Vector@V?$array@H$01@std@@@h3@@QAEHI@Z 100558d0     CreatureBanksExtender.obj
 0002:0000c8d0       __unwindtable$?Reserve@?$H3Vector@PAUH3RmgObjectGenerator@h3@@@h3@@QAEHI@Z 100558d0     ObjectsExtender.obj
 0002:0000c8d0       __unwindtable$?Reserve@?$H3Vector@PBD@h3@@QAEHI@Z 100558d0     ObjectsExtender.obj
 0002:0000c8d0       __unwindtable$?Reserve@?$H3Vector@H@h3@@QAEHI@Z 100558d0     RMG_SettingsDlg.obj
 0002:0000c8d0       __unwindtable$?Reserve@?$H3Vector@PAUH3DlgItem@h3@@@h3@@QAEHI@Z 100558d0     RMG_SettingsDlg.obj
 0002:0000c8e0       __ehfuncinfo$??$_Uninitialized_move@PAUH3CreatureBankSetup@h3@@V?$allocator@UH3CreatureBankSetup@h3@@@std@@@std@@YAPAUH3CreatureBankSetup@h3@@QAU12@0PAU12@AAV?$allocator@UH3CreatureBankSetup@h3@@@0@@Z 100558e0     CreatureBanksExtender.obj
 0002:0000c904       __unwindtable$??$_Uninitialized_move@PAUH3CreatureBankSetup@h3@@V?$allocator@UH3CreatureBankSetup@h3@@@std@@@std@@YAPAUH3CreatureBankSetup@h3@@QAU12@0PAU12@AAV?$allocator@UH3CreatureBankSetup@h3@@@0@@Z 10055904     CreatureBanksExtender.obj
 0002:0000c90c       __ehfuncinfo$??0_System_error@std@@IAE@Verror_code@1@ABV?$basic_string@DU?$char_traits@D@std@@V?$allocator@D@2@@1@@Z 1005590c     ObjectsExtender.obj
 0002:0000c930       __unwindtable$??0_System_error@std@@IAE@Verror_code@1@ABV?$basic_string@DU?$char_traits@D@std@@V?$allocator@D@2@@1@@Z 10055930     ObjectsExtender.obj
 0002:0000c940       __ehfuncinfo$?_Getcat@?$ctype@D@std@@SAIPAPBVfacet@locale@2@PBV42@@Z 10055940     ObjectsExtender.obj
 0002:0000c968       __unwindtable$?_Getcat@?$ctype@D@std@@SAIPAPBVfacet@locale@2@PBV42@@Z 10055968     ObjectsExtender.obj
 0002:0000c9b0       __ehfuncinfo$??0failure@ios_base@std@@QAE@PBDABVerror_code@2@@Z 100559b0     ObjectsExtender.obj
 0002:0000c9d4       __unwindtable$??0failure@ios_base@std@@QAE@PBDABVerror_code@2@@Z 100559d4     ObjectsExtender.obj
 0002:0000c9e0       __ehfuncinfo$?GetEraModList@modList@@YAHAAV?$vector@V?$basic_string@DU?$char_traits@D@std@@V?$allocator@D@2@@std@@V?$allocator@V?$basic_string@DU?$char_traits@D@std@@V?$allocator@D@2@@std@@@2@@std@@H@Z 100559e0     ObjectsExtender.obj
 0002:0000ca08       __unwindtable$?GetEraModList@modList@@YAHAAV?$vector@V?$basic_string@DU?$char_traits@D@std@@V?$allocator@D@2@@std@@V?$allocator@V?$basic_string@DU?$char_traits@D@std@@V?$allocator@D@2@@std@@@2@@std@@H@Z 10055a08     ObjectsExtender.obj
 0002:0000ca48       __ehfuncinfo$??__E?additionalPropertiesMap@ObjectProperty@extender@@2V?$unordered_map@V?$basic_string@DU?$char_traits@D@std@@V?$allocator@D@2@@std@@V12@U?$hash@V?$basic_string@DU?$char_traits@D@std@@V?$allocator@D@2@@std@@@2@U?$equal_to@V?$basic_string@DU?$char_traits@D@std@@V?$allocator@D@2@@std@@@2@V?$allocator@U?$pair@$$CBV?$basic_string@DU?$char_traits@D@std@@V?$allocator@D@2@@std@@V12@@std@@@2@@std@@A@@YAXXZ 10055a48     ObjectsExtender.obj
 0002:0000ca6c       __unwindtable$??__E?additionalPropertiesMap@ObjectProperty@extender@@2V?$unordered_map@V?$basic_string@DU?$char_traits@D@std@@V?$allocator@D@2@@std@@V12@U?$hash@V?$basic_string@DU?$char_traits@D@std@@V?$allocator@D@2@@std@@@2@U?$equal_to@V?$basic_string@DU?$char_traits@D@std@@V?$allocator@D@2@@std@@@2@V?$allocator@U?$pair@$$CBV?$basic_string@DU?$char_traits@D@std@@V?$allocator@D@2@@std@@V12@@std@@@2@@std@@A@@YAXXZ 10055a6c     ObjectsExtender.obj
 0002:0000ca7c       __ehfuncinfo$??0?$basic_istringstream@DU?$char_traits@D@std@@V?$allocator@D@2@@std@@QAE@ABV?$basic_string@DU?$char_traits@D@std@@V?$allocator@D@2@@1@H@Z 10055a7c     ObjectsExtender.obj
 0002:0000caa0       __unwindtable$??0?$basic_istringstream@DU?$char_traits@D@std@@V?$allocator@D@2@@std@@QAE@ABV?$basic_string@DU?$char_traits@D@std@@V?$allocator@D@2@@1@H@Z 10055aa0     ObjectsExtender.obj
 0002:0000cad8       __ehfuncinfo$??$use_facet@V?$ctype@D@std@@@std@@YAABV?$ctype@D@0@ABVlocale@0@@Z 10055ad8     ObjectsExtender.obj
 0002:0000cafc       __unwindtable$??$use_facet@V?$ctype@D@std@@@std@@YAABV?$ctype@D@0@ABVlocale@0@@Z 10055afc     ObjectsExtender.obj
 0002:0000cb0c       __ehfuncinfo$??$getline@DU?$char_traits@D@std@@V?$allocator@D@2@@std@@YAAAV?$basic_istream@DU?$char_traits@D@std@@@0@AAV10@AAV?$basic_string@DU?$char_traits@D@std@@V?$allocator@D@2@@0@@Z 10055b0c     ObjectsExtender.obj
 0002:0000cb30       __unwindtable$??$getline@DU?$char_traits@D@std@@V?$allocator@D@2@@std@@YAAAV?$basic_istream@DU?$char_traits@D@std@@@0@AAV10@AAV?$basic_string@DU?$char_traits@D@std@@V?$allocator@D@2@@0@@Z 10055b30     ObjectsExtender.obj
 0002:0000cb38       __ehfuncinfo$??$?5DU?$char_traits@D@std@@V?$allocator@D@1@@std@@YAAAV?$basic_istream@DU?$char_traits@D@std@@@0@AAV10@AAV?$basic_string@DU?$char_traits@D@std@@V?$allocator@D@2@@0@@Z 10055b38     ObjectsExtender.obj
 0002:0000cb5c       __unwindtable$??$?5DU?$char_traits@D@std@@V?$allocator@D@1@@std@@YAAAV?$basic_istream@DU?$char_traits@D@std@@@0@AAV10@AAV?$basic_string@DU?$char_traits@D@std@@V?$allocator@D@2@@0@@Z 10055b5c     ObjectsExtender.obj
 0002:0000cb8c       __tryblocktable$??$?5DU?$char_traits@D@std@@V?$allocator@D@1@@std@@YAAAV?$basic_istream@DU?$char_traits@D@std@@@0@AAV10@AAV?$basic_string@DU?$char_traits@D@std@@V?$allocator@D@2@@0@@Z 10055b8c     ObjectsExtender.obj
 0002:0000cba0       __catchsym$??$?5DU?$char_traits@D@std@@V?$allocator@D@1@@std@@YAAAV?$basic_istream@DU?$char_traits@D@std@@@0@AAV10@AAV?$basic_string@DU?$char_traits@D@std@@V?$allocator@D@2@@0@@Z$8 10055ba0     ObjectsExtender.obj
 0002:0000cbb0       __ehfuncinfo$??$emplace@URMGObjectSetable@extender@@@?$_Hash@V?$_Uset_traits@URMGObjectSetable@extender@@V?$_Uhash_compare@URMGObjectSetable@extender@@UHashFunction@12@U?$equal_to@URMGObjectSetable@extender@@@std@@@std@@V?$allocator@URMGObjectSetable@extender@@@4@$0A@@std@@@std@@QAE?AU?$pair@V?$_List_const_iterator@V?$_List_val@U?$_List_simple_types@URMGObjectSetable@extender@@@std@@@std@@@std@@_N@1@$$QAURMGObjectSetable@extender@@@Z 10055bb0     ObjectsExtender.obj
 0002:0000cbb0       __ehfuncinfo$??$emplace@U?$pair@KH@std@@@?$_Hash@V?$_Umap_traits@KHV?$_Uhash_compare@KU?$hash@K@std@@U?$equal_to@K@2@@std@@V?$allocator@U?$pair@$$CBKH@std@@@2@$0A@@std@@@std@@QAE?AU?$pair@V?$_List_iterator@V?$_List_val@U?$_List_simple_types@U?$pair@$$CBKH@std@@@std@@@std@@@std@@_N@1@$$QAU?$pair@KH@1@@Z 10055bb0     SoundManager.obj
 0002:0000cbd4       __unwindtable$??$emplace@URMGObjectSetable@extender@@@?$_Hash@V?$_Uset_traits@URMGObjectSetable@extender@@V?$_Uhash_compare@URMGObjectSetable@extender@@UHashFunction@12@U?$equal_to@URMGObjectSetable@extender@@@std@@@std@@V?$allocator@URMGObjectSetable@extender@@@4@$0A@@std@@@std@@QAE?AU?$pair@V?$_List_const_iterator@V?$_List_val@U?$_List_simple_types@URMGObjectSetable@extender@@@std@@@std@@@std@@_N@1@$$QAURMGObjectSetable@extender@@@Z 10055bd4     ObjectsExtender.obj
 0002:0000cbd4       __unwindtable$??$emplace@U?$pair@KH@std@@@?$_Hash@V?$_Umap_traits@KHV?$_Uhash_compare@KU?$hash@K@std@@U?$equal_to@K@2@@std@@V?$allocator@U?$pair@$$CBKH@std@@@2@$0A@@std@@@std@@QAE?AU?$pair@V?$_List_iterator@V?$_List_val@U?$_List_simple_types@U?$pair@$$CBKH@std@@@std@@@std@@@std@@_N@1@$$QAU?$pair@KH@1@@Z 10055bd4     SoundManager.obj
 0002:0000cbe4       __ehfuncinfo$?_Ipfx@?$basic_istream@DU?$char_traits@D@std@@@std@@QAE_N_N@Z 10055be4     ObjectsExtender.obj
 0002:0000cc08       __unwindtable$?_Ipfx@?$basic_istream@DU?$char_traits@D@std@@@std@@QAE_N_N@Z 10055c08     ObjectsExtender.obj
 0002:0000cc20       __tryblocktable$?_Ipfx@?$basic_istream@DU?$char_traits@D@std@@@std@@QAE_N_N@Z 10055c20     ObjectsExtender.obj
 0002:0000cc34       __catchsym$?_Ipfx@?$basic_istream@DU?$char_traits@D@std@@@std@@QAE_N_N@Z$4 10055c34     ObjectsExtender.obj
 0002:0000cc44       __ehfuncinfo$?flush@?$basic_ostream@DU?$char_traits@D@std@@@std@@QAEAAV12@XZ 10055c44     ObjectsExtender.obj
 0002:0000cc68       __unwindtable$?flush@?$basic_ostream@DU?$char_traits@D@std@@@std@@QAEAAV12@XZ 10055c68     ObjectsExtender.obj
 0002:0000cc90       __tryblocktable$?flush@?$basic_ostream@DU?$char_traits@D@std@@@std@@QAEAAV12@XZ 10055c90     ObjectsExtender.obj
 0002:0000cca4       __catchsym$?flush@?$basic_ostream@DU?$char_traits@D@std@@@std@@QAEAAV12@XZ$6 10055ca4     ObjectsExtender.obj
 0002:0000ccb4       __ehfuncinfo$?_Osfx@?$basic_ostream@DU?$char_traits@D@std@@@std@@QAEXXZ 10055cb4     ObjectsExtender.obj
 0002:0000ccd8       __unwindtable$?_Osfx@?$basic_ostream@DU?$char_traits@D@std@@@std@@QAEXXZ 10055cd8     ObjectsExtender.obj
 0002:0000cce8       __tryblocktable$?_Osfx@?$basic_ostream@DU?$char_traits@D@std@@@std@@QAEXXZ 10055ce8     ObjectsExtender.obj
 0002:0000ccfc       __catchsym$?_Osfx@?$basic_ostream@DU?$char_traits@D@std@@@std@@QAEXXZ$2 10055cfc     ObjectsExtender.obj
 0002:0000cd0c       __ehfuncinfo$??$getline@DU?$char_traits@D@std@@V?$allocator@D@2@@std@@YAAAV?$basic_istream@DU?$char_traits@D@std@@@0@$$QAV10@AAV?$basic_string@DU?$char_traits@D@std@@V?$allocator@D@2@@0@D@Z 10055d0c     ObjectsExtender.obj
 0002:0000cd30       __unwindtable$??$getline@DU?$char_traits@D@std@@V?$allocator@D@2@@std@@YAAAV?$basic_istream@DU?$char_traits@D@std@@@0@$$QAV10@AAV?$basic_string@DU?$char_traits@D@std@@V?$allocator@D@2@@0@D@Z 10055d30     ObjectsExtender.obj
 0002:0000cd58       __tryblocktable$??$getline@DU?$char_traits@D@std@@V?$allocator@D@2@@std@@YAAAV?$basic_istream@DU?$char_traits@D@std@@@0@$$QAV10@AAV?$basic_string@DU?$char_traits@D@std@@V?$allocator@D@2@@0@D@Z 10055d58     ObjectsExtender.obj
 0002:0000cd6c       __catchsym$??$getline@DU?$char_traits@D@std@@V?$allocator@D@2@@std@@YAAAV?$basic_istream@DU?$char_traits@D@std@@@0@$$QAV10@AAV?$basic_string@DU?$char_traits@D@std@@V?$allocator@D@2@@0@D@Z$6 10055d6c     ObjectsExtender.obj
 0002:0000cd7c       __ehfuncinfo$??$_Emplace_reallocate@AAV?$basic_string@DU?$char_traits@D@std@@V?$allocator@D@2@@std@@@?$vector@V?$basic_string@DU?$char_traits@D@std@@V?$allocator@D@2@@std@@V?$allocator@V?$basic_string@DU?$char_traits@D@std@@V?$allocator@D@2@@std@@@2@@std@@AAEPAV?$basic_string@DU?$char_traits@D@std@@V?$allocator@D@2@@1@QAV21@AAV21@@Z 10055d7c     ObjectsExtender.obj
 0002:0000cda0       __unwindtable$??$_Emplace_reallocate@AAV?$basic_string@DU?$char_traits@D@std@@V?$allocator@D@2@@std@@@?$vector@V?$basic_string@DU?$char_traits@D@std@@V?$allocator@D@2@@std@@V?$allocator@V?$basic_string@DU?$char_traits@D@std@@V?$allocator@D@2@@std@@@2@@std@@AAEPAV?$basic_string@DU?$char_traits@D@std@@V?$allocator@D@2@@1@QAV21@AAV21@@Z 10055da0     ObjectsExtender.obj
 0002:0000cdb0       __tryblocktable$??$_Emplace_reallocate@AAV?$basic_string@DU?$char_traits@D@std@@V?$allocator@D@2@@std@@@?$vector@V?$basic_string@DU?$char_traits@D@std@@V?$allocator@D@2@@std@@V?$allocator@V?$basic_string@DU?$char_traits@D@std@@V?$allocator@D@2@@std@@@2@@std@@AAEPAV?$basic_string@DU?$char_traits@D@std@@V?$allocator@D@2@@1@QAV21@AAV21@@Z 10055db0     ObjectsExtender.obj
 0002:0000cdc4       __catchsym$??$_Emplace_reallocate@AAV?$basic_string@DU?$char_traits@D@std@@V?$allocator@D@2@@std@@@?$vector@V?$basic_string@DU?$char_traits@D@std@@V?$allocator@D@2@@std@@V?$allocator@V?$basic_string@DU?$char_traits@D@std@@V?$allocator@D@2@@std@@@2@@std@@AAEPAV?$basic_string@DU?$char_traits@D@std@@V?$allocator@D@2@@1@QAV21@AAV21@@Z$2 10055dc4     ObjectsExtender.obj
 0002:0000cdd4       __ehfuncinfo$??$emplace@U?$pair@V?$basic_string@DU?$char_traits@D@std@@V?$allocator@D@2@@std@@V12@@std@@@?$_Hash@V?$_Umap_traits@V?$basic_string@DU?$char_traits@D@std@@V?$allocator@D@2@@std@@V12@V?$_Uhash_compare@V?$basic_string@DU?$char_traits@D@std@@V?$allocator@D@2@@std@@U?$hash@V?$basic_string@DU?$char_traits@D@std@@V?$allocator@D@2@@std@@@2@U?$equal_to@V?$basic_string@DU?$char_traits@D@std@@V?$allocator@D@2@@std@@@2@@2@V?$allocator@U?$pair@$$CBV?$basic_string@DU?$char_traits@D@std@@V?$allocator@D@2@@std@@V12@@std@@@2@$0A@@std@@@std@@QAE?AU?$pair@V?$_List_iterator@V?$_List_val@U?$_List_simple_types@U?$pair@$$CBV?$basic_string@DU?$char_traits@D@std@@V?$allocator@D@2@@std@@V12@@std@@@std@@@std@@@std@@_N@1@$$QAU?$pair@V?$basic_string@DU?$char_traits@D@std@@V?$allocator@D@2@@std@@V12@@1@@Z 10055dd4     ObjectsExtender.obj
 0002:0000cdf8       __unwindtable$??$emplace@U?$pair@V?$basic_string@DU?$char_traits@D@std@@V?$allocator@D@2@@std@@V12@@std@@@?$_Hash@V?$_Umap_traits@V?$basic_string@DU?$char_traits@D@std@@V?$allocator@D@2@@std@@V12@V?$_Uhash_compare@V?$basic_string@DU?$char_traits@D@std@@V?$allocator@D@2@@std@@U?$hash@V?$basic_string@DU?$char_traits@D@std@@V?$allocator@D@2@@std@@@2@U?$equal_to@V?$basic_string@DU?$char_traits@D@std@@V?$allocator@D@2@@std@@@2@@2@V?$allocator@U?$pair@$$CBV?$basic_string@DU?$char_traits@D@std@@V?$allocator@D@2@@std@@V12@@std@@@2@$0A@@std@@@std@@QAE?AU?$pair@V?$_List_iterator@V?$_List_val@U?$_List_simple_types@U?$pair@$$CBV?$basic_string@DU?$char_traits@D@std@@V?$allocator@D@2@@std@@V12@@std@@@std@@@std@@@std@@_N@1@$$QAU?$pair@V?$basic_string@DU?$char_traits@D@std@@V?$allocator@D@2@@std@@V12@@1@@Z 10055df8     ObjectsExtender.obj
 0002:0000ce08       __ehfuncinfo$??$_Insert_range_unchecked@PAPBDPAPBD@?$_Hash@V?$_Uset_traits@PBDV?$_Uhash_compare@PBDU?$hash@PBD@std@@U?$equal_to@PBD@2@@std@@V?$allocator@PBD@2@$0A@@std@@@std@@IAEXPAPBDQAPBD@Z 10055e08     ObjectsExtender.obj
 0002:0000ce2c       __unwindtable$??$_Insert_range_unchecked@PAPBDPAPBD@?$_Hash@V?$_Uset_traits@PBDV?$_Uhash_compare@PBDU?$hash@PBD@std@@U?$equal_to@PBD@2@@std@@V?$allocator@PBD@2@$0A@@std@@@std@@IAEXPAPBDQAPBD@Z 10055e2c     ObjectsExtender.obj
 0002:0000ce3c       __ehfuncinfo$??1PseudoH3RmgRandomMapGenerator@editor@@QAE@XZ 10055e3c     RMGObjectsEditor.obj
 0002:0000ce60       __unwindtable$??1PseudoH3RmgRandomMapGenerator@editor@@QAE@XZ 10055e60     RMGObjectsEditor.obj
 0002:0000ce78       __ehfuncinfo$??1?$H3Vector@UH3ObjectAttributes@h3@@@h3@@QAE@XZ 10055e78     RMGObjectsEditor.obj
 0002:0000ce9c       __unwindtable$??1?$H3Vector@UH3ObjectAttributes@h3@@@h3@@QAE@XZ 10055e9c     RMGObjectsEditor.obj
 0002:0000ceac       __ehfuncinfo$?FrameRegion@H3LoadedPcx16@h3@@QAEHHHHHHHH@Z 10055eac     RMG_SettingsDlg.obj
 0002:0000ced0       __unwindtable$?FrameRegion@H3LoadedPcx16@h3@@QAEHHHHHHHH@Z 10055ed0     RMG_SettingsDlg.obj
 0002:0000cef8       __ehfuncinfo$??0H3Dlg@h3@@QAE@HHHHHHH@Z 10055ef8     RMG_SettingsDlg.obj
 0002:0000cf1c       __unwindtable$??0H3Dlg@h3@@QAE@HHHHHHH@Z 10055f1c     RMG_SettingsDlg.obj
 0002:0000cf2c       __ehfuncinfo$?AddBackground@H3Dlg@h3@@QAEHHHHHHHHH@Z 10055f2c     RMG_SettingsDlg.obj
 0002:0000cf50       __unwindtable$?AddBackground@H3Dlg@h3@@QAEHHHHHHHHH@Z 10055f50     RMG_SettingsDlg.obj
 0002:0000cf78       __ehfuncinfo$??$_Reallocate@$00@?$vector@U?$pair@UH3ObjectAttributes@h3@@PAUH3LoadedPcx16@2@@std@@V?$allocator@U?$pair@UH3ObjectAttributes@h3@@PAUH3LoadedPcx16@2@@std@@@2@@std@@AAEXAAI@Z 10055f78     RMG_SettingsDlg.obj
 0002:0000cf78       __ehfuncinfo$??$_Reallocate@$0A@@?$vector@U?$pair@UH3ObjectAttributes@h3@@PAUH3LoadedPcx16@2@@std@@V?$allocator@U?$pair@UH3ObjectAttributes@h3@@PAUH3LoadedPcx16@2@@std@@@2@@std@@AAEXAAI@Z 10055f78     RMG_SettingsDlg.obj
 0002:0000cf9c       __unwindtable$??$_Reallocate@$00@?$vector@U?$pair@UH3ObjectAttributes@h3@@PAUH3LoadedPcx16@2@@std@@V?$allocator@U?$pair@UH3ObjectAttributes@h3@@PAUH3LoadedPcx16@2@@std@@@2@@std@@AAEXAAI@Z 10055f9c     RMG_SettingsDlg.obj
 0002:0000cf9c       __unwindtable$??$_Reallocate@$0A@@?$vector@U?$pair@UH3ObjectAttributes@h3@@PAUH3LoadedPcx16@2@@std@@V?$allocator@U?$pair@UH3ObjectAttributes@h3@@PAUH3LoadedPcx16@2@@std@@@2@@std@@AAEXAAI@Z 10055f9c     RMG_SettingsDlg.obj
 0002:0000cfb4       __ehfuncinfo$??$_Assign_counted_range@PAU?$pair@UH3ObjectAttributes@h3@@PAUH3LoadedPcx16@2@@std@@@?$vector@U?$pair@UH3ObjectAttributes@h3@@PAUH3LoadedPcx16@2@@std@@V?$allocator@U?$pair@UH3ObjectAttributes@h3@@PAUH3LoadedPcx16@2@@std@@@2@@std@@AAEXPAU?$pair@UH3ObjectAttributes@h3@@PAUH3LoadedPcx16@2@@1@I@Z 10055fb4     RMG_SettingsDlg.obj
 0002:0000cfd8       __unwindtable$??$_Assign_counted_range@PAU?$pair@UH3ObjectAttributes@h3@@PAUH3LoadedPcx16@2@@std@@@?$vector@U?$pair@UH3ObjectAttributes@h3@@PAUH3LoadedPcx16@2@@std@@V?$allocator@U?$pair@UH3ObjectAttributes@h3@@PAUH3LoadedPcx16@2@@std@@@2@@std@@AAEXPAU?$pair@UH3ObjectAttributes@h3@@PAUH3LoadedPcx16@2@@1@I@Z 10055fd8     RMG_SettingsDlg.obj
 0002:0000cff8       __ehfuncinfo$??$_Emplace_reallocate@ABUH3ObjectAttributes@h3@@ABQAUH3LoadedPcx16@2@@?$vector@VRMGObject@rmgdlg@@V?$allocator@VRMGObject@rmgdlg@@@std@@@std@@AAEPAVRMGObject@rmgdlg@@QAV23@ABUH3ObjectAttributes@h3@@ABQAUH3LoadedPcx16@5@@Z 10055ff8     RMG_SettingsDlg.obj
 0002:0000d01c       __unwindtable$??$_Emplace_reallocate@ABUH3ObjectAttributes@h3@@ABQAUH3LoadedPcx16@2@@?$vector@VRMGObject@rmgdlg@@V?$allocator@VRMGObject@rmgdlg@@@std@@@std@@AAEPAVRMGObject@rmgdlg@@QAV23@ABUH3ObjectAttributes@h3@@ABQAUH3LoadedPcx16@5@@Z 1005601c     RMG_SettingsDlg.obj
 0002:0000d03c       __ehfuncinfo$??$_Emplace_reallocate@U?$pair@UH3ObjectAttributes@h3@@$$T@std@@@?$vector@U?$pair@UH3ObjectAttributes@h3@@PAUH3LoadedPcx16@2@@std@@V?$allocator@U?$pair@UH3ObjectAttributes@h3@@PAUH3LoadedPcx16@2@@std@@@2@@std@@AAEPAU?$pair@UH3ObjectAttributes@h3@@PAUH3LoadedPcx16@2@@1@QAU21@$$QAU?$pair@UH3ObjectAttributes@h3@@$$T@1@@Z 1005603c     RMG_SettingsDlg.obj
 0002:0000d060       __unwindtable$??$_Emplace_reallocate@U?$pair@UH3ObjectAttributes@h3@@$$T@std@@@?$vector@U?$pair@UH3ObjectAttributes@h3@@PAUH3LoadedPcx16@2@@std@@V?$allocator@U?$pair@UH3ObjectAttributes@h3@@PAUH3LoadedPcx16@2@@std@@@2@@std@@AAEPAU?$pair@UH3ObjectAttributes@h3@@PAUH3LoadedPcx16@2@@1@QAU21@$$QAU?$pair@UH3ObjectAttributes@h3@@$$T@1@@Z 10056060     RMG_SettingsDlg.obj
 0002:0000d088       __ehfuncinfo$??$_Emplace_reallocate@AAU?$pair@UH3ObjectAttributes@h3@@PAUH3LoadedPcx16@2@@std@@@?$vector@U?$pair@UH3ObjectAttributes@h3@@PAUH3LoadedPcx16@2@@std@@V?$allocator@U?$pair@UH3ObjectAttributes@h3@@PAUH3LoadedPcx16@2@@std@@@2@@std@@AAEPAU?$pair@UH3ObjectAttributes@h3@@PAUH3LoadedPcx16@2@@1@QAU21@AAU21@@Z 10056088     RMG_SettingsDlg.obj
 0002:0000d0ac       __unwindtable$??$_Emplace_reallocate@AAU?$pair@UH3ObjectAttributes@h3@@PAUH3LoadedPcx16@2@@std@@@?$vector@U?$pair@UH3ObjectAttributes@h3@@PAUH3LoadedPcx16@2@@std@@V?$allocator@U?$pair@UH3ObjectAttributes@h3@@PAUH3LoadedPcx16@2@@std@@@2@@std@@AAEPAU?$pair@UH3ObjectAttributes@h3@@PAUH3LoadedPcx16@2@@1@QAU21@AAU21@@Z 100560ac     RMG_SettingsDlg.obj
 0002:0000d0d4       __tryblocktable$??$_Emplace_reallocate@AAU?$pair@UH3ObjectAttributes@h3@@PAUH3LoadedPcx16@2@@std@@@?$vector@U?$pair@UH3ObjectAttributes@h3@@PAUH3LoadedPcx16@2@@std@@V?$allocator@U?$pair@UH3ObjectAttributes@h3@@PAUH3LoadedPcx16@2@@std@@@2@@std@@AAEPAU?$pair@UH3ObjectAttributes@h3@@PAUH3LoadedPcx16@2@@1@QAU21@AAU21@@Z 100560d4     RMG_SettingsDlg.obj
 0002:0000d0e8       __catchsym$??$_Emplace_reallocate@AAU?$pair@UH3ObjectAttributes@h3@@PAUH3LoadedPcx16@2@@std@@@?$vector@U?$pair@UH3ObjectAttributes@h3@@PAUH3LoadedPcx16@2@@std@@V?$allocator@U?$pair@UH3ObjectAttributes@h3@@PAUH3LoadedPcx16@2@@std@@@2@@std@@AAEPAU?$pair@UH3ObjectAttributes@h3@@PAUH3LoadedPcx16@2@@1@QAU21@AAU21@@Z$15 100560e8     RMG_SettingsDlg.obj
 0002:0000d0f8       __ehfuncinfo$??$_Insertion_sort_unchecked@PAVRMGObject@rmgdlg@@V<lambda_1>@?1??SortRmgObjects@sorting@2@YAXAAV?$vector@VRMGObject@rmgdlg@@V?$allocator@VRMGObject@rmgdlg@@@std@@@std@@W4eSorting@52@_N@Z@@std@@YAPAVRMGObject@rmgdlg@@QAV12@0V<lambda_1>@?1??SortRmgObjects@sorting@2@YAXAAV?$vector@VRMGObject@rmgdlg@@V?$allocator@VRMGObject@rmgdlg@@@std@@@0@W4eSorting@52@_N@Z@@Z 100560f8     RMG_SettingsDlg.obj
 0002:0000d120       __unwindtable$??$_Insertion_sort_unchecked@PAVRMGObject@rmgdlg@@V<lambda_1>@?1??SortRmgObjects@sorting@2@YAXAAV?$vector@VRMGObject@rmgdlg@@V?$allocator@VRMGObject@rmgdlg@@@std@@@std@@W4eSorting@52@_N@Z@@std@@YAPAVRMGObject@rmgdlg@@QAV12@0V<lambda_1>@?1??SortRmgObjects@sorting@2@YAXAAV?$vector@VRMGObject@rmgdlg@@V?$allocator@VRMGObject@rmgdlg@@@std@@@0@W4eSorting@52@_N@Z@@Z 10056120     RMG_SettingsDlg.obj
 0002:0000d280       __ehfuncinfo$??$_Make_heap_unchecked@PAVRMGObject@rmgdlg@@V<lambda_1>@?1??SortRmgObjects@sorting@2@YAXAAV?$vector@VRMGObject@rmgdlg@@V?$allocator@VRMGObject@rmgdlg@@@std@@@std@@W4eSorting@52@_N@Z@@std@@YAXPAVRMGObject@rmgdlg@@0V<lambda_1>@?1??SortRmgObjects@sorting@2@YAXAAV?$vector@VRMGObject@rmgdlg@@V?$allocator@VRMGObject@rmgdlg@@@std@@@0@W4eSorting@52@_N@Z@@Z 10056280     RMG_SettingsDlg.obj
 0002:0000d2a8       __unwindtable$??$_Make_heap_unchecked@PAVRMGObject@rmgdlg@@V<lambda_1>@?1??SortRmgObjects@sorting@2@YAXAAV?$vector@VRMGObject@rmgdlg@@V?$allocator@VRMGObject@rmgdlg@@@std@@@std@@W4eSorting@52@_N@Z@@std@@YAXPAVRMGObject@rmgdlg@@0V<lambda_1>@?1??SortRmgObjects@sorting@2@YAXAAV?$vector@VRMGObject@rmgdlg@@V?$allocator@VRMGObject@rmgdlg@@@std@@@0@W4eSorting@52@_N@Z@@Z 100562a8     RMG_SettingsDlg.obj
 0002:0000d358       __ehfuncinfo$??$_Partition_by_median_guess_unchecked@PAVRMGObject@rmgdlg@@V<lambda_1>@?1??SortRmgObjects@sorting@2@YAXAAV?$vector@VRMGObject@rmgdlg@@V?$allocator@VRMGObject@rmgdlg@@@std@@@std@@W4eSorting@52@_N@Z@@std@@YA?AU?$pair@PAVRMGObject@rmgdlg@@PAV12@@0@PAVRMGObject@rmgdlg@@0V<lambda_1>@?1??SortRmgObjects@sorting@3@YAXAAV?$vector@VRMGObject@rmgdlg@@V?$allocator@VRMGObject@rmgdlg@@@std@@@0@W4eSorting@63@_N@Z@@Z 10056358     RMG_SettingsDlg.obj
 0002:0000d380       __unwindtable$??$_Partition_by_median_guess_unchecked@PAVRMGObject@rmgdlg@@V<lambda_1>@?1??SortRmgObjects@sorting@2@YAXAAV?$vector@VRMGObject@rmgdlg@@V?$allocator@VRMGObject@rmgdlg@@@std@@@std@@W4eSorting@52@_N@Z@@std@@YA?AU?$pair@PAVRMGObject@rmgdlg@@PAV12@@0@PAVRMGObject@rmgdlg@@0V<lambda_1>@?1??SortRmgObjects@sorting@3@YAXAAV?$vector@VRMGObject@rmgdlg@@V?$allocator@VRMGObject@rmgdlg@@@std@@@0@W4eSorting@63@_N@Z@@Z 10056380     RMG_SettingsDlg.obj
 0002:0000d900       __ehfuncinfo$??$_Pop_heap_hole_by_index@PAVRMGObject@rmgdlg@@V12@V<lambda_1>@?1??SortRmgObjects@sorting@2@YAXAAV?$vector@VRMGObject@rmgdlg@@V?$allocator@VRMGObject@rmgdlg@@@std@@@std@@W4eSorting@52@_N@Z@@std@@YAXPAVRMGObject@rmgdlg@@HH$$QAV12@V<lambda_1>@?1??SortRmgObjects@sorting@2@YAXAAV?$vector@VRMGObject@rmgdlg@@V?$allocator@VRMGObject@rmgdlg@@@std@@@0@W4eSorting@52@_N@Z@@Z 10056900     RMG_SettingsDlg.obj
 0002:0000d928       __unwindtable$??$_Pop_heap_hole_by_index@PAVRMGObject@rmgdlg@@V12@V<lambda_1>@?1??SortRmgObjects@sorting@2@YAXAAV?$vector@VRMGObject@rmgdlg@@V?$allocator@VRMGObject@rmgdlg@@@std@@@std@@W4eSorting@52@_N@Z@@std@@YAXPAVRMGObject@rmgdlg@@HH$$QAV12@V<lambda_1>@?1??SortRmgObjects@sorting@2@YAXAAV?$vector@VRMGObject@rmgdlg@@V?$allocator@VRMGObject@rmgdlg@@@std@@@0@W4eSorting@52@_N@Z@@Z 10056928     RMG_SettingsDlg.obj
 0002:0000d9d8       __ehfuncinfo$??$_Push_heap_by_index@PAVRMGObject@rmgdlg@@V12@V<lambda_1>@?1??SortRmgObjects@sorting@2@YAXAAV?$vector@VRMGObject@rmgdlg@@V?$allocator@VRMGObject@rmgdlg@@@std@@@std@@W4eSorting@52@_N@Z@@std@@YAXPAVRMGObject@rmgdlg@@HH$$QAV12@V<lambda_1>@?1??SortRmgObjects@sorting@2@YAXAAV?$vector@VRMGObject@rmgdlg@@V?$allocator@VRMGObject@rmgdlg@@@std@@@0@W4eSorting@52@_N@Z@@Z 100569d8     RMG_SettingsDlg.obj
 0002:0000da00       __unwindtable$??$_Push_heap_by_index@PAVRMGObject@rmgdlg@@V12@V<lambda_1>@?1??SortRmgObjects@sorting@2@YAXAAV?$vector@VRMGObject@rmgdlg@@V?$allocator@VRMGObject@rmgdlg@@@std@@@std@@W4eSorting@52@_N@Z@@std@@YAXPAVRMGObject@rmgdlg@@HH$$QAV12@V<lambda_1>@?1??SortRmgObjects@sorting@2@YAXAAV?$vector@VRMGObject@rmgdlg@@V?$allocator@VRMGObject@rmgdlg@@@std@@@0@W4eSorting@52@_N@Z@@Z 10056a00     RMG_SettingsDlg.obj
 0002:0000dab0       __ehfuncinfo$??__E?soundManager@SoundManager@sound@@2U12@A@@YAXXZ 10056ab0     SoundManager.obj
 0002:0000dad4       __unwindtable$??__E?soundManager@SoundManager@sound@@2U12@A@@YAXXZ 10056ad4     SoundManager.obj
 0002:0000dafc       __ehfuncinfo$??$emplace@U?$pair@V?$basic_string@DU?$char_traits@D@std@@V?$allocator@D@2@@std@@I@std@@@?$_Hash@V?$_Umap_traits@V?$basic_string@DU?$char_traits@D@std@@V?$allocator@D@2@@std@@IV?$_Uhash_compare@V?$basic_string@DU?$char_traits@D@std@@V?$allocator@D@2@@std@@U?$hash@V?$basic_string@DU?$char_traits@D@std@@V?$allocator@D@2@@std@@@2@U?$equal_to@V?$basic_string@DU?$char_traits@D@std@@V?$allocator@D@2@@std@@@2@@2@V?$allocator@U?$pair@$$CBV?$basic_string@DU?$char_traits@D@std@@V?$allocator@D@2@@std@@I@std@@@2@$0A@@std@@@std@@QAE?AU?$pair@V?$_List_iterator@V?$_List_val@U?$_List_simple_types@U?$pair@$$CBV?$basic_string@DU?$char_traits@D@std@@V?$allocator@D@2@@std@@I@std@@@std@@@std@@@std@@_N@1@$$QAU?$pair@V?$basic_string@DU?$char_traits@D@std@@V?$allocator@D@2@@std@@I@1@@Z 10056afc     SoundManager.obj
 0002:0000db20       __unwindtable$??$emplace@U?$pair@V?$basic_string@DU?$char_traits@D@std@@V?$allocator@D@2@@std@@I@std@@@?$_Hash@V?$_Umap_traits@V?$basic_string@DU?$char_traits@D@std@@V?$allocator@D@2@@std@@IV?$_Uhash_compare@V?$basic_string@DU?$char_traits@D@std@@V?$allocator@D@2@@std@@U?$hash@V?$basic_string@DU?$char_traits@D@std@@V?$allocator@D@2@@std@@@2@U?$equal_to@V?$basic_string@DU?$char_traits@D@std@@V?$allocator@D@2@@std@@@2@@2@V?$allocator@U?$pair@$$CBV?$basic_string@DU?$char_traits@D@std@@V?$allocator@D@2@@std@@I@std@@@2@$0A@@std@@@std@@QAE?AU?$pair@V?$_List_iterator@V?$_List_val@U?$_List_simple_types@U?$pair@$$CBV?$basic_string@DU?$char_traits@D@std@@V?$allocator@D@2@@std@@I@std@@@std@@@std@@@std@@_N@1@$$QAU?$pair@V?$basic_string@DU?$char_traits@D@std@@V?$allocator@D@2@@std@@I@1@@Z 10056b20     SoundManager.obj
 0002:0000db30       __ehfuncinfo$??$emplace@U?$pair@PBDI@std@@@?$_Hash@V?$_Umap_traits@V?$basic_string@DU?$char_traits@D@std@@V?$allocator@D@2@@std@@IV?$_Uhash_compare@V?$basic_string@DU?$char_traits@D@std@@V?$allocator@D@2@@std@@U?$hash@V?$basic_string@DU?$char_traits@D@std@@V?$allocator@D@2@@std@@@2@U?$equal_to@V?$basic_string@DU?$char_traits@D@std@@V?$allocator@D@2@@std@@@2@@2@V?$allocator@U?$pair@$$CBV?$basic_string@DU?$char_traits@D@std@@V?$allocator@D@2@@std@@I@std@@@2@$0A@@std@@@std@@QAE?AU?$pair@V?$_List_iterator@V?$_List_val@U?$_List_simple_types@U?$pair@$$CBV?$basic_string@DU?$char_traits@D@std@@V?$allocator@D@2@@std@@I@std@@@std@@@std@@@std@@_N@1@$$QAU?$pair@PBDI@1@@Z 10056b30     SoundManager.obj
 0002:0000db54       __unwindtable$??$emplace@U?$pair@PBDI@std@@@?$_Hash@V?$_Umap_traits@V?$basic_string@DU?$char_traits@D@std@@V?$allocator@D@2@@std@@IV?$_Uhash_compare@V?$basic_string@DU?$char_traits@D@std@@V?$allocator@D@2@@std@@U?$hash@V?$basic_string@DU?$char_traits@D@std@@V?$allocator@D@2@@std@@@2@U?$equal_to@V?$basic_string@DU?$char_traits@D@std@@V?$allocator@D@2@@std@@@2@@2@V?$allocator@U?$pair@$$CBV?$basic_string@DU?$char_traits@D@std@@V?$allocator@D@2@@std@@I@std@@@2@$0A@@std@@@std@@QAE?AU?$pair@V?$_List_iterator@V?$_List_val@U?$_List_simple_types@U?$pair@$$CBV?$basic_string@DU?$char_traits@D@std@@V?$allocator@D@2@@std@@I@std@@@std@@@std@@@std@@_N@1@$$QAU?$pair@PBDI@1@@Z 10056b54     SoundManager.obj
 0002:0000dc30       __unwindtable$??0system_error@std@@QAE@HABVerror_category@1@PBD@Z 10056c30     libcpmt:thread0.obj
 0002:0000dc38       __ehfuncinfo$??0system_error@std@@QAE@HABVerror_category@1@PBD@Z 10056c38     libcpmt:thread0.obj
 0002:0000dc80       __unwindtable$?_Init@locale@std@@CAPAV_Locimp@12@_N@Z 10056c80     libcpmt:locale0.obj
 0002:0000dc88       __ehfuncinfo$?_Init@locale@std@@CAPAV_Locimp@12@_N@Z 10056c88     libcpmt:locale0.obj
 0002:0000dcb0       __sehtable$___scrt_is_nonwritable_in_current_image 10056cb0     LIBCMT:utility.obj
 0002:0000dcd0       __sehtable$??_M@YGXPAXIIP6EX0@Z@Z 10056cd0     LIBCMT:ehvecdtr.obj
 0002:0000dcf0       __sehtable$?__ArrayUnwind@@YGXPAXIIP6EX0@Z@Z 10056cf0     LIBCMT:ehvecdtr.obj
 0002:0000dd10       __sehtable$??_L@YGXPAXIIP6EX0@Z1@Z 10056d10     LIBCMT:ehvecctr.obj
 0002:0000dd30       __sehtable$?dllmain_crt_process_attach@@YAHQAUHINSTANCE__@@QAX@Z 10056d30     LIBCMT:dll_dllmain.obj
 0002:0000dd50       __sehtable$?dllmain_crt_process_detach@@YAH_N@Z 10056d50     LIBCMT:dll_dllmain.obj
 0002:0000dd78       __sehtable$?dllmain_dispatch@@YAHQAUHINSTANCE__@@KQAX@Z 10056d78     LIBCMT:dll_dllmain.obj
 0002:0000dd98       __sehtable$___DestructExceptionObject 10056d98     libvcruntime:ehhelpers.obj
 0002:0000ddb8       __sehtable$?FrameUnwindToState@__FrameHandler3@@SAXPAUEHRegistrationNode@@PAXPBU_s_FuncInfo@@H@Z 10056db8     libvcruntime:frame.obj
 0002:0000dde0       __sehtable$?CallCatchBlock@@YAPAXPAUEHExceptionRecord@@PAUEHRegistrationNode@@PAU_CONTEXT@@PBU_s_FuncInfo@@PAXHK@Z 10056de0     libvcruntime:frame.obj
 0002:0000de08       __catchsym$?CallUnexpected@@YAXPBU_s_ESTypeList@@@Z$2 10056e08     libvcruntime:frame.obj
 0002:0000de18       __unwindtable$?CallUnexpected@@YAXPBU_s_ESTypeList@@@Z 10056e18     libvcruntime:frame.obj
 0002:0000de28       __tryblocktable$?CallUnexpected@@YAXPBU_s_ESTypeList@@@Z 10056e28     libvcruntime:frame.obj
 0002:0000de3c       __ehfuncinfo$?CallUnexpected@@YAXPBU_s_ESTypeList@@@Z 10056e3c     libvcruntime:frame.obj
 0002:0000de60       __sehtable$??$BuildCatchObjectHelperInternal@V__FrameHandler3@@@@YAHPAUEHExceptionRecord@@PAXPBU_s_HandlerType@@PBU_s_CatchableType@@@Z 10056e60     libvcruntime:frame.obj
 0002:0000de80       __sehtable$??$BuildCatchObjectInternal@V__FrameHandler3@@@@YAXPAUEHExceptionRecord@@PAXPBU_s_HandlerType@@PBU_s_CatchableType@@@Z 10056e80     libvcruntime:frame.obj
 0002:0000ded8       __sehtable$??$thread_start@P6GIPAX@Z$00@@YGKQAX@Z 10056ed8     libucrt:thread.obj
 0002:0000def8       __sehtable$_terminate      10056ef8     libucrt:terminate.obj
 0002:0000df18       __sehtable$??$?RV<lambda_f5952838e36297a1e2e9d6c748429792>@@AAV<lambda_2116bde18c9e5f34230805ea4a4660ed>@@V<lambda_3c7107de1cc98bf330a3031f42c322a3>@@@?$__crt_seh_guarded_call@PAD@@QAEPAD$$QAV<lambda_f5952838e36297a1e2e9d6c748429792>@@AAV<lambda_2116bde18c9e5f34230805ea4a4660ed>@@$$QAV<lambda_3c7107de1cc98bf330a3031f42c322a3>@@@Z 10056f18     libucrt:setlocale.obj
 0002:0000df38       __sehtable$??R<lambda_6e4b09c48022b2350581041d5f6b0c4c>@@QBE@XZ 10056f38     libucrt:exit.obj
 0002:0000df58       __sehtable$??$?RV<lambda_03b1d95aef87969028cfba75ccab2455>@@AAV<lambda_6e4b09c48022b2350581041d5f6b0c4c>@@V<lambda_22bdf7517842c4b3e53723af5aa32b9e>@@@?$__crt_seh_guarded_call@X@@QAEX$$QAV<lambda_03b1d95aef87969028cfba75ccab2455>@@AAV<lambda_6e4b09c48022b2350581041d5f6b0c4c>@@$$QAV<lambda_22bdf7517842c4b3e53723af5aa32b9e>@@@Z 10056f58     libucrt:exit.obj
 0002:0000df78       __sehtable$??$?RV<lambda_8e746cf0007f6ed984d6f78af1fec997>@@AAV<lambda_22ebabd17bc4fa466a2aca6d8deb888d>@@V<lambda_18ed0c0b38a6dc0daf1e7ac6d6adf05e>@@@?$__crt_seh_guarded_call@H@@QAEH$$QAV<lambda_8e746cf0007f6ed984d6f78af1fec997>@@AAV<lambda_22ebabd17bc4fa466a2aca6d8deb888d>@@$$QAV<lambda_18ed0c0b38a6dc0daf1e7ac6d6adf05e>@@@Z 10056f78     libucrt:onexit.obj
 0002:0000df98       __sehtable$??$?RV<lambda_69a2805e680e0e292e8ba93315fe43a8>@@AAV<lambda_f03950bc5685219e0bcd2087efbe011e>@@V<lambda_03fcd07e894ec930e3f35da366ca99d6>@@@?$__crt_seh_guarded_call@H@@QAEH$$QAV<lambda_69a2805e680e0e292e8ba93315fe43a8>@@AAV<lambda_f03950bc5685219e0bcd2087efbe011e>@@$$QAV<lambda_03fcd07e894ec930e3f35da366ca99d6>@@@Z 10056f98     libucrt:onexit.obj
 0002:0000dfb8       __sehtable$??$?RV<lambda_15ade71b0218206bbe3333a0c9b79046>@@AAV<lambda_da44e0f8b0f19ba52fefafb335991732>@@V<lambda_207f2d024fc103971653565357d6cd41>@@@?$__crt_seh_guarded_call@X@@QAEX$$QAV<lambda_15ade71b0218206bbe3333a0c9b79046>@@AAV<lambda_da44e0f8b0f19ba52fefafb335991732>@@$$QAV<lambda_207f2d024fc103971653565357d6cd41>@@@Z 10056fb8     libucrt:per_thread_data.obj
 0002:0000dfd8       __sehtable$??$?RV<lambda_a7e850c220f1c8d1e6efeecdedd162c6>@@AAV<lambda_46720907175c18b6c9d2717bc0d2d362>@@V<lambda_9048902d66e8d99359bc9897bbb930a8>@@@?$__crt_seh_guarded_call@X@@QAEX$$QAV<lambda_a7e850c220f1c8d1e6efeecdedd162c6>@@AAV<lambda_46720907175c18b6c9d2717bc0d2d362>@@$$QAV<lambda_9048902d66e8d99359bc9897bbb930a8>@@@Z 10056fd8     libucrt:per_thread_data.obj
 0002:0000dff8       __sehtable$??$?RV<lambda_38edbb1296d33220d7e4dd0ed76b244a>@@AAV<lambda_5ce1d447e08cb34b2473517608e21441>@@V<lambda_fb385d3da700c9147fc39e65dd577a8c>@@@?$__crt_seh_guarded_call@X@@QAEX$$QAV<lambda_38edbb1296d33220d7e4dd0ed76b244a>@@AAV<lambda_5ce1d447e08cb34b2473517608e21441>@@$$QAV<lambda_fb385d3da700c9147fc39e65dd577a8c>@@@Z 10056ff8     libucrt:per_thread_data.obj
 0002:0000e018       __sehtable$??$?RV<lambda_6affb1475c98b40b75cdec977db92e3c>@@AAV<lambda_b8d4b9c228a6ecc3f80208dbb4b4a104>@@V<lambda_608742c3c92a14382c1684fc64f96c88>@@@?$__crt_seh_guarded_call@X@@QAEX$$QAV<lambda_6affb1475c98b40b75cdec977db92e3c>@@AAV<lambda_b8d4b9c228a6ecc3f80208dbb4b4a104>@@$$QAV<lambda_608742c3c92a14382c1684fc64f96c88>@@@Z 10057018     libucrt:per_thread_data.obj
 0002:0000e038       __sehtable$??$?RV<lambda_e5124f882df8998aaf41531e079ba474>@@AAV<lambda_3e16ef9562a7dcce91392c22ab16ea36>@@V<lambda_e25ca0880e6ef98be67edffd8c599615>@@@?$__crt_seh_guarded_call@X@@QAEX$$QAV<lambda_e5124f882df8998aaf41531e079ba474>@@AAV<lambda_3e16ef9562a7dcce91392c22ab16ea36>@@$$QAV<lambda_e25ca0880e6ef98be67edffd8c599615>@@@Z 10057038     libucrt:wsetlocale.obj
 0002:0000e058       __sehtable$??$?RV<lambda_4fdada1b837b2abbf20876fac97688ad>@@AAV<lambda_b57350f2640456a0859d250846f69caf>@@V<lambda_eed5e4f92b5b7d55fa22c48c484aaa54>@@@?$__crt_seh_guarded_call@X@@QAEX$$QAV<lambda_4fdada1b837b2abbf20876fac97688ad>@@AAV<lambda_b57350f2640456a0859d250846f69caf>@@$$QAV<lambda_eed5e4f92b5b7d55fa22c48c484aaa54>@@@Z 10057058     libucrt:wsetlocale.obj
 0002:0000e078       __sehtable$??$?RV<lambda_ac03c5d59bd18b09cb88b28331f6bfed>@@AAV<lambda_2a444430fde8c29194d880d93eed5e8f>@@AAV<lambda_02db5278e8aef8b5e4976579d73f5304>@@@?$__crt_seh_guarded_call@X@@QAEX$$QAV<lambda_ac03c5d59bd18b09cb88b28331f6bfed>@@AAV<lambda_2a444430fde8c29194d880d93eed5e8f>@@AAV<lambda_02db5278e8aef8b5e4976579d73f5304>@@@Z 10057078     libucrt:wsetlocale.obj
 0002:0000e098       __sehtable$___acrt_initialize_lowio 10057098     libucrt:ioinit.obj
 0002:0000e0b8       __sehtable$??$?RV<lambda_6b4b7855443974f2b4b77000ea21c99c>@@AAV<lambda_8f7d3b162ab39427f4fa9995c67a7986>@@V<lambda_cc9a5ba8a5d8428b9634eab82665e5dc>@@@?$__crt_seh_guarded_call@H@@QAEH$$QAV<lambda_6b4b7855443974f2b4b77000ea21c99c>@@AAV<lambda_8f7d3b162ab39427f4fa9995c67a7986>@@$$QAV<lambda_cc9a5ba8a5d8428b9634eab82665e5dc>@@@Z 100570b8     libucrt:winapi_thunks.obj
 0002:0000e0d8       __sehtable$_raise          100570d8     libucrt:signal.obj
 0002:0000e0f8       __sehtable$??$?RV<lambda_cbab9ec6f41b0180b23cc171c22676b0>@@AAV<lambda_44731a7d0e6d81c3e6aa82d741081786>@@V<lambda_4b292cb8dd18144e164572427af410ab>@@@?$__crt_seh_guarded_call@P6AXH@Z@@QAEP6AXH@Z$$QAV<lambda_cbab9ec6f41b0180b23cc171c22676b0>@@AAV<lambda_44731a7d0e6d81c3e6aa82d741081786>@@$$QAV<lambda_4b292cb8dd18144e164572427af410ab>@@@Z 100570f8     libucrt:signal.obj
 0002:0000e114       __unwindtable$?_wcstombs_l_helper@@YAIPADPB_WIPAU__crt_locale_pointers@@@Z 10057114     libucrt:wcstombs.obj
 0002:0000e11c       __ehfuncinfo$?_wcstombs_l_helper@@YAIPADPB_WIPAU__crt_locale_pointers@@@Z 1005711c     libucrt:wcstombs.obj
 0002:0000e140       __sehtable$___set_fpsr_sse2 10057140     libucrt:fpctrl.obj
 0002:0000e160       __sehtable$__fcloseall     10057160     libucrt:closeall.obj
 0002:0000e180       __sehtable$??$?RV<lambda_2866be3712abc81a800a822484c830d8>@@AAV<lambda_39ca0ed439415581b5b15c265174cece>@@V<lambda_2b24c74d71094a6cd0cb82e44167d71b>@@@?$__crt_seh_guarded_call@X@@QAEX$$QAV<lambda_2866be3712abc81a800a822484c830d8>@@AAV<lambda_39ca0ed439415581b5b15c265174cece>@@$$QAV<lambda_2b24c74d71094a6cd0cb82e44167d71b>@@@Z 10057180     libucrt:fflush.obj
 0002:0000e1a0       __sehtable$??$?RV<lambda_2cc53f568c5a2bb6f192f930a45d44ea>@@AAV<lambda_ab61a845afdef5b7c387490eaf3616ee>@@V<lambda_c2ffc0b7726aa6be21d5f0026187e748>@@@?$__crt_seh_guarded_call@X@@QAEX$$QAV<lambda_2cc53f568c5a2bb6f192f930a45d44ea>@@AAV<lambda_ab61a845afdef5b7c387490eaf3616ee>@@$$QAV<lambda_c2ffc0b7726aa6be21d5f0026187e748>@@@Z 100571a0     libucrt:fflush.obj
 0002:0000e1c0       __sehtable$?update_thread_multibyte_data_internal@@YAPAU__crt_multibyte_data@@QAU__acrt_ptd@@QAPAU1@@Z 100571c0     libucrt:mbctype.obj
 0002:0000e1e0       __sehtable$??$?RV<lambda_ceb1ee4838e85a9d631eb091e2fbe199>@@AAV<lambda_ae742caa10f662c28703da3d2ea5e57e>@@V<lambda_cd08b5d6af4937fe54fc07d0c9bf6b37>@@@?$__crt_seh_guarded_call@X@@QAEX$$QAV<lambda_ceb1ee4838e85a9d631eb091e2fbe199>@@AAV<lambda_ae742caa10f662c28703da3d2ea5e57e>@@$$QAV<lambda_cd08b5d6af4937fe54fc07d0c9bf6b37>@@@Z 100571e0     libucrt:mbctype.obj
 0002:0000e200       __sehtable$__query_new_handler 10057200     libucrt:new_handler.obj
 0002:0000e220       __sehtable$___acrt_update_thread_locale_data 10057220     libucrt:locale_refcounting.obj
 0002:0000e240       __sehtable$___acrt_lowio_ensure_fh_exists 10057240     libucrt:osfinfo.obj
 0002:0000e260       __sehtable$_fclose         10057260     libucrt:fclose.obj
 0002:0000e280       __sehtable$??$?RV<lambda_9e9de3de5fa147e2223d7db92bc10aa6>@@AAV<lambda_38ce7e780aa69e748d6df282ebc68efe>@@V<lambda_8ca6da459f0f6780f1cff60fdc3d00e5>@@@?$__crt_seh_guarded_call@H@@QAEH$$QAV<lambda_9e9de3de5fa147e2223d7db92bc10aa6>@@AAV<lambda_38ce7e780aa69e748d6df282ebc68efe>@@$$QAV<lambda_8ca6da459f0f6780f1cff60fdc3d00e5>@@@Z 10057280     libucrt:commit.obj
 0002:0000e2a0       __sehtable$__write         100572a0     libucrt:write.obj
 0002:0000e2c0       __sehtable$??$?RV<lambda_218ce3db14220d0be481dae8ef3383b6>@@AAV<lambda_628dfdc04ba53c8bfc02c9951375f3f5>@@V<lambda_57dc472bd5c9d5f3b2cbca59b8a843ae>@@@?$__crt_seh_guarded_call@H@@QAEH$$QAV<lambda_218ce3db14220d0be481dae8ef3383b6>@@AAV<lambda_628dfdc04ba53c8bfc02c9951375f3f5>@@$$QAV<lambda_57dc472bd5c9d5f3b2cbca59b8a843ae>@@@Z 100572c0     libucrt:close.obj
 0002:0000e2e0       __sehtable$__IsNonwritableInCurrentImage 100572e0     LIBCMT:pesect.obj
 0002:0000e440       __ehfuncinfo$??_V@YAXPAX@Z 10057440     era.obj
 0002:0000e464       __ehfuncinfo$??3@YAXPAX@Z  10057464     era.obj
 0002:0000e488       __ehfuncinfo$?ConnectEra@Era@@YAXPAUHINSTANCE__@@PBD@Z 10057488     era.obj
 0002:0000e4ac       __unwindtable$?ConnectEra@Era@@YAXPAUHINSTANCE__@@PBD@Z 100574ac     era.obj
 0002:0000e4cc       __ehfuncinfo$?CrBanksTxt_AfterLoad@@YGHPAVLoHook@@PAUHookContext@@@Z 100574cc     dllmain.obj
 0002:0000e4f0       __unwindtable$?CrBanksTxt_AfterLoad@@YGHPAVLoHook@@PAUHookContext@@@Z 100574f0     dllmain.obj
 0002:0000e5e0       __ehfuncinfo$?OnReportVersion@@YGXPAUTEvent@Era@@@Z 100575e0     dllmain.obj
 0002:0000e604       __unwindtable$?OnReportVersion@@YGXPAUTEvent@Era@@@Z 10057604     dllmain.obj
 0002:0000e60c       __ehfuncinfo$?CreateRMGObjectGen@AncientLampExtender@ancientLamp@@EBEPAUH3RmgObjectGenerator@h3@@ABURMGObjectInfo@@@Z 1005760c     AncientLampExtender.obj
 0002:0000e630       __unwindtable$?CreateRMGObjectGen@AncientLampExtender@ancientLamp@@EBEPAUH3RmgObjectGenerator@h3@@ABURMGObjectInfo@@@Z 10057630     AncientLampExtender.obj
 0002:0000e640       __ehfuncinfo$?SetHintInH3TextBuffer@AncientLampExtender@ancientLamp@@EBEHPAUH3MapItem@h3@@PBUH3Hero@4@PBUH3Player@4@H@Z 10057640     AncientLampExtender.obj
 0002:0000e664       __unwindtable$?SetHintInH3TextBuffer@AncientLampExtender@ancientLamp@@EBEHPAUH3MapItem@h3@@PBUH3Hero@4@PBUH3Player@4@H@Z 10057664     AncientLampExtender.obj
 0002:0000e68c       __ehfuncinfo$?VisitMapItem@AncientLampExtender@ancientLamp@@EBEHPAUH3Hero@h3@@PAUH3MapItem@4@UH3Position@4@H@Z 1005768c     AncientLampExtender.obj
 0002:0000e6b0       __ehfuncinfo$?AskQuestion@ancientLamp@@YAHPBUH3MapItem@h3@@@Z 100576b0     AncientLampExtender.obj
 0002:0000e6d4       __unwindtable$?AskQuestion@ancientLamp@@YAHPBUH3MapItem@h3@@@Z 100576d4     AncientLampExtender.obj
 0002:0000e6fc       __ehfuncinfo$?SetAiMapItemWeight@AncientLampExtender@ancientLamp@@EBEHPAUH3MapItem@h3@@PAUH3Hero@4@PBUH3Player@4@AAHPAHUH3Position@4@@Z 100576fc     AncientLampExtender.obj
 0002:0000e720       __ehfuncinfo$?Get@AncientLampExtender@ancientLamp@@SAAAV12@XZ 10057720     AncientLampExtender.obj
 0002:0000e744       __unwindtable$?Get@AncientLampExtender@ancientLamp@@SAAAV12@XZ 10057744     AncientLampExtender.obj
 0002:0000e74c       __ehfuncinfo$?CreateRMGObjectGen@ColosseumOfTheMagiExtender@colosseumOfTheMagi@@EBEPAUH3RmgObjectGenerator@h3@@ABURMGObjectInfo@@@Z 1005774c     ColosseumOfTheMagiExtender.obj
 0002:0000e770       __unwindtable$?CreateRMGObjectGen@ColosseumOfTheMagiExtender@colosseumOfTheMagi@@EBEPAUH3RmgObjectGenerator@h3@@ABURMGObjectInfo@@@Z 10057770     ColosseumOfTheMagiExtender.obj
 0002:0000e780       __ehfuncinfo$?SetHintInH3TextBuffer@ColosseumOfTheMagiExtender@colosseumOfTheMagi@@EBEHPAUH3MapItem@h3@@PBUH3Hero@4@PBUH3Player@4@H@Z 10057780     ColosseumOfTheMagiExtender.obj
 0002:0000e7a4       __unwindtable$?SetHintInH3TextBuffer@ColosseumOfTheMagiExtender@colosseumOfTheMagi@@EBEHPAUH3MapItem@h3@@PBUH3Hero@4@PBUH3Player@4@H@Z 100577a4     ColosseumOfTheMagiExtender.obj
 0002:0000e7b4       __ehfuncinfo$?VisitMapItem@ColosseumOfTheMagiExtender@colosseumOfTheMagi@@EBEHPAUH3Hero@h3@@PAUH3MapItem@4@UH3Position@4@H@Z 100577b4     ColosseumOfTheMagiExtender.obj
 0002:0000e7d8       __unwindtable$?VisitMapItem@ColosseumOfTheMagiExtender@colosseumOfTheMagi@@EBEHPAUH3Hero@h3@@PAUH3MapItem@4@UH3Position@4@H@Z 100577d8     ColosseumOfTheMagiExtender.obj
 0002:0000e7f8       __ehfuncinfo$?AskQuestionWithTwoOptions@colosseumOfTheMagi@@YA?AW4ePick@H3Messagebox@h3@@PBUH3MapItem@4@@Z 100577f8     ColosseumOfTheMagiExtender.obj
 0002:0000e81c       __unwindtable$?AskQuestionWithTwoOptions@colosseumOfTheMagi@@YA?AW4ePick@H3Messagebox@h3@@PBUH3MapItem@4@@Z 1005781c     ColosseumOfTheMagiExtender.obj
 0002:0000e844       __ehfuncinfo$?ShowMessage@colosseumOfTheMagi@@YAXPBUH3MapItem@h3@@@Z 10057844     ColosseumOfTheMagiExtender.obj
 0002:0000e868       __unwindtable$?ShowMessage@colosseumOfTheMagi@@YAXPBUH3MapItem@h3@@@Z 10057868     ColosseumOfTheMagiExtender.obj
 0002:0000e890       __ehfuncinfo$?SetAiMapItemWeight@ColosseumOfTheMagiExtender@colosseumOfTheMagi@@EBEHPAUH3MapItem@h3@@PAUH3Hero@4@PBUH3Player@4@AAHPAHUH3Position@4@@Z 10057890     ColosseumOfTheMagiExtender.obj
 0002:0000e8b4       __unwindtable$?SetAiMapItemWeight@ColosseumOfTheMagiExtender@colosseumOfTheMagi@@EBEHPAUH3MapItem@h3@@PAUH3Hero@4@PBUH3Player@4@AAHPAHUH3Position@4@@Z 100578b4     ColosseumOfTheMagiExtender.obj
 0002:0000e8bc       __ehfuncinfo$??0ColosseumOfTheMagiExtender@colosseumOfTheMagi@@AAE@XZ 100578bc     ColosseumOfTheMagiExtender.obj
 0002:0000e8e0       __unwindtable$??0ColosseumOfTheMagiExtender@colosseumOfTheMagi@@AAE@XZ 100578e0     ColosseumOfTheMagiExtender.obj
 0002:0000e8e8       __ehfuncinfo$?Get@ColosseumOfTheMagiExtender@colosseumOfTheMagi@@SAAAV12@XZ 100578e8     ColosseumOfTheMagiExtender.obj
 0002:0000e90c       __unwindtable$?Get@ColosseumOfTheMagiExtender@colosseumOfTheMagi@@SAAAV12@XZ 1005790c     ColosseumOfTheMagiExtender.obj
 0002:0000e91c       __ehfuncinfo$?OnBeforeSaveGame@CreatureBanksExtender@cbanks@@CGXPAUTEvent@Era@@@Z 1005791c     CreatureBanksExtender.obj
 0002:0000e940       __unwindtable$?OnBeforeSaveGame@CreatureBanksExtender@cbanks@@CGXPAUTEvent@Era@@@Z 10057940     CreatureBanksExtender.obj
 0002:0000e948       __ehfuncinfo$?WriteSaveData@CustomCreatureBank@CreatureBanksExtender@cbanks@@QBEXXZ 10057948     CreatureBanksExtender.obj
 0002:0000e96c       __ehfuncinfo$?GenerateSpells@CustomCreatureBank@CreatureBanksExtender@cbanks@@AAEXABUCustomRewardSetupState@23@@Z 1005796c     CreatureBanksExtender.obj
 0002:0000e990       __unwindtable$?GenerateSpells@CustomCreatureBank@CreatureBanksExtender@cbanks@@AAEXABUCustomRewardSetupState@23@@Z 10057990     CreatureBanksExtender.obj
 0002:0000e9b0       __ehfuncinfo$?ShrinkToFit@CreatureBankManager@CreatureBanksExtender@cbanks@@AAEXXZ 100579b0     CreatureBanksExtender.obj
 0002:0000e9d4       __ehfuncinfo$?Reserve@CreatureBankManager@CreatureBanksExtender@cbanks@@AAEXI@Z 100579d4     CreatureBanksExtender.obj
 0002:0000e9f8       __ehfuncinfo$?Resize@CreatureBankManager@CreatureBanksExtender@cbanks@@AAEXI@Z 100579f8     CreatureBanksExtender.obj
 0002:0000ea1c       __ehfuncinfo$?LoadCreatureBanksFromJson@CreatureBankManager@CreatureBanksExtender@cbanks@@QAEHFF@Z 10057a1c     CreatureBanksExtender.obj
 0002:0000ea40       __unwindtable$?LoadCreatureBanksFromJson@CreatureBankManager@CreatureBanksExtender@cbanks@@QAEHFF@Z 10057a40     CreatureBanksExtender.obj
 0002:0000eb38       __ehfuncinfo$??0CustomRewardSetupState@CreatureBanksExtender@cbanks@@QAE@HI@Z 10057b38     CreatureBanksExtender.obj
 0002:0000eb60       __unwindtable$??0CustomRewardSetupState@CreatureBanksExtender@cbanks@@QAE@HI@Z 10057b60     CreatureBanksExtender.obj
 0002:0000ec00       __ehfuncinfo$?CreateRMGObjectGen@CreatureBanksExtender@cbanks@@MBEPAUH3RmgObjectGenerator@h3@@ABURMGObjectInfo@@@Z 10057c00     CreatureBanksExtender.obj
 0002:0000ec24       __unwindtable$?CreateRMGObjectGen@CreatureBanksExtender@cbanks@@MBEPAUH3RmgObjectGenerator@h3@@ABURMGObjectInfo@@@Z 10057c24     CreatureBanksExtender.obj
 0002:0000ec34       __ehfuncinfo$?GetCreatureBankType@CreatureBanksExtender@cbanks@@SAHHH@Z 10057c34     CreatureBanksExtender.obj
 0002:0000ec58       __ehfuncinfo$?CrBank_AskForVisitMessage@CreatureBanksExtender@cbanks@@CGXPAVHiHook@@PADHHHHHHHHHHH@Z 10057c58     CreatureBanksExtender.obj
 0002:0000ec80       __unwindtable$?CrBank_AskForVisitMessage@CreatureBanksExtender@cbanks@@CGXPAVHiHook@@PADHHHHHHHHHHH@Z 10057c80     CreatureBanksExtender.obj
 0002:0000ecd0       __ehfuncinfo$?CrBank_BeforeEndingText@CreatureBanksExtender@cbanks@@CGHPAVHiHook@@PAUH3String@h3@@IKK@Z 10057cd0     CreatureBanksExtender.obj
 0002:0000ecf4       __ehfuncinfo$?OnAfterReloadLanguageData@CreatureBanksExtender@cbanks@@CGXPAUTEvent@Era@@@Z 10057cf4     CreatureBanksExtender.obj
 0002:0000ed18       __unwindtable$?OnAfterReloadLanguageData@CreatureBanksExtender@cbanks@@CGXPAUTEvent@Era@@@Z 10057d18     CreatureBanksExtender.obj
 0002:0000ed48       __ehfuncinfo$??0CreatureBanksExtender@cbanks@@AAE@XZ 10057d48     CreatureBanksExtender.obj
 0002:0000ed6c       __unwindtable$??0CreatureBanksExtender@cbanks@@AAE@XZ 10057d6c     CreatureBanksExtender.obj
 0002:0000ed7c       __ehfuncinfo$??1CreatureName@?4??ShowMultiplePicsArmyMessage@cbanks@@YAHPBDHHHPAUH3Army@h3@@@Z@QAE@XZ 10057d7c     CreatureBanksExtender.obj
 0002:0000eda0       __unwindtable$??1CreatureName@?4??ShowMultiplePicsArmyMessage@cbanks@@YAHPBDHHHPAUH3Army@h3@@@Z@QAE@XZ 10057da0     CreatureBanksExtender.obj
 0002:0000eda8       __ehfuncinfo$?ShowMultiplePicsArmyMessage@cbanks@@YAHPBDHHHPAUH3Army@h3@@@Z 10057da8     CreatureBanksExtender.obj
 0002:0000edcc       __unwindtable$?ShowMultiplePicsArmyMessage@cbanks@@YAHPBDHHHPAUH3Army@h3@@@Z 10057dcc     CreatureBanksExtender.obj
 0002:0000edec       __ehfuncinfo$?GetArmyMessage@cbanks@@YAHPBUH3CreatureBank@h3@@AAUH3String@3@_N@Z 10057dec     CreatureBanksExtender.obj
 0002:0000ee10       __ehfuncinfo$?Get@CreatureBanksExtender@cbanks@@SAAAV12@XZ 10057e10     CreatureBanksExtender.obj
 0002:0000ee34       __unwindtable$?Get@CreatureBanksExtender@cbanks@@SAAAV12@XZ 10057e34     CreatureBanksExtender.obj
 0002:0000ee4c       __ehfuncinfo$?CreateRMGObjectGen@DreamTeacherExtender@dreamTeacher@@EBEPAUH3RmgObjectGenerator@h3@@ABURMGObjectInfo@@@Z 10057e4c     DreamTeacherExtender.obj
 0002:0000ee70       __unwindtable$?CreateRMGObjectGen@DreamTeacherExtender@dreamTeacher@@EBEPAUH3RmgObjectGenerator@h3@@ABURMGObjectInfo@@@Z 10057e70     DreamTeacherExtender.obj
 0002:0000ee80       __ehfuncinfo$?SetHintInH3TextBuffer@DreamTeacherExtender@dreamTeacher@@EBEHPAUH3MapItem@h3@@PBUH3Hero@4@PBUH3Player@4@H@Z 10057e80     DreamTeacherExtender.obj
 0002:0000eea4       __unwindtable$?SetHintInH3TextBuffer@DreamTeacherExtender@dreamTeacher@@EBEHPAUH3MapItem@h3@@PBUH3Hero@4@PBUH3Player@4@H@Z 10057ea4     DreamTeacherExtender.obj
 0002:0000eeb4       __ehfuncinfo$?VisitMapItem@DreamTeacherExtender@dreamTeacher@@EBEHPAUH3Hero@h3@@PAUH3MapItem@4@UH3Position@4@H@Z 10057eb4     DreamTeacherExtender.obj
 0002:0000eed8       __unwindtable$?VisitMapItem@DreamTeacherExtender@dreamTeacher@@EBEHPAUH3Hero@h3@@PAUH3MapItem@4@UH3Position@4@H@Z 10057ed8     DreamTeacherExtender.obj
 0002:0000eee8       __ehfuncinfo$?ShowMessage@dreamTeacher@@YAXPBUH3MapItem@h3@@H_N@Z 10057ee8     DreamTeacherExtender.obj
 0002:0000ef10       __unwindtable$?ShowMessage@dreamTeacher@@YAXPBUH3MapItem@h3@@H_N@Z 10057f10     DreamTeacherExtender.obj
 0002:0000ef50       __ehfuncinfo$?SetAiMapItemWeight@DreamTeacherExtender@dreamTeacher@@EBEHPAUH3MapItem@h3@@PAUH3Hero@4@PBUH3Player@4@AAHPAHUH3Position@4@@Z 10057f50     DreamTeacherExtender.obj
 0002:0000ef74       __unwindtable$?SetAiMapItemWeight@DreamTeacherExtender@dreamTeacher@@EBEHPAUH3MapItem@h3@@PAUH3Hero@4@PBUH3Player@4@AAHPAHUH3Position@4@@Z 10057f74     DreamTeacherExtender.obj
 0002:0000ef84       __ehfuncinfo$??0DreamTeacherExtender@dreamTeacher@@AAE@XZ 10057f84     DreamTeacherExtender.obj
 0002:0000efa8       __unwindtable$??0DreamTeacherExtender@dreamTeacher@@AAE@XZ 10057fa8     DreamTeacherExtender.obj
 0002:0000efb0       __ehfuncinfo$?Get@DreamTeacherExtender@dreamTeacher@@SAAAV12@XZ 10057fb0     DreamTeacherExtender.obj
 0002:0000efd4       __unwindtable$?Get@DreamTeacherExtender@dreamTeacher@@SAAAV12@XZ 10057fd4     DreamTeacherExtender.obj
 0002:0000efe4       __ehfuncinfo$?CreateRMGObjectGen@GazeboExtender@gazebo@@EBEPAUH3RmgObjectGenerator@h3@@ABURMGObjectInfo@@@Z 10057fe4     GazeboExtender.obj
 0002:0000f008       __unwindtable$?CreateRMGObjectGen@GazeboExtender@gazebo@@EBEPAUH3RmgObjectGenerator@h3@@ABURMGObjectInfo@@@Z 10058008     GazeboExtender.obj
 0002:0000f018       __ehfuncinfo$?SetHintInH3TextBuffer@GazeboExtender@gazebo@@EBEHPAUH3MapItem@h3@@PBUH3Hero@4@PBUH3Player@4@H@Z 10058018     GazeboExtender.obj
 0002:0000f03c       __unwindtable$?SetHintInH3TextBuffer@GazeboExtender@gazebo@@EBEHPAUH3MapItem@h3@@PBUH3Hero@4@PBUH3Player@4@H@Z 1005803c     GazeboExtender.obj
 0002:0000f04c       __ehfuncinfo$?VisitMapItem@GazeboExtender@gazebo@@EBEHPAUH3Hero@h3@@PAUH3MapItem@4@UH3Position@4@H@Z 1005804c     GazeboExtender.obj
 0002:0000f070       __unwindtable$?VisitMapItem@GazeboExtender@gazebo@@EBEHPAUH3Hero@h3@@PAUH3MapItem@4@UH3Position@4@H@Z 10058070     GazeboExtender.obj
 0002:0000f090       __ehfuncinfo$?AskQuestion@gazebo@@YAHPBUH3MapItem@h3@@H@Z 10058090     GazeboExtender.obj
 0002:0000f0b4       __unwindtable$?AskQuestion@gazebo@@YAHPBUH3MapItem@h3@@H@Z 100580b4     GazeboExtender.obj
 0002:0000f0dc       __ehfuncinfo$?ShowMessage@gazebo@@YAXPBUH3MapItem@h3@@H_N@Z 100580dc     GazeboExtender.obj
 0002:0000f100       __unwindtable$?ShowMessage@gazebo@@YAXPBUH3MapItem@h3@@H_N@Z 10058100     GazeboExtender.obj
 0002:0000f140       __ehfuncinfo$?SetAiMapItemWeight@GazeboExtender@gazebo@@EBEHPAUH3MapItem@h3@@PAUH3Hero@4@PBUH3Player@4@AAHPAHUH3Position@4@@Z 10058140     GazeboExtender.obj
 0002:0000f164       __unwindtable$?SetAiMapItemWeight@GazeboExtender@gazebo@@EBEHPAUH3MapItem@h3@@PAUH3Hero@4@PBUH3Player@4@AAHPAHUH3Position@4@@Z 10058164     GazeboExtender.obj
 0002:0000f16c       __ehfuncinfo$??0GazeboExtender@gazebo@@AAE@XZ 1005816c     GazeboExtender.obj
 0002:0000f190       __unwindtable$??0GazeboExtender@gazebo@@AAE@XZ 10058190     GazeboExtender.obj
 0002:0000f198       __ehfuncinfo$?Get@GazeboExtender@gazebo@@SAAAV12@XZ 10058198     GazeboExtender.obj
 0002:0000f1bc       __unwindtable$?Get@GazeboExtender@gazebo@@SAAAV12@XZ 100581bc     GazeboExtender.obj
 0002:0000f1cc       __ehfuncinfo$?InitNewGameMapItemSetup@GraveExtender@grave@@EBEHPAUH3MapItem@h3@@@Z 100581cc     GraveExtender.obj
 0002:0000f1f0       __ehfuncinfo$?CreateRMGObjectGen@GraveExtender@grave@@EBEPAUH3RmgObjectGenerator@h3@@ABURMGObjectInfo@@@Z 100581f0     GraveExtender.obj
 0002:0000f214       __unwindtable$?CreateRMGObjectGen@GraveExtender@grave@@EBEPAUH3RmgObjectGenerator@h3@@ABURMGObjectInfo@@@Z 10058214     GraveExtender.obj
 0002:0000f224       __ehfuncinfo$?SetHintInH3TextBuffer@GraveExtender@grave@@EBEHPAUH3MapItem@h3@@PBUH3Hero@4@PBUH3Player@4@H@Z 10058224     GraveExtender.obj
 0002:0000f248       __unwindtable$?SetHintInH3TextBuffer@GraveExtender@grave@@EBEHPAUH3MapItem@h3@@PBUH3Hero@4@PBUH3Player@4@H@Z 10058248     GraveExtender.obj
 0002:0000f250       __ehfuncinfo$?VisitMapItem@GraveExtender@grave@@EBEHPAUH3Hero@h3@@PAUH3MapItem@4@UH3Position@4@H@Z 10058250     GraveExtender.obj
 0002:0000f274       __ehfuncinfo$?ShowMessage@grave@@YAXPBUH3MapItem@h3@@_NHH@Z 10058274     GraveExtender.obj
 0002:0000f298       __unwindtable$?ShowMessage@grave@@YAXPBUH3MapItem@h3@@_NHH@Z 10058298     GraveExtender.obj
 0002:0000f2d8       __ehfuncinfo$??0GraveExtender@grave@@AAE@XZ 100582d8     GraveExtender.obj
 0002:0000f2fc       __unwindtable$??0GraveExtender@grave@@AAE@XZ 100582fc     GraveExtender.obj
 0002:0000f304       __ehfuncinfo$?Get@GraveExtender@grave@@SAAAV12@XZ 10058304     GraveExtender.obj
 0002:0000f328       __unwindtable$?Get@GraveExtender@grave@@SAAAV12@XZ 10058328     GraveExtender.obj
 0002:0000f338       __ehfuncinfo$?CreateRMGObjectGen@HermitsShackExtender@hermitsShack@@EBEPAUH3RmgObjectGenerator@h3@@ABURMGObjectInfo@@@Z 10058338     HermitsShackExtender.obj
 0002:0000f35c       __unwindtable$?CreateRMGObjectGen@HermitsShackExtender@hermitsShack@@EBEPAUH3RmgObjectGenerator@h3@@ABURMGObjectInfo@@@Z 1005835c     HermitsShackExtender.obj
 0002:0000f36c       __ehfuncinfo$?SetHintInH3TextBuffer@HermitsShackExtender@hermitsShack@@EBEHPAUH3MapItem@h3@@PBUH3Hero@4@PBUH3Player@4@H@Z 1005836c     HermitsShackExtender.obj
 0002:0000f390       __unwindtable$?SetHintInH3TextBuffer@HermitsShackExtender@hermitsShack@@EBEHPAUH3MapItem@h3@@PBUH3Hero@4@PBUH3Player@4@H@Z 10058390     HermitsShackExtender.obj
 0002:0000f3a0       __ehfuncinfo$?VisitMapItem@HermitsShackExtender@hermitsShack@@EBEHPAUH3Hero@h3@@PAUH3MapItem@4@UH3Position@4@H@Z 100583a0     HermitsShackExtender.obj
 0002:0000f3c4       __unwindtable$?VisitMapItem@HermitsShackExtender@hermitsShack@@EBEHPAUH3Hero@h3@@PAUH3MapItem@4@UH3Position@4@H@Z 100583c4     HermitsShackExtender.obj
 0002:0000f3cc       __ehfuncinfo$?ShowMessage@hermitsShack@@YAXPBUH3MapItem@h3@@HH_N@Z 100583cc     HermitsShackExtender.obj
 0002:0000f3f0       __unwindtable$?ShowMessage@hermitsShack@@YAXPBUH3MapItem@h3@@HH_N@Z 100583f0     HermitsShackExtender.obj
 0002:0000f448       __ehfuncinfo$?SetAiMapItemWeight@HermitsShackExtender@hermitsShack@@EBEHPAUH3MapItem@h3@@PAUH3Hero@4@PBUH3Player@4@AAHPAHUH3Position@4@@Z 10058448     HermitsShackExtender.obj
 0002:0000f46c       __unwindtable$?SetAiMapItemWeight@HermitsShackExtender@hermitsShack@@EBEHPAUH3MapItem@h3@@PAUH3Hero@4@PBUH3Player@4@AAHPAHUH3Position@4@@Z 1005846c     HermitsShackExtender.obj
 0002:0000f474       __ehfuncinfo$??0HermitsShackExtender@hermitsShack@@AAE@XZ 10058474     HermitsShackExtender.obj
 0002:0000f498       __unwindtable$??0HermitsShackExtender@hermitsShack@@AAE@XZ 10058498     HermitsShackExtender.obj
 0002:0000f4a0       __ehfuncinfo$?Get@HermitsShackExtender@hermitsShack@@SAAAV12@XZ 100584a0     HermitsShackExtender.obj
 0002:0000f4c4       __unwindtable$?Get@HermitsShackExtender@hermitsShack@@SAAAV12@XZ 100584c4     HermitsShackExtender.obj
 0002:0000f4d4       __ehfuncinfo$?CreateRMGObjectGen@HillFortExtender@hillFort@@MBEPAUH3RmgObjectGenerator@h3@@ABURMGObjectInfo@@@Z 100584d4     HillFortExtender.obj
 0002:0000f4f8       __unwindtable$?CreateRMGObjectGen@HillFortExtender@hillFort@@MBEPAUH3RmgObjectGenerator@h3@@ABURMGObjectInfo@@@Z 100584f8     HillFortExtender.obj
 0002:0000f508       __ehfuncinfo$??0HillFortExtender@hillFort@@AAE@XZ 10058508     HillFortExtender.obj
 0002:0000f52c       __unwindtable$??0HillFortExtender@hillFort@@AAE@XZ 1005852c     HillFortExtender.obj
 0002:0000f534       __ehfuncinfo$?Get@HillFortExtender@hillFort@@SAAAV12@XZ 10058534     HillFortExtender.obj
 0002:0000f558       __unwindtable$?Get@HillFortExtender@hillFort@@SAAAV12@XZ 10058558     HillFortExtender.obj
 0002:0000f568       __ehfuncinfo$?CreateRMGObjectGen@JunkmanExtender@junkman@@EBEPAUH3RmgObjectGenerator@h3@@ABURMGObjectInfo@@@Z 10058568     JunkmanExtender.obj
 0002:0000f58c       __unwindtable$?CreateRMGObjectGen@JunkmanExtender@junkman@@EBEPAUH3RmgObjectGenerator@h3@@ABURMGObjectInfo@@@Z 1005858c     JunkmanExtender.obj
 0002:0000f59c       __ehfuncinfo$?SetHintInH3TextBuffer@JunkmanExtender@junkman@@EBEHPAUH3MapItem@h3@@PBUH3Hero@4@PBUH3Player@4@H@Z 1005859c     JunkmanExtender.obj
 0002:0000f5c0       __unwindtable$?SetHintInH3TextBuffer@JunkmanExtender@junkman@@EBEHPAUH3MapItem@h3@@PBUH3Hero@4@PBUH3Player@4@H@Z 100585c0     JunkmanExtender.obj
 0002:0000f5c8       __ehfuncinfo$?VisitMapItem@JunkmanExtender@junkman@@EBEHPAUH3Hero@h3@@PAUH3MapItem@4@UH3Position@4@H@Z 100585c8     JunkmanExtender.obj
 0002:0000f5ec       __unwindtable$?VisitMapItem@JunkmanExtender@junkman@@EBEHPAUH3Hero@h3@@PAUH3MapItem@4@UH3Position@4@H@Z 100585ec     JunkmanExtender.obj
 0002:0000f5fc       __ehfuncinfo$?Get@JunkmanExtender@junkman@@SAAAV12@XZ 100585fc     JunkmanExtender.obj
 0002:0000f620       __unwindtable$?Get@JunkmanExtender@junkman@@SAAAV12@XZ 10058620     JunkmanExtender.obj
 0002:0000f628       __ehfuncinfo$?CreateRMGObjectGen@MineralSpringExtender@mineralSpring@@EBEPAUH3RmgObjectGenerator@h3@@ABURMGObjectInfo@@@Z 10058628     MineralSpringExtender.obj
 0002:0000f64c       __unwindtable$?CreateRMGObjectGen@MineralSpringExtender@mineralSpring@@EBEPAUH3RmgObjectGenerator@h3@@ABURMGObjectInfo@@@Z 1005864c     MineralSpringExtender.obj
 0002:0000f65c       __ehfuncinfo$?SetHintInH3TextBuffer@MineralSpringExtender@mineralSpring@@EBEHPAUH3MapItem@h3@@PBUH3Hero@4@PBUH3Player@4@H@Z 1005865c     MineralSpringExtender.obj
 0002:0000f680       __unwindtable$?SetHintInH3TextBuffer@MineralSpringExtender@mineralSpring@@EBEHPAUH3MapItem@h3@@PBUH3Hero@4@PBUH3Player@4@H@Z 10058680     MineralSpringExtender.obj
 0002:0000f690       __ehfuncinfo$?VisitMapItem@MineralSpringExtender@mineralSpring@@EBEHPAUH3Hero@h3@@PAUH3MapItem@4@UH3Position@4@H@Z 10058690     MineralSpringExtender.obj
 0002:0000f6b4       __unwindtable$?VisitMapItem@MineralSpringExtender@mineralSpring@@EBEHPAUH3Hero@h3@@PAUH3MapItem@4@UH3Position@4@H@Z 100586b4     MineralSpringExtender.obj
 0002:0000f6bc       __ehfuncinfo$?ShowMessage@mineralSpring@@YAXPBUH3MapItem@h3@@_N@Z 100586bc     MineralSpringExtender.obj
 0002:0000f6e0       __unwindtable$?ShowMessage@mineralSpring@@YAXPBUH3MapItem@h3@@_N@Z 100586e0     MineralSpringExtender.obj
 0002:0000f720       __ehfuncinfo$?SetAiMapItemWeight@MineralSpringExtender@mineralSpring@@EBEHPAUH3MapItem@h3@@PAUH3Hero@4@PBUH3Player@4@AAHPAHUH3Position@4@@Z 10058720     MineralSpringExtender.obj
 0002:0000f744       __unwindtable$?SetAiMapItemWeight@MineralSpringExtender@mineralSpring@@EBEHPAUH3MapItem@h3@@PAUH3Hero@4@PBUH3Player@4@AAHPAHUH3Position@4@@Z 10058744     MineralSpringExtender.obj
 0002:0000f74c       __ehfuncinfo$??0MineralSpringExtender@mineralSpring@@AAE@XZ 1005874c     MineralSpringExtender.obj
 0002:0000f770       __unwindtable$??0MineralSpringExtender@mineralSpring@@AAE@XZ 10058770     MineralSpringExtender.obj
 0002:0000f778       __ehfuncinfo$?Get@MineralSpringExtender@mineralSpring@@SAAAV12@XZ 10058778     MineralSpringExtender.obj
 0002:0000f79c       __unwindtable$?Get@MineralSpringExtender@mineralSpring@@SAAAV12@XZ 1005879c     MineralSpringExtender.obj
 0002:0000f7ac       __ehfuncinfo$?CreateRMGObjectGen@ObservatoryExtender@observatory@@EBEPAUH3RmgObjectGenerator@h3@@ABURMGObjectInfo@@@Z 100587ac     ObservatoryExtender.obj
 0002:0000f7d0       __unwindtable$?CreateRMGObjectGen@ObservatoryExtender@observatory@@EBEPAUH3RmgObjectGenerator@h3@@ABURMGObjectInfo@@@Z 100587d0     ObservatoryExtender.obj
 0002:0000f7e0       __ehfuncinfo$?OnNewWeek_StartFunc@observatory@@YGHPAVLoHook@@PAUHookContext@@@Z 100587e0     ObservatoryExtender.obj
 0002:0000f804       __unwindtable$?OnNewWeek_StartFunc@observatory@@YGHPAVLoHook@@PAUHookContext@@@Z 10058804     ObservatoryExtender.obj
 0002:0000f80c       __ehfuncinfo$?OnCalcScoutingRadius_BeforeReturn@observatory@@YGHPAVLoHook@@PAUHookContext@@@Z 1005880c     ObservatoryExtender.obj
 0002:0000f830       __unwindtable$?OnCalcScoutingRadius_BeforeReturn@observatory@@YGHPAVLoHook@@PAUHookContext@@@Z 10058830     ObservatoryExtender.obj
 0002:0000f838       __ehfuncinfo$?SetHintInH3TextBuffer@ObservatoryExtender@observatory@@EBEHPAUH3MapItem@h3@@PBUH3Hero@4@PBUH3Player@4@H@Z 10058838     ObservatoryExtender.obj
 0002:0000f85c       __unwindtable$?SetHintInH3TextBuffer@ObservatoryExtender@observatory@@EBEHPAUH3MapItem@h3@@PBUH3Hero@4@PBUH3Player@4@H@Z 1005885c     ObservatoryExtender.obj
 0002:0000f86c       __ehfuncinfo$?VisitMapItem@ObservatoryExtender@observatory@@EBEHPAUH3Hero@h3@@PAUH3MapItem@4@UH3Position@4@H@Z 1005886c     ObservatoryExtender.obj
 0002:0000f890       __unwindtable$?VisitMapItem@ObservatoryExtender@observatory@@EBEHPAUH3Hero@h3@@PAUH3MapItem@4@UH3Position@4@H@Z 10058890     ObservatoryExtender.obj
 0002:0000f898       __ehfuncinfo$?ShowMessage@observatory@@YAXPBUH3MapItem@h3@@_N@Z 10058898     ObservatoryExtender.obj
 0002:0000f8c0       __unwindtable$?ShowMessage@observatory@@YAXPBUH3MapItem@h3@@_N@Z 100588c0     ObservatoryExtender.obj
 0002:0000f900       __ehfuncinfo$?SetAiMapItemWeight@ObservatoryExtender@observatory@@EBEHPAUH3MapItem@h3@@PAUH3Hero@4@PBUH3Player@4@AAHPAHUH3Position@4@@Z 10058900     ObservatoryExtender.obj
 0002:0000f924       __unwindtable$?SetAiMapItemWeight@ObservatoryExtender@observatory@@EBEHPAUH3MapItem@h3@@PAUH3Hero@4@PBUH3Player@4@AAHPAHUH3Position@4@@Z 10058924     ObservatoryExtender.obj
 0002:0000f92c       __ehfuncinfo$??0ObservatoryExtender@observatory@@AAE@XZ 1005892c     ObservatoryExtender.obj
 0002:0000f950       __unwindtable$??0ObservatoryExtender@observatory@@AAE@XZ 10058950     ObservatoryExtender.obj
 0002:0000f958       __ehfuncinfo$?Get@ObservatoryExtender@observatory@@SAAAV12@XZ 10058958     ObservatoryExtender.obj
 0002:0000f97c       __unwindtable$?Get@ObservatoryExtender@observatory@@SAAAV12@XZ 1005897c     ObservatoryExtender.obj
 0002:0000f98c       __ehfuncinfo$?Shrine__AtGetHint@ShrinesExternder@shrines@@CGHPAVLoHook@@PAUHookContext@@@Z 1005898c     ShrinesExternder.obj
 0002:0000f9b0       __unwindtable$?Shrine__AtGetHint@ShrinesExternder@shrines@@CGHPAVLoHook@@PAUHookContext@@@Z 100589b0     ShrinesExternder.obj
 0002:0000f9c0       __ehfuncinfo$?GetCustomHint@ShrinesExternder@shrines@@CAPBDPBUH3MapItem@h3@@@Z 100589c0     ShrinesExternder.obj
 0002:0000f9e4       __unwindtable$?GetCustomHint@ShrinesExternder@shrines@@CAPBDPBUH3MapItem@h3@@@Z 100589e4     ShrinesExternder.obj
 0002:0000f9f4       __ehfuncinfo$?Shrine__AtGetName@ShrinesExternder@shrines@@CGHPAVLoHook@@PAUHookContext@@@Z 100589f4     ShrinesExternder.obj
 0002:0000fa18       __unwindtable$?Shrine__AtGetName@ShrinesExternder@shrines@@CGHPAVLoHook@@PAUHookContext@@@Z 10058a18     ShrinesExternder.obj
 0002:0000fa28       __ehfuncinfo$?GetCustomName@ShrinesExternder@shrines@@CAPBDPBUH3MapItem@h3@@@Z 10058a28     ShrinesExternder.obj
 0002:0000fa4c       __unwindtable$?GetCustomName@ShrinesExternder@shrines@@CAPBDPBUH3MapItem@h3@@@Z 10058a4c     ShrinesExternder.obj
 0002:0000fa5c       __ehfuncinfo$?Shrine__AtWisdomCheck@ShrinesExternder@shrines@@CGHPAVLoHook@@PAUHookContext@@@Z 10058a5c     ShrinesExternder.obj
 0002:0000fa80       __unwindtable$?Shrine__AtWisdomCheck@ShrinesExternder@shrines@@CGHPAVLoHook@@PAUHookContext@@@Z 10058a80     ShrinesExternder.obj
 0002:0000fa90       __ehfuncinfo$?Shrine__AtVisit@ShrinesExternder@shrines@@CGHPAVLoHook@@PAUHookContext@@@Z 10058a90     ShrinesExternder.obj
 0002:0000fab4       __unwindtable$?Shrine__AtVisit@ShrinesExternder@shrines@@CGHPAVLoHook@@PAUHookContext@@@Z 10058ab4     ShrinesExternder.obj
 0002:0000fac4       __ehfuncinfo$?CreateRMGObjectGen@ShrinesExternder@shrines@@MBEPAUH3RmgObjectGenerator@h3@@ABURMGObjectInfo@@@Z 10058ac4     ShrinesExternder.obj
 0002:0000fae8       __unwindtable$?CreateRMGObjectGen@ShrinesExternder@shrines@@MBEPAUH3RmgObjectGenerator@h3@@ABURMGObjectInfo@@@Z 10058ae8     ShrinesExternder.obj
 0002:0000faf0       __ehfuncinfo$??0ShrinesExternder@shrines@@AAE@XZ 10058af0     ShrinesExternder.obj
 0002:0000fb14       __unwindtable$??0ShrinesExternder@shrines@@AAE@XZ 10058b14     ShrinesExternder.obj
 0002:0000fb1c       __ehfuncinfo$?Get@ShrinesExternder@shrines@@SAAAV12@XZ 10058b1c     ShrinesExternder.obj
 0002:0000fb40       __unwindtable$?Get@ShrinesExternder@shrines@@SAAAV12@XZ 10058b40     ShrinesExternder.obj
 0002:0000fb50       __ehfuncinfo$?CreateRMGObjectGen@SkeletonTransformerExtender@skeletonTransformer@@EBEPAUH3RmgObjectGenerator@h3@@ABURMGObjectInfo@@@Z 10058b50     SkeletonTransformerExtender.obj
 0002:0000fb74       __unwindtable$?CreateRMGObjectGen@SkeletonTransformerExtender@skeletonTransformer@@EBEPAUH3RmgObjectGenerator@h3@@ABURMGObjectInfo@@@Z 10058b74     SkeletonTransformerExtender.obj
 0002:0000fb84       __ehfuncinfo$?SetHintInH3TextBuffer@SkeletonTransformerExtender@skeletonTransformer@@EBEHPAUH3MapItem@h3@@PBUH3Hero@4@PBUH3Player@4@H@Z 10058b84     SkeletonTransformerExtender.obj
 0002:0000fba8       __unwindtable$?SetHintInH3TextBuffer@SkeletonTransformerExtender@skeletonTransformer@@EBEHPAUH3MapItem@h3@@PBUH3Hero@4@PBUH3Player@4@H@Z 10058ba8     SkeletonTransformerExtender.obj
 0002:0000fbb0       __ehfuncinfo$?VisitMapItem@SkeletonTransformerExtender@skeletonTransformer@@EBEHPAUH3Hero@h3@@PAUH3MapItem@4@UH3Position@4@H@Z 10058bb0     SkeletonTransformerExtender.obj
 0002:0000fbd4       __ehfuncinfo$?Get@SkeletonTransformerExtender@skeletonTransformer@@SAAAV12@XZ 10058bd4     SkeletonTransformerExtender.obj
 0002:0000fbf8       __unwindtable$?Get@SkeletonTransformerExtender@skeletonTransformer@@SAAAV12@XZ 10058bf8     SkeletonTransformerExtender.obj
 0002:0000fc00       __ehfuncinfo$?CreateRMGObjectGen@TempleOfLoyaltyExtender@templeOfLoyalty@@EBEPAUH3RmgObjectGenerator@h3@@ABURMGObjectInfo@@@Z 10058c00     TempleOfLoyaltyExtender.obj
 0002:0000fc24       __unwindtable$?CreateRMGObjectGen@TempleOfLoyaltyExtender@templeOfLoyalty@@EBEPAUH3RmgObjectGenerator@h3@@ABURMGObjectInfo@@@Z 10058c24     TempleOfLoyaltyExtender.obj
 0002:0000fc34       __ehfuncinfo$?TempleOfLoyalty_SetArmyFractionsCountValue@templeOfLoyalty@@YGHPAVLoHook@@PAUHookContext@@@Z 10058c34     TempleOfLoyaltyExtender.obj
 0002:0000fc58       __unwindtable$?TempleOfLoyalty_SetArmyFractionsCountValue@templeOfLoyalty@@YGHPAVLoHook@@PAUHookContext@@@Z 10058c58     TempleOfLoyaltyExtender.obj
 0002:0000fc60       __ehfuncinfo$?TempleOfLoyalty_SetArmyFractionsCountDesc@templeOfLoyalty@@YGHPAVLoHook@@PAUHookContext@@@Z 10058c60     TempleOfLoyaltyExtender.obj
 0002:0000fc84       __unwindtable$?TempleOfLoyalty_SetArmyFractionsCountDesc@templeOfLoyalty@@YGHPAVLoHook@@PAUHookContext@@@Z 10058c84     TempleOfLoyaltyExtender.obj
 0002:0000fc8c       __ehfuncinfo$?OnEveryDay@templeOfLoyalty@@YGXPAUTEvent@Era@@@Z 10058c8c     TempleOfLoyaltyExtender.obj
 0002:0000fcb0       __unwindtable$?OnEveryDay@templeOfLoyalty@@YGXPAUTEvent@Era@@@Z 10058cb0     TempleOfLoyaltyExtender.obj
 0002:0000fcb8       __ehfuncinfo$?SetHintInH3TextBuffer@TempleOfLoyaltyExtender@templeOfLoyalty@@EBEHPAUH3MapItem@h3@@PBUH3Hero@4@PBUH3Player@4@H@Z 10058cb8     TempleOfLoyaltyExtender.obj
 0002:0000fcdc       __unwindtable$?SetHintInH3TextBuffer@TempleOfLoyaltyExtender@templeOfLoyalty@@EBEHPAUH3MapItem@h3@@PBUH3Hero@4@PBUH3Player@4@H@Z 10058cdc     TempleOfLoyaltyExtender.obj
 0002:0000fcec       __ehfuncinfo$?VisitMapItem@TempleOfLoyaltyExtender@templeOfLoyalty@@EBEHPAUH3Hero@h3@@PAUH3MapItem@4@UH3Position@4@H@Z 10058cec     TempleOfLoyaltyExtender.obj
 0002:0000fd10       __unwindtable$?VisitMapItem@TempleOfLoyaltyExtender@templeOfLoyalty@@EBEHPAUH3Hero@h3@@PAUH3MapItem@4@UH3Position@4@H@Z 10058d10     TempleOfLoyaltyExtender.obj
 0002:0000fd18       __ehfuncinfo$?ShowMessage@templeOfLoyalty@@YAXPBUH3MapItem@h3@@_N@Z 10058d18     TempleOfLoyaltyExtender.obj
 0002:0000fd40       __unwindtable$?ShowMessage@templeOfLoyalty@@YAXPBUH3MapItem@h3@@_N@Z 10058d40     TempleOfLoyaltyExtender.obj
 0002:0000fd80       __ehfuncinfo$?SetAiMapItemWeight@TempleOfLoyaltyExtender@templeOfLoyalty@@EBEHPAUH3MapItem@h3@@PAUH3Hero@4@PBUH3Player@4@AAHPAHUH3Position@4@@Z 10058d80     TempleOfLoyaltyExtender.obj
 0002:0000fda4       __unwindtable$?SetAiMapItemWeight@TempleOfLoyaltyExtender@templeOfLoyalty@@EBEHPAUH3MapItem@h3@@PAUH3Hero@4@PBUH3Player@4@AAHPAHUH3Position@4@@Z 10058da4     TempleOfLoyaltyExtender.obj
 0002:0000fdac       __ehfuncinfo$??0TempleOfLoyaltyExtender@templeOfLoyalty@@AAE@XZ 10058dac     TempleOfLoyaltyExtender.obj
 0002:0000fdd0       __unwindtable$??0TempleOfLoyaltyExtender@templeOfLoyalty@@AAE@XZ 10058dd0     TempleOfLoyaltyExtender.obj
 0002:0000fdd8       __ehfuncinfo$?Get@TempleOfLoyaltyExtender@templeOfLoyalty@@SAAAV12@XZ 10058dd8     TempleOfLoyaltyExtender.obj
 0002:0000fdfc       __unwindtable$?Get@TempleOfLoyaltyExtender@templeOfLoyalty@@SAAAV12@XZ 10058dfc     TempleOfLoyaltyExtender.obj
 0002:0000fe0c       __ehfuncinfo$?CreateRMGObjectGen@TrailblazerExtender@trailblazer@@EBEPAUH3RmgObjectGenerator@h3@@ABURMGObjectInfo@@@Z 10058e0c     TrailblazerExtender.obj
 0002:0000fe30       __unwindtable$?CreateRMGObjectGen@TrailblazerExtender@trailblazer@@EBEPAUH3RmgObjectGenerator@h3@@ABURMGObjectInfo@@@Z 10058e30     TrailblazerExtender.obj
 0002:0000fe40       __ehfuncinfo$?CreatePatches@TrailblazerExtender@trailblazer@@EAEXXZ 10058e40     TrailblazerExtender.obj
 0002:0000fe64       __unwindtable$?CreatePatches@TrailblazerExtender@trailblazer@@EAEXXZ 10058e64     TrailblazerExtender.obj
 0002:0000fe6c       __ehfuncinfo$?Get_Step_Cost@trailblazer@@YGHPAVHiHook@@PAUH3MapItem@h3@@DHHHHHHH@Z 10058e6c     TrailblazerExtender.obj
 0002:0000fe90       __unwindtable$?Get_Step_Cost@trailblazer@@YGHPAVHiHook@@PAUH3MapItem@h3@@DHHHHHHH@Z 10058e90     TrailblazerExtender.obj
 0002:0000fe98       __ehfuncinfo$?OnNewWeek_StartFunc@trailblazer@@YGHPAVLoHook@@PAUHookContext@@@Z 10058e98     TrailblazerExtender.obj
 0002:0000febc       __unwindtable$?OnNewWeek_StartFunc@trailblazer@@YGHPAVLoHook@@PAUHookContext@@@Z 10058ebc     TrailblazerExtender.obj
 0002:0000fec4       __ehfuncinfo$?SetHintInH3TextBuffer@TrailblazerExtender@trailblazer@@EBEHPAUH3MapItem@h3@@PBUH3Hero@4@PBUH3Player@4@H@Z 10058ec4     TrailblazerExtender.obj
 0002:0000fee8       __unwindtable$?SetHintInH3TextBuffer@TrailblazerExtender@trailblazer@@EBEHPAUH3MapItem@h3@@PBUH3Hero@4@PBUH3Player@4@H@Z 10058ee8     TrailblazerExtender.obj
 0002:0000fef8       __ehfuncinfo$?VisitMapItem@TrailblazerExtender@trailblazer@@EBEHPAUH3Hero@h3@@PAUH3MapItem@4@UH3Position@4@H@Z 10058ef8     TrailblazerExtender.obj
 0002:0000ff1c       __unwindtable$?VisitMapItem@TrailblazerExtender@trailblazer@@EBEHPAUH3Hero@h3@@PAUH3MapItem@4@UH3Position@4@H@Z 10058f1c     TrailblazerExtender.obj
 0002:0000ff24       __ehfuncinfo$?ShowMessage@trailblazer@@YAXPBUH3MapItem@h3@@_N@Z 10058f24     TrailblazerExtender.obj
 0002:0000ff48       __unwindtable$?ShowMessage@trailblazer@@YAXPBUH3MapItem@h3@@_N@Z 10058f48     TrailblazerExtender.obj
 0002:0000ff88       __ehfuncinfo$?SetAiMapItemWeight@TrailblazerExtender@trailblazer@@EBEHPAUH3MapItem@h3@@PAUH3Hero@4@PBUH3Player@4@AAHPAHUH3Position@4@@Z 10058f88     TrailblazerExtender.obj
 0002:0000ffac       __unwindtable$?SetAiMapItemWeight@TrailblazerExtender@trailblazer@@EBEHPAUH3MapItem@h3@@PAUH3Hero@4@PBUH3Player@4@AAHPAHUH3Position@4@@Z 10058fac     TrailblazerExtender.obj
 0002:0000ffb4       __ehfuncinfo$??0TrailblazerExtender@trailblazer@@AAE@XZ 10058fb4     TrailblazerExtender.obj
 0002:0000ffd8       __unwindtable$??0TrailblazerExtender@trailblazer@@AAE@XZ 10058fd8     TrailblazerExtender.obj
 0002:0000ffe8       __ehfuncinfo$?Get@TrailblazerExtender@trailblazer@@SAAAV12@XZ 10058fe8     TrailblazerExtender.obj
 0002:0001000c       __unwindtable$?Get@TrailblazerExtender@trailblazer@@SAAAV12@XZ 1005900c     TrailblazerExtender.obj
 0002:00010024       __ehfuncinfo$?University_AtGetName@university@@YGHPAVLoHook@@PAUHookContext@@@Z 10059024     UniversityExtender.obj
 0002:00010048       __unwindtable$?University_AtGetName@university@@YGHPAVLoHook@@PAUHookContext@@@Z 10059048     UniversityExtender.obj
 0002:00010058       __ehfuncinfo$?UniversityDlg_SetWidgetText@university@@YGHPAVLoHook@@PAUHookContext@@@Z 10059058     UniversityExtender.obj
 0002:0001007c       __unwindtable$?UniversityDlg_SetWidgetText@university@@YGHPAVLoHook@@PAUHookContext@@@Z 1005907c     UniversityExtender.obj
 0002:0001008c       __ehfuncinfo$?SetHintInH3TextBuffer@UniversityExtender@university@@MBEHPAUH3MapItem@h3@@PBUH3Hero@4@PBUH3Player@4@H@Z 1005908c     UniversityExtender.obj
 0002:000100b0       __unwindtable$?SetHintInH3TextBuffer@UniversityExtender@university@@MBEHPAUH3MapItem@h3@@PBUH3Hero@4@PBUH3Player@4@H@Z 100590b0     UniversityExtender.obj
 0002:000100b8       __ehfuncinfo$?AfterLoadingObjectTxtProc@UniversityExtender@university@@MAEXPBF@Z 100590b8     UniversityExtender.obj
 0002:000100dc       __unwindtable$?AfterLoadingObjectTxtProc@UniversityExtender@university@@MAEXPBF@Z 100590dc     UniversityExtender.obj
 0002:00010104       __ehfuncinfo$?CreateRMGObjectGen@UniversityExtender@university@@MBEPAUH3RmgObjectGenerator@h3@@ABURMGObjectInfo@@@Z 10059104     UniversityExtender.obj
 0002:00010128       __unwindtable$?CreateRMGObjectGen@UniversityExtender@university@@MBEPAUH3RmgObjectGenerator@h3@@ABURMGObjectInfo@@@Z 10059128     UniversityExtender.obj
 0002:00010138       __ehfuncinfo$?Get@UniversityExtender@university@@SAAAV12@XZ 10059138     UniversityExtender.obj
 0002:0001015c       __unwindtable$?Get@UniversityExtender@university@@SAAAV12@XZ 1005915c     UniversityExtender.obj
 0002:00010164       __ehfuncinfo$?CreateRMGObjectGen@WarehousesExtender@warehouses@@EBEPAUH3RmgObjectGenerator@h3@@ABURMGObjectInfo@@@Z 10059164     WarehousesExtender.obj
 0002:00010188       __unwindtable$?CreateRMGObjectGen@WarehousesExtender@warehouses@@EBEPAUH3RmgObjectGenerator@h3@@ABURMGObjectInfo@@@Z 10059188     WarehousesExtender.obj
 0002:00010198       __ehfuncinfo$?SetAiMapItemWeight@WarehousesExtender@warehouses@@EBEHPAUH3MapItem@h3@@PAUH3Hero@4@PBUH3Player@4@AAHPAHUH3Position@4@@Z 10059198     WarehousesExtender.obj
 0002:000101bc       __ehfuncinfo$?VisitMapItem@WarehousesExtender@warehouses@@EBEHPAUH3Hero@h3@@PAUH3MapItem@4@UH3Position@4@H@Z 100591bc     WarehousesExtender.obj
 0002:000101e0       __ehfuncinfo$?SetHintInH3TextBuffer@WarehousesExtender@warehouses@@EBEHPAUH3MapItem@h3@@PBUH3Hero@4@PBUH3Player@4@H@Z 100591e0     WarehousesExtender.obj
 0002:00010204       __unwindtable$?SetHintInH3TextBuffer@WarehousesExtender@warehouses@@EBEHPAUH3MapItem@h3@@PBUH3Hero@4@PBUH3Player@4@H@Z 10059204     WarehousesExtender.obj
 0002:0001020c       __ehfuncinfo$?ShowMessage@warehouses@@YAXPBUH3MapItem@h3@@HH@Z 1005920c     WarehousesExtender.obj
 0002:00010230       __unwindtable$?ShowMessage@warehouses@@YAXPBUH3MapItem@h3@@HH@Z 10059230     WarehousesExtender.obj
 0002:00010280       __ehfuncinfo$?Get@WarehousesExtender@warehouses@@SAAAV12@XZ 10059280     WarehousesExtender.obj
 0002:000102a4       __unwindtable$?Get@WarehousesExtender@warehouses@@SAAAV12@XZ 100592a4     WarehousesExtender.obj
 0002:000102ac       __ehfuncinfo$?CreateRMGObjectGen@WateringPlaceExtender@wateringPlace@@EBEPAUH3RmgObjectGenerator@h3@@ABURMGObjectInfo@@@Z 100592ac     WateringPlaceExtender.obj
 0002:000102d0       __unwindtable$?CreateRMGObjectGen@WateringPlaceExtender@wateringPlace@@EBEPAUH3RmgObjectGenerator@h3@@ABURMGObjectInfo@@@Z 100592d0     WateringPlaceExtender.obj
 0002:000102e0       __ehfuncinfo$?OnEveryDay@wateringPlace@@YGXPAUTEvent@Era@@@Z 100592e0     WateringPlaceExtender.obj
 0002:00010304       __unwindtable$?OnEveryDay@wateringPlace@@YGXPAUTEvent@Era@@@Z 10059304     WateringPlaceExtender.obj
 0002:0001030c       __ehfuncinfo$?SetHintInH3TextBuffer@WateringPlaceExtender@wateringPlace@@EBEHPAUH3MapItem@h3@@PBUH3Hero@4@PBUH3Player@4@H@Z 1005930c     WateringPlaceExtender.obj
 0002:00010330       __unwindtable$?SetHintInH3TextBuffer@WateringPlaceExtender@wateringPlace@@EBEHPAUH3MapItem@h3@@PBUH3Hero@4@PBUH3Player@4@H@Z 10059330     WateringPlaceExtender.obj
 0002:00010340       __ehfuncinfo$?VisitMapItem@WateringPlaceExtender@wateringPlace@@EBEHPAUH3Hero@h3@@PAUH3MapItem@4@UH3Position@4@H@Z 10059340     WateringPlaceExtender.obj
 0002:00010364       __unwindtable$?VisitMapItem@WateringPlaceExtender@wateringPlace@@EBEHPAUH3Hero@h3@@PAUH3MapItem@4@UH3Position@4@H@Z 10059364     WateringPlaceExtender.obj
 0002:00010384       __ehfuncinfo$?AskQuestion@wateringPlace@@YAHPBUH3MapItem@h3@@@Z 10059384     WateringPlaceExtender.obj
 0002:000103a8       __unwindtable$?AskQuestion@wateringPlace@@YAHPBUH3MapItem@h3@@@Z 100593a8     WateringPlaceExtender.obj
 0002:000103d0       __ehfuncinfo$?ShowMessage@wateringPlace@@YAXPBUH3MapItem@h3@@@Z 100593d0     WateringPlaceExtender.obj
 0002:000103f4       __unwindtable$?ShowMessage@wateringPlace@@YAXPBUH3MapItem@h3@@@Z 100593f4     WateringPlaceExtender.obj
 0002:0001041c       __ehfuncinfo$?SetAiMapItemWeight@WateringPlaceExtender@wateringPlace@@EBEHPAUH3MapItem@h3@@PAUH3Hero@4@PBUH3Player@4@AAHPAHUH3Position@4@@Z 1005941c     WateringPlaceExtender.obj
 0002:00010440       __unwindtable$?SetAiMapItemWeight@WateringPlaceExtender@wateringPlace@@EBEHPAUH3MapItem@h3@@PAUH3Hero@4@PBUH3Player@4@AAHPAHUH3Position@4@@Z 10059440     WateringPlaceExtender.obj
 0002:00010448       __ehfuncinfo$??0WateringPlaceExtender@wateringPlace@@AAE@XZ 10059448     WateringPlaceExtender.obj
 0002:0001046c       __unwindtable$??0WateringPlaceExtender@wateringPlace@@AAE@XZ 1005946c     WateringPlaceExtender.obj
 0002:00010474       __ehfuncinfo$?Get@WateringPlaceExtender@wateringPlace@@SAAAV12@XZ 10059474     WateringPlaceExtender.obj
 0002:00010498       __unwindtable$?Get@WateringPlaceExtender@wateringPlace@@SAAAV12@XZ 10059498     WateringPlaceExtender.obj
 0002:000104a8       __ehfuncinfo$?AfterLoadingObjectTxtProc@WoGObjectsExtender@wog@@MAEXPBF@Z 100594a8     WoGObjectsExtender.obj
 0002:000104cc       __unwindtable$?AfterLoadingObjectTxtProc@WoGObjectsExtender@wog@@MAEXPBF@Z 100594cc     WoGObjectsExtender.obj
 0002:000104dc       __ehfuncinfo$?CreateRMGObjectGen@WoGObjectsExtender@wog@@MBEPAUH3RmgObjectGenerator@h3@@ABURMGObjectInfo@@@Z 100594dc     WoGObjectsExtender.obj
 0002:00010500       __unwindtable$?CreateRMGObjectGen@WoGObjectsExtender@wog@@MBEPAUH3RmgObjectGenerator@h3@@ABURMGObjectInfo@@@Z 10059500     WoGObjectsExtender.obj
 0002:00010510       __ehfuncinfo$?Get@WoGObjectsExtender@wog@@SAAAV12@XZ 10059510     WoGObjectsExtender.obj
 0002:00010534       __unwindtable$?Get@WoGObjectsExtender@wog@@SAAAV12@XZ 10059534     WoGObjectsExtender.obj
 0002:0001053c       __ehfuncinfo$?AddProperty@ObjectProperty@extender@@SAHAAV?$basic_string@DU?$char_traits@D@std@@V?$allocator@D@2@@std@@@Z 1005953c     ObjectsExtender.obj
 0002:00010560       __ehfuncinfo$?GetMapKey@ObjectProperty@extender@@SA?AV?$basic_string@DU?$char_traits@D@std@@V?$allocator@D@2@@std@@PBD@Z 10059560     ObjectsExtender.obj
 0002:00010584       __unwindtable$?GetMapKey@ObjectProperty@extender@@SA?AV?$basic_string@DU?$char_traits@D@std@@V?$allocator@D@2@@std@@PBD@Z 10059584     ObjectsExtender.obj
 0002:0001058c       __ehfuncinfo$?ShowObjectHint@ObjectsExtender@extender@@CAHPAVLoHook@@PAUHookContext@@H@Z 1005958c     ObjectsExtender.obj
 0002:000105b0       __unwindtable$?ShowObjectHint@ObjectsExtender@extender@@CAHPAVLoHook@@PAUHookContext@@H@Z 100595b0     ObjectsExtender.obj
 0002:000105b8       __ehfuncinfo$?AddObjectsToObjectGenList@ObjectsExtender@extender@@SAXPAU?$H3Vector@PAUH3RmgObjectGenerator@h3@@@h3@@@Z 100595b8     ObjectsExtender.obj
 0002:000105dc       __unwindtable$?AddObjectsToObjectGenList@ObjectsExtender@extender@@SAXPAU?$H3Vector@PAUH3RmgObjectGenerator@h3@@@h3@@@Z 100595dc     ObjectsExtender.obj
 0002:000105fc       __ehfuncinfo$?H3GameMainSetup__LoadObjects@ObjectsExtender@extender@@CGXPAVHiHook@@PBUH3MainSetup@h3@@@Z 100595fc     ObjectsExtender.obj
 0002:00010620       __unwindtable$?H3GameMainSetup__LoadObjects@ObjectsExtender@extender@@CGXPAVHiHook@@PBUH3MainSetup@h3@@@Z 10059620     ObjectsExtender.obj
 0002:000106c8       __ehfuncinfo$?LoadMapObjectPropertiesFromLoadedMods@ObjectsExtender@extender@@CAXXZ 100596c8     ObjectsExtender.obj
 0002:000106ec       __unwindtable$?LoadMapObjectPropertiesFromLoadedMods@ObjectsExtender@extender@@CAXXZ 100596ec     ObjectsExtender.obj
 0002:0001070c       __ehfuncinfo$?LoadMapObjectPropertiesByTypeSubtypes@ObjectsExtender@extender@@CAXXZ 1005970c     ObjectsExtender.obj
 0002:00010730       __unwindtable$?LoadMapObjectPropertiesByTypeSubtypes@ObjectsExtender@extender@@CAXXZ 10059730     ObjectsExtender.obj
 0002:00010740       __ehfuncinfo$?LoadObjectsTxt@ObjectsExtender@extender@@CGHPAVLoHook@@PAUHookContext@@@Z 10059740     ObjectsExtender.obj
 0002:00010764       __unwindtable$?LoadObjectsTxt@ObjectsExtender@extender@@CGHPAVLoHook@@PAUHookContext@@@Z 10059764     ObjectsExtender.obj
 0002:00010794       __ehfuncinfo$?CreateRMGObjectGen@ObjectsExtender@extender@@MBEPAUH3RmgObjectGenerator@h3@@ABURMGObjectInfo@@@Z 10059794     ObjectsExtender.obj
 0002:000107b8       __unwindtable$?CreateRMGObjectGen@ObjectsExtender@extender@@MBEPAUH3RmgObjectGenerator@h3@@ABURMGObjectInfo@@@Z 100597b8     ObjectsExtender.obj
 0002:000107c8       __ehfuncinfo$?CreateDefaultH3RmgObjectGenerator@ObjectsExtender@extender@@KAPAUH3RmgObjectGenerator@h3@@ABURMGObjectInfo@@@Z 100597c8     ObjectsExtender.obj
 0002:000107ec       __unwindtable$?CreateDefaultH3RmgObjectGenerator@ObjectsExtender@extender@@KAPAUH3RmgObjectGenerator@h3@@ABURMGObjectInfo@@@Z 100597ec     ObjectsExtender.obj
 0002:000107f4       __ehfuncinfo$?Clear@GeneratedInfo@@QAEXPBUH3RmgRandomMapGenerator@h3@@@Z 100597f4     RMGObjectsEditor.obj
 0002:00010818       __unwindtable$?Clear@GeneratedInfo@@QAEXPBUH3RmgRandomMapGenerator@h3@@@Z 10059818     RMGObjectsEditor.obj
 0002:00010820       __ehfuncinfo$?Assign@GeneratedInfo@@QAEXPBUH3RmgRandomMapGenerator@h3@@AAY0OI@$$CBV?$vector@URMGObjectInfo@@V?$allocator@URMGObjectInfo@@@std@@@std@@@Z 10059820     RMGObjectsEditor.obj
 0002:00010848       __unwindtable$?Assign@GeneratedInfo@@QAEXPBUH3RmgRandomMapGenerator@h3@@AAY0OI@$$CBV?$vector@URMGObjectInfo@@V?$allocator@URMGObjectInfo@@@std@@@std@@@Z 10059848     RMGObjectsEditor.obj
 0002:000108b8       __ehfuncinfo$?GetObjectName@RMGObjectInfo@@SAPBDHH@Z 100598b8     RMGObjectsEditor.obj
 0002:000108dc       __unwindtable$?GetObjectName@RMGObjectInfo@@SAPBDHH@Z 100598dc     RMGObjectsEditor.obj
 0002:000108ec       __ehfuncinfo$?LoadUserProperties@RMGObjectInfo@@SAXPBF@Z 100598ec     RMGObjectsEditor.obj
 0002:00010910       __unwindtable$?LoadUserProperties@RMGObjectInfo@@SAXPBF@Z 10059910     RMGObjectsEditor.obj
 0002:00010920       __ehfuncinfo$?InitDefaultProperties@RMGObjectInfo@@SAXABUObjectLimitsInfo@@PBF@Z 10059920     RMGObjectsEditor.obj
 0002:00010944       __unwindtable$?InitDefaultProperties@RMGObjectInfo@@SAXABUObjectLimitsInfo@@PBF@Z 10059944     RMGObjectsEditor.obj
 0002:00010964       __ehfuncinfo$?WriteToINI@RMGObjectInfo@@QBEHXZ 10059964     RMGObjectsEditor.obj
 0002:00010988       __unwindtable$?WriteToINI@RMGObjectInfo@@QBEHXZ 10059988     RMGObjectsEditor.obj
 0002:00010990       __ehfuncinfo$?GetName@RMGObjectInfo@@QBEPBDXZ 10059990     RMGObjectsEditor.obj
 0002:000109b4       __ehfuncinfo$?RMG__RMGObjGenScroll__CreateObject@RMGObjectsEditor@editor@@CGPAUH3RmgObject@h3@@PAVHiHook@@PAU_RMGObjGenScroll_@@PAUH3RmgObjectPropsRef@4@PAUH3RmgRandomMapGenerator@4@PAUH3RmgZoneGenerator@4@@Z 100599b4     RMGObjectsEditor.obj
 0002:000109d8       __ehfuncinfo$?AfterMapGeneration@RMGObjectsEditor@editor@@AAEXPAUH3RmgRandomMapGenerator@h3@@@Z 100599d8     RMGObjectsEditor.obj
 0002:000109fc       __unwindtable$?AfterMapGeneration@RMGObjectsEditor@editor@@AAEXPAUH3RmgRandomMapGenerator@h3@@@Z 100599fc     RMGObjectsEditor.obj
 0002:00010a04       __ehfuncinfo$?RMG__AfterMapGenerated@RMGObjectsEditor@editor@@CGXPAVHiHook@@PAUH3RmgRandomMapGenerator@h3@@@Z 10059a04     RMGObjectsEditor.obj
 0002:00010a28       __unwindtable$?RMG__AfterMapGenerated@RMGObjectsEditor@editor@@CGXPAVHiHook@@PAUH3RmgRandomMapGenerator@h3@@@Z 10059a28     RMGObjectsEditor.obj
 0002:00010a30       __ehfuncinfo$?RMG__CreateObjectGenerators@RMGObjectsEditor@editor@@CGXPAVHiHook@@PAUH3RmgRandomMapGenerator@h3@@@Z 10059a30     RMGObjectsEditor.obj
 0002:00010a54       __unwindtable$?RMG__CreateObjectGenerators@RMGObjectsEditor@editor@@CGXPAVHiHook@@PAUH3RmgRandomMapGenerator@h3@@@Z 10059a54     RMGObjectsEditor.obj
 0002:00010a5c       __ehfuncinfo$??1RMGObjectsEditor@editor@@EAE@XZ 10059a5c     RMGObjectsEditor.obj
 0002:00010a80       __unwindtable$??1RMGObjectsEditor@editor@@EAE@XZ 10059a80     RMGObjectsEditor.obj
 0002:00010a88       __ehfuncinfo$?InitDefaultProperties@RMGObjectsEditor@editor@@AAEXPBF@Z 10059a88     RMGObjectsEditor.obj
 0002:00010aac       __unwindtable$?InitDefaultProperties@RMGObjectsEditor@editor@@AAEXPBF@Z 10059aac     RMGObjectsEditor.obj
 0002:00010abc       __ehfuncinfo$??0RMGObjectsEditor@editor@@AAE@XZ 10059abc     RMGObjectsEditor.obj
 0002:00010ae0       __unwindtable$??0RMGObjectsEditor@editor@@AAE@XZ 10059ae0     RMGObjectsEditor.obj
 0002:00010af0       __ehfuncinfo$?Init@RMGObjectsEditor@editor@@SAXPBF@Z 10059af0     RMGObjectsEditor.obj
 0002:00010b14       __unwindtable$?Init@RMGObjectsEditor@editor@@SAXPBF@Z 10059b14     RMGObjectsEditor.obj
 0002:00010b24       __ehfuncinfo$?Get@RMGObjectsEditor@editor@@SAAAV12@XZ 10059b24     RMGObjectsEditor.obj
 0002:00010b48       __ehfuncinfo$?GameStart@rmgdlg@@YGXPAVHiHook@@K@Z 10059b48     RMG_SettingsDlg.obj
 0002:00010b6c       __unwindtable$?GameStart@rmgdlg@@YGXPAVHiHook@@K@Z 10059b6c     RMG_SettingsDlg.obj
 0002:00010b84       __ehfuncinfo$?CreateGraphics@rmgdlg@@YAXABU?$H3Vector@PAUH3RmgObjectGenerator@h3@@@h3@@@Z 10059b84     RMG_SettingsDlg.obj
 0002:00010ba8       __unwindtable$?CreateGraphics@rmgdlg@@YAXABU?$H3Vector@PAUH3RmgObjectGenerator@h3@@@h3@@@Z 10059ba8     RMG_SettingsDlg.obj
 0002:00010bb0       __ehfuncinfo$?CreateResizedObjectPcx@rmgdlg@@YAXXZ 10059bb0     RMG_SettingsDlg.obj
 0002:00010bd4       __unwindtable$?CreateResizedObjectPcx@rmgdlg@@YAXXZ 10059bd4     RMG_SettingsDlg.obj
 0002:00010bdc       __ehfuncinfo$?NewScenarioDlg_Create@RMG_SettingsDlg@rmgdlg@@CGXPAVHiHook@@PAUH3SelectScenarioDialog@h3@@K@Z 10059bdc     RMG_SettingsDlg.obj
 0002:00010c00       __unwindtable$?NewScenarioDlg_Create@RMG_SettingsDlg@rmgdlg@@CGXPAVHiHook@@PAUH3SelectScenarioDialog@h3@@K@Z 10059c00     RMG_SettingsDlg.obj
 0002:00010c60       __ehfuncinfo$?SelectScenarioDlgRandomizeProc@rmgdlg@@YIHPAUH3Msg@h3@@@Z 10059c60     RMG_SettingsDlg.obj
 0002:00010c84       __unwindtable$?SelectScenarioDlgRandomizeProc@rmgdlg@@YIHPAUH3Msg@h3@@@Z 10059c84     RMG_SettingsDlg.obj
 0002:00010c94       __ehfuncinfo$?H3SelectScenarioDialog_ShowRandomMapsSettings@RMG_SettingsDlg@rmgdlg@@CGHPAVLoHook@@PAUHookContext@@@Z 10059c94     RMG_SettingsDlg.obj
 0002:00010cb8       __unwindtable$?H3SelectScenarioDialog_ShowRandomMapsSettings@RMG_SettingsDlg@rmgdlg@@CGHPAVLoHook@@PAUHookContext@@@Z 10059cb8     RMG_SettingsDlg.obj
 0002:00010cc8       __ehfuncinfo$?Dlg_SelectScenario_Proc@RMG_SettingsDlg@rmgdlg@@CGHPAVLoHook@@PAUHookContext@@@Z 10059cc8     RMG_SettingsDlg.obj
 0002:00010cec       __unwindtable$?Dlg_SelectScenario_Proc@RMG_SettingsDlg@rmgdlg@@CGHPAVLoHook@@PAUHookContext@@@Z 10059cec     RMG_SettingsDlg.obj
 0002:00010d04       __ehfuncinfo$?GetObjectPrototypesLists@rmgdlg@@YAXXZ 10059d04     RMG_SettingsDlg.obj
 0002:00010d28       __unwindtable$?GetObjectPrototypesLists@rmgdlg@@YAXXZ 10059d28     RMG_SettingsDlg.obj
 0002:00010d70       __ehfuncinfo$?FindDataInObjectGeneratorsList@rmgdlg@@YAXAAV?$vector@U?$pair@UH3ObjectAttributes@h3@@PAUH3LoadedPcx16@2@@std@@V?$allocator@U?$pair@UH3ObjectAttributes@h3@@PAUH3LoadedPcx16@2@@std@@@2@@std@@@Z 10059d70     RMG_SettingsDlg.obj
 0002:00010d94       __unwindtable$?FindDataInObjectGeneratorsList@rmgdlg@@YAXAAV?$vector@U?$pair@UH3ObjectAttributes@h3@@PAUH3LoadedPcx16@2@@std@@V?$allocator@U?$pair@UH3ObjectAttributes@h3@@PAUH3LoadedPcx16@2@@std@@@2@@std@@@Z 10059d94     RMG_SettingsDlg.obj
 0002:00010d9c       __ehfuncinfo$?GetObjectPrototypesByTypes@rmgdlg@@YAXAAV?$vector@U?$pair@UH3ObjectAttributes@h3@@PAUH3LoadedPcx16@2@@std@@V?$allocator@U?$pair@UH3ObjectAttributes@h3@@PAUH3LoadedPcx16@2@@std@@@2@@std@@PBHI@Z 10059d9c     RMG_SettingsDlg.obj
 0002:00010dc0       __unwindtable$?GetObjectPrototypesByTypes@rmgdlg@@YAXAAV?$vector@U?$pair@UH3ObjectAttributes@h3@@PAUH3LoadedPcx16@2@@std@@V?$allocator@U?$pair@UH3ObjectAttributes@h3@@PAUH3LoadedPcx16@2@@std@@@2@@std@@PBHI@Z 10059dc0     RMG_SettingsDlg.obj
 0002:00010dd8       __ehfuncinfo$??0PageHeader@ObjectsPage@RMG_SettingsDlg@rmgdlg@@QAE@HHHHH@Z 10059dd8     RMG_SettingsDlg.obj
 0002:00010e00       __unwindtable$??0PageHeader@ObjectsPage@RMG_SettingsDlg@rmgdlg@@QAE@HHHHH@Z 10059e00     RMG_SettingsDlg.obj
 0002:00010ea0       __ehfuncinfo$??0RMGObject@rmgdlg@@QAE@ABUH3ObjectAttributes@h3@@PAUH3LoadedPcx16@3@@Z 10059ea0     RMG_SettingsDlg.obj
 0002:00010ec4       __unwindtable$??0RMGObject@rmgdlg@@QAE@ABUH3ObjectAttributes@h3@@PAUH3LoadedPcx16@3@@Z 10059ec4     RMG_SettingsDlg.obj
 0002:00010ed4       __ehfuncinfo$?SetActivePage@RMG_SettingsDlg@rmgdlg@@AAEHPAUPage@12@@Z 10059ed4     RMG_SettingsDlg.obj
 0002:00010ef8       __unwindtable$?SetActivePage@RMG_SettingsDlg@rmgdlg@@AAEHPAUPage@12@@Z 10059ef8     RMG_SettingsDlg.obj
 0002:00010f00       __ehfuncinfo$?ShowObjectExtendedInfo@BanksPage@RMG_SettingsDlg@rmgdlg@@UBEHPBUObjectsPanel@23@ABUH3Msg@h3@@@Z 10059f00     RMG_SettingsDlg.obj
 0002:00010f24       __unwindtable$?ShowObjectExtendedInfo@BanksPage@RMG_SettingsDlg@rmgdlg@@UBEHPBUObjectsPanel@23@ABUH3Msg@h3@@@Z 10059f24     RMG_SettingsDlg.obj
 0002:00010f2c       __ehfuncinfo$?ShowObjectExtendedInfo@ObjectsPage@RMG_SettingsDlg@rmgdlg@@MBEHPBUObjectsPanel@23@ABUH3Msg@h3@@@Z 10059f2c     RMG_SettingsDlg.obj
 0002:00010f50       __unwindtable$?ShowObjectExtendedInfo@ObjectsPage@RMG_SettingsDlg@rmgdlg@@MBEHPBUObjectsPanel@23@ABUH3Msg@h3@@@Z 10059f50     RMG_SettingsDlg.obj
 0002:00010f78       __ehfuncinfo$?FillObjects@ObjectsPage@RMG_SettingsDlg@rmgdlg@@MAEXH@Z 10059f78     RMG_SettingsDlg.obj
 0002:00010f9c       __unwindtable$?FillObjects@ObjectsPage@RMG_SettingsDlg@rmgdlg@@MAEXH@Z 10059f9c     RMG_SettingsDlg.obj
 0002:00010fac       __ehfuncinfo$??0ObjectsPage@RMG_SettingsDlg@rmgdlg@@QAE@PAUH3DlgCaptionButton@h3@@ABV?$vector@U?$pair@UH3ObjectAttributes@h3@@PAUH3LoadedPcx16@2@@std@@V?$allocator@U?$pair@UH3ObjectAttributes@h3@@PAUH3LoadedPcx16@2@@std@@@2@@std@@H@Z 10059fac     RMG_SettingsDlg.obj
 0002:00010fd0       __unwindtable$??0ObjectsPage@RMG_SettingsDlg@rmgdlg@@QAE@PAUH3DlgCaptionButton@h3@@ABV?$vector@U?$pair@UH3ObjectAttributes@h3@@PAUH3LoadedPcx16@2@@std@@V?$allocator@U?$pair@UH3ObjectAttributes@h3@@PAUH3LoadedPcx16@2@@std@@@2@@std@@H@Z 10059fd0     RMG_SettingsDlg.obj
 0002:00011010       __ehfuncinfo$??1RMG_SettingsDlg@rmgdlg@@EAE@XZ 1005a010     RMG_SettingsDlg.obj
 0002:00011034       __unwindtable$??1RMG_SettingsDlg@rmgdlg@@EAE@XZ 1005a034     RMG_SettingsDlg.obj
 0002:00011044       __ehfuncinfo$?PanelInfoToObjectInfo@ObjectsPanel@RMG_SettingsDlg@rmgdlg@@QAEXXZ 1005a044     RMG_SettingsDlg.obj
 0002:00011068       __ehfuncinfo$?ObjectInfoToPanelInfo@ObjectsPanel@RMG_SettingsDlg@rmgdlg@@QAEXXZ 1005a068     RMG_SettingsDlg.obj
 0002:0001108c       __ehfuncinfo$?SetObject@ObjectsPanel@RMG_SettingsDlg@rmgdlg@@QAEXPAVRMGObject@3@@Z 1005a08c     RMG_SettingsDlg.obj
 0002:000110b0       __unwindtable$?SetObject@ObjectsPanel@RMG_SettingsDlg@rmgdlg@@QAEXPAVRMGObject@3@@Z 1005a0b0     RMG_SettingsDlg.obj
 0002:000110b8       __ehfuncinfo$??0ObjectsPanel@RMG_SettingsDlg@rmgdlg@@QAE@HHPAUPage@12@@Z 1005a0b8     RMG_SettingsDlg.obj
 0002:000110e0       __unwindtable$??0ObjectsPanel@RMG_SettingsDlg@rmgdlg@@QAE@HHPAUPage@12@@Z 1005a0e0     RMG_SettingsDlg.obj
 0002:00011150       __ehfuncinfo$?CreateHorizontalScrollBar@ObjectsPage@RMG_SettingsDlg@rmgdlg@@IAEXXZ 1005a150     RMG_SettingsDlg.obj
 0002:00011174       __unwindtable$?CreateHorizontalScrollBar@ObjectsPage@RMG_SettingsDlg@rmgdlg@@IAEXXZ 1005a174     RMG_SettingsDlg.obj
 0002:0001117c       __ehfuncinfo$?CreateVerticalScrollBar@ObjectsPage@RMG_SettingsDlg@rmgdlg@@IAEXXZ 1005a17c     RMG_SettingsDlg.obj
 0002:000111a0       __unwindtable$?CreateVerticalScrollBar@ObjectsPage@RMG_SettingsDlg@rmgdlg@@IAEXXZ 1005a1a0     RMG_SettingsDlg.obj
 0002:000111a8       __ehfuncinfo$?SaveRMGObjectsInfo@RMG_SettingsDlg@rmgdlg@@ABEHH@Z 1005a1a8     RMG_SettingsDlg.obj
 0002:000111cc       __ehfuncinfo$?WriteIniDlgSettings@RMG_SettingsDlg@rmgdlg@@ABEHXZ 1005a1cc     RMG_SettingsDlg.obj
 0002:000111f0       __ehfuncinfo$?ReadIniDlgSettings@RMG_SettingsDlg@rmgdlg@@AAEHXZ 1005a1f0     RMG_SettingsDlg.obj
 0002:00011214       __ehfuncinfo$?OnOK@RMG_SettingsDlg@rmgdlg@@EAEXXZ 1005a214     RMG_SettingsDlg.obj
 0002:00011238       __unwindtable$?OnOK@RMG_SettingsDlg@rmgdlg@@EAEXXZ 1005a238     RMG_SettingsDlg.obj
 0002:00011248       __ehfuncinfo$?RemoveEditsFocus@RMG_SettingsDlg@rmgdlg@@ABEHH@Z 1005a248     RMG_SettingsDlg.obj
 0002:0001126c       __ehfuncinfo$?OnHelp@RMG_SettingsDlg@rmgdlg@@ABEXXZ 1005a26c     RMG_SettingsDlg.obj
 0002:00011290       __unwindtable$?OnHelp@RMG_SettingsDlg@rmgdlg@@ABEXXZ 1005a290     RMG_SettingsDlg.obj
 0002:000112b8       __ehfuncinfo$??0RMG_SettingsDlg@rmgdlg@@QAE@HHHH@Z 1005a2b8     RMG_SettingsDlg.obj
 0002:000112e0       __unwindtable$??0RMG_SettingsDlg@rmgdlg@@QAE@HHHH@Z 1005a2e0     RMG_SettingsDlg.obj
 0002:000113b8       __ehfuncinfo$??R<lambda_1>@?1??SortRmgObjects@sorting@rmgdlg@@YAXAAV?$vector@VRMGObject@rmgdlg@@V?$allocator@VRMGObject@rmgdlg@@@std@@@std@@W4eSorting@23@_N@Z@QBE_NABVRMGObject@3@3@Z 1005a3b8     RMG_SettingsDlg.obj
 0002:000113e0       __unwindtable$??R<lambda_1>@?1??SortRmgObjects@sorting@rmgdlg@@YAXAAV?$vector@VRMGObject@rmgdlg@@V?$allocator@VRMGObject@rmgdlg@@@std@@@std@@W4eSorting@23@_N@Z@QBE_NABVRMGObject@3@3@Z 1005a3e0     RMG_SettingsDlg.obj
 0002:00011490       __ehfuncinfo$?H3AdventureManager__ObjectVisit_SoundPlay@SoundManager@sound@@CGHPAVLoHook@@PAUHookContext@@@Z 1005a490     SoundManager.obj
 0002:000114b4       __unwindtable$?H3AdventureManager__ObjectVisit_SoundPlay@SoundManager@sound@@CGHPAVLoHook@@PAUHookContext@@@Z 1005a4b4     SoundManager.obj
 0002:000114ec       __ehfuncinfo$?CreateNewLoopSoundsTable@SoundManager@sound@@AAEXABV?$vector@UObjectSound@SoundManager@sound@@V?$allocator@UObjectSound@SoundManager@sound@@@std@@@std@@@Z 1005a4ec     SoundManager.obj
 0002:00011510       __unwindtable$?CreateNewLoopSoundsTable@SoundManager@sound@@AAEXABV?$vector@UObjectSound@SoundManager@sound@@V?$allocator@UObjectSound@SoundManager@sound@@@std@@@std@@@Z 1005a510     SoundManager.obj
 0002:00011540       __sehtable$___RTDynamicCast 1005a540     libvcruntime:rtti.obj
 0002:000115c0       .edata                     1005a5c0     RMG_CustomizeObjectProperties.exp
 0002:000115e8       rgpv                       1005a5e8     RMG_CustomizeObjectProperties.exp
 0002:000115ec       rgszName                   1005a5ec     RMG_CustomizeObjectProperties.exp
 0002:000115f0       rgwOrd                     1005a5f0     RMG_CustomizeObjectProperties.exp
 0002:000115f2       szName                     1005a5f2     RMG_CustomizeObjectProperties.exp
 0002:00011614       $N00001                    1005a614     RMG_CustomizeObjectProperties.exp
 0002:0001181c       .idata$6                   1005a81c     kernel32:KERNEL32.dll
 0003:00000000       ?init@std@@3JA             1005b000     libcpmt:xlock.obj
 0003:00000010       ?_Thread_exit_data_mutex@?A0x7f1b0160@@3Vmutex@std@@A 1005b010     libcpmt:xnotify.obj
 0003:00000040       ?atcount_cdecl@@3IA        1005b040     libcpmt:iosptrs.obj
 0003:000000e0       ?__vcrt_flsindex@@3KA      1005b0e0     libvcruntime:per_thread_data.obj
 0003:0000010c       ?errno_no_memory@@3HA      1005b10c     libucrt:errno.obj
 0003:00000110       ?doserrno_no_memory@@3KA   1005b110     libucrt:errno.obj
 0003:00000230       ?__acrt_flsindex@@3KA      1005b230     libucrt:per_thread_data.obj
 0003:00000234       __ctype_loc_style          1005b234     libucrt:wsetlocale.obj
 0003:00000304       ?__DAZ_ENABLED@?1??__set_fpsr_sse2@@9@9 1005b304     libucrt:fpctrl.obj
 0003:00000308       ?tzstd_program@@3PADA      1005b308     libucrt:timeset.obj
 0003:00000348       ?tzdst_program@@3PADA      1005b348     libucrt:timeset.obj
 0003:00000388       ?w_tzstd_program@@3PA_WA   1005b388     libucrt:timeset.obj
 0003:00000408       ?w_tzdst_program@@3PA_WA   1005b408     libucrt:timeset.obj
 0003:00000488       ?tzname_states@@3PAY01PADA 1005b488     libucrt:timeset.obj
 0003:00000490       ?w_tzname_states@@3PAY01PA_WA 1005b490     libucrt:timeset.obj
 0003:000006b8       __mbctypes                 1005b6b8     libucrt:mbctype.obj
 0003:000007c0       __mbcasemaps               1005b7c0     libucrt:mbctype.obj
 0003:000008c0       ?__rgctypeflag@@3PADA      1005b8c0     libucrt:mbctype.obj
 0003:000008c8       ?__rgcode_page_info@@3PAUcode_page_info@@A 1005b8c8     libucrt:mbctype.obj
 0003:00000ac0       ?__dcrt_lowio_console_output_handle@@3PAXA 1005bac0     libucrt:initcon.obj
 0003:00000b20       ?firstLaunch@?7??SelectScenarioDlgRandomizeProc@rmgdlg@@YIHPAUH3Msg@h3@@@Z@4_NA 1005bb20     RMG_SettingsDlg.obj
 0003:00001580       ?initlocks@std@@3V_Init_locks@1@A 1005c580     libcpmt:xlock.obj
 0003:00001588       ?mtx@std@@3PAU_RTL_CRITICAL_SECTION@@A 1005c588     libcpmt:xlock.obj
 0003:00001664       ?classic_locale@std@@3Vlocale@1@A 1005c664     libcpmt:locale0.obj
 0003:0000166c       ?_Fac_head@std@@3PAU_Fac_node@1@A 1005c66c     libcpmt:locale0.obj
 0003:00001670       ?_Fac_tidy_reg@std@@3U_Fac_tidy_reg_t@1@B 1005c670     libcpmt:locale0.obj
 0003:00001674       _global_locale             1005c674     libcpmt:locale0.obj
 0003:00001678       ?registered@?1??_Setgloballocale@locale@std@@CAXPAX@Z@4_NA 1005c678     libcpmt:locale0.obj
 0003:00001680       ?stdstr@std@@3PAPAVios_base@1@A 1005c680     libcpmt:ios.obj
 0003:000016a8       ?stdopens@std@@3PADA       1005c6a8     libcpmt:ios.obj
 0003:000016b8       ?_Thread_exit_data@?A0x7f1b0160@@3U_At_thread_exit_block@1@A 1005c6b8     libcpmt:xnotify.obj
 0003:00001880       ?initlocks@std@@3V_Init_locks@1@A 1005c880     libcpmt:iosptrs.obj
 0003:00001881       ?init_atexit@@3U_Init_atexit@@A 1005c881     libcpmt:iosptrs.obj
 0003:00001884       ?atfuns_cdecl@@3PAP6AXXZA  1005c884     libcpmt:iosptrs.obj
 0003:00001924       ?__KERNEL32Function_GetSystemTimePreciseAsFileTime@?A0x995b63b9@@3P6GXPAU_FILETIME@@@ZA 1005c924     libcpmt:winapisupp.obj
 0003:00001928       ?__KERNEL32Function_GetTempPath2W@?A0x995b63b9@@3P6GKKPA_W@ZA 1005c928     libcpmt:winapisupp.obj
 0003:0000192c       ?g_tss_cv@@3U_RTL_CONDITION_VARIABLE@@A 1005c92c     LIBCMT:thread_safe_statics.obj
 0003:00001930       ?g_tss_srw@@3U_RTL_SRWLOCK@@A 1005c930     LIBCMT:thread_safe_statics.obj
 0003:0000193c       ?is_initialized_as_dll@@3_NA 1005c93c     LIBCMT:utility.obj
 0003:0000193d       ?module_local_atexit_table_initialized@@3_NA 1005c93d     LIBCMT:utility.obj
 0003:00001940       ?module_local_atexit_table@@3U_onexit_table_t@@A 1005c940     LIBCMT:utility.obj
 0003:0000194c       ?module_local_at_quick_exit_table@@3U_onexit_table_t@@A 1005c94c     LIBCMT:utility.obj
 0003:00001958       ?__proc_attached@@3HA      1005c958     LIBCMT:dll_dllmain.obj
 0003:00001980       _GS_ExceptionRecord        1005c980     LIBCMT:gs_report.obj
 0003:000019d0       _GS_ContextRecord          1005c9d0     LIBCMT:gs_report.obj
 0003:00001ca0       ?__vcrt_startup_thread_ptd@@3U__vcrt_ptd@@A 1005cca0     libvcruntime:per_thread_data.obj
 0003:00001ccc       ___vcrt_lock_table         1005cccc     libvcruntime:locks.obj
 0003:00001ce4       ___vcrt_locks_initialized  1005cce4     libvcruntime:locks.obj
 0003:00001d10       ?heap@@3V_HeapManager@@A   1005cd10     libvcruntime:undname.obj
 0003:00001d24       ?module_handles@@3PAPAUHINSTANCE__@@A 1005cd24     libvcruntime:winapi_downlevel.obj
 0003:00001d30       ?function_pointers@@3PAPAXA 1005cd30     libvcruntime:winapi_downlevel.obj
 0003:00001d44       ?__acrt_invalid_parameter_handler@@3V?$dual_state_global@P6AXPB_W00II@Z@__crt_state_management@@A 1005cd44     libucrt:invalid_parameter.obj
 0003:00001d48       ?__acrt_lock_table@@3PAU_RTL_CRITICAL_SECTION@@A 1005cd48     libucrt:locks.obj
 0003:00001e98       ?__acrt_locks_initialized@@3IA 1005ce98     libucrt:locks.obj
 0003:00001eac       ?c_termination_complete@@3JA 1005ceac     libucrt:exit.obj
 0003:00001eb0       ?thread_local_exit_callback_func@@3P6GXPAXK0@ZA 1005ceb0     libucrt:exit.obj
 0003:00001eb8       ?program_name@?1???$common_configure_argv@D@@YAHW4_crt_argv_mode@@@Z@4PADA 1005ceb8     libucrt:argv_parsing.obj
 0003:00001fe8       ?internal_state@?1??_mbtowc_l@@9@4U_Mbstatet@@A 1005cfe8     libucrt:mbtowc.obj
 0003:00001ff0       ?enable_percent_n@@3IA     1005cff0     libucrt:printf_count_output.obj
 0003:00002210       ?module_handles@@3PAPAUHINSTANCE__@@A 1005d210     libucrt:winapi_thunks.obj
 0003:00002260       ?encoded_function_pointers@@3PAPAXA 1005d260     libucrt:winapi_thunks.obj
 0003:000022e8       ?static_enum_proc@?1??enum_system_locales_ex_nolock@@YAHQ6GHPA_WKJ@Z@Z@4P6GH0KJ@ZA 1005d2e8     libucrt:winapi_thunks.obj
 0003:000022ec       ?state_cache@?1???$get_cached_win_policy@Ubegin_thread_init_policy_properties@?1??__acrt_get_begin_thread_init_policy@@YA?AW4begin_thread_init_policy@@XZ@@@YA?AW4begin_thread_init_policy@@W4AppPolicyThreadInitializationType@@@Z@4JA 1005d2ec     libucrt:win_policies.obj
 0003:000022f0       ?ctrlc_action@@3V?$dual_state_global@P6AXH@Z@__crt_state_management@@A 1005d2f0     libucrt:signal.obj
 0003:000022f4       ?ctrlbreak_action@@3V?$dual_state_global@P6AXH@Z@__crt_state_management@@A 1005d2f4     libucrt:signal.obj
 0003:000022f8       ?abort_action@@3V?$dual_state_global@P6AXH@Z@__crt_state_management@@A 1005d2f8     libucrt:signal.obj
 0003:000022fc       ?term_action@@3V?$dual_state_global@P6AXH@Z@__crt_state_management@@A 1005d2fc     libucrt:signal.obj
 0003:0000230c       ?_tzname@@3V?$dual_state_global@PAPAD@__crt_state_management@@A 1005d30c     libucrt:timeset.obj
 0003:00002310       ?w_tzname@@3V?$dual_state_global@PAPA_W@__crt_state_management@@A 1005d310     libucrt:timeset.obj
 0003:00002318       ?tz_api_used@@3HA          1005d318     libucrt:tzset.obj
 0003:0000231c       ?tzset_init_state@@3V?$dual_state_global@J@__crt_state_management@@A 1005d31c     libucrt:tzset.obj
 0003:00002320       ?tz_info@@3U_TIME_ZONE_INFORMATION@@A 1005d320     libucrt:tzset.obj
 0003:000023d8       ?fSystemSet@@3HA           1005d3d8     libucrt:mbctype.obj
 0003:000023dc       ?initialized@?1??__acrt_initialize_multibyte@@9@4_NA 1005d3dc     libucrt:mbctype.obj
 0003:000023fc       ?__acrt_new_handler@@3V?$dual_state_global@P6AHI@Z@__crt_state_management@@A 1005d3fc     libucrt:new_handler.obj
 0003:00002400       ?user_matherr@@3V?$dual_state_global@P6AHPAU_exception@@@Z@__crt_state_management@@A 1005d400     libucrt:matherr.obj
 0003:00002404       ?__acrt_global_new_mode@@3V?$dual_state_global@J@__crt_state_management@@A 1005d404     libucrt:new_mode.obj
 0003:00002408       ?internal_pst@?1??__mbrtoc32_utf8@__crt_mbstring@@YAIPA_UPBDIPAU_Mbstatet@@@Z@4U3@A 1005d408     libucrt:mbrtoc32.obj
 0003:00002410       ?__acrt_app_type@@3W4_crt_app_type@@A 1005d410     libucrt:report_runtime_error.obj
 0003:00002414       ?internal_pst@?1??__c16rtomb_utf8@__crt_mbstring@@YAIPAD_SPAU_Mbstatet@@@Z@4U3@A 1005d414     libucrt:c16rtomb.obj
 0003:00002420       __pmatherr_set             1005d420     libucrt:libm_error.obj
 0003:00003f80       ?plugin_On@?1??DllMain@@9@12@4HA 1005ef80     dllmain.obj
 0003:00003f88       ?assetsCreated@?1??GameStart@rmgdlg@@YGXPAVHiHook@@K@Z@4_NA 1005ef88     RMG_SettingsDlg.obj
 0003:00003f8c       ?_instance@?1??Get@AncientLampExtender@ancientLamp@@SAAAV23@XZ@4V23@A 1005ef8c     AncientLampExtender.obj
 0003:00003f9c       ?$TSS0@?1??Get@AncientLampExtender@ancientLamp@@SAAAV23@XZ@4HA 1005ef9c     AncientLampExtender.obj
 0003:00003fa0       ?_instance@?1??Get@ColosseumOfTheMagiExtender@colosseumOfTheMagi@@SAAAV23@XZ@4V23@A 1005efa0     ColosseumOfTheMagiExtender.obj
 0003:00003fb0       ?$TSS0@?1??Get@ColosseumOfTheMagiExtender@colosseumOfTheMagi@@SAAAV23@XZ@4HA 1005efb0     ColosseumOfTheMagiExtender.obj
 0003:00003fb4       ?$TSS0@?1??Get@CreatureBanksExtender@cbanks@@SAAAV23@XZ@4HA 1005efb4     CreatureBanksExtender.obj
 0003:00003fb8       ?_instance@?1??Get@CreatureBanksExtender@cbanks@@SAAAV23@XZ@4V23@A 1005efb8     CreatureBanksExtender.obj
 0003:00004028       ?$TSS0@?1??Get@DreamTeacherExtender@dreamTeacher@@SAAAV23@XZ@4HA 1005f028     DreamTeacherExtender.obj
 0003:0000402c       ?_instance@?1??Get@DreamTeacherExtender@dreamTeacher@@SAAAV23@XZ@4V23@A 1005f02c     DreamTeacherExtender.obj
 0003:0000403c       ?$TSS0@?1??Get@GazeboExtender@gazebo@@SAAAV23@XZ@4HA 1005f03c     GazeboExtender.obj
 0003:00004040       ?_instance@?1??Get@GazeboExtender@gazebo@@SAAAV23@XZ@4V23@A 1005f040     GazeboExtender.obj
 0003:00004050       ?$TSS0@?1??Get@GraveExtender@grave@@SAAAV23@XZ@4HA 1005f050     GraveExtender.obj
 0003:00004054       ?_instance@?1??Get@GraveExtender@grave@@SAAAV23@XZ@4V23@A 1005f054     GraveExtender.obj
 0003:00004064       ?$TSS0@?1??Get@HermitsShackExtender@hermitsShack@@SAAAV23@XZ@4HA 1005f064     HermitsShackExtender.obj
 0003:00004068       ?_instance@?1??Get@HermitsShackExtender@hermitsShack@@SAAAV23@XZ@4V23@A 1005f068     HermitsShackExtender.obj
 0003:00004078       ?$TSS0@?1??Get@HillFortExtender@hillFort@@SAAAV23@XZ@4HA 1005f078     HillFortExtender.obj
 0003:0000407c       ?_instance@?1??Get@HillFortExtender@hillFort@@SAAAV23@XZ@4V23@A 1005f07c     HillFortExtender.obj
 0003:0000408c       ?$TSS0@?1??Get@JunkmanExtender@junkman@@SAAAV23@XZ@4HA 1005f08c     JunkmanExtender.obj
 0003:00004090       ?_instance@?1??Get@JunkmanExtender@junkman@@SAAAV23@XZ@4V23@A 1005f090     JunkmanExtender.obj
 0003:000040a0       ?$TSS0@?1??Get@MineralSpringExtender@mineralSpring@@SAAAV23@XZ@4HA 1005f0a0     MineralSpringExtender.obj
 0003:000040a4       ?_instance@?1??Get@MineralSpringExtender@mineralSpring@@SAAAV23@XZ@4V23@A 1005f0a4     MineralSpringExtender.obj
 0003:000040b4       ?$TSS0@?1??Get@ObservatoryExtender@observatory@@SAAAV23@XZ@4HA 1005f0b4     ObservatoryExtender.obj
 0003:000040b8       ?_instance@?1??Get@ObservatoryExtender@observatory@@SAAAV23@XZ@4V23@A 1005f0b8     ObservatoryExtender.obj
 0003:000040c8       ?$TSS0@?1??Get@ShrinesExternder@shrines@@SAAAV23@XZ@4HA 1005f0c8     ShrinesExternder.obj
 0003:000040cc       ?_instance@?1??Get@ShrinesExternder@shrines@@SAAAV23@XZ@4V23@A 1005f0cc     ShrinesExternder.obj
 0003:000040dc       ?_instance@?1??Get@SkeletonTransformerExtender@skeletonTransformer@@SAAAV23@XZ@4V23@A 1005f0dc     SkeletonTransformerExtender.obj
 0003:000040ec       ?$TSS0@?1??Get@SkeletonTransformerExtender@skeletonTransformer@@SAAAV23@XZ@4HA 1005f0ec     SkeletonTransformerExtender.obj
 0003:000040f0       ?$TSS0@?1??Get@TempleOfLoyaltyExtender@templeOfLoyalty@@SAAAV23@XZ@4HA 1005f0f0     TempleOfLoyaltyExtender.obj
 0003:000040f4       ?_instance@?1??Get@TempleOfLoyaltyExtender@templeOfLoyalty@@SAAAV23@XZ@4V23@A 1005f0f4     TempleOfLoyaltyExtender.obj
 0003:00004104       ?$TSS0@?1??Get@TrailblazerExtender@trailblazer@@SAAAV23@XZ@4HA 1005f104     TrailblazerExtender.obj
 0003:00004108       ?_instance@?1??Get@TrailblazerExtender@trailblazer@@SAAAV23@XZ@4V23@A 1005f108     TrailblazerExtender.obj
 0003:00004118       ?$TSS0@?1??Get@UniversityExtender@university@@SAAAV23@XZ@4HA 1005f118     UniversityExtender.obj
 0003:0000411c       ?_instance@?1??Get@UniversityExtender@university@@SAAAV23@XZ@4V23@A 1005f11c     UniversityExtender.obj
 0003:00004138       ?_instance@?1??Get@WarehousesExtender@warehouses@@SAAAV23@XZ@4V23@A 1005f138     WarehousesExtender.obj
 0003:00004148       ?$TSS0@?1??Get@WarehousesExtender@warehouses@@SAAAV23@XZ@4HA 1005f148     WarehousesExtender.obj
 0003:0000414c       ?$TSS0@?1??Get@WateringPlaceExtender@wateringPlace@@SAAAV23@XZ@4HA 1005f14c     WateringPlaceExtender.obj
 0003:00004150       ?_instance@?1??Get@WateringPlaceExtender@wateringPlace@@SAAAV23@XZ@4V23@A 1005f150     WateringPlaceExtender.obj
 0003:00004160       ?_instance@?1??Get@WoGObjectsExtender@wog@@SAAAV23@XZ@4V23@A 1005f160     WoGObjectsExtender.obj
 0003:00004170       ?$TSS0@?1??Get@WoGObjectsExtender@wog@@SAAAV23@XZ@4HA 1005f170     WoGObjectsExtender.obj
 0003:00004174       ?words@?1??GetMapKey@ObjectProperty@extender@@SA?AV?$basic_string@DU?$char_traits@D@std@@V?$allocator@D@2@@std@@PBD@Z@4V?$vector@V?$basic_string@DU?$char_traits@D@std@@V?$allocator@D@2@@std@@V?$allocator@V?$basic_string@DU?$char_traits@D@std@@V?$allocator@D@2@@std@@@2@@5@A 1005f174     ObjectsExtender.obj
 0003:00004180       ?$TSS0@?1??GetMapKey@ObjectProperty@extender@@SA?AV?$basic_string@DU?$char_traits@D@std@@V?$allocator@D@2@@std@@PBD@Z@4HA 1005f180     ObjectsExtender.obj
 0003:00004190       ?instance@?1??Get@RMGObjectsEditor@editor@@SAAAV23@XZ@4V23@A 1005f190     RMGObjectsEditor.obj
 0003:00005b28       ?$TSS0@?1??Get@RMGObjectsEditor@editor@@SAAAV23@XZ@4HA 10060b28     RMGObjectsEditor.obj
 0004:00000060       $R000000                   10061060     * linker generated manifest res *
