 RMG_CustomizeObjectProperties

 Timestamp is 6776db9f (Thu Jan  2 21:31:59 2025)

 Preferred load address is 10000000

 Start         Length     Name                   Class
 0001:00000000 00000b20H .text$di                CODE
 0001:00000b20 00026920H .text$mn                CODE
 0001:00027440 00000da0H .text$x                 CODE
 0001:000281e0 0000029cH .text$yd                CODE
 0002:00000000 00000130H .idata$5                DATA
 0002:00000130 00000008H .00cfg                  DATA
 0002:00000138 00000004H .CRT$XCA                DATA
 0002:0000013c 00000154H .CRT$XCU                DATA
 0002:00000290 00000004H .CRT$XCZ                DATA
 0002:00000294 00000004H .CRT$XIA                DATA
 0002:00000298 00000010H .CRT$XIC                DATA
 0002:000002a8 00000004H .CRT$XIZ                DATA
 0002:000002ac 00000004H .CRT$XLA                DATA
 0002:000002b0 00000004H .CRT$XLZ                DATA
 0002:000002b4 00000004H .CRT$XPA                DATA
 0002:000002b8 00000008H .CRT$XPX                DATA
 0002:000002c0 00000004H .CRT$XPXA               DATA
 0002:000002c4 00000004H .CRT$XPZ                DATA
 0002:000002c8 00000004H .CRT$XTA                DATA
 0002:000002cc 00000014H .CRT$XTZ                DATA
 0002:000002d0 00000000H .gfids$y                DATA
 0002:000002e0 000080e0H .rdata                  DATA
 0002:000083c0 00000000H .rdata$CastGuardVftablesA DATA
 0002:000083c0 00000000H .rdata$CastGuardVftablesC DATA
 0002:000083c0 00000018H .rdata$T                DATA
 0002:000083d8 000009fcH .rdata$r                DATA
 0002:00008dd4 000001d4H .rdata$sxdata           DATA
 0002:00008fa8 000000e8H .rdata$voltmd           DATA
 0002:00009090 00000400H .rdata$zzzdbg           DATA
 0002:00009490 00000004H .rtc$IAA                DATA
 0002:00009494 00000004H .rtc$IZZ                DATA
 0002:00009498 00000004H .rtc$TAA                DATA
 0002:0000949c 00000004H .rtc$TZZ                DATA
 0002:000094a0 00000004H .tls                    DATA
 0002:000094a4 00000004H .tls$                   DATA
 0002:000094a8 00000008H .tls$ZZZ                DATA
 0002:000094b0 00002cc0H .xdata$x                DATA
 0002:0000c170 00000080H .edata                  DATA
 0002:0000c1f0 00000014H .idata$2                DATA
 0002:0000c204 00000014H .idata$3                DATA
 0002:0000c218 00000130H .idata$4                DATA
 0002:0000c348 000005acH .idata$6                DATA
 0003:00000000 00000900H .data                   DATA
 0003:00000900 00000224H .data$r                 DATA
 0003:00000b24 000002bcH .data$rs                DATA
 0003:00000de0 000025fcH .bss                    DATA
 0004:00000000 00000060H .rsrc$01                DATA
 0004:00000060 00000098H .rsrc$02                DATA

  Address         Publics by Value              Rva+Base       Lib:Object

 0000:00000000       ___AbsoluteZero            00000000     <absolute>
 0000:00000000       ___arm64x_extra_rfe_table  00000000     <absolute>
 0000:00000000       ___arm64x_extra_rfe_table_size 00000000     <absolute>
 0000:00000000       ___arm64x_native_entrypoint 00000000     <absolute>
 0000:00000000       ___arm64x_redirection_metadata 00000000     <absolute>
 0000:00000000       ___arm64x_redirection_metadata_count 00000000     <absolute>
 0000:00000000       ___dynamic_value_reloc_table 00000000     <absolute>
 0000:00000000       ___enclave_config          00000000     <absolute>
 0000:00000000       ___guard_check_icall_a64n_fptr 00000000     <absolute>
 0000:00000000       ___guard_eh_cont_count     00000000     <absolute>
 0000:00000000       ___guard_eh_cont_table     00000000     <absolute>
 0000:00000000       ___guard_fids_count        00000000     <absolute>
 0000:00000000       ___guard_fids_table        00000000     <absolute>
 0000:00000000       ___guard_iat_count         00000000     <absolute>
 0000:00000000       ___guard_iat_table         00000000     <absolute>
 0000:00000000       ___guard_longjmp_count     00000000     <absolute>
 0000:00000000       ___guard_longjmp_table     00000000     <absolute>
 0000:00000000       ___hybrid_auxiliary_delayload_iat 00000000     <absolute>
 0000:00000000       ___hybrid_auxiliary_delayload_iat_copy 00000000     <absolute>
 0000:00000000       ___hybrid_auxiliary_iat    00000000     <absolute>
 0000:00000000       ___hybrid_auxiliary_iat_copy 00000000     <absolute>
 0000:00000000       ___hybrid_code_map         00000000     <absolute>
 0000:00000000       ___hybrid_code_map_count   00000000     <absolute>
 0000:00000000       ___hybrid_image_info_bitfield 00000000     <absolute>
 0000:00000000       ___x64_code_ranges_to_entry_points 00000000     <absolute>
 0000:00000000       ___x64_code_ranges_to_entry_points_count 00000000     <absolute>
 0000:00000000       __except_list              00000000     <absolute>
 0000:0000002c       __tls_array                0000002c     <absolute>
 0000:00000075       ___safe_se_handler_count   00000075     <absolute>
 0000:00000100       ___guard_flags             00000100     <absolute>
 0000:00000000       ___ImageBase               10000000     <linker-defined>
 0001:00000b20       ?OnCancel@H3Dlg@h3@@UAEXXZ 10001b20 f i RMG_SettingsDlg.obj
 0001:00000b20       ?OnOK@H3Dlg@h3@@UAEXXZ     10001b20 f i RMG_SettingsDlg.obj
 0001:00000b20       ?__empty_global_delete@@YAXPAXI@Z 10001b20 f i DrawPcx16ResizedBicubic.obj
 0001:00000b20       ?__global_delete@@YAXPAXI@Z 10001b20 f i * CIL library *:* CIL module *
 0001:00000b20       @_guard_check_icall_nop@4  10001b20 f i LIBCMT:guard_support.obj
 0001:00000b20       ___sanitizer_annotate_contiguous_container 10001b20 f i libcpmt:asan_noop.obj
 0001:00000b20       ___sanitizer_annotate_contiguous_container_default 10001b20 f i libcpmt:asan_noop.obj
 0001:00000b30       ___local_stdio_printf_options 10001b30 f i era.obj
 0001:00000b40       _sprintf_s                 10001b40 f i era.obj
 0001:00000b70       ??0exception@std@@QAE@ABV01@@Z 10001b70 f i era.obj
 0001:00000ba0       ?what@exception@std@@UBEPBDXZ 10001ba0 f i era.obj
 0001:00000bb0       ??_Ebad_alloc@std@@UAEPAXI@Z 10001bb0 f i * CIL library *:* CIL module *
 0001:00000bb0       ??_Ebad_array_new_length@std@@UAEPAXI@Z 10001bb0 f i * CIL library *:* CIL module *
 0001:00000bb0       ??_Eexception@std@@UAEPAXI@Z 10001bb0 f i * CIL library *:* CIL module *
 0001:00000bb0       ??_Gbad_alloc@std@@UAEPAXI@Z 10001bb0 f i era.obj
 0001:00000bb0       ??_Gbad_array_new_length@std@@UAEPAXI@Z 10001bb0 f i era.obj
 0001:00000bb0       ??_Gexception@std@@UAEPAXI@Z 10001bb0 f i era.obj
 0001:00000be0       ??1__non_rtti_object@std@@UAE@XZ 10001be0 f i libvcruntime:rtti.obj
 0001:00000be0       ??1bad_alloc@std@@UAE@XZ   10001be0 f i era.obj
 0001:00000be0       ??1bad_array_new_length@std@@UAE@XZ 10001be0 f i era.obj
 0001:00000be0       ??1bad_cast@std@@UAE@XZ    10001be0 f i libvcruntime:rtti.obj
 0001:00000be0       ??1bad_exception@std@@UAE@XZ 10001be0 f i libvcruntime:frame.obj
 0001:00000be0       ??1length_error@std@@UAE@XZ 10001be0 f i libcpmt:xthrow.obj
 0001:00000be0       ??1system_error@std@@UAE@XZ 10001be0 f i libcpmt:thread0.obj
 0001:00000c00       ??0bad_array_new_length@std@@QAE@XZ 10001c00 f i era.obj
 0001:00000c20       ?_Throw_bad_array_new_length@std@@YAXXZ 10001c20 f i era.obj
 0001:00000c20       ?__scrt_throw_std_bad_array_new_length@@YAXXZ 10001c20 f i LIBCMT:throw_bad_alloc.obj
 0001:00000c40       ??0bad_array_new_length@std@@QAE@ABV01@@Z 10001c40 f i era.obj
 0001:00000c80       ??0bad_alloc@std@@QAE@ABV01@@Z 10001c80 f i era.obj
 0001:00000cc0       ?_Xlen_string@std@@YAXXZ   10001cc0 f i era.obj
 0001:00000cd0       ??1?$basic_string@DU?$char_traits@D@std@@V?$allocator@D@2@@std@@QAE@XZ 10001cd0 f i era.obj
 0001:00000cd0       ?_Tidy_deallocate@?$basic_string@DU?$char_traits@D@std@@V?$allocator@D@2@@std@@AAEXXZ 10001cd0 f i era.obj
 0001:00000d20       ??0?$basic_string@DU?$char_traits@D@std@@V?$allocator@D@2@@std@@QAE@QBD@Z 10001d20 f i era.obj
 0001:00000de0       ??$_Deallocate@$07@std@@YAXPAXI@Z 10001de0 f i era.obj
 0001:00000e20       ?_Calculate_growth@?$basic_string@DU?$char_traits@D@std@@V?$allocator@D@2@@std@@CAIIII@Z 10001e20 f i era.obj
 0001:00000e60       ??$_Allocate_for_capacity@$0A@@?$basic_string@DU?$char_traits@D@std@@V?$allocator@D@2@@std@@CAPADAAV?$allocator@D@1@AAI@Z 10001e60 f i era.obj
 0001:00000ec0       ??$_Allocate@$07U_Default_allocate_traits@std@@@std@@YAPAXI@Z 10001ec0 f i era.obj
 0001:00000f10       _sprintf                   10001f10 f i dllmain.obj
 0001:00000f50       ??1H3String@h3@@QAE@XZ     10001f50 f i CreatureBanksExtender.obj
 0001:00000f90       ?Format@H3String@h3@@SA?AU12@PBDZZ 10001f90 f i CreatureBanksExtender.obj
 0001:00001050       ??_ECreatureBanksExtender@cbanks@@EAEPAXI@Z 10002050 f i * CIL library *:* CIL module *
 0001:00001050       ??_GCreatureBanksExtender@cbanks@@EAEPAXI@Z 10002050 f i CreatureBanksExtender.obj
 0001:00001080       ??1CreatureBank@CreatureBanksExtender@cbanks@@QAE@XZ 10002080 f i CreatureBanksExtender.obj
 0001:00001130       ??1LoopSoundManager@CreatureBanksExtender@cbanks@@QAE@XZ 10002130 f i CreatureBanksExtender.obj
 0001:000011d0       ??0H3CreatureBankSetup@h3@@QAE@XZ 100021d0 f i CreatureBanksExtender.obj
 0001:00001280       ??1?$pair@UH3ObjectAttributes@h3@@$$T@std@@QAE@XZ 10002280 f i RMG_SettingsDlg.obj
 0001:00001280       ??1H3CreatureBankSetup@h3@@QAE@XZ 10002280 f i CreatureBanksExtender.obj
 0001:000012c0       ??1?$vector@HV?$allocator@H@std@@@std@@QAE@XZ 100022c0 f i CreatureBanksExtender.obj
 0001:000012c0       ??1?$vector@PAUH3DlgCaptionButton@h3@@V?$allocator@PAUH3DlgCaptionButton@h3@@@std@@@std@@QAE@XZ 100022c0 f i RMG_SettingsDlg.obj
 0001:000012c0       ??1?$vector@PAUH3DlgDef@h3@@V?$allocator@PAUH3DlgDef@h3@@@std@@@std@@QAE@XZ 100022c0 f i RMG_SettingsDlg.obj
 0001:000012c0       ??1?$vector@PAUH3DlgItem@h3@@V?$allocator@PAUH3DlgItem@h3@@@std@@@std@@QAE@XZ 100022c0 f i RMG_SettingsDlg.obj
 0001:000012c0       ??1?$vector@PAUObjectsPanel@RMG_SettingsDlg@rmgdlg@@V?$allocator@PAUObjectsPanel@RMG_SettingsDlg@rmgdlg@@@std@@@std@@QAE@XZ 100022c0 f i RMG_SettingsDlg.obj
 0001:000012c0       ??1?$vector@PAUPage@RMG_SettingsDlg@rmgdlg@@V?$allocator@PAUPage@RMG_SettingsDlg@rmgdlg@@@std@@@std@@QAE@XZ 100022c0 f i RMG_SettingsDlg.obj
 0001:000012c0       ?_Tidy@?$vector@HV?$allocator@H@std@@@std@@AAEXXZ 100022c0 f i CreatureBanksExtender.obj
 0001:000012c0       ?_Tidy@?$vector@PAUH3WavFile@h3@@V?$allocator@PAUH3WavFile@h3@@@std@@@std@@AAEXXZ 100022c0 f i CreatureBanksExtender.obj
 0001:000012c0       ?_Tidy@?$vector@PBDV?$allocator@PBD@std@@@std@@AAEXXZ 100022c0 f i CreatureBanksExtender.obj
 0001:00001320       ?_Xlength@?$vector@HV?$allocator@H@std@@@std@@CAXXZ 10002320 f i CreatureBanksExtender.obj
 0001:00001320       ?_Xlength@?$vector@PAUH3DlgDef@h3@@V?$allocator@PAUH3DlgDef@h3@@@std@@@std@@CAXXZ 10002320 f i RMG_SettingsDlg.obj
 0001:00001320       ?_Xlength@?$vector@PAUH3DlgItem@h3@@V?$allocator@PAUH3DlgItem@h3@@@std@@@std@@CAXXZ 10002320 f i RMG_SettingsDlg.obj
 0001:00001320       ?_Xlength@?$vector@PAUH3WavFile@h3@@V?$allocator@PAUH3WavFile@h3@@@std@@@std@@CAXXZ 10002320 f i CreatureBanksExtender.obj
 0001:00001320       ?_Xlength@?$vector@PAUObjectsPanel@RMG_SettingsDlg@rmgdlg@@V?$allocator@PAUObjectsPanel@RMG_SettingsDlg@rmgdlg@@@std@@@std@@CAXXZ 10002320 f i RMG_SettingsDlg.obj
 0001:00001320       ?_Xlength@?$vector@PAUPage@RMG_SettingsDlg@rmgdlg@@V?$allocator@PAUPage@RMG_SettingsDlg@rmgdlg@@@std@@@std@@CAXXZ 10002320 f i RMG_SettingsDlg.obj
 0001:00001320       ?_Xlength@?$vector@PAV?$vector@U?$pair@UH3ObjectAttributes@h3@@PAUH3LoadedPcx16@2@@std@@V?$allocator@U?$pair@UH3ObjectAttributes@h3@@PAUH3LoadedPcx16@2@@std@@@2@@std@@V?$allocator@PAV?$vector@U?$pair@UH3ObjectAttributes@h3@@PAUH3LoadedPcx16@2@@std@@V?$allocator@U?$pair@UH3ObjectAttributes@h3@@PAUH3LoadedPcx16@2@@std@@@2@@std@@@2@@std@@CAXXZ 10002320 f i RMG_SettingsDlg.obj
 0001:00001320       ?_Xlength@?$vector@PBDV?$allocator@PBD@std@@@std@@CAXXZ 10002320 f i CreatureBanksExtender.obj
 0001:00001320       ?_Xlength@?$vector@U?$pair@UH3ObjectAttributes@h3@@PAUH3LoadedPcx16@2@@std@@V?$allocator@U?$pair@UH3ObjectAttributes@h3@@PAUH3LoadedPcx16@2@@std@@@2@@std@@CAXXZ 10002320 f i RMG_SettingsDlg.obj
 0001:00001320       ?_Xlength@?$vector@UH3CreatureBankSetup@h3@@V?$allocator@UH3CreatureBankSetup@h3@@@std@@@std@@CAXXZ 10002320 f i CreatureBanksExtender.obj
 0001:00001320       ?_Xlength@?$vector@URMGObjectInfo@@V?$allocator@URMGObjectInfo@@@std@@@std@@CAXXZ 10002320 f i ObjectsExtender.obj
 0001:00001320       ?_Xlength@?$vector@V?$array@H$04@std@@V?$allocator@V?$array@H$04@std@@@2@@std@@CAXXZ 10002320 f i CreatureBanksExtender.obj
 0001:00001320       ?_Xlength@?$vector@V?$basic_string@DU?$char_traits@D@std@@V?$allocator@D@2@@std@@V?$allocator@V?$basic_string@DU?$char_traits@D@std@@V?$allocator@D@2@@std@@@2@@std@@CAXXZ 10002320 f i ObjectsExtender.obj
 0001:00001320       ?_Xlength@?$vector@V?$vector@URMGObjectInfo@@V?$allocator@URMGObjectInfo@@@std@@@std@@V?$allocator@V?$vector@URMGObjectInfo@@V?$allocator@URMGObjectInfo@@@std@@@std@@@2@@std@@CAXXZ 10002320 f i RMGObjectsEditor.obj
 0001:00001320       ?_Xlength@?$vector@VRMGObject@rmgdlg@@V?$allocator@VRMGObject@rmgdlg@@@std@@@std@@CAXXZ 10002320 f i RMG_SettingsDlg.obj
 0001:00001330       ?_Tidy@?$vector@UH3CreatureBankSetup@h3@@V?$allocator@UH3CreatureBankSetup@h3@@@std@@@std@@AAEXXZ 10002330 f i CreatureBanksExtender.obj
 0001:000013a0       ?_Tidy@?$vector@V?$array@H$04@std@@V?$allocator@V?$array@H$04@std@@@2@@std@@AAEXXZ 100023a0 f i CreatureBanksExtender.obj
 0001:00001410       ?deallocate@?$allocator@UH3CreatureBankSetup@h3@@@std@@QAEXQAUH3CreatureBankSetup@h3@@I@Z 10002410 f i CreatureBanksExtender.obj
 0001:00001450       ??$_Reallocate@$00@?$vector@HV?$allocator@H@std@@@std@@AAEXAAI@Z 10002450 f i CreatureBanksExtender.obj
 0001:00001450       ??$_Reallocate@$00@?$vector@PAUH3WavFile@h3@@V?$allocator@PAUH3WavFile@h3@@@std@@@std@@AAEXAAI@Z 10002450 f i CreatureBanksExtender.obj
 0001:00001450       ??$_Reallocate@$00@?$vector@PBDV?$allocator@PBD@std@@@std@@AAEXAAI@Z 10002450 f i CreatureBanksExtender.obj
 0001:00001450       ??$_Reallocate@$0A@@?$vector@HV?$allocator@H@std@@@std@@AAEXAAI@Z 10002450 f i CreatureBanksExtender.obj
 0001:00001450       ??$_Reallocate@$0A@@?$vector@PAUH3DlgItem@h3@@V?$allocator@PAUH3DlgItem@h3@@@std@@@std@@AAEXAAI@Z 10002450 f i RMG_SettingsDlg.obj
 0001:00001450       ??$_Reallocate@$0A@@?$vector@PAUH3WavFile@h3@@V?$allocator@PAUH3WavFile@h3@@@std@@@std@@AAEXAAI@Z 10002450 f i CreatureBanksExtender.obj
 0001:00001450       ??$_Reallocate@$0A@@?$vector@PBDV?$allocator@PBD@std@@@std@@AAEXAAI@Z 10002450 f i CreatureBanksExtender.obj
 0001:00001520       ??$_Destroy_range@V?$allocator@UH3CreatureBankSetup@h3@@@std@@@std@@YAXPAUH3CreatureBankSetup@h3@@QAU12@AAV?$allocator@UH3CreatureBankSetup@h3@@@0@@Z 10002520 f i CreatureBanksExtender.obj
 0001:00001590       ??$_Reallocate@$00@?$vector@UH3CreatureBankSetup@h3@@V?$allocator@UH3CreatureBankSetup@h3@@@std@@@std@@AAEXAAI@Z 10002590 f i CreatureBanksExtender.obj
 0001:00001590       ??$_Reallocate@$0A@@?$vector@UH3CreatureBankSetup@h3@@V?$allocator@UH3CreatureBankSetup@h3@@@std@@@std@@AAEXAAI@Z 10002590 f i CreatureBanksExtender.obj
 0001:00001660       ??$_Reallocate@$00@?$vector@V?$array@H$04@std@@V?$allocator@V?$array@H$04@std@@@2@@std@@AAEXAAI@Z 10002660 f i CreatureBanksExtender.obj
 0001:00001660       ??$_Reallocate@$0A@@?$vector@V?$array@H$04@std@@V?$allocator@V?$array@H$04@std@@@2@@std@@AAEXAAI@Z 10002660 f i CreatureBanksExtender.obj
 0001:000016c0       ?_Change_array@?$vector@HV?$allocator@H@std@@@std@@AAEXQAHII@Z 100026c0 f i CreatureBanksExtender.obj
 0001:000016c0       ?_Change_array@?$vector@PAUH3DlgItem@h3@@V?$allocator@PAUH3DlgItem@h3@@@std@@@std@@AAEXQAPAUH3DlgItem@h3@@II@Z 100026c0 f i RMG_SettingsDlg.obj
 0001:000016c0       ?_Change_array@?$vector@PAUH3WavFile@h3@@V?$allocator@PAUH3WavFile@h3@@@std@@@std@@AAEXQAPAUH3WavFile@h3@@II@Z 100026c0 f i CreatureBanksExtender.obj
 0001:000016c0       ?_Change_array@?$vector@PAUPage@RMG_SettingsDlg@rmgdlg@@V?$allocator@PAUPage@RMG_SettingsDlg@rmgdlg@@@std@@@std@@AAEXQAPAUPage@RMG_SettingsDlg@rmgdlg@@II@Z 100026c0 f i RMG_SettingsDlg.obj
 0001:000016c0       ?_Change_array@?$vector@PBDV?$allocator@PBD@std@@@std@@AAEXQAPBDII@Z 100026c0 f i CreatureBanksExtender.obj
 0001:00001720       ?_Change_array@?$vector@UH3CreatureBankSetup@h3@@V?$allocator@UH3CreatureBankSetup@h3@@@std@@@std@@AAEXQAUH3CreatureBankSetup@h3@@II@Z 10002720 f i CreatureBanksExtender.obj
 0001:000017a0       ?allocate@?$allocator@UH3CreatureBankSetup@h3@@@std@@QAEPAUH3CreatureBankSetup@h3@@I@Z 100027a0 f i CreatureBanksExtender.obj
 0001:00001800       ?_Change_array@?$vector@V?$array@H$04@std@@V?$allocator@V?$array@H$04@std@@@2@@std@@AAEXQAV?$array@H$04@2@II@Z 10002800 f i CreatureBanksExtender.obj
 0001:00001880       ?allocate@?$allocator@V?$array@H$04@std@@@std@@QAEPAV?$array@H$04@2@I@Z 10002880 f i CreatureBanksExtender.obj
 0001:000018e0       ??$_Emplace_reallocate@AAH@?$vector@HV?$allocator@H@std@@@std@@AAEPAHQAHAAH@Z 100028e0 f i CreatureBanksExtender.obj
 0001:000018e0       ??$_Emplace_reallocate@AAPAUH3DlgDef@h3@@@?$vector@PAUH3DlgItem@h3@@V?$allocator@PAUH3DlgItem@h3@@@std@@@std@@AAEPAPAUH3DlgItem@h3@@QAPAU23@AAPAUH3DlgDef@3@@Z 100028e0 f i RMG_SettingsDlg.obj
 0001:000018e0       ??$_Emplace_reallocate@AAPAUH3DlgEdit@h3@@@?$vector@PAUH3DlgItem@h3@@V?$allocator@PAUH3DlgItem@h3@@@std@@@std@@AAEPAPAUH3DlgItem@h3@@QAPAU23@AAPAUH3DlgEdit@3@@Z 100028e0 f i RMG_SettingsDlg.obj
 0001:000018e0       ??$_Emplace_reallocate@AAPAUH3DlgFrame@h3@@@?$vector@PAUH3DlgItem@h3@@V?$allocator@PAUH3DlgItem@h3@@@std@@@std@@AAEPAPAUH3DlgItem@h3@@QAPAU23@AAPAUH3DlgFrame@3@@Z 100028e0 f i RMG_SettingsDlg.obj
 0001:000018e0       ??$_Emplace_reallocate@AAPAUH3DlgPcx16@h3@@@?$vector@PAUH3DlgItem@h3@@V?$allocator@PAUH3DlgItem@h3@@@std@@@std@@AAEPAPAUH3DlgItem@h3@@QAPAU23@AAPAUH3DlgPcx16@3@@Z 100028e0 f i RMG_SettingsDlg.obj
 0001:000018e0       ??$_Emplace_reallocate@AAPAUH3DlgText@h3@@@?$vector@PAUH3DlgItem@h3@@V?$allocator@PAUH3DlgItem@h3@@@std@@@std@@AAEPAPAUH3DlgItem@h3@@QAPAU23@AAPAUH3DlgText@3@@Z 100028e0 f i RMG_SettingsDlg.obj
 0001:000018e0       ??$_Emplace_reallocate@AAPAUH3WavFile@h3@@@?$vector@PAUH3WavFile@h3@@V?$allocator@PAUH3WavFile@h3@@@std@@@std@@AAEPAPAUH3WavFile@h3@@QAPAU23@AAPAU23@@Z 100028e0 f i CreatureBanksExtender.obj
 0001:000018e0       ??$_Emplace_reallocate@ABQBD@?$vector@PBDV?$allocator@PBD@std@@@std@@AAEPAPBDQAPBDABQBD@Z 100028e0 f i CreatureBanksExtender.obj
 0001:000018e0       ??$_Emplace_reallocate@PAUBanksPage@RMG_SettingsDlg@rmgdlg@@@?$vector@PAUPage@RMG_SettingsDlg@rmgdlg@@V?$allocator@PAUPage@RMG_SettingsDlg@rmgdlg@@@std@@@std@@AAEPAPAUPage@RMG_SettingsDlg@rmgdlg@@QAPAU234@$$QAPAUBanksPage@34@@Z 100028e0 f i RMG_SettingsDlg.obj
 0001:000018e0       ??$_Emplace_reallocate@PAUH3DlgFrame@h3@@@?$vector@PAUH3DlgItem@h3@@V?$allocator@PAUH3DlgItem@h3@@@std@@@std@@AAEPAPAUH3DlgItem@h3@@QAPAU23@$$QAPAUH3DlgFrame@3@@Z 100028e0 f i RMG_SettingsDlg.obj
 0001:000018e0       ??$_Emplace_reallocate@PAUObjectsPage@RMG_SettingsDlg@rmgdlg@@@?$vector@PAUPage@RMG_SettingsDlg@rmgdlg@@V?$allocator@PAUPage@RMG_SettingsDlg@rmgdlg@@@std@@@std@@AAEPAPAUPage@RMG_SettingsDlg@rmgdlg@@QAPAU234@$$QAPAUObjectsPage@34@@Z 100028e0 f i RMG_SettingsDlg.obj
 0001:00001a00       ??$_Emplace_reallocate@AAUH3CreatureBankSetup@h3@@@?$vector@UH3CreatureBankSetup@h3@@V?$allocator@UH3CreatureBankSetup@h3@@@std@@@std@@AAEPAUH3CreatureBankSetup@h3@@QAU23@AAU23@@Z 10002a00 f i CreatureBanksExtender.obj
 0001:00001b50       ??$_Emplace_reallocate@AAV?$array@H$04@std@@@?$vector@V?$array@H$04@std@@V?$allocator@V?$array@H$04@std@@@2@@std@@AAEPAV?$array@H$04@1@QAV21@AAV21@@Z 10002b50 f i CreatureBanksExtender.obj
 0001:00001c60       ??$_Resize_reallocate@U_Value_init_tag@std@@@?$vector@HV?$allocator@H@std@@@std@@AAEXIABU_Value_init_tag@1@@Z 10002c60 f i CreatureBanksExtender.obj
 0001:00001c60       ??$_Resize_reallocate@U_Value_init_tag@std@@@?$vector@PAUH3WavFile@h3@@V?$allocator@PAUH3WavFile@h3@@@std@@@std@@AAEXIABU_Value_init_tag@1@@Z 10002c60 f i CreatureBanksExtender.obj
 0001:00001c60       ??$_Resize_reallocate@U_Value_init_tag@std@@@?$vector@PBDV?$allocator@PBD@std@@@std@@AAEXIABU_Value_init_tag@1@@Z 10002c60 f i CreatureBanksExtender.obj
 0001:00001d50       ??$_Uninitialized_copy@PAUH3CreatureBankSetup@h3@@PAU12@V?$allocator@UH3CreatureBankSetup@h3@@@std@@@std@@YAPAUH3CreatureBankSetup@h3@@PAU12@00AAV?$allocator@UH3CreatureBankSetup@h3@@@0@@Z 10002d50 f i CreatureBanksExtender.obj
 0001:00001dd0       ??$_Resize_reallocate@U_Value_init_tag@std@@@?$vector@UH3CreatureBankSetup@h3@@V?$allocator@UH3CreatureBankSetup@h3@@@std@@@std@@AAEXIABU_Value_init_tag@1@@Z 10002dd0 f i CreatureBanksExtender.obj
 0001:00001f00       ??$_Uninitialized_value_construct_n@V?$allocator@UH3CreatureBankSetup@h3@@@std@@@std@@YAPAUH3CreatureBankSetup@h3@@PAU12@IAAV?$allocator@UH3CreatureBankSetup@h3@@@0@@Z 10002f00 f i CreatureBanksExtender.obj
 0001:00001f70       ??$_Resize_reallocate@U_Value_init_tag@std@@@?$vector@V?$array@H$04@std@@V?$allocator@V?$array@H$04@std@@@2@@std@@AAEXIABU_Value_init_tag@1@@Z 10002f70 f i CreatureBanksExtender.obj
 0001:00002040       ??1?$_Uninitialized_backout_al@V?$allocator@UH3CreatureBankSetup@h3@@@std@@@std@@QAE@XZ 10003040 f i CreatureBanksExtender.obj
 0001:000020b0       ??$construct@UH3CreatureBankSetup@h3@@AAU12@@?$_Default_allocator_traits@V?$allocator@UH3CreatureBankSetup@h3@@@std@@@std@@SAXAAV?$allocator@UH3CreatureBankSetup@h3@@@1@QAUH3CreatureBankSetup@h3@@AAU34@@Z 100030b0 f i CreatureBanksExtender.obj
 0001:000021f0       ??$_Uninitialized_move@PAUH3CreatureBankSetup@h3@@V?$allocator@UH3CreatureBankSetup@h3@@@std@@@std@@YAPAUH3CreatureBankSetup@h3@@QAU12@0PAU12@AAV?$allocator@UH3CreatureBankSetup@h3@@@0@@Z 100031f0 f i CreatureBanksExtender.obj
 0001:000023a0       ?Show@H3Messagebox@h3@@SAXPBDABUH3PictureCategories@2@11@Z 100033a0 f i GazeboExtender.obj
 0001:000023d0       ?Choice@H3Messagebox@h3@@SAHABUH3String@2@ABUH3PictureCategories@2@11@Z 100033d0 f i GazeboExtender.obj
 0001:00002420       ??_EGazeboExtender@gazebo@@EAEPAXI@Z 10003420 f i * CIL library *:* CIL module *
 0001:00002420       ??_EObjectsExtender@extender@@MAEPAXI@Z 10003420 f i * CIL library *:* CIL module *
 0001:00002420       ??_EShrinesExternder@shrines@@EAEPAXI@Z 10003420 f i * CIL library *:* CIL module *
 0001:00002420       ??_EWarehousesExtender@warehouses@@EAEPAXI@Z 10003420 f i * CIL library *:* CIL module *
 0001:00002420       ??_EWateringPlaceExtender@wateringPlace@@EAEPAXI@Z 10003420 f i * CIL library *:* CIL module *
 0001:00002420       ??_GGazeboExtender@gazebo@@EAEPAXI@Z 10003420 f i GazeboExtender.obj
 0001:00002420       ??_GObjectsExtender@extender@@MAEPAXI@Z 10003420 f i ObjectsExtender.obj
 0001:00002420       ??_GShrinesExternder@shrines@@EAEPAXI@Z 10003420 f i ShrinesExternder.obj
 0001:00002420       ??_GWarehousesExtender@warehouses@@EAEPAXI@Z 10003420 f i WarehousesExtender.obj
 0001:00002420       ??_GWateringPlaceExtender@wateringPlace@@EAEPAXI@Z 10003420 f i WateringPlaceExtender.obj
 0001:00002480       ?sprintf@libc@h3@@YAHPADPBDZZ 10003480 f i WarehousesExtender.obj
 0001:000024a0       ?_Throw_tree_length_error@std@@YAXXZ 100034a0 f i ObjectsExtender.obj
 0001:000024b0       ??1?$set@PBDU?$less@PBD@std@@V?$allocator@PBD@2@@std@@QAE@XZ 100034b0 f i ObjectsExtender.obj
 0001:000024c0       ??1?$set@URMGObjectSetable@extender@@U?$less@URMGObjectSetable@extender@@@std@@V?$allocator@URMGObjectSetable@extender@@@4@@std@@QAE@XZ 100034c0 f i ObjectsExtender.obj
 0001:000024d0       ??1?$_Tree@V?$_Tset_traits@URMGObjectSetable@extender@@U?$less@URMGObjectSetable@extender@@@std@@V?$allocator@URMGObjectSetable@extender@@@4@$0A@@std@@@std@@QAE@XZ 100034d0 f i ObjectsExtender.obj
 0001:00002510       ??1?$_Tree@V?$_Tset_traits@PAVObjectsExtender@extender@@U?$less@PAVObjectsExtender@extender@@@std@@V?$allocator@PAVObjectsExtender@extender@@@4@$0A@@std@@@std@@QAE@XZ 10003510 f i ObjectsExtender.obj
 0001:00002510       ??1?$_Tree@V?$_Tset_traits@PBDU?$less@PBD@std@@V?$allocator@PBD@2@$0A@@std@@@std@@QAE@XZ 10003510 f i ObjectsExtender.obj
 0001:00002550       ??E?$_Tree_unchecked_const_iterator@V?$_Tree_val@U?$_Tree_simple_types@PAVObjectsExtender@extender@@@std@@@std@@U_Iterator_base0@2@@std@@QAEAAV01@XZ 10003550 f i ObjectsExtender.obj
 0001:000025b0       ?erase@?$_Tree@V?$_Tset_traits@PAVObjectsExtender@extender@@U?$less@PAVObjectsExtender@extender@@@std@@V?$allocator@PAVObjectsExtender@extender@@@4@$0A@@std@@@std@@QAEIABQAVObjectsExtender@extender@@@Z 100035b0 f i ObjectsExtender.obj
 0001:00002730       ??0?$basic_string@DU?$char_traits@D@std@@V?$allocator@D@2@@std@@QAE@$$QAV01@@Z 10003730 f i ObjectsExtender.obj
 0001:00002780       ?_Tidy@?$vector@URMGObjectInfo@@V?$allocator@URMGObjectInfo@@@std@@@std@@AAEXXZ 10003780 f i ObjectsExtender.obj
 0001:000027f0       ?deallocate@?$allocator@V?$basic_string@DU?$char_traits@D@std@@V?$allocator@D@2@@std@@@std@@QAEXQAV?$basic_string@DU?$char_traits@D@std@@V?$allocator@D@2@@2@I@Z 100037f0 f i ObjectsExtender.obj
 0001:00002830       ?_Extract@?$_Tree_val@U?$_Tree_simple_types@PAVObjectsExtender@extender@@@std@@@std@@QAEPAU?$_Tree_node@PAVObjectsExtender@extender@@PAX@2@V?$_Tree_unchecked_const_iterator@V?$_Tree_val@U?$_Tree_simple_types@PAVObjectsExtender@extender@@@std@@@std@@U_Iterator_base0@2@@2@@Z 10003830 f i ObjectsExtender.obj
 0001:00002b50       ?_Rrotate@?$_Tree_val@U?$_Tree_simple_types@PAVObjectsExtender@extender@@@std@@@std@@QAEXPAU?$_Tree_node@PAVObjectsExtender@extender@@PAX@2@@Z 10003b50 f i ObjectsExtender.obj
 0001:00002bb0       ?_Lrotate@?$_Tree_val@U?$_Tree_simple_types@PAVObjectsExtender@extender@@@std@@@std@@QAEXPAU?$_Tree_node@PAVObjectsExtender@extender@@PAX@2@@Z 10003bb0 f i ObjectsExtender.obj
 0001:00002c10       ??$insert@$0A@$0A@@?$_Tree@V?$_Tset_traits@PBDU?$less@PBD@std@@V?$allocator@PBD@2@$0A@@std@@@std@@QAE?AU?$pair@V?$_Tree_const_iterator@V?$_Tree_val@U?$_Tree_simple_types@PBD@std@@@std@@@std@@_N@1@$$QAPBD@Z 10003c10 f i ObjectsExtender.obj
 0001:00002cd0       ??$insert@$0A@$0A@@?$_Tree@V?$_Tset_traits@URMGObjectSetable@extender@@U?$less@URMGObjectSetable@extender@@@std@@V?$allocator@URMGObjectSetable@extender@@@4@$0A@@std@@@std@@QAE?AU?$pair@V?$_Tree_const_iterator@V?$_Tree_val@U?$_Tree_simple_types@URMGObjectSetable@extender@@@std@@@std@@@std@@_N@1@$$QAURMGObjectSetable@extender@@@Z 10003cd0 f i ObjectsExtender.obj
 0001:00002dd0       ??$_Destroy_range@V?$allocator@V?$basic_string@DU?$char_traits@D@std@@V?$allocator@D@2@@std@@@std@@@std@@YAXPAV?$basic_string@DU?$char_traits@D@std@@V?$allocator@D@2@@0@QAV10@AAV?$allocator@V?$basic_string@DU?$char_traits@D@std@@V?$allocator@D@2@@std@@@0@@Z 10003dd0 f i ObjectsExtender.obj
 0001:00002e30       ??$_Erase_tree@V?$allocator@U?$_Tree_node@PAVObjectsExtender@extender@@PAX@std@@@std@@@?$_Tree_val@U?$_Tree_simple_types@PAVObjectsExtender@extender@@@std@@@std@@QAEXAAV?$allocator@U?$_Tree_node@PAVObjectsExtender@extender@@PAX@std@@@1@PAU?$_Tree_node@PAVObjectsExtender@extender@@PAX@1@@Z 10003e30 f i ObjectsExtender.obj
 0001:00002e30       ??$_Erase_tree@V?$allocator@U?$_Tree_node@PBDPAX@std@@@std@@@?$_Tree_val@U?$_Tree_simple_types@PBD@std@@@std@@QAEXAAV?$allocator@U?$_Tree_node@PBDPAX@std@@@1@PAU?$_Tree_node@PBDPAX@1@@Z 10003e30 f i ObjectsExtender.obj
 0001:00002e70       ??$_Emplace_reallocate@AAPBD@?$vector@V?$basic_string@DU?$char_traits@D@std@@V?$allocator@D@2@@std@@V?$allocator@V?$basic_string@DU?$char_traits@D@std@@V?$allocator@D@2@@std@@@2@@std@@AAEPAV?$basic_string@DU?$char_traits@D@std@@V?$allocator@D@2@@1@QAV21@AAPBD@Z 10003e70 f i ObjectsExtender.obj
 0001:00003080       ??$_Emplace_reallocate@AAURMGObjectInfo@@@?$vector@URMGObjectInfo@@V?$allocator@URMGObjectInfo@@@std@@@std@@AAEPAURMGObjectInfo@@QAU2@AAU2@@Z 10004080 f i ObjectsExtender.obj
 0001:000031a0       ??$_Erase_tree@V?$allocator@U?$_Tree_node@URMGObjectSetable@extender@@PAX@std@@@std@@@?$_Tree_val@U?$_Tree_simple_types@URMGObjectSetable@extender@@@std@@@std@@QAEXAAV?$allocator@U?$_Tree_node@URMGObjectSetable@extender@@PAX@std@@@1@PAU?$_Tree_node@URMGObjectSetable@extender@@PAX@1@@Z 100041a0 f i ObjectsExtender.obj
 0001:000031e0       ?_Insert_node@?$_Tree_val@U?$_Tree_simple_types@PAVObjectsExtender@extender@@@std@@@std@@QAEPAU?$_Tree_node@PAVObjectsExtender@extender@@PAX@2@U?$_Tree_id@PAU?$_Tree_node@PAVObjectsExtender@extender@@PAX@std@@@2@QAU32@@Z 100041e0 f i ObjectsExtender.obj
 0001:000031e0       ?_Insert_node@?$_Tree_val@U?$_Tree_simple_types@PBD@std@@@std@@QAEPAU?$_Tree_node@PBDPAX@2@U?$_Tree_id@PAU?$_Tree_node@PBDPAX@std@@@2@QAU32@@Z 100041e0 f i ObjectsExtender.obj
 0001:000031e0       ?_Insert_node@?$_Tree_val@U?$_Tree_simple_types@URMGObjectSetable@extender@@@std@@@std@@QAEPAU?$_Tree_node@URMGObjectSetable@extender@@PAX@2@U?$_Tree_id@PAU?$_Tree_node@URMGObjectSetable@extender@@PAX@std@@@2@QAU32@@Z 100041e0 f i ObjectsExtender.obj
 0001:000033d0       ?_Change_array@?$vector@URMGObjectInfo@@V?$allocator@URMGObjectInfo@@@std@@@std@@AAEXQAURMGObjectInfo@@II@Z 100043d0 f i ObjectsExtender.obj
 0001:00003450       ??1?$_Alloc_construct_ptr@V?$allocator@U?$_Tree_node@URMGObjectSetable@extender@@PAX@std@@@std@@@std@@QAE@XZ 10004450 f i ObjectsExtender.obj
 0001:00003470       ??1?$_Alloc_construct_ptr@V?$allocator@U?$_Tree_node@PAVObjectsExtender@extender@@PAX@std@@@std@@@std@@QAE@XZ 10004470 f i ObjectsExtender.obj
 0001:00003470       ??1?$_Alloc_construct_ptr@V?$allocator@U?$_Tree_node@PBDPAX@std@@@std@@@std@@QAE@XZ 10004470 f i ObjectsExtender.obj
 0001:00003490       ?Reserve@?$H3Vector@H@h3@@QAEHI@Z 10004490 f i RMG_SettingsDlg.obj
 0001:00003490       ?Reserve@?$H3Vector@PAUH3DlgItem@h3@@@h3@@QAEHI@Z 10004490 f i RMG_SettingsDlg.obj
 0001:00003490       ?Reserve@?$H3Vector@PAUH3RmgObjectGenerator@h3@@@h3@@QAEHI@Z 10004490 f i ObjectsExtender.obj
 0001:00003490       ?Reserve@?$H3Vector@PBD@h3@@QAEHI@Z 10004490 f i ObjectsExtender.obj
 0001:00003580       ??$_Insert_range_unchecked@PAPBDPAPBD@?$_Tree@V?$_Tset_traits@PBDU?$less@PBD@std@@V?$allocator@PBD@2@$0A@@std@@@std@@IAEXPAPBDQAPBD@Z 10004580 f i ObjectsExtender.obj
 0001:00003650       ??$_Find_lower_bound@PBD@?$_Tree@V?$_Tset_traits@PBDU?$less@PBD@std@@V?$allocator@PBD@2@$0A@@std@@@std@@IBE?AU?$_Tree_find_result@PAU?$_Tree_node@PBDPAX@std@@@1@ABQBD@Z 10004650 f i ObjectsExtender.obj
 0001:000036a0       ??$_Uninitialized_move@PAV?$basic_string@DU?$char_traits@D@std@@V?$allocator@D@2@@std@@V?$allocator@V?$basic_string@DU?$char_traits@D@std@@V?$allocator@D@2@@std@@@2@@std@@YAPAV?$basic_string@DU?$char_traits@D@std@@V?$allocator@D@2@@0@QAV10@0PAV10@AAV?$allocator@V?$basic_string@DU?$char_traits@D@std@@V?$allocator@D@2@@std@@@0@@Z 100046a0 f i ObjectsExtender.obj
 0001:00003710       ??$_Allocate_at_least_helper@V?$allocator@URMGObjectInfo@@@std@@@std@@YAPAURMGObjectInfo@@AAV?$allocator@URMGObjectInfo@@@0@AAI@Z 10004710 f i ObjectsExtender.obj
 0001:00003770       ??$_Find_hint@PBD@?$_Tree@V?$_Tset_traits@PBDU?$less@PBD@std@@V?$allocator@PBD@2@$0A@@std@@@std@@IBE?AU?$_Tree_find_hint_result@PAU?$_Tree_node@PBDPAX@std@@@1@QAU?$_Tree_node@PBDPAX@1@ABQBD@Z 10004770 f i ObjectsExtender.obj
 0001:000039a0       ??1thread@std@@QAE@XZ      100049a0 f i RMGObjectsEditor.obj
 0001:000039b0       ?detach@thread@std@@QAEXXZ 100049b0 f i RMGObjectsEditor.obj
 0001:000039f0       ??_ERMGObjectsEditor@editor@@EAEPAXI@Z 100049f0 f i * CIL library *:* CIL module *
 0001:000039f0       ??_GRMGObjectsEditor@editor@@EAEPAXI@Z 100049f0 f i RMGObjectsEditor.obj
 0001:00003a20       ??1PseudoH3RmgRandomMapGenerator@@QAE@XZ 10004a20 f i RMGObjectsEditor.obj
 0001:00003af0       ??1?$vector@V?$vector@URMGObjectInfo@@V?$allocator@URMGObjectInfo@@@std@@@std@@V?$allocator@V?$vector@URMGObjectInfo@@V?$allocator@URMGObjectInfo@@@std@@@std@@@2@@std@@QAE@XZ 10004af0 f i RMGObjectsEditor.obj
 0001:00003b70       ??0?$H3Vector@UH3ObjectAttributes@h3@@@h3@@QAE@XZ 10004b70 f i RMGObjectsEditor.obj
 0001:00003b90       ??1?$H3Vector@UH3ObjectAttributes@h3@@@h3@@QAE@XZ 10004b90 f i RMGObjectsEditor.obj
 0001:00003c20       ??1?$H3Vector@PAUH3RmgObjectGenerator@h3@@@h3@@QAE@XZ 10004c20 f i RMGObjectsEditor.obj
 0001:00003c80       ??$fill@PAHH@std@@YAXQAH0ABH@Z 10004c80 f i RMGObjectsEditor.obj
 0001:00003d00       ??$swap@U?$H3Vector@PAUH3RmgObjectGenerator@h3@@@h3@@$0A@@std@@YAXAAU?$H3Vector@PAUH3RmgObjectGenerator@h3@@@h3@@0@Z 10004d00 f i RMGObjectsEditor.obj
 0001:00003dd0       ??$_Assign_counted_range@PAV?$vector@URMGObjectInfo@@V?$allocator@URMGObjectInfo@@@std@@@std@@@?$vector@V?$vector@URMGObjectInfo@@V?$allocator@URMGObjectInfo@@@std@@@std@@V?$allocator@V?$vector@URMGObjectInfo@@V?$allocator@URMGObjectInfo@@@std@@@std@@@2@@std@@AAEXPAV?$vector@URMGObjectInfo@@V?$allocator@URMGObjectInfo@@@std@@@1@I@Z 10004dd0 f i RMGObjectsEditor.obj
 0001:00003f00       ?_Clear_and_reserve_geometric@?$vector@V?$vector@URMGObjectInfo@@V?$allocator@URMGObjectInfo@@@std@@@std@@V?$allocator@V?$vector@URMGObjectInfo@@V?$allocator@URMGObjectInfo@@@std@@@std@@@2@@std@@AAEXI@Z 10004f00 f i RMGObjectsEditor.obj
 0001:00004060       ??$_Resize_reallocate@U_Value_init_tag@std@@@?$vector@URMGObjectInfo@@V?$allocator@URMGObjectInfo@@@std@@@std@@AAEXIABU_Value_init_tag@1@@Z 10005060 f i RMGObjectsEditor.obj
 0001:00004110       ??$_Uninitialized_value_construct_n@V?$allocator@URMGObjectInfo@@@std@@@std@@YAPAURMGObjectInfo@@PAU1@IAAV?$allocator@URMGObjectInfo@@@0@@Z 10005110 f i RMGObjectsEditor.obj
 0001:00004160       ??$_Resize_reallocate@U_Value_init_tag@std@@@?$vector@V?$vector@URMGObjectInfo@@V?$allocator@URMGObjectInfo@@@std@@@std@@V?$allocator@V?$vector@URMGObjectInfo@@V?$allocator@URMGObjectInfo@@@std@@@std@@@2@@std@@AAEXIABU_Value_init_tag@1@@Z 10005160 f i RMGObjectsEditor.obj
 0001:00004330       ??$_Uninitialized_value_construct_n@V?$allocator@V?$vector@URMGObjectInfo@@V?$allocator@URMGObjectInfo@@@std@@@std@@@std@@@std@@YAPAV?$vector@URMGObjectInfo@@V?$allocator@URMGObjectInfo@@@std@@@0@PAV10@IAAV?$allocator@V?$vector@URMGObjectInfo@@V?$allocator@URMGObjectInfo@@@std@@@std@@@0@@Z 10005330 f i RMGObjectsEditor.obj
 0001:00004360       ??$_Uninitialized_copy_n@PAV?$vector@URMGObjectInfo@@V?$allocator@URMGObjectInfo@@@std@@@std@@V?$allocator@V?$vector@URMGObjectInfo@@V?$allocator@URMGObjectInfo@@@std@@@std@@@2@@std@@YAPAV?$vector@URMGObjectInfo@@V?$allocator@URMGObjectInfo@@@std@@@0@PAV10@I0AAV?$allocator@V?$vector@URMGObjectInfo@@V?$allocator@URMGObjectInfo@@@std@@@std@@@0@@Z 10005360 f i RMGObjectsEditor.obj
 0001:00004440       ??$_Assign_counted_range@PAURMGObjectInfo@@@?$vector@URMGObjectInfo@@V?$allocator@URMGObjectInfo@@@std@@@std@@AAEXPAURMGObjectInfo@@I@Z 10005440 f i RMGObjectsEditor.obj
 0001:00004590       ??1?$_Uninitialized_backout_al@V?$allocator@V?$vector@URMGObjectInfo@@V?$allocator@URMGObjectInfo@@@std@@@std@@@std@@@std@@QAE@XZ 10005590 f i RMGObjectsEditor.obj
 0001:000045c0       ??1?$unique_ptr@V?$tuple@P8RMGObjectsEditor@editor@@AEXPBF@ZPAV12@PBF@std@@U?$default_delete@V?$tuple@P8RMGObjectsEditor@editor@@AEXPBF@ZPAV12@PBF@std@@@2@@std@@QAE@XZ 100055c0 f i RMGObjectsEditor.obj
 0001:000045e0       ?_Buy_raw@?$vector@URMGObjectInfo@@V?$allocator@URMGObjectInfo@@@std@@@std@@AAEXI@Z 100055e0 f i RMGObjectsEditor.obj
 0001:00004670       ??$_Invoke@V?$tuple@P8RMGObjectsEditor@editor@@AEXPBF@ZPAV12@PBF@std@@$0A@$00$01@thread@std@@CGIPAX@Z 10005670 f i RMGObjectsEditor.obj
 0001:000046d0       ??1H3BasePalette565@h3@@QAE@XZ 100056d0 f i RMG_SettingsDlg.obj
 0001:00004710       ?FrameRegion@H3LoadedPcx16@h3@@QAEHHHHHHHH@Z 10005710 f i RMG_SettingsDlg.obj
 0001:000049b0       ?AddItem@H3BaseDlg@h3@@QAEPAUH3DlgItem@2@PAU32@H@Z 100059b0 f i RMG_SettingsDlg.obj
 0001:00004a10       ?CreateText@H3BaseDlg@h3@@QAEPAUH3DlgText@2@HHHHPBD0HHW4eTextAlignment@NTextAlignment@NH3Dlg@2@H@Z 10005a10 f i RMG_SettingsDlg.obj
 0001:00004ae0       ??0H3Dlg@h3@@QAE@HHHHHHH@Z 10005ae0 f i RMG_SettingsDlg.obj
 0001:00004c40       ??1H3NetworkDlg@h3@@QAE@XZ 10005c40 f i RMG_SettingsDlg.obj
 0001:00004ca0       ??1H3Dlg@h3@@QAE@XZ        10005ca0 f i RMG_SettingsDlg.obj
 0001:00004d30       ?AddBackground@H3Dlg@h3@@QAEHHHHHHHHH@Z 10005d30 f i RMG_SettingsDlg.obj
 0001:00004f60       ?vDestroy@H3Dlg@h3@@MAEPAU12@XZ 10005f60 f i RMG_SettingsDlg.obj
 0001:00004f70       ?vShow@H3Dlg@h3@@MAEHHD@Z  10005f70 f i RMG_SettingsDlg.obj
 0001:00004f80       ?vHide@H3Dlg@h3@@MAEHD@Z   10005f80 f i RMG_SettingsDlg.obj
 0001:00004f90       ?vPreProcess@H3Dlg@h3@@MAEHAAUH3Msg@2@@Z 10005f90 f i RMG_SettingsDlg.obj
 0001:00004fa0       ?OnClose@H3Dlg@h3@@UAEXH@Z 10005fa0 f i RMG_SettingsDlg.obj
 0001:00004fa0       ?vParentActivate_10@H3Dlg@h3@@MAEXPAUH3DlgItem@2@@Z 10005fa0 f i RMG_SettingsDlg.obj
 0001:00004fb0       ?vRedraw@H3Dlg@h3@@MAEDDHH@Z 10005fb0 f i RMG_SettingsDlg.obj
 0001:00004fc0       ?vShowAndRun@H3Dlg@h3@@MAEHD@Z 10005fc0 f i RMG_SettingsDlg.obj
 0001:00004fd0       ?vInitiateItems@H3Dlg@h3@@MAEHXZ 10005fd0 f i RMG_SettingsDlg.obj
 0001:00004fe0       ?vActivateItems@H3Dlg@h3@@MAEHD@Z 10005fe0 f i RMG_SettingsDlg.obj
 0001:00004ff0       ?vOnMouseMove@H3Dlg@h3@@MAEDHH@Z 10005ff0 f i RMG_SettingsDlg.obj
 0001:00005000       ?vOnRightClick@H3Dlg@h3@@MAEDH@Z 10006000 f i RMG_SettingsDlg.obj
 0001:00005010       ?vOnLeftClick@H3Dlg@h3@@MAEDHAAD@Z 10006010 f i RMG_SettingsDlg.obj
 0001:00005020       ?vGetStatusBar@H3Dlg@h3@@MAEPAUH3DlgTextPcx@2@XZ 10006020 f i RMG_SettingsDlg.obj
 0001:00005030       ?vEndDialogOnTimeExpired@H3Dlg@h3@@MAEHAAUH3Msg@2@@Z 10006030 f i RMG_SettingsDlg.obj
 0001:00005040       ?vDialogProc@H3Dlg@h3@@MAEHAAUH3Msg@2@@Z 10006040 f i RMG_SettingsDlg.obj
 0001:000052c0       ?OnDoubleClick@H3Dlg@h3@@UAEHHAAUH3Msg@2@@Z 100062c0 f i RMG_SettingsDlg.obj
 0001:000052c0       ?OnKeyHeld@H3Dlg@h3@@UAEHW4eVirtualKeys@NH3VKey@2@W4eMessageMsgFlag@NMessageMsgFlag@NH3Messages@2@@Z 100062c0 f i RMG_SettingsDlg.obj
 0001:000052c0       ?OnKeyPress@H3Dlg@h3@@UAEHW4eVirtualKeys@NH3VKey@2@W4eMessageMsgFlag@NMessageMsgFlag@NH3Messages@2@@Z 100062c0 f i RMG_SettingsDlg.obj
 0001:000052c0       ?OnLeftClick@H3Dlg@h3@@UAEHHAAUH3Msg@2@@Z 100062c0 f i RMG_SettingsDlg.obj
 0001:000052c0       ?OnMouseHover@H3Dlg@h3@@UAEHHH@Z 100062c0 f i RMG_SettingsDlg.obj
 0001:000052c0       ?OnNotify@H3Dlg@h3@@UAEHPAUH3DlgItem@2@AAUH3Msg@2@@Z 100062c0 f i RMG_SettingsDlg.obj
 0001:000052d0       ?DialogProc@H3Dlg@h3@@UAEHAAUH3Msg@2@@Z 100062d0 f i RMG_SettingsDlg.obj
 0001:000052d0       ?OnMouseHover@H3Dlg@h3@@UAEHPAUH3DlgItem@2@@Z 100062d0 f i RMG_SettingsDlg.obj
 0001:000052d0       ?OnMouseWheel@H3Dlg@h3@@UAEHH@Z 100062d0 f i RMG_SettingsDlg.obj
 0001:000052d0       ?OnRightClick@H3Dlg@h3@@UAEHPAUH3DlgItem@2@@Z 100062d0 f i RMG_SettingsDlg.obj
 0001:000052d0       ?OnWheelButton@H3Dlg@h3@@UAEHPAUH3DlgItem@2@@Z 100062d0 f i RMG_SettingsDlg.obj
 0001:000052e0       ?OnCreate@H3Dlg@h3@@UAEHXZ 100062e0 f i RMG_SettingsDlg.obj
 0001:000052e0       ?OnLeftClickOutside@H3Dlg@h3@@UAEHXZ 100062e0 f i RMG_SettingsDlg.obj
 0001:000052e0       ?OnRightClickOutside@H3Dlg@h3@@UAEHXZ 100062e0 f i RMG_SettingsDlg.obj
 0001:000052f0       ?ClickSound@H3SoundManager@h3@@QAEXXZ 100062f0 f i RMG_SettingsDlg.obj
 0001:00005330       ??_ERMG_SettingsDlg@rmgdlg@@EAEPAXI@Z 10006330 f i * CIL library *:* CIL module *
 0001:00005330       ??_GRMG_SettingsDlg@rmgdlg@@EAEPAXI@Z 10006330 f i RMG_SettingsDlg.obj
 0001:000053b0       ??_EBanksPage@RMG_SettingsDlg@rmgdlg@@UAEPAXI@Z 100063b0 f i * CIL library *:* CIL module *
 0001:000053b0       ??_GBanksPage@RMG_SettingsDlg@rmgdlg@@UAEPAXI@Z 100063b0 f i RMG_SettingsDlg.obj
 0001:000053e0       ??_EObjectsPanel@RMG_SettingsDlg@rmgdlg@@UAEPAXI@Z 100063e0 f i * CIL library *:* CIL module *
 0001:000053e0       ??_GObjectsPanel@RMG_SettingsDlg@rmgdlg@@UAEPAXI@Z 100063e0 f i RMG_SettingsDlg.obj
 0001:00005470       ??_EPage@RMG_SettingsDlg@rmgdlg@@UAEPAXI@Z 10006470 f i * CIL library *:* CIL module *
 0001:00005470       ??_GPage@RMG_SettingsDlg@rmgdlg@@UAEPAXI@Z 10006470 f i RMG_SettingsDlg.obj
 0001:000054a0       ??_EObjectsPage@RMG_SettingsDlg@rmgdlg@@UAEPAXI@Z 100064a0 f i * CIL library *:* CIL module *
 0001:000054a0       ??_GObjectsPage@RMG_SettingsDlg@rmgdlg@@UAEPAXI@Z 100064a0 f i RMG_SettingsDlg.obj
 0001:000054d0       ??_EMiscPage@RMG_SettingsDlg@rmgdlg@@UAEPAXI@Z 100064d0 f i * CIL library *:* CIL module *
 0001:000054d0       ??_GMiscPage@RMG_SettingsDlg@rmgdlg@@UAEPAXI@Z 100064d0 f i RMG_SettingsDlg.obj
 0001:00005500       ??1?$array@V?$vector@HV?$allocator@H@std@@@std@@$03@std@@QAE@XZ 10006500 f i RMG_SettingsDlg.obj
 0001:00005540       ??1?$vector@U?$pair@UH3ObjectAttributes@h3@@PAUH3LoadedPcx16@2@@std@@V?$allocator@U?$pair@UH3ObjectAttributes@h3@@PAUH3LoadedPcx16@2@@std@@@2@@std@@QAE@XZ 10006540 f i RMG_SettingsDlg.obj
 0001:00005550       ??1?$vector@VRMGObject@rmgdlg@@V?$allocator@VRMGObject@rmgdlg@@@std@@@std@@QAE@XZ 10006550 f i RMG_SettingsDlg.obj
 0001:00005560       ??0?$vector@HV?$allocator@H@std@@@std@@QAE@V?$initializer_list@H@1@ABV?$allocator@H@1@@Z 10006560 f i RMG_SettingsDlg.obj
 0001:00005620       ?_Tidy@?$vector@U?$pair@UH3ObjectAttributes@h3@@PAUH3LoadedPcx16@2@@std@@V?$allocator@U?$pair@UH3ObjectAttributes@h3@@PAUH3LoadedPcx16@2@@std@@@2@@std@@AAEXXZ 10006620 f i RMG_SettingsDlg.obj
 0001:000056e0       ?_Tidy@?$vector@VRMGObject@rmgdlg@@V?$allocator@VRMGObject@rmgdlg@@@std@@@std@@AAEXXZ 100066e0 f i RMG_SettingsDlg.obj
 0001:00005740       ?deallocate@?$allocator@U?$pair@UH3ObjectAttributes@h3@@PAUH3LoadedPcx16@2@@std@@@std@@QAEXQAU?$pair@UH3ObjectAttributes@h3@@PAUH3LoadedPcx16@2@@2@I@Z 10006740 f i RMG_SettingsDlg.obj
 0001:00005780       ?deallocate@?$allocator@VRMGObject@rmgdlg@@@std@@QAEXQAVRMGObject@rmgdlg@@I@Z 10006780 f i RMG_SettingsDlg.obj
 0001:000057c0       ??1?$H3BinaryLoader@UH3LoadedDef@h3@@@h3@@QAE@XZ 100067c0 f i RMG_SettingsDlg.obj
 0001:000057c0       ??1?$H3BinaryLoader@UH3LoadedPcx@h3@@@h3@@QAE@XZ 100067c0 f i RMG_SettingsDlg.obj
 0001:00005800       ??$_Destroy_range@V?$allocator@U?$pair@UH3ObjectAttributes@h3@@PAUH3LoadedPcx16@2@@std@@@std@@@std@@YAXPAU?$pair@UH3ObjectAttributes@h3@@PAUH3LoadedPcx16@2@@0@QAU10@AAV?$allocator@U?$pair@UH3ObjectAttributes@h3@@PAUH3LoadedPcx16@2@@std@@@0@@Z 10006800 f i RMG_SettingsDlg.obj
 0001:00005860       ??$_Reallocate@$00@?$vector@U?$pair@UH3ObjectAttributes@h3@@PAUH3LoadedPcx16@2@@std@@V?$allocator@U?$pair@UH3ObjectAttributes@h3@@PAUH3LoadedPcx16@2@@std@@@2@@std@@AAEXAAI@Z 10006860 f i RMG_SettingsDlg.obj
 0001:00005860       ??$_Reallocate@$0A@@?$vector@U?$pair@UH3ObjectAttributes@h3@@PAUH3LoadedPcx16@2@@std@@V?$allocator@U?$pair@UH3ObjectAttributes@h3@@PAUH3LoadedPcx16@2@@std@@@2@@std@@AAEXAAI@Z 10006860 f i RMG_SettingsDlg.obj
 0001:00005900       ??$_Assign_counted_range@PAU?$pair@UH3ObjectAttributes@h3@@PAUH3LoadedPcx16@2@@std@@@?$vector@U?$pair@UH3ObjectAttributes@h3@@PAUH3LoadedPcx16@2@@std@@V?$allocator@U?$pair@UH3ObjectAttributes@h3@@PAUH3LoadedPcx16@2@@std@@@2@@std@@AAEXPAU?$pair@UH3ObjectAttributes@h3@@PAUH3LoadedPcx16@2@@1@I@Z 10006900 f i RMG_SettingsDlg.obj
 0001:00005ba0       ??$_Reallocate@$00@?$vector@VRMGObject@rmgdlg@@V?$allocator@VRMGObject@rmgdlg@@@std@@@std@@AAEXAAI@Z 10006ba0 f i RMG_SettingsDlg.obj
 0001:00005ba0       ??$_Reallocate@$0A@@?$vector@VRMGObject@rmgdlg@@V?$allocator@VRMGObject@rmgdlg@@@std@@@std@@AAEXAAI@Z 10006ba0 f i RMG_SettingsDlg.obj
 0001:00005bf0       ??0H3ObjectAttributes@h3@@QAE@$$QAU01@@Z 10006bf0 f i RMG_SettingsDlg.obj
 0001:00005c90       ?_Change_array@?$vector@U?$pair@UH3ObjectAttributes@h3@@PAUH3LoadedPcx16@2@@std@@V?$allocator@U?$pair@UH3ObjectAttributes@h3@@PAUH3LoadedPcx16@2@@std@@@2@@std@@AAEXQAU?$pair@UH3ObjectAttributes@h3@@PAUH3LoadedPcx16@2@@2@II@Z 10006c90 f i RMG_SettingsDlg.obj
 0001:00005d60       ?allocate@?$allocator@U?$pair@UH3ObjectAttributes@h3@@PAUH3LoadedPcx16@2@@std@@@std@@QAEPAU?$pair@UH3ObjectAttributes@h3@@PAUH3LoadedPcx16@2@@2@I@Z 10006d60 f i RMG_SettingsDlg.obj
 0001:00005dc0       ?_Change_array@?$vector@VRMGObject@rmgdlg@@V?$allocator@VRMGObject@rmgdlg@@@std@@@std@@AAEXQAVRMGObject@rmgdlg@@II@Z 10006dc0 f i RMG_SettingsDlg.obj
 0001:00005e30       ?allocate@?$allocator@VRMGObject@rmgdlg@@@std@@QAEPAVRMGObject@rmgdlg@@I@Z 10006e30 f i RMG_SettingsDlg.obj
 0001:00005e90       ??$?0PAD$0A@@?$basic_string@DU?$char_traits@D@std@@V?$allocator@D@2@@std@@QAE@PAD0ABV?$allocator@D@1@@Z 10006e90 f i RMG_SettingsDlg.obj
 0001:000060a0       ??$_Emplace_reallocate@ABUH3ObjectAttributes@h3@@ABQAUH3LoadedPcx16@2@@?$vector@VRMGObject@rmgdlg@@V?$allocator@VRMGObject@rmgdlg@@@std@@@std@@AAEPAVRMGObject@rmgdlg@@QAV23@ABUH3ObjectAttributes@h3@@ABQAUH3LoadedPcx16@5@@Z 100070a0 f i RMG_SettingsDlg.obj
 0001:000061e0       ??$_Emplace_reallocate@AAPAUH3DlgDef@h3@@@?$vector@PAUH3DlgDef@h3@@V?$allocator@PAUH3DlgDef@h3@@@std@@@std@@AAEPAPAUH3DlgDef@h3@@QAPAU23@AAPAU23@@Z 100071e0 f i RMG_SettingsDlg.obj
 0001:000061e0       ??$_Emplace_reallocate@PAUObjectsPanel@RMG_SettingsDlg@rmgdlg@@@?$vector@PAUObjectsPanel@RMG_SettingsDlg@rmgdlg@@V?$allocator@PAUObjectsPanel@RMG_SettingsDlg@rmgdlg@@@std@@@std@@AAEPAPAUObjectsPanel@RMG_SettingsDlg@rmgdlg@@QAPAU234@$$QAPAU234@@Z 100071e0 f i RMG_SettingsDlg.obj
 0001:00006340       ??0H3ObjectAttributes@h3@@QAE@ABU01@@Z 10007340 f i RMG_SettingsDlg.obj
 0001:000063e0       ??$_Emplace_reallocate@U?$pair@UH3ObjectAttributes@h3@@$$T@std@@@?$vector@U?$pair@UH3ObjectAttributes@h3@@PAUH3LoadedPcx16@2@@std@@V?$allocator@U?$pair@UH3ObjectAttributes@h3@@PAUH3LoadedPcx16@2@@std@@@2@@std@@AAEPAU?$pair@UH3ObjectAttributes@h3@@PAUH3LoadedPcx16@2@@1@QAU21@$$QAU?$pair@UH3ObjectAttributes@h3@@$$T@1@@Z 100073e0 f i RMG_SettingsDlg.obj
 0001:00006540       ??$_Emplace_reallocate@AAU?$pair@UH3ObjectAttributes@h3@@PAUH3LoadedPcx16@2@@std@@@?$vector@U?$pair@UH3ObjectAttributes@h3@@PAUH3LoadedPcx16@2@@std@@V?$allocator@U?$pair@UH3ObjectAttributes@h3@@PAUH3LoadedPcx16@2@@std@@@2@@std@@AAEPAU?$pair@UH3ObjectAttributes@h3@@PAUH3LoadedPcx16@2@@1@QAU21@AAU21@@Z 10007540 f i RMG_SettingsDlg.obj
 0001:000066d0       ??$?4U?$pair@UH3ObjectAttributes@h3@@PAUH3LoadedPcx16@2@@std@@$0A@@?$pair@UH3ObjectAttributes@h3@@PAUH3LoadedPcx16@2@@std@@QAEAAU01@ABU01@@Z 100076d0 f i RMG_SettingsDlg.obj
 0001:00006760       ??$_Resize_reallocate@U_Value_init_tag@std@@@?$vector@PAUH3DlgCaptionButton@h3@@V?$allocator@PAUH3DlgCaptionButton@h3@@@std@@@std@@AAEXIABU_Value_init_tag@1@@Z 10007760 f i RMG_SettingsDlg.obj
 0001:00006880       ??1?$_Uninitialized_backout_al@V?$allocator@U?$pair@UH3ObjectAttributes@h3@@PAUH3LoadedPcx16@2@@std@@@std@@@std@@QAE@XZ 10007880 f i RMG_SettingsDlg.obj
 0001:000068e0       ??1?$unique_ptr@V?$tuple@P6AXXZ@std@@U?$default_delete@V?$tuple@P6AXXZ@std@@@2@@std@@QAE@XZ 100078e0 f i RMG_SettingsDlg.obj
 0001:00008740       ??$construct@VRMGObject@rmgdlg@@ABUH3ObjectAttributes@h3@@ABQAUH3LoadedPcx16@4@@?$_Default_allocator_traits@V?$allocator@VRMGObject@rmgdlg@@@std@@@std@@SAXAAV?$allocator@VRMGObject@rmgdlg@@@1@QAVRMGObject@rmgdlg@@ABUH3ObjectAttributes@h3@@ABQAUH3LoadedPcx16@6@@Z 10009740 f i RMG_SettingsDlg.obj
 0001:000087f0       ??$_Invoke@V?$tuple@P6AXXZ@std@@$0A@@thread@std@@CGIPAX@Z 100097f0 f i RMG_SettingsDlg.obj
 0001:00008f06       ??0bad_alloc@std@@QAE@XZ   10009f06 f i libcpmt:xthrow.obj
 0001:00008f1e       ??0exception@std@@QAE@QBD@Z 10009f1e f i libcpmt:xthrow.obj
 0001:00008f53       ??0length_error@std@@QAE@ABV01@@Z 10009f53 f i libcpmt:xthrow.obj
 0001:00008f6e       ??0length_error@std@@QAE@PBD@Z 10009f6e f i libcpmt:xthrow.obj
 0001:00008f8d       ??0logic_error@std@@QAE@ABV01@@Z 10009f8d f i libcpmt:xthrow.obj
 0001:00008fa8       ??0runtime_error@std@@QAE@ABV01@@Z 10009fa8 f i libcpmt:xthrow.obj
 0001:00008fc3       ??_E__non_rtti_object@std@@UAEPAXI@Z 10009fc3 f i libvcruntime:rtti.obj
 0001:00008fc3       ??_Ebad_cast@std@@UAEPAXI@Z 10009fc3 f i libvcruntime:rtti.obj
 0001:00008fc3       ??_Ebad_exception@std@@UAEPAXI@Z 10009fc3 f i libvcruntime:frame.obj
 0001:00008fc3       ??_Ebad_typeid@std@@UAEPAXI@Z 10009fc3 f i libvcruntime:rtti.obj
 0001:00008fc3       ??_Elength_error@std@@UAEPAXI@Z 10009fc3 f i libcpmt:xthrow.obj
 0001:00008fc3       ??_Elogic_error@std@@UAEPAXI@Z 10009fc3 f i libcpmt:xthrow.obj
 0001:00008fc3       ??_Eruntime_error@std@@UAEPAXI@Z 10009fc3 f i libcpmt:xthrow.obj
 0001:00008fc3       ??_G__non_rtti_object@std@@UAEPAXI@Z 10009fc3 f i libvcruntime:rtti.obj
 0001:00008fc3       ??_Gbad_cast@std@@UAEPAXI@Z 10009fc3 f i libvcruntime:rtti.obj
 0001:00008fc3       ??_Gbad_exception@std@@UAEPAXI@Z 10009fc3 f i libvcruntime:frame.obj
 0001:00008fc3       ??_Gbad_typeid@std@@UAEPAXI@Z 10009fc3 f i libvcruntime:rtti.obj
 0001:00008fc3       ??_Glength_error@std@@UAEPAXI@Z 10009fc3 f i libcpmt:xthrow.obj
 0001:00008fc3       ??_Glogic_error@std@@UAEPAXI@Z 10009fc3 f i libcpmt:xthrow.obj
 0001:00008fc3       ??_Gruntime_error@std@@UAEPAXI@Z 10009fc3 f i libcpmt:xthrow.obj
 0001:00008ff0       ?_Xlength_error@std@@YAXPBD@Z 10009ff0 f   libcpmt:xthrow.obj
 0001:00009010       ??$_Construct@$01PBD@?$basic_string@DU?$char_traits@D@std@@V?$allocator@D@2@@std@@AAEXQBDI@Z 1000a010 f i libcpmt:thread0.obj
 0001:00009082       ??$_Reallocate_grow_by@V<lambda_1>@?1??append@?$basic_string@DU?$char_traits@D@std@@V?$allocator@D@2@@std@@QAEAAV34@QBDI@Z@PBDI@?$basic_string@DU?$char_traits@D@std@@V?$allocator@D@2@@std@@AAEAAV01@IV<lambda_1>@?1??append@01@QAEAAV01@QBDI@Z@PBDI@Z 1000a082 f i libcpmt:thread0.obj
 0001:00009152       ??0?$basic_string@DU?$char_traits@D@std@@V?$allocator@D@2@@std@@QAE@ABV01@@Z 1000a152 f i libcpmt:thread0.obj
 0001:00009188       ??0_System_error@std@@IAE@Verror_code@1@ABV?$basic_string@DU?$char_traits@D@std@@V?$allocator@D@2@@1@@Z 1000a188 f i libcpmt:thread0.obj
 0001:000091f4       ??0_System_error@std@@QAE@ABV01@@Z 1000a1f4 f i libcpmt:thread0.obj
 0001:0000921e       ??0runtime_error@std@@QAE@ABV?$basic_string@DU?$char_traits@D@std@@V?$allocator@D@2@@1@@Z 1000a21e f i libcpmt:thread0.obj
 0001:00009246       ??0system_error@std@@QAE@ABV01@@Z 1000a246 f i libcpmt:thread0.obj
 0001:00009261       ??0system_error@std@@QAE@HABVerror_category@1@PBD@Z 1000a261 f i libcpmt:thread0.obj
 0001:000092ae       ??8std@@YA_NABVerror_condition@0@0@Z 1000a2ae f i libcpmt:thread0.obj
 0001:000092d5       ??_E_Generic_error_category@std@@UAEPAXI@Z 1000a2d5 f i libcpmt:thread0.obj
 0001:000092d5       ??_G_Generic_error_category@std@@UAEPAXI@Z 1000a2d5 f i libcpmt:thread0.obj
 0001:000092f2       ??_E_System_error@std@@UAEPAXI@Z 1000a2f2 f i libcpmt:thread0.obj
 0001:000092f2       ??_Esystem_error@std@@UAEPAXI@Z 1000a2f2 f i libcpmt:thread0.obj
 0001:000092f2       ??_G_System_error@std@@UAEPAXI@Z 1000a2f2 f i libcpmt:thread0.obj
 0001:000092f2       ??_Gsystem_error@std@@UAEPAXI@Z 1000a2f2 f i libcpmt:thread0.obj
 0001:0000931f       ?_Apply_annotation@?$basic_string@DU?$char_traits@D@std@@V?$allocator@D@2@@std@@CAXQBDIII@Z 1000a31f f i libcpmt:thread0.obj
 0001:00009368       ?_Create_annotation@?$basic_string@DU?$char_traits@D@std@@V?$allocator@D@2@@std@@ABEXXZ 1000a368 f i libcpmt:thread0.obj
 0001:00009382       ?_Makestr@_System_error@std@@CA?AV?$basic_string@DU?$char_traits@D@std@@V?$allocator@D@2@@2@Verror_code@2@V32@@Z 1000a382 f i libcpmt:thread0.obj
 0001:000093f5       ?_Modify_annotation@?$basic_string@DU?$char_traits@D@std@@V?$allocator@D@2@@std@@ABEXII@Z 1000a3f5 f i libcpmt:thread0.obj
 0001:0000941c       ?_Remove_annotation@?$basic_string@DU?$char_traits@D@std@@V?$allocator@D@2@@std@@ABEXXZ 1000a41c f i libcpmt:thread0.obj
 0001:00009436       ?_Throw_Cpp_error@std@@YAXH@Z 1000a436 f   libcpmt:thread0.obj
 0001:0000946b       ?append@?$basic_string@DU?$char_traits@D@std@@V?$allocator@D@2@@std@@QAEAAV12@QBDI@Z 1000a46b f i libcpmt:thread0.obj
 0001:000094cf       ?default_error_condition@error_category@std@@UBE?AVerror_condition@2@H@Z 1000a4cf f i libcpmt:thread0.obj
 0001:000094e1       ?equivalent@error_category@std@@UBE_NABVerror_code@2@H@Z 1000a4e1 f i libcpmt:thread0.obj
 0001:00009505       ?equivalent@error_category@std@@UBE_NHABVerror_condition@2@@Z 1000a505 f i libcpmt:thread0.obj
 0001:00009537       ?generic_category@std@@YAABVerror_category@1@XZ 1000a537 f i libcpmt:thread0.obj
 0001:0000953d       ?message@_Generic_error_category@std@@UBE?AV?$basic_string@DU?$char_traits@D@std@@V?$allocator@D@2@@2@H@Z 1000a53d f i libcpmt:thread0.obj
 0001:0000955a       ?message@error_code@std@@QBE?AV?$basic_string@DU?$char_traits@D@std@@V?$allocator@D@2@@2@XZ 1000a55a f i libcpmt:thread0.obj
 0001:00009582       ?name@_Generic_error_category@std@@UBEPBDXZ 1000a582 f i libcpmt:thread0.obj
 0001:00009588       ?_Verify_ownership_levels@_Mutex_base@std@@IAE_NXZ 1000a588 f i libcpmt:xnotify.obj
 0001:0000959e       ?lock@_Mutex_base@std@@QAEXXZ 1000a59e f i libcpmt:xnotify.obj
 0001:000095c5       __Cnd_do_broadcast_at_thread_exit 1000a5c5 f   libcpmt:xnotify.obj
 0001:00009686       __Thrd_detach              1000a686 f   libcpmt:cthread.obj
 0001:0000969e       __Thrd_id                  1000a69e f   libcpmt:cthread.obj
 0001:000097a0       ___std_find_trivial_4@12   1000a7a0 f   libcpmt:vector_algorithms.obj
 0001:000097a9       ?_Syserror_map@std@@YAPBDH@Z 1000a7a9 f   libcpmt:syserror.obj
 0001:000097ce       __Mtx_lock                 1000a7ce f   libcpmt:mutex.obj
 0001:000097df       __Mtx_unlock               1000a7df f   libcpmt:mutex.obj
 0001:0000992a       __Cnd_broadcast            1000a92a f   libcpmt:cond.obj
 0001:0000993e       __Timespec64_get_sys       1000a93e f   libcpmt:xtime.obj
 0001:0000997c       __Xtime_get_ticks          1000a97c f   libcpmt:xtime.obj
 0001:000099d7       ___crtGetSystemTimePreciseAsFileTime 1000a9d7 f   libcpmt:winapisupp.obj
 0001:00009a2c       ??_V@YAXPAX@Z              1000aa2c f   LIBCMT:delete_array.obj
 0001:00009a31       ??_U@YAPAXI@Z              1000aa31 f   LIBCMT:new_array.obj
 0001:00009a3a       ??2@YAPAXI@Z               1000aa3a f   LIBCMT:new_scalar.obj
 0001:00009a6a       ??3@YAXPAXI@Z              1000aa6a f   LIBCMT:delete_scalar_size.obj
 0001:00009a78       ??_Etype_info@@UAEPAXI@Z   1000aa78 f i LIBCMT:std_type_info_static.obj
 0001:00009a78       ??_Gtype_info@@UAEPAXI@Z   1000aa78 f i LIBCMT:std_type_info_static.obj
 0001:00009a9b       __Init_thread_abort        1000aa9b f   LIBCMT:thread_safe_statics.obj
 0001:00009ac6       __Init_thread_footer       1000aac6 f   LIBCMT:thread_safe_statics.obj
 0001:00009b17       __Init_thread_header       1000ab17 f   LIBCMT:thread_safe_statics.obj
 0001:00009b66       __Init_thread_wait_v2      1000ab66 f   LIBCMT:thread_safe_statics.obj
 0001:00009bbd       ___scrt_acquire_startup_lock 1000abbd f   LIBCMT:utility.obj
 0001:00009bef       ___scrt_dllmain_after_initialize_c 1000abef f   LIBCMT:utility.obj
 0001:00009c1a       ___scrt_dllmain_before_initialize_c 1000ac1a f   LIBCMT:utility.obj
 0001:00009c28       ___scrt_dllmain_crt_thread_attach 1000ac28 f   LIBCMT:utility.obj
 0001:00009c47       ___scrt_dllmain_crt_thread_detach 1000ac47 f   LIBCMT:utility.obj
 0001:00009c54       ___scrt_dllmain_exception_filter 1000ac54 f   LIBCMT:utility.obj
 0001:00009c88       ___scrt_dllmain_uninitialize_c 1000ac88 f   LIBCMT:utility.obj
 0001:00009cab       ___scrt_dllmain_uninitialize_critical 1000acab f   LIBCMT:utility.obj
 0001:00009cb8       ___scrt_initialize_crt     1000acb8 f   LIBCMT:utility.obj
 0001:00009cf1       ___scrt_initialize_onexit_tables 1000acf1 f   LIBCMT:utility.obj
 0001:00009d78       ___scrt_is_nonwritable_in_current_image 1000ad78 f   LIBCMT:utility.obj
 0001:00009e0c       ___scrt_release_startup_lock 1000ae0c f   LIBCMT:utility.obj
 0001:00009e29       ___scrt_uninitialize_crt   1000ae29 f   LIBCMT:utility.obj
 0001:00009e51       __onexit                   1000ae51 f   LIBCMT:utility.obj
 0001:00009e7f       _atexit                    1000ae7f f   LIBCMT:utility.obj
 0001:00009e94       ??_M@YGXPAXIIP6EX0@Z@Z     1000ae94 f   LIBCMT:ehvecdtr.obj
 0001:00009f19       ?__ArrayUnwind@@YGXPAXIIP6EX0@Z@Z 1000af19 f   LIBCMT:ehvecdtr.obj
 0001:00009fa9       ??_L@YGXPAXIIP6EX0@Z1@Z    1000afa9 f   LIBCMT:ehvecctr.obj
 0001:0000a35b       __DllMainCRTStartup@12     1000b35b f   LIBCMT:dll_dllmain.obj
 0001:0000a37e       @__security_check_cookie@4 1000b37e f   LIBCMT:secchk.obj
 0001:0000a38c       __EH_epilog3               1000b38c f   LIBCMT:ehprolg3.obj
 0001:0000a3a0       __EH_epilog3_GS            1000b3a0 f   LIBCMT:ehprolg3.obj
 0001:0000a3af       __EH_prolog3_GS            1000b3af f   LIBCMT:ehprolg3.obj
 0001:0000a3e5       __EH_prolog3_catch         1000b3e5 f   LIBCMT:ehprolg3.obj
 0001:0000a41b       ___isa_available_init      1000b41b f   LIBCMT:cpu_disp.obj
 0001:0000a750       __aulldiv                  1000b750 f   LIBCMT:ulldiv.obj
 0001:0000a7c0       __aullrem                  1000b7c0 f   LIBCMT:ullrem.obj
 0001:0000a835       ??3@YAXPAX@Z               1000b835 f   LIBCMT:delete_scalar.obj
 0001:0000a83a       ?__scrt_throw_std_bad_alloc@@YAXXZ 1000b83a f   LIBCMT:throw_bad_alloc.obj
 0001:0000a857       __get_startup_argv_mode    1000b857 f   LIBCMT:argv_mode.obj
 0001:0000a85b       ___scrt_is_ucrt_dll_in_use 1000b85b f   LIBCMT:ucrt_detection.obj
 0001:0000a867       ___scrt_fastfail           1000b867 f   LIBCMT:utility_desktop.obj
 0001:0000a97c       __crt_debugger_hook        1000b97c f   LIBCMT:utility_desktop.obj
 0001:0000a990       __SEH_prolog4              1000b990 f   LIBCMT:sehprolg4.obj
 0001:0000aa22       ___security_init_cookie    1000ba22 f   LIBCMT:gs_support.obj
 0001:0000aa6d       ?__scrt_initialize_type_info@@YAXXZ 1000ba6d f   LIBCMT:tncleanup.obj
 0001:0000aa79       ?__scrt_uninitialize_type_info@@YAXXZ 1000ba79 f   LIBCMT:tncleanup.obj
 0001:0000aa85       ___local_stdio_scanf_options 1000ba85 f i LIBCMT:default_local_stdio_options.obj
 0001:0000aa8b       ___scrt_initialize_default_local_stdio_options 1000ba8b f   LIBCMT:default_local_stdio_options.obj
 0001:0000aaa8       ___scrt_get_dyn_tls_init_callback 1000baa8 f   LIBCMT:dyn_tls_init.obj
 0001:0000aaae       __RTC_Initialize           1000baae f   LIBCMT:initsect.obj
 0001:0000aada       __RTC_Terminate            1000bada f   LIBCMT:initsect.obj
 0001:0000ab06       ___raise_securityfailure   1000bb06 f   LIBCMT:gs_report.obj
 0001:0000ab2e       ___report_gsfailure        1000bb2e f   LIBCMT:gs_report.obj
 0001:0000ac29       ?GetRangeOfTrysToCheck@__FrameHandler3@@SA?AU?$pair@Viterator@TryBlockMap@__FrameHandler3@@V123@@std@@AAVTryBlockMap@1@HPAXPBU_s_FuncInfo@@H@Z 1000bc29 f   libvcruntime:trnsctrl.obj
 0001:0000ac98       ?_CallCatchBlock2@@YAPAXPAUEHRegistrationNode@@PBU_s_FuncInfo@@PAXHK@Z 1000bc98 f   libvcruntime:trnsctrl.obj
 0001:0000acf5       ?_CallSETranslator@@YAHPAUEHExceptionRecord@@PAUEHRegistrationNode@@PAX2PBU_s_FuncInfo@@H1@Z 1000bcf5 f   libvcruntime:trnsctrl.obj
 0001:0000ade5       ?_JumpToContinuation@@YGXPAXPAUEHRegistrationNode@@@Z 1000bde5 f   libvcruntime:trnsctrl.obj
 0001:0000ae15       ?_UnwindNestedFrames@@YGXPAUEHRegistrationNode@@PAUEHExceptionRecord@@@Z 1000be15 f   libvcruntime:trnsctrl.obj
 0001:0000ae69       __CatchGuardHandler        1000be69 f   libvcruntime:trnsctrl.obj
 0001:0000ae9a       __CreateFrameInfo          1000be9a f   libvcruntime:trnsctrl.obj
 0001:0000aebe       __FindAndUnlinkFrame       1000bebe f   libvcruntime:trnsctrl.obj
 0001:0000af06       __TranslatorGuardHandler   1000bf06 f   libvcruntime:trnsctrl.obj
 0001:0000afa5       ___CxxFrameHandler3        1000bfa5 f   libvcruntime:trnsctrl.obj
 0001:0000afdb       ___DestructExceptionObject 1000bfdb f   libvcruntime:ehhelpers.obj
 0001:0000b07c       ?_CallMemberFunction0@@YGXQAX0@Z 1000c07c f i libvcruntime:ehhelpers.obj
 0001:0000b0e1       __IsExceptionObjectToBeDestroyed 1000c0e1 f   libvcruntime:ehhelpers.obj
 0001:0000b107       ___AdjustPointer           1000c107 f   libvcruntime:ehhelpers.obj
 0001:0000b12c       ___FrameUnwindFilter       1000c12c f   libvcruntime:ehhelpers.obj
 0001:0000b182       ___current_exception       1000c182 f   libvcruntime:ehhelpers.obj
 0001:0000b18b       ___current_exception_context 1000c18b f   libvcruntime:ehhelpers.obj
 0001:0000b194       ___std_terminate           1000c194 f   libvcruntime:ehhelpers.obj
 0001:0000b199       ___std_exception_copy      1000c199 f   libvcruntime:std_exception.obj
 0001:0000b1fc       ___std_exception_destroy   1000c1fc f   libvcruntime:std_exception.obj
 0001:0000b21b       __get_purecall_handler     1000c21b f   libvcruntime:purevirt.obj
 0001:0000b222       __purecall                 1000c222 f   libvcruntime:purevirt.obj
 0001:0000b23e       __CxxThrowException@8      1000c23e f   libvcruntime:throw.obj
 0001:0000b2b0       _memcpy                    1000c2b0 f   libvcruntime:memcpy.obj
 0001:0000b2b0       _memmove                   1000c2b0 f   libvcruntime:memmove.obj
 0001:0000b830       ___vcrt_initialize         1000c830 f   libvcruntime:initialization.obj
 0001:0000b84f       ___vcrt_thread_attach      1000c84f f   libvcruntime:initialization.obj
 0001:0000b85a       ___vcrt_thread_detach      1000c85a f   libvcruntime:initialization.obj
 0001:0000b862       ___vcrt_uninitialize       1000c862 f   libvcruntime:initialization.obj
 0001:0000b879       ___vcrt_uninitialize_critical 1000c879 f   libvcruntime:initialization.obj
 0001:0000b8d0       __except_handler4          1000c8d0 f   libvcruntime:chandler4.obj
 0001:0000ba30       _memset                    1000ca30 f   libvcruntime:memset.obj
 0001:0000bb8a       ___std_type_info_compare   1000cb8a f   libvcruntime:std_type_info.obj
 0001:0000bbc6       ___std_type_info_destroy_list 1000cbc6 f   libvcruntime:std_type_info.obj
 0001:0000bbe9       ___vcrt_freefls@4          1000cbe9 f   libvcruntime:per_thread_data.obj
 0001:0000bc05       ___vcrt_freeptd_for_this_thread 1000cc05 f   libvcruntime:per_thread_data.obj
 0001:0000bc30       ___vcrt_getptd             1000cc30 f   libvcruntime:per_thread_data.obj
 0001:0000bc3e       ___vcrt_getptd_noexit      1000cc3e f   libvcruntime:per_thread_data.obj
 0001:0000bcd0       ___vcrt_initialize_ptd     1000ccd0 f   libvcruntime:per_thread_data.obj
 0001:0000bd03       ___vcrt_uninitialize_ptd   1000cd03 f   libvcruntime:per_thread_data.obj
 0001:0000c44f       ??$TypeMatchHelper@V__FrameHandler3@@@@YAHPBU_s_HandlerType@@PBU_s_CatchableType@@PBU_s_ThrowInfo@@@Z 1000d44f f i libvcruntime:frame.obj
 0001:0000c4dd       ??$__InternalCxxFrameHandler@V__FrameHandler3@@@@YA?AW4_EXCEPTION_DISPOSITION@@PAUEHExceptionRecord@@PAUEHRegistrationNode@@PAU_CONTEXT@@PAXPBU_s_FuncInfo@@H1E@Z 1000d4dd f i libvcruntime:frame.obj
 0001:0000c5df       ??$__InternalCxxFrameHandlerWrapper@V__FrameHandler3@@@@YA?AW4_EXCEPTION_DISPOSITION@@PAUEHExceptionRecord@@PAUEHRegistrationNode@@PAU_CONTEXT@@PAXPBU_s_FuncInfo@@H1E@Z 1000d5df f i libvcruntime:frame.obj
 0001:0000c5e8       ??0bad_exception@std@@QAE@ABV01@@Z 1000d5e8 f i libvcruntime:frame.obj
 0001:0000c603       ??0bad_exception@std@@QAE@XZ 1000d603 f i libvcruntime:frame.obj
 0001:0000c61b       ??8type_info@@QBE_NABV0@@Z 1000d61b f i libvcruntime:frame.obj
 0001:0000c892       ?FrameUnwindToEmptyState@__FrameHandler3@@SAXPAUEHRegistrationNode@@PAXPBU_s_FuncInfo@@@Z 1000d892 f   libvcruntime:frame.obj
 0001:0000c8aa       ?FrameUnwindToState@__FrameHandler3@@SAXPAUEHRegistrationNode@@PAXPBU_s_FuncInfo@@H@Z 1000d8aa f   libvcruntime:frame.obj
 0001:0000ca2c       ?_CallMemberFunction1@@YGXQAX00@Z 1000da2c f i libvcruntime:frame.obj
 0001:0000ca3c       ?_CallMemberFunction2@@YGXQAX00H@Z 1000da3c f i libvcruntime:frame.obj
 0001:0000ca4f       ?getESTypes@__FrameHandler3@@SAPBU_s_ESTypeList@@PBU_s_FuncInfo@@@Z 1000da4f f i libvcruntime:frame.obj
 0001:0000ca60       __CallSettingFrame@12      1000da60 f   libvcruntime:lowhelpr.obj
 0001:0000ca87       __NLG_Return               1000da87     libvcruntime:lowhelpr.obj
 0001:0000caac       ___except_validate_context_record 1000daac f   libvcruntime:jbcxrval.obj
 0001:0000cadc       ___vcrt_initialize_locks   1000dadc f   libvcruntime:locks.obj
 0001:0000cb18       ___vcrt_uninitialize_locks 1000db18 f   libvcruntime:locks.obj
 0001:0000cb50       __local_unwind4            1000db50 f   libvcruntime:exsup4.obj
 0001:0000cc40       @_EH4_CallFilterFunc@8     1000dc40 f   libvcruntime:exsup4.obj
 0001:0000cc60       @_EH4_TransferToHandler@8  1000dc60 f   libvcruntime:exsup4.obj
 0001:0000cc80       @_EH4_GlobalUnwind2@8      1000dc80 f   libvcruntime:exsup4.obj
 0001:0000cca0       @_EH4_LocalUnwind@16       1000dca0 f   libvcruntime:exsup4.obj
 0001:0000cda2       ___vcrt_FlsAlloc           1000dda2 f   libvcruntime:winapi_downlevel.obj
 0001:0000cddd       ___vcrt_FlsFree            1000dddd f   libvcruntime:winapi_downlevel.obj
 0001:0000ce18       ___vcrt_FlsGetValue        1000de18 f   libvcruntime:winapi_downlevel.obj
 0001:0000ce53       ___vcrt_FlsSetValue        1000de53 f   libvcruntime:winapi_downlevel.obj
 0001:0000ce91       ___vcrt_InitializeCriticalSectionEx 1000de91 f   libvcruntime:winapi_downlevel.obj
 0001:0000ced8       _unexpected                1000ded8 f   libvcruntime:unexpected.obj
 0001:0000cef5       ?GetCurrentState@__FrameHandler3@@SAHPAUEHRegistrationNode@@PAXPBU_s_FuncInfo@@@Z 1000def5 f   libvcruntime:ehstate.obj
 0001:0000cf12       ?SetState@__FrameHandler3@@SAXPAUEHRegistrationNode@@PBU_s_FuncInfo@@H@Z 1000df12 f   libvcruntime:ehstate.obj
 0001:0000cf20       __NLG_Notify1              1000df20 f   libvcruntime:exsup.obj
 0001:0000cf30       __NLG_Notify               1000df30 f   libvcruntime:exsup.obj
 0001:0000cf47       __NLG_Dispatch             1000df47     libvcruntime:exsup.obj
 0001:0000cf47       __NLG_Dispatch2            1000df47     libvcruntime:exsup.obj
 0001:0000cf50       __NLG_Call                 1000df50 f   libvcruntime:exsup.obj
 0001:0000cf52       __NLG_Return2              1000df52     libvcruntime:exsup.obj
 0001:0000d2c7       ??$count@D@formatting_buffer@__crt_stdio_output@@QBEIXZ 1000e2c7 f i libucrt:output.obj
 0001:0000d2df       ??$ensure_buffer_is_big_enough@D@formatting_buffer@__crt_stdio_output@@QAE_NI@Z 1000e2df f i libucrt:output.obj
 0001:0000d35c       ??$is_wide_character_specifier@D@__crt_stdio_output@@YA_N_KDW4length_modifier@0@@Z 1000e35c f i libucrt:output.obj
 0001:0000d38d       ??$scratch_data@D@formatting_buffer@__crt_stdio_output@@QAEPADXZ 1000e38d f i libucrt:output.obj
 0001:0000d3ab       ??$type_case_integer_parse_into_buffer@I@?$output_processor@DV?$string_output_adapter@D@__crt_stdio_output@@V?$format_validation_base@DV?$string_output_adapter@D@__crt_stdio_output@@@2@@__crt_stdio_output@@AAEXII_N@Z 1000e3ab f i libucrt:output.obj
 0001:0000d3ab       ??$type_case_integer_parse_into_buffer@I@?$output_processor@DV?$string_output_adapter@D@__crt_stdio_output@@V?$standard_base@DV?$string_output_adapter@D@__crt_stdio_output@@@2@@__crt_stdio_output@@AAEXII_N@Z 1000e3ab f i libucrt:output.obj
 0001:0000d41e       ??$type_case_integer_parse_into_buffer@_K@?$output_processor@DV?$string_output_adapter@D@__crt_stdio_output@@V?$format_validation_base@DV?$string_output_adapter@D@__crt_stdio_output@@@2@@__crt_stdio_output@@AAEX_KI_N@Z 1000e41e f i libucrt:output.obj
 0001:0000d41e       ??$type_case_integer_parse_into_buffer@_K@?$output_processor@DV?$string_output_adapter@D@__crt_stdio_output@@V?$standard_base@DV?$string_output_adapter@D@__crt_stdio_output@@@2@@__crt_stdio_output@@AAEX_KI_N@Z 1000e41e f i libucrt:output.obj
 0001:0000d4ac       ??$write_multiple_characters@V?$string_output_adapter@D@__crt_stdio_output@@D@__crt_stdio_output@@YAXABV?$string_output_adapter@D@0@DHQAH@Z 1000e4ac f i libucrt:output.obj
 0001:0000d4d8       ??0?$common_data@D@__crt_stdio_output@@IAE@XZ 1000e4d8 f i libucrt:output.obj
 0001:0000d51d       ??0?$output_adapter_data@DV?$string_output_adapter@D@__crt_stdio_output@@@__crt_stdio_output@@IAE@ABV?$string_output_adapter@D@1@_KQBDQAU__crt_locale_pointers@@QAD@Z 1000e51d f i libucrt:output.obj
 0001:0000d559       ??0_LocaleUpdate@@QAE@QAU__crt_locale_pointers@@@Z 1000e559 f i libucrt:output.obj
 0001:0000d5dc       ??1formatting_buffer@__crt_stdio_output@@QAE@XZ 1000e5dc f i libucrt:output.obj
 0001:0000d5f6       ??4?$__crt_unique_heap_ptr@DU__crt_internal_free_policy@@@@QAEAAV0@$$QAV0@@Z 1000e5f6 f i libucrt:output.obj
 0001:0000d620       ?crop_zeroes@__crt_stdio_output@@YAXPADQAU__crt_locale_pointers@@@Z 1000e620 f i libucrt:output.obj
 0001:0000d6a1       ?find_next_state@?$output_processor@DV?$string_output_adapter@D@__crt_stdio_output@@V?$format_validation_base@DV?$string_output_adapter@D@__crt_stdio_output@@@2@@__crt_stdio_output@@ABE?AW4state@2@DW432@@Z 1000e6a1 f i libucrt:output.obj
 0001:0000d6d8       ?find_next_state@?$output_processor@DV?$string_output_adapter@D@__crt_stdio_output@@V?$standard_base@DV?$string_output_adapter@D@__crt_stdio_output@@@2@@__crt_stdio_output@@ABE?AW4state@2@DW432@@Z 1000e6d8 f i libucrt:output.obj
 0001:0000d710       ?force_decimal_point@__crt_stdio_output@@YAXPADQAU__crt_locale_pointers@@@Z 1000e710 f i libucrt:output.obj
 0001:0000d775       ?parse_int_from_format_string@?$output_processor@DV?$string_output_adapter@D@__crt_stdio_output@@V?$format_validation_base@DV?$string_output_adapter@D@__crt_stdio_output@@@2@@__crt_stdio_output@@AAE_NQAH@Z 1000e775 f i libucrt:output.obj
 0001:0000d775       ?parse_int_from_format_string@?$output_processor@DV?$string_output_adapter@D@__crt_stdio_output@@V?$standard_base@DV?$string_output_adapter@D@__crt_stdio_output@@@2@@__crt_stdio_output@@AAE_NQAH@Z 1000e775 f i libucrt:output.obj
 0001:0000d7e9       ?process@?$output_processor@DV?$string_output_adapter@D@__crt_stdio_output@@V?$format_validation_base@DV?$string_output_adapter@D@__crt_stdio_output@@@2@@__crt_stdio_output@@QAEHXZ 1000e7e9 f i libucrt:output.obj
 0001:0000d90d       ?process@?$output_processor@DV?$string_output_adapter@D@__crt_stdio_output@@V?$standard_base@DV?$string_output_adapter@D@__crt_stdio_output@@@2@@__crt_stdio_output@@QAEHXZ 1000e90d f i libucrt:output.obj
 0001:0000da21       ?state_case_flag@?$output_processor@DV?$string_output_adapter@D@__crt_stdio_output@@V?$format_validation_base@DV?$string_output_adapter@D@__crt_stdio_output@@@2@@__crt_stdio_output@@AAE_NXZ 1000ea21 f i libucrt:output.obj
 0001:0000da21       ?state_case_flag@?$output_processor@DV?$string_output_adapter@D@__crt_stdio_output@@V?$standard_base@DV?$string_output_adapter@D@__crt_stdio_output@@@2@@__crt_stdio_output@@AAE_NXZ 1000ea21 f i libucrt:output.obj
 0001:0000da5e       ?state_case_normal@?$output_processor@DV?$string_output_adapter@D@__crt_stdio_output@@V?$format_validation_base@DV?$string_output_adapter@D@__crt_stdio_output@@@2@@__crt_stdio_output@@AAE_NXZ 1000ea5e f i libucrt:output.obj
 0001:0000da5e       ?state_case_normal@?$output_processor@DV?$string_output_adapter@D@__crt_stdio_output@@V?$standard_base@DV?$string_output_adapter@D@__crt_stdio_output@@@2@@__crt_stdio_output@@AAE_NXZ 1000ea5e f i libucrt:output.obj
 0001:0000da7d       ?state_case_normal_common@?$output_processor@DV?$string_output_adapter@D@__crt_stdio_output@@V?$format_validation_base@DV?$string_output_adapter@D@__crt_stdio_output@@@2@@__crt_stdio_output@@AAE_NXZ 1000ea7d f i libucrt:output.obj
 0001:0000da7d       ?state_case_normal_common@?$output_processor@DV?$string_output_adapter@D@__crt_stdio_output@@V?$standard_base@DV?$string_output_adapter@D@__crt_stdio_output@@@2@@__crt_stdio_output@@AAE_NXZ 1000ea7d f i libucrt:output.obj
 0001:0000daa7       ?state_case_normal_tchar@?$output_processor@DV?$string_output_adapter@D@__crt_stdio_output@@V?$format_validation_base@DV?$string_output_adapter@D@__crt_stdio_output@@@2@@__crt_stdio_output@@AAE_ND@Z 1000eaa7 f i libucrt:output.obj
 0001:0000daa7       ?state_case_normal_tchar@?$output_processor@DV?$string_output_adapter@D@__crt_stdio_output@@V?$standard_base@DV?$string_output_adapter@D@__crt_stdio_output@@@2@@__crt_stdio_output@@AAE_ND@Z 1000eaa7 f i libucrt:output.obj
 0001:0000db0b       ?state_case_precision@?$output_processor@DV?$string_output_adapter@D@__crt_stdio_output@@V?$format_validation_base@DV?$string_output_adapter@D@__crt_stdio_output@@@2@@__crt_stdio_output@@AAE_NXZ 1000eb0b f i libucrt:output.obj
 0001:0000db0b       ?state_case_precision@?$output_processor@DV?$string_output_adapter@D@__crt_stdio_output@@V?$standard_base@DV?$string_output_adapter@D@__crt_stdio_output@@@2@@__crt_stdio_output@@AAE_NXZ 1000eb0b f i libucrt:output.obj
 0001:0000db31       ?state_case_size@?$output_processor@DV?$string_output_adapter@D@__crt_stdio_output@@V?$format_validation_base@DV?$string_output_adapter@D@__crt_stdio_output@@@2@@__crt_stdio_output@@AAE_NXZ 1000eb31 f i libucrt:output.obj
 0001:0000db31       ?state_case_size@?$output_processor@DV?$string_output_adapter@D@__crt_stdio_output@@V?$standard_base@DV?$string_output_adapter@D@__crt_stdio_output@@@2@@__crt_stdio_output@@AAE_NXZ 1000eb31 f i libucrt:output.obj
 0001:0000dc7f       ?state_case_type@?$output_processor@DV?$string_output_adapter@D@__crt_stdio_output@@V?$format_validation_base@DV?$string_output_adapter@D@__crt_stdio_output@@@2@@__crt_stdio_output@@AAE_NXZ 1000ec7f f i libucrt:output.obj
 0001:0000dc7f       ?state_case_type@?$output_processor@DV?$string_output_adapter@D@__crt_stdio_output@@V?$standard_base@DV?$string_output_adapter@D@__crt_stdio_output@@@2@@__crt_stdio_output@@AAE_NXZ 1000ec7f f i libucrt:output.obj
 0001:0000deb1       ?state_case_width@?$output_processor@DV?$string_output_adapter@D@__crt_stdio_output@@V?$format_validation_base@DV?$string_output_adapter@D@__crt_stdio_output@@@2@@__crt_stdio_output@@AAE_NXZ 1000eeb1 f i libucrt:output.obj
 0001:0000deb1       ?state_case_width@?$output_processor@DV?$string_output_adapter@D@__crt_stdio_output@@V?$standard_base@DV?$string_output_adapter@D@__crt_stdio_output@@@2@@__crt_stdio_output@@AAE_NXZ 1000eeb1 f i libucrt:output.obj
 0001:0000dee0       ?to_integer_size@__crt_stdio_output@@YAIW4length_modifier@1@@Z 1000eee0 f i libucrt:output.obj
 0001:0000df3c       ?type_case_Z@?$output_processor@DV?$string_output_adapter@D@__crt_stdio_output@@V?$format_validation_base@DV?$string_output_adapter@D@__crt_stdio_output@@@2@@__crt_stdio_output@@AAE_NXZ 1000ef3c f i libucrt:output.obj
 0001:0000df3c       ?type_case_Z@?$output_processor@DV?$string_output_adapter@D@__crt_stdio_output@@V?$standard_base@DV?$string_output_adapter@D@__crt_stdio_output@@@2@@__crt_stdio_output@@AAE_NXZ 1000ef3c f i libucrt:output.obj
 0001:0000df96       ?type_case_a@?$output_processor@DV?$string_output_adapter@D@__crt_stdio_output@@V?$format_validation_base@DV?$string_output_adapter@D@__crt_stdio_output@@@2@@__crt_stdio_output@@AAE_NXZ 1000ef96 f i libucrt:output.obj
 0001:0000df96       ?type_case_a@?$output_processor@DV?$string_output_adapter@D@__crt_stdio_output@@V?$standard_base@DV?$string_output_adapter@D@__crt_stdio_output@@@2@@__crt_stdio_output@@AAE_NXZ 1000ef96 f i libucrt:output.obj
 0001:0000e0e7       ?type_case_c_tchar@?$output_processor@DV?$string_output_adapter@D@__crt_stdio_output@@V?$format_validation_base@DV?$string_output_adapter@D@__crt_stdio_output@@@2@@__crt_stdio_output@@AAE_ND@Z 1000f0e7 f i libucrt:output.obj
 0001:0000e0e7       ?type_case_c_tchar@?$output_processor@DV?$string_output_adapter@D@__crt_stdio_output@@V?$standard_base@DV?$string_output_adapter@D@__crt_stdio_output@@@2@@__crt_stdio_output@@AAE_ND@Z 1000f0e7 f i libucrt:output.obj
 0001:0000e17a       ?type_case_integer@?$output_processor@DV?$string_output_adapter@D@__crt_stdio_output@@V?$format_validation_base@DV?$string_output_adapter@D@__crt_stdio_output@@@2@@__crt_stdio_output@@AAE_NI_N@Z 1000f17a f i libucrt:output.obj
 0001:0000e17a       ?type_case_integer@?$output_processor@DV?$string_output_adapter@D@__crt_stdio_output@@V?$standard_base@DV?$string_output_adapter@D@__crt_stdio_output@@@2@@__crt_stdio_output@@AAE_NI_N@Z 1000f17a f i libucrt:output.obj
 0001:0000e2cb       ?type_case_n@?$output_processor@DV?$string_output_adapter@D@__crt_stdio_output@@V?$format_validation_base@DV?$string_output_adapter@D@__crt_stdio_output@@@2@@__crt_stdio_output@@AAE_NXZ 1000f2cb f i libucrt:output.obj
 0001:0000e2cb       ?type_case_n@?$output_processor@DV?$string_output_adapter@D@__crt_stdio_output@@V?$standard_base@DV?$string_output_adapter@D@__crt_stdio_output@@@2@@__crt_stdio_output@@AAE_NXZ 1000f2cb f i libucrt:output.obj
 0001:0000e33f       ?type_case_o@?$output_processor@DV?$string_output_adapter@D@__crt_stdio_output@@V?$format_validation_base@DV?$string_output_adapter@D@__crt_stdio_output@@@2@@__crt_stdio_output@@AAE_NXZ 1000f33f f i libucrt:output.obj
 0001:0000e33f       ?type_case_o@?$output_processor@DV?$string_output_adapter@D@__crt_stdio_output@@V?$standard_base@DV?$string_output_adapter@D@__crt_stdio_output@@@2@@__crt_stdio_output@@AAE_NXZ 1000f33f f i libucrt:output.obj
 0001:0000e35e       ?type_case_p@?$output_processor@DV?$string_output_adapter@D@__crt_stdio_output@@V?$format_validation_base@DV?$string_output_adapter@D@__crt_stdio_output@@@2@@__crt_stdio_output@@AAE_NXZ 1000f35e f i libucrt:output.obj
 0001:0000e35e       ?type_case_p@?$output_processor@DV?$string_output_adapter@D@__crt_stdio_output@@V?$standard_base@DV?$string_output_adapter@D@__crt_stdio_output@@@2@@__crt_stdio_output@@AAE_NXZ 1000f35e f i libucrt:output.obj
 0001:0000e376       ?type_case_s@?$output_processor@DV?$string_output_adapter@D@__crt_stdio_output@@V?$format_validation_base@DV?$string_output_adapter@D@__crt_stdio_output@@@2@@__crt_stdio_output@@AAE_NXZ 1000f376 f i libucrt:output.obj
 0001:0000e376       ?type_case_s@?$output_processor@DV?$string_output_adapter@D@__crt_stdio_output@@V?$standard_base@DV?$string_output_adapter@D@__crt_stdio_output@@@2@@__crt_stdio_output@@AAE_NXZ 1000f376 f i libucrt:output.obj
 0001:0000e3e7       ?validate@?$c_string_character_source@D@__crt_strtox@@QBE_NXZ 1000f3e7 f i libucrt:atox.obj
 0001:0000e3e7       ?validate@?$string_output_adapter@D@__crt_stdio_output@@QBE_NXZ 1000f3e7 f i libucrt:output.obj
 0001:0000e402       ?validate_and_update_state_at_end_of_format_string@?$format_validation_base@DV?$string_output_adapter@D@__crt_stdio_output@@@__crt_stdio_output@@IBE_NXZ 1000f402 f i libucrt:output.obj
 0001:0000e424       ?write_character@?$string_output_adapter@D@__crt_stdio_output@@QBE_NDQAH@Z 1000f424 f i libucrt:output.obj
 0001:0000e466       ?write_stored_string_tchar@?$output_processor@DV?$string_output_adapter@D@__crt_stdio_output@@V?$format_validation_base@DV?$string_output_adapter@D@__crt_stdio_output@@@2@@__crt_stdio_output@@AAE_ND@Z 1000f466 f i libucrt:output.obj
 0001:0000e466       ?write_stored_string_tchar@?$output_processor@DV?$string_output_adapter@D@__crt_stdio_output@@V?$standard_base@DV?$string_output_adapter@D@__crt_stdio_output@@@2@@__crt_stdio_output@@AAE_ND@Z 1000f466 f i libucrt:output.obj
 0001:0000e50b       ?write_string@?$string_output_adapter@D@__crt_stdio_output@@QBEXQBDHQAHAAV__crt_deferred_errno_cache@@@Z 1000f50b f i libucrt:output.obj
 0001:0000e572       ___acrt_locale_get_ctype_array_value 1000f572 f i libucrt:output.obj
 0001:0000e594       ___stdio_common_vsprintf   1000f594 f   libucrt:output.obj
 0001:0000e5b8       ___stdio_common_vsprintf_s 1000f5b8 f   libucrt:output.obj
 0001:0000e5dc       ___acrt_call_reportfault   1000f5dc f   libucrt:invalid_parameter.obj
 0001:0000e715       ___acrt_initialize_invalid_parameter_handler 1000f715 f   libucrt:invalid_parameter.obj
 0001:0000e724       __invalid_parameter        1000f724 f   libucrt:invalid_parameter.obj
 0001:0000e788       __invalid_parameter_noinfo 1000f788 f   libucrt:invalid_parameter.obj
 0001:0000e798       __invalid_parameter_noinfo_noreturn 1000f798 f   libucrt:invalid_parameter.obj
 0001:0000e7b5       __invoke_watson            1000f7b5 f   libucrt:invalid_parameter.obj
 0001:0000e7e9       ??$is_overflow_condition@K@__crt_strtox@@YA_NIK@Z 1000f7e9 f i libucrt:atox.obj
 0001:0000e81a       ??$parse_integer@KV?$c_string_character_source@D@__crt_strtox@@@__crt_strtox@@YAKQAU__crt_locale_pointers@@V?$c_string_character_source@D@0@H_N@Z 1000f81a f i libucrt:atox.obj
 0001:0000ea3d       ?unget@?$c_string_character_source@D@__crt_strtox@@QAEXD@Z 1000fa3d f i libucrt:atox.obj
 0001:0000ea66       __ischartype_l             1000fa66 f i libucrt:atox.obj
 0001:0000eaba       _atoi                      1000faba f   libucrt:atox.obj
 0001:0000ec39       __beginthreadex            1000fc39 f   libucrt:thread.obj
 0001:0000ecbc       __endthreadex              1000fcbc f   libucrt:thread.obj
 0001:0000ecca       _rand                      1000fcca f   libucrt:rand.obj
 0001:0000eceb       _terminate                 1000fceb f   libucrt:terminate.obj
 0001:0000ed27       _abort                     1000fd27 f   libucrt:abort.obj
 0001:0000ed6b       _calloc                    1000fd6b f   libucrt:calloc.obj
 0001:0000ed76       ___acrt_initialize_stdio   1000fd76 f   libucrt:_file.obj
 0001:0000ee3e       ___acrt_uninitialize_stdio 1000fe3e f   libucrt:_file.obj
 0001:0000ee8a       __lock_file                1000fe8a f   libucrt:_file.obj
 0001:0000ee9e       __unlock_file              1000fe9e f   libucrt:_file.obj
 0001:0000eeb2       _free                      1000feb2 f   libucrt:free.obj
 0001:0000eecd       ___acrt_initialize_new_handler 1000fecd f   libucrt:new_handler.obj
 0001:0000eedc       __callnewh                 1000fedc f   libucrt:new_handler.obj
 0001:0000ef09       __query_new_handler        1000ff09 f   libucrt:new_handler.obj
 0001:0000ef65       _malloc                    1000ff65 f   libucrt:malloc.obj
 0001:0000ef70       __seh_filter_dll           1000ff70 f   libucrt:exception_filter.obj
 0001:0000ef90       __seh_filter_exe           1000ff90 f   libucrt:exception_filter.obj
 0001:0000f35e       ___acrt_initialize_thread_local_exit_callback 1001035e f   libucrt:exit.obj
 0001:0000f36d       __cexit                    1001036d f   libucrt:exit.obj
 0001:0000f37c       __exit                     1001037c f   libucrt:exit.obj
 0001:0000f392       __is_c_termination_complete 10010392 f   libucrt:exit.obj
 0001:0000f643       ___acrt_allocate_buffer_for_argv 10010643 f   libucrt:argv_parsing.obj
 0001:0000f692       __configure_narrow_argv    10010692 f   libucrt:argv_parsing.obj
 0001:0000f7ef       ??$uninitialize@A6AXAAPAPAD@Z@?$dual_state_global@PAPAD@__crt_state_management@@QAEXA6AXAAPAPAD@Z@Z 100107ef f i libucrt:environment_initialization.obj
 0001:0000f7ef       ??$uninitialize@A6AXAAPAPA_W@Z@?$dual_state_global@PAPA_W@__crt_state_management@@QAEXA6AXAAPAPA_W@Z@Z 100107ef f i libucrt:environment_initialization.obj
 0001:0000f84e       ___dcrt_uninitialize_environments_nolock 1001084e f   libucrt:environment_initialization.obj
 0001:0000f885       __initialize_narrow_environment 10010885 f   libucrt:environment_initialization.obj
 0001:0000f940       ??$__crt_fast_encode_pointer@P6AHXZ@@YAP6AHXZQ6AHXZ@Z 10010940 f i libucrt:onexit.obj
 0001:0000f940       ??$__crt_fast_encode_pointer@PAP6AXXZ@@YAPAP6AXXZQAP6AXXZ@Z 10010940 f i libucrt:onexit.obj
 0001:0000f940       ??$__crt_fast_encode_pointer@PAX@@YAPAXQAX@Z 10010940 f i libucrt:initialization.obj
 0001:0000fb62       __crt_atexit               10010b62 f   libucrt:onexit.obj
 0001:0000fb78       __execute_onexit_table     10010b78 f   libucrt:onexit.obj
 0001:0000fba5       __initialize_onexit_table  10010ba5 f   libucrt:onexit.obj
 0001:0000fbce       __register_onexit_function 10010bce f   libucrt:onexit.obj
 0001:0000fc28       ___acrt_uninitialize_command_line 10010c28 f   libucrt:argv_data.obj
 0001:0000fcff       ___acrt_initialize         10010cff f   libucrt:initialization.obj
 0001:0000fd11       ___acrt_thread_attach      10010d11 f   libucrt:initialization.obj
 0001:0000fd1c       ___acrt_thread_detach      10010d1c f   libucrt:initialization.obj
 0001:0000fd24       ___acrt_uninitialize       10010d24 f   libucrt:initialization.obj
 0001:0000fd54       ___acrt_uninitialize_critical 10010d54 f   libucrt:initialization.obj
 0001:0000fd66       __initterm                 10010d66 f   libucrt:initterm.obj
 0001:0000fdab       __initterm_e               10010dab f   libucrt:initterm.obj
 0001:0000fdd9       _strcpy_s                  10010dd9 f   libucrt:strcpy_s.obj
 0001:0000fe40       _strncmp                   10010e40 f   libucrt:strncmp.obj
 0001:0000feb8       _wcsncmp                   10010eb8 f   libucrt:wcsncmp.obj
 0001:0000fef2       ___acrt_errno_from_os_error 10010ef2 f   libucrt:errno.obj
 0001:0000ff35       ___acrt_errno_map_os_error 10010f35 f   libucrt:errno.obj
 0001:0000ff58       ___doserrno                10010f58 f   libucrt:errno.obj
 0001:0000ff6b       __errno                    10010f6b f   libucrt:errno.obj
 0001:0000ff7e       __free_base                10010f7e f   libucrt:free_base.obj
 0001:0000ffb8       __malloc_base              10010fb8 f   libucrt:malloc_base.obj
 0001:00010006       ??$make_c_string_character_source@DPAPAD@__crt_strtox@@YA?AV?$c_string_character_source@D@0@QBDQAPAD@Z 10011006 f i libucrt:strtox.obj
 0001:00010021       _strtol                    10011021 f   libucrt:strtox.obj
 0001:0001004b       __mbtowc_l                 1001104b f   libucrt:mbtowc.obj
 0001:0001018d       _mbtowc                    1001118d f   libucrt:mbtowc.obj
 0001:000101a7       __wctomb_s_l               100111a7 f   libucrt:wctomb.obj
 0001:00010302       _strnlen                   10011302 f   libucrt:strnlen.obj
 0001:00010424       _wcsnlen                   10011424 f   libucrt:strnlen.obj
 0001:00010912       ___acrt_freeptd            10011912 f   libucrt:per_thread_data.obj
 0001:0001093e       ___acrt_getptd             1001193e f   libucrt:per_thread_data.obj
 0001:000109fb       ___acrt_getptd_head        100119fb f   libucrt:per_thread_data.obj
 0001:00010a95       ___acrt_getptd_noexit      10011a95 f   libucrt:per_thread_data.obj
 0001:00010b4a       ___acrt_initialize_ptd     10011b4a f   libucrt:per_thread_data.obj
 0001:00010b76       ___acrt_uninitialize_ptd   10011b76 f   libucrt:per_thread_data.obj
 0001:00010b90       ___acrt_update_locale_info 10011b90 f   libucrt:locale_update.obj
 0001:00010bbd       ___acrt_update_multibyte_info 10011bbd f   libucrt:locale_update.obj
 0001:00010bea       ?__acrt_fp_classify@@YA?AW4__acrt_fp_class@@ABN@Z 10011bea f i libucrt:cvt.obj
 0001:0001159d       ___acrt_fp_format          1001259d f   libucrt:cvt.obj
 0001:000116f9       __fileno                   100126f9 f   libucrt:fileno.obj
 0001:00011720       __get_printf_count_output  10012720 f   libucrt:printf_count_output.obj
 0001:000117a3       ___acrt_set_locale_changed 100127a3 f   libucrt:wsetlocale.obj
 0001:000117ae       ___acrt_uninitialize_locale 100127ae f   libucrt:wsetlocale.obj
 0001:0001193f       ___acrt_initialize_lowio   1001293f f   libucrt:ioinit.obj
 0001:0001199f       ___acrt_uninitialize_lowio 1001299f f   libucrt:ioinit.obj
 0001:000119cb       ___pctype_func             100129cb f   libucrt:ctype.obj
 0001:000119ef       __isctype_l                100129ef f   libucrt:isctype.obj
 0001:00011aba       __calloc_base              10012aba f   libucrt:calloc_base.obj
 0001:00011caf       ___acrt_AppPolicyGetProcessTerminationMethodInternal@4 10012caf f   libucrt:winapi_thunks.obj
 0001:00011cef       ___acrt_AppPolicyGetThreadInitializationTypeInternal@4 10012cef f   libucrt:winapi_thunks.obj
 0001:00011d2f       ___acrt_AreFileApisANSI@0  10012d2f f   libucrt:winapi_thunks.obj
 0001:00011d4e       ___acrt_FlsAlloc@4         10012d4e f   libucrt:winapi_thunks.obj
 0001:00011d8d       ___acrt_FlsFree@4          10012d8d f   libucrt:winapi_thunks.obj
 0001:00011dcc       ___acrt_FlsGetValue@4      10012dcc f   libucrt:winapi_thunks.obj
 0001:00011e0b       ___acrt_FlsSetValue@8      10012e0b f   libucrt:winapi_thunks.obj
 0001:00011e4d       ___acrt_InitializeCriticalSectionEx@12 10012e4d f   libucrt:winapi_thunks.obj
 0001:00011e98       ___acrt_LCMapStringEx@36   10012e98 f   libucrt:winapi_thunks.obj
 0001:00011ef5       ___acrt_LocaleNameToLCID@8 10012ef5 f   libucrt:winapi_thunks.obj
 0001:00011f26       ___acrt_RoInitialize@4     10012f26 f   libucrt:winapi_thunks.obj
 0001:00011f61       ___acrt_RoUninitialize@0   10012f61 f   libucrt:winapi_thunks.obj
 0001:00011f8f       ___acrt_initialize_winapi_thunks 10012f8f f   libucrt:winapi_thunks.obj
 0001:00011fba       ___acrt_uninitialize_winapi_thunks 10012fba f   libucrt:winapi_thunks.obj
 0001:00011ff0       ___acrt_get_begin_thread_init_policy 10012ff0 f   libucrt:win_policies.obj
 0001:00012034       ___acrt_get_process_end_policy 10013034 f   libucrt:win_policies.obj
 0001:00012133       ___acrt_get_sigabrt_handler 10013133 f   libucrt:signal.obj
 0001:0001215a       ___acrt_initialize_signal_handlers 1001315a f   libucrt:signal.obj
 0001:00012178       _raise                     10013178 f   libucrt:signal.obj
 0001:0001236b       __fcloseall                1001336b f   libucrt:closeall.obj
 0001:000125f3       ___acrt_stdio_flush_nolock 100135f3 f   libucrt:fflush.obj
 0001:00012658       __fflush_nolock            10013658 f   libucrt:fflush.obj
 0001:000126a0       __flushall                 100136a0 f   libucrt:fflush.obj
 0001:000126a9       ___acrt_stdio_free_buffer_nolock 100136a9 f   libucrt:_freebuf.obj
 0001:000126e9       ___acrt_initialize_locks   100136e9 f   libucrt:locks.obj
 0001:0001272a       ___acrt_lock               1001372a f   libucrt:locks.obj
 0001:00012741       ___acrt_uninitialize_locks 10013741 f   libucrt:locks.obj
 0001:00012772       ___acrt_unlock             10013772 f   libucrt:locks.obj
 0001:00012922       ??$__acrt_mbs_to_wcs_cp@U__crt_win32_buffer_internal_dynamic_resizing@@@@YAHQBDAAV?$__crt_win32_buffer@_WU__crt_win32_buffer_internal_dynamic_resizing@@@@I@Z 10013922 f i libucrt:argv_wildcards.obj
 0001:00012e36       ?__acrt_get_utf8_acp_compatibility_codepage@@YAIXZ 10013e36 f i libucrt:argv_wildcards.obj
 0001:00012e75       ?_deallocate@?$__crt_win32_buffer@DU__crt_win32_buffer_internal_dynamic_resizing@@@@AAEXXZ 10013e75 f i libucrt:argv_wildcards.obj
 0001:00012e75       ?_deallocate@?$__crt_win32_buffer@_WU__crt_win32_buffer_internal_dynamic_resizing@@@@AAEXXZ 10013e75 f i libucrt:argv_wildcards.obj
 0001:00012e8f       ?allocate@?$__crt_win32_buffer@DU__crt_win32_buffer_internal_dynamic_resizing@@@@QAEHI@Z 10013e8f f i libucrt:argv_wildcards.obj
 0001:00012ecb       ?allocate@?$__crt_win32_buffer@_WU__crt_win32_buffer_internal_dynamic_resizing@@@@QAEHI@Z 10013ecb f i libucrt:argv_wildcards.obj
 0001:00012f0a       ?allocate@__crt_win32_buffer_internal_dynamic_resizing@@SAHQAPAXIABV__crt_win32_buffer_empty_debug_info@@@Z 10013f0a f i libucrt:argv_wildcards.obj
 0001:00012fb0       ___acrt_expand_narrow_argv_wildcards 10013fb0 f   libucrt:argv_wildcards.obj
 0001:00013082       ?allocate@?$__crt_win32_buffer@DU__crt_win32_buffer_no_resizing@@@@QAEHI@Z 10014082 f i libucrt:getmodulefilenamea.obj
 0001:000130a9       ?set_to_nullptr@?$__crt_win32_buffer@DU__crt_win32_buffer_no_resizing@@@@QAEXXZ 100140a9 f i libucrt:getmodulefilenamea.obj
 0001:000130bd       ___acrt_GetModuleFileNameA 100140bd f   libucrt:getmodulefilenamea.obj
 0001:00013676       ___acrt_initialize_multibyte 10014676 f   libucrt:mbctype.obj
 0001:000136be       ___acrt_update_thread_multibyte_data 100146be f   libucrt:mbctype.obj
 0001:000136d1       __setmbcp_nolock           100146d1 f   libucrt:mbctype.obj
 0001:0001399c       __ismbblead                1001499c f   libucrt:ismbbyte.obj
 0001:000139b4       ___acrt_initialize_command_line 100149b4 f   libucrt:argv_data.obj
 0001:000139cd       ___acrt_MultiByteToWideChar 100149cd f   libucrt:multibytetowidechar.obj
 0001:00013a49       ___acrt_WideCharToMultiByte 10014a49 f   libucrt:widechartomultibyte.obj
 0001:00013b37       ___dcrt_get_narrow_environment_from_os 10014b37 f   libucrt:get_environment_from_os.obj
 0001:00013bbb       __recalloc_base            10014bbb f   libucrt:recalloc.obj
 0001:00013c28       ___acrt_initialize_heap    10014c28 f   libucrt:heap_handle.obj
 0001:00013c39       ___acrt_uninitialize_heap  10014c39 f   libucrt:heap_handle.obj
 0001:00013c43       ___acrt_execute_initializers 10014c43 f   libucrt:shared_initialization.obj
 0001:00013cab       ___acrt_execute_uninitializers 10014cab f   libucrt:shared_initialization.obj
 0001:00013cdc       ___acrt_has_user_matherr   10014cdc f   libucrt:matherr.obj
 0001:00013cf4       ___acrt_initialize_user_matherr 10014cf4 f   libucrt:matherr.obj
 0001:00013d03       ___acrt_invoke_user_matherr 10014d03 f   libucrt:matherr.obj
 0001:00013d35       __query_new_mode           10014d35 f   libucrt:new_mode.obj
 0001:00013d3c       __isleadbyte_l             10014d3c f i libucrt:_wctype.obj
 0001:00013da2       ?__mbrtowc_utf8@__crt_mbstring@@YAIPA_WPBDIPAU_Mbstatet@@@Z 10014da2 f   libucrt:mbrtowc.obj
 0001:00013de2       ?__mbsrtowcs_utf8@__crt_mbstring@@YAIPA_WPAPBDIPAU_Mbstatet@@@Z 10014de2 f   libucrt:mbrtowc.obj
 0001:00013edd       ?__c32rtomb_utf8@__crt_mbstring@@YAIPAD_UPAU_Mbstatet@@@Z 10014edd f   libucrt:c32rtomb.obj
 0001:00013f88       ?return_illegal_sequence@__crt_mbstring@@YAIPAU_Mbstatet@@@Z 10014f88 f i libucrt:c32rtomb.obj
 0001:00013fa7       ___acrt_add_locale_ref     10014fa7 f   libucrt:locale_refcounting.obj
 0001:00014024       ___acrt_free_locale        10015024 f   libucrt:locale_refcounting.obj
 0001:0001416c       ___acrt_locale_add_lc_time_reference 1001516c f   libucrt:locale_refcounting.obj
 0001:00014195       ___acrt_locale_free_lc_time_if_unreferenced 10015195 f   libucrt:locale_refcounting.obj
 0001:000141c6       ___acrt_locale_release_lc_time_reference 100151c6 f   libucrt:locale_refcounting.obj
 0001:000141ef       ___acrt_release_locale_ref 100151ef f   libucrt:locale_refcounting.obj
 0001:00014270       ___acrt_update_thread_locale_data 10015270 f   libucrt:locale_refcounting.obj
 0001:000142f1       __updatetlocinfoEx_nolock  100152f1 f   libucrt:locale_refcounting.obj
 0001:000143bb       ___acrt_fp_strflt_to_string 100153bb f   libucrt:_fptostr.obj
 0001:000144a0       ?divide@__crt_strtox@@YA_KAAUbig_integer@1@ABU21@@Z 100154a0 f i libucrt:cfout.obj
 0001:00014938       ___acrt_fltout             10015938 f   libucrt:cfout.obj
 0001:00015e3f       _fegetround                10016e3f f   libucrt:fegetround.obj
 0001:00015e4c       __isatty                   10016e4c f   libucrt:isatty.obj
 0001:00015ea2       ___acrt_locale_free_monetary 10016ea2 f   libucrt:initmon.obj
 0001:00015fa0       ___acrt_locale_free_numeric 10016fa0 f   libucrt:initnum.obj
 0001:00016041       ___acrt_locale_free_time   10017041 f   libucrt:inittime.obj
 0001:00016125       ___acrt_GetStringTypeA     10017125 f   libucrt:getstringtypea.obj
 0001:00016228       __freea_crt                10017228 f i libucrt:getstringtypea.obj
 0001:00016248       ___acrt_lowio_create_handle_array 10017248 f   libucrt:osfinfo.obj
 0001:000162c3       ___acrt_lowio_destroy_handle_array 100172c3 f   libucrt:osfinfo.obj
 0001:000162f8       ___acrt_lowio_ensure_fh_exists 100172f8 f   libucrt:osfinfo.obj
 0001:00016396       ___acrt_lowio_lock_fh      10017396 f   libucrt:osfinfo.obj
 0001:000163b9       ___acrt_lowio_unlock_fh    100173b9 f   libucrt:osfinfo.obj
 0001:000163dc       __free_osfhnd              100173dc f   libucrt:osfinfo.obj
 0001:0001646d       __get_osfhandle            1001746d f   libucrt:osfinfo.obj
 0001:00016527       ___acrt_DownlevelLocaleNameToLCID 10017527 f   libucrt:lcidtoname_downlevel.obj
 0001:00016553       __fclose_nolock            10017553 f   libucrt:fclose.obj
 0001:000165ca       _fclose                    100175ca f   libucrt:fclose.obj
 0001:000166f0       __commit                   100176f0 f   libucrt:commit.obj
 0001:00016ee8       __write                    10017ee8 f   libucrt:write.obj
 0001:00016fda       __write_nolock             10017fda f   libucrt:write.obj
 0001:00017230       __lseeki64_nolock          10018230 f   libucrt:lseek.obj
 0001:00017250       _qsort                     10018250 f   libucrt:qsort.obj
 0001:000177f1       _strncpy_s                 100187f1 f   libucrt:strncpy_s.obj
 0001:00017800       _strpbrk                   10018800 f   libucrt:strpbrk.obj
 0001:00017840       __mbsdec                   10018840 f   libucrt:mbsdec.obj
 0001:00017857       __mbsdec_l                 10018857 f   libucrt:mbsdec.obj
 0001:00017ace       ___acrt_LCMapStringA       10018ace f   libucrt:lcmapstringa.obj
 0001:00017b26       __msize_base               10018b26 f   libucrt:msize.obj
 0001:00017b59       __realloc_base             10018b59 f   libucrt:realloc_base.obj
 0001:00017bc2       ?__mbrtoc32_utf8@__crt_mbstring@@YAIPA_UPBDIPAU_Mbstatet@@@Z 10018bc2 f   libucrt:mbrtoc32.obj
 0001:00017d69       __controlfp_s              10018d69 f   libucrt:contrlfp.obj
 0001:00017dc8       _fegetenv                  10018dc8 f   libucrt:fegetenv.obj
 0001:00017de5       _fesetenv                  10018de5 f   libucrt:fesetenv.obj
 0001:00017e30       _feholdexcept              10018e30 f   libucrt:feholdexcept.obj
 0001:00017e80       __CIlog10                  10018e80 f   libucrt:log10_impl.obj
 0001:00017ebb       __CIlog10_default          10018ebb f   libucrt:log10_impl.obj
 0001:00017ecf       __log10_default            10018ecf     libucrt:log10_impl.obj
 0001:00017f90       _ceil                      10018f90 f   libucrt:ceil_pentium4.obj
 0001:00017fd0       __ceil_pentium4            10018fd0 f   libucrt:ceil_pentium4.obj
 0001:000183ca       ___acrt_fenv_get_common_round_control 100193ca f   libucrt:_fenvutils.obj
 0001:000183ec       ___acrt_fenv_get_control   100193ec f   libucrt:_fenvutils.obj
 0001:0001846c       ___acrt_fenv_get_status    1001946c f   libucrt:_fenvutils.obj
 0001:00018524       ___acrt_fenv_set_control   10019524 f   libucrt:_fenvutils.obj
 0001:0001858c       ___acrt_fenv_set_status    1001958c f   libucrt:_fenvutils.obj
 0001:00018683       ___ascii_wcsnicmp          10019683 f   libucrt:wcsnicmp.obj
 0001:000186d2       __query_app_type           100196d2 f   libucrt:report_runtime_error.obj
 0001:00018764       __close                    10019764 f   libucrt:close.obj
 0001:000187f1       __close_nolock             100197f1 f   libucrt:close.obj
 0001:0001888d       ?__acrt_stdio_free_stream@@YAXV__crt_stdio_stream@@@Z 1001988d f   libucrt:stream.obj
 0001:000188c8       __putwch_nolock            100198c8 f   libucrt:putwch.obj
 0001:000188fa       ___strncnt                 100198fa f   libucrt:strncnt.obj
 0001:000189bd       __clearfp                  100199bd f   libucrt:ieee87.obj
 0001:00018a9b       __control87                10019a9b f   libucrt:ieee87.obj
 0001:00018e3a       ___acrt_initialize_sse2    10019e3a f   libucrt:mathfcns.obj
 0001:00018e50       __CIlog10_pentium4         10019e50 f   libucrt:log10_pentium4.obj
 0001:00018e68       __log10_pentium4           10019e68     libucrt:log10_pentium4.obj
 0001:00019100       __fFEXP                    1001a100 f   libucrt:87tran.obj
 0001:00019157       __rtinfpopse               1001a157     libucrt:87tran.obj
 0001:00019159       __rtinfnpopse              1001a159     libucrt:87tran.obj
 0001:00019169       __fFLN                     1001a169     libucrt:87tran.obj
 0001:0001921e       __rtinfpop                 1001a21e     libucrt:87tran.obj
 0001:00019220       __rtinfnpop                1001a220     libucrt:87tran.obj
 0001:00019230       __rtforexpinf              1001a230 f   libucrt:87tran.obj
 0001:0001923d       __ffexpm1                  1001a23d     libucrt:87tran.obj
 0001:000192f0       __trandisp1                1001a2f0 f   libucrt:87disp.obj
 0001:00019365       __trandisp2                1001a365 f   libucrt:87disp.obj
 0001:000193ff       __rttospopde               1001a3ff     libucrt:87disp.obj
 0001:00019404       __rttospop                 1001a404     libucrt:87disp.obj
 0001:00019410       __rtnospop                 1001a410 f   libucrt:87disp.obj
 0001:00019420       __rttosnpop                1001a420 f   libucrt:87disp.obj
 0001:00019421       __rtnospopde               1001a421     libucrt:87disp.obj
 0001:00019428       __rtzeropop                1001a428     libucrt:87disp.obj
 0001:0001942a       __rtzeronpop               1001a42a     libucrt:87disp.obj
 0001:00019430       __rtzerospop               1001a430 f   libucrt:87disp.obj
 0001:0001943d       __rtonepop                 1001a43d     libucrt:87disp.obj
 0001:00019440       __rtonenpop                1001a440 f   libucrt:87disp.obj
 0001:00019450       __tosnan1                  1001a450 f   libucrt:87disp.obj
 0001:00019480       __nosnan2                  1001a480 f   libucrt:87disp.obj
 0001:00019490       __tosnan2                  1001a490 f   libucrt:87disp.obj
 0001:000194c0       __nan2                     1001a4c0 f   libucrt:87disp.obj
 0001:00019500       __rtindfpop                1001a500 f   libucrt:87disp.obj
 0001:00019502       __rtindfnpop               1001a502     libucrt:87disp.obj
 0001:00019513       __rttosnpopde              1001a513     libucrt:87disp.obj
 0001:00019520       __rtatan2inf               1001a520 f   libucrt:87disp.obj
 0001:0001953d       __rtchsifneg               1001a53d     libucrt:87disp.obj
 0001:00019550       __twoToTOS                 1001a550 f   libucrt:common.obj
 0001:00019565       __load_CW                  1001a565 f   libucrt:common.obj
 0001:0001957c       __convertTOStoQNaN         1001a57c f   libucrt:common.obj
 0001:00019595       __fload_withFB             1001a595 f   libucrt:common.obj
 0001:000195d8       __checkTOS_withFB          1001a5d8 f   libucrt:common.obj
 0001:000195ee       __fast_exit                1001a5ee f   libucrt:common.obj
 0001:000195fb       __math_exit                1001a5fb f   libucrt:common.obj
 0001:00019625       __check_overflow_exit      1001a625 f   libucrt:common.obj
 0001:00019639       __check_range_exit         1001a639 f   libucrt:common.obj
 0001:000196e0       __startTwoArgErrorHandling 1001a6e0 f   libucrt:genexcep.obj
 0001:000196f7       __startOneArgErrorHandling 1001a6f7 f   libucrt:genexcep.obj
 0001:00019733       ___libm_error_support      1001a733 f   libucrt:libm_error.obj
 0001:00019927       __ceil_default             1001a927 f   libucrt:ceil.obj
 0001:000199fb       ___dcrt_lowio_ensure_console_output_initialized 1001a9fb f   libucrt:initcon.obj
 0001:00019a1a       ___dcrt_terminate_console_output 1001aa1a f   libucrt:initcon.obj
 0001:00019a31       ___dcrt_write_console      1001aa31 f   libucrt:initcon.obj
 0001:00019a90       ___ascii_strnicmp          1001aa90 f   libucrt:_strnicm.obj
 0001:00019af1       ___set_fpsr_sse2           1001aaf1 f   libucrt:fpctrl.obj
 0001:00019b71       __clrfp                    1001ab71 f   libucrt:fpctrl.obj
 0001:00019b82       __ctrlfp                   1001ab82 f   libucrt:fpctrl.obj
 0001:00019bac       __set_statfp               1001abac f   libucrt:fpctrl.obj
 0001:00019c05       __statfp                   1001ac05 f   libucrt:fpctrl.obj
 0001:00019c15       __d_inttype                1001ac15 f   libucrt:powhlp.obj
 0001:00019c7d       __powhlp                   1001ac7d f   libucrt:powhlp.obj
 0001:00019da8       __87except                 1001ada8 f   libucrt:87except.obj
 0001:00019eb2       __frnd                     1001aeb2 f   libucrt:frnd.obj
 0001:00019ec6       __errcode                  1001aec6 f   libucrt:fpexcept.obj
 0001:00019efa       __except1                  1001aefa f   libucrt:fpexcept.obj
 0001:00019fc8       __handle_exc               1001afc8 f   libucrt:fpexcept.obj
 0001:0001a1b3       __raise_exc                1001b1b3 f   libucrt:fpexcept.obj
 0001:0001a1d6       __raise_exc_ex             1001b1d6 f   libucrt:fpexcept.obj
 0001:0001a4cc       __set_errno_from_matherr   1001b4cc f   libucrt:fpexcept.obj
 0001:0001a4fb       __umatherr                 1001b4fb f   libucrt:fpexcept.obj
 0001:0001a59b       __decomp                   1001b59b f   libucrt:util.obj
 0001:0001a66d       __set_exp                  1001b66d f   libucrt:util.obj
 0001:0001a69a       __sptype                   1001b69a f   libucrt:util.obj
 0001:0001a6f8       __fpclass                  1001b6f8 f   libucrt:ieeemisc.obj
 0001:0001a79c       @_guard_check_icall@4      1001b79c f i LIBCMT:checkcfg.obj
 0001:0001a7b0       __FindPESection            1001b7b0 f   LIBCMT:pesect.obj
 0001:0001a800       __IsNonwritableInCurrentImage 1001b800 f   LIBCMT:pesect.obj
 0001:0001a8c0       __ValidateImageBase        1001b8c0 f   LIBCMT:pesect.obj
 0001:0001a900       __aulldvrm                 1001b900 f   LIBCMT:ulldvrm.obj
 0001:0001a9a0       __allmul                   1001b9a0 f   LIBCMT:llmul.obj
 0001:0001a9e0       __alldvrm                  1001b9e0 f   LIBCMT:lldvrm.obj
 0001:0001aac0       __allshl                   1001bac0 f   LIBCMT:llshl.obj
 0001:0001aae0       __aullshr                  1001bae0 f   LIBCMT:ullshr.obj
 0001:0001ab00       __ftol2_sse                1001bb00 f   LIBCMT:ftol2.obj
 0001:0001ab10       __ftoi2                    1001bb10 f   LIBCMT:ftol2.obj
 0001:0001ab90       __alloca_probe_16          1001bb90 f   LIBCMT:alloca16.obj
 0001:0001aba6       __alloca_probe_8           1001bba6     LIBCMT:alloca16.obj
 0001:0001abc0       __alloca_probe             1001bbc0 f   LIBCMT:chkstk.obj
 0001:0001abc0       __chkstk                   1001bbc0 f   LIBCMT:chkstk.obj
 0001:0001abf0       _strrchr                   1001bbf0 f   libvcruntime:strrchr.obj
 0001:0001ad30       __filter_x86_sse2_floating_point_exception 1001bd30 f   LIBCMT:x86_exception_filter.obj
 0001:0001ad30       __filter_x86_sse2_floating_point_exception_default 1001bd30 f   LIBCMT:x86_exception_filter.obj
 0001:0001adb0       ?DrawPcx16ResizedBicubic@H3LoadedPcx16Resized@resized@@SAXPAUH3LoadedPcx16@h3@@0HHHHHH@Z 1001bdb0 f   DrawPcx16ResizedBicubic.obj
 0001:0001b620       ?BiCubicKernel@resized@@YANN@Z 1001c620 f   DrawPcx16ResizedBicubic.obj
 0001:0001b6e0       ?IntToStr@Era@@YA?AV?$basic_string@DU?$char_traits@D@std@@V?$allocator@D@2@@std@@H@Z 1001c6e0 f   era.obj
 0001:0001b720       ?tr@Era@@YAPADPBD@Z        1001c720 f   era.obj
 0001:0001b730       ?ConnectEra@Era@@YAXXZ     1001c730 f   era.obj
 0001:0001b740       _DllMain@12                1001c740 f   dllmain.obj
 0001:0001b7d0       ?CrBanksTxt_AfterLoad@@YGHPAVLoHook@@PAUHookContext@@@Z 1001c7d0 f   dllmain.obj
 0001:0001bd20       ?OnReportVersion@@YGXPAUTEvent@Era@@@Z 1001cd20 f   dllmain.obj
 0001:0001bdd0       ?ShrinkToFit@CreatureBanksExtender@cbanks@@AAEXXZ 1001cdd0 f   CreatureBanksExtender.obj
 0001:0001bf20       ?Reserve@CreatureBanksExtender@cbanks@@AAEXG@Z 1001cf20 f   CreatureBanksExtender.obj
 0001:0001c030       ?Resize@CreatureBanksExtender@cbanks@@AAEXG@Z 1001d030 f   CreatureBanksExtender.obj
 0001:0001c2b0       ??1CreatureBanksExtender@cbanks@@EAE@XZ 1001d2b0 f   CreatureBanksExtender.obj
 0001:0001c360       ?CopyDefaultData@CreatureBank@CreatureBanksExtender@cbanks@@QAEXI@Z 1001d360 f   CreatureBanksExtender.obj
 0001:0001c500       ?Size@CreatureBanksExtender@cbanks@@QBEIXZ 1001d500 f   CreatureBanksExtender.obj
 0001:0001c510       ?GetBankSetupsNumberFromJson@CreatureBanksExtender@cbanks@@AAE?BHF@Z 1001d510 f   CreatureBanksExtender.obj
 0001:0001cc90       ?AfterLoadingObjectTxtProc@CreatureBanksExtender@cbanks@@EAEXPBF@Z 1001dc90 f   CreatureBanksExtender.obj
 0001:0001ce80       ?GetCreatureBankId@CreatureBanksExtender@cbanks@@SAHHH@Z 1001de80 f   CreatureBanksExtender.obj
 0001:0001cfb0       ?CrBank_CombatStart@CreatureBanksExtender@cbanks@@CGHPAVHiHook@@IIIIHIIIHHH@Z 1001dfb0 f   CreatureBanksExtender.obj
 0001:0001d000       ?CrBank_BeforeCombatStart@CreatureBanksExtender@cbanks@@CGHPAVLoHook@@PAUHookContext@@@Z 1001e000 f   CreatureBanksExtender.obj
 0001:0001d040       ?AdvMgr_MapItem_Select_Sound@LoopSoundManager@CreatureBanksExtender@cbanks@@SGHPAVHiHook@@PAUH3AdventureManager@h3@@HHH@Z 1001e040 f   CreatureBanksExtender.obj
 0001:0001d160       ?OnGameLeave@LoopSoundManager@CreatureBanksExtender@cbanks@@SGXPAUTEvent@Era@@@Z 1001e160 f   CreatureBanksExtender.obj
 0001:0001d1a0       ?CreatePatches@CreatureBanksExtender@cbanks@@EAEXXZ 1001e1a0 f   CreatureBanksExtender.obj
 0001:0001d270       ?OnAfterReloadLanguageData@CreatureBanksExtender@cbanks@@CGXPAUTEvent@Era@@@Z 1001e270 f   CreatureBanksExtender.obj
 0001:0001d3f0       ??0CreatureBanksExtender@cbanks@@AAE@XZ 1001e3f0 f   CreatureBanksExtender.obj
 0001:0001d560       ?Get@CreatureBanksExtender@cbanks@@SAAAV12@XZ 1001e560 f   CreatureBanksExtender.obj
 0001:0001d5f0       ?CreatePatches@GazeboExtender@gazebo@@EAEXXZ 1001e5f0 f   GazeboExtender.obj
 0001:0001d680       ?H3AdventureManager__GetDefaultObjectHoverHint@GazeboExtender@gazebo@@CGHPAVLoHook@@PAUHookContext@@@Z 1001e680 f   GazeboExtender.obj
 0001:0001d6a0       ?H3AdventureManager__GetDefaultObjectClickHint@GazeboExtender@gazebo@@CGHPAVLoHook@@PAUHookContext@@@Z 1001e6a0 f   GazeboExtender.obj
 0001:0001d6c0       ?ShowHint@gazebo@@YAHPAVLoHook@@PAUHookContext@@PBD@Z 1001e6c0 f   GazeboExtender.obj
 0001:0001d850       ?Game__NewGameBeforeSetObjectsInitialParameters@gazebo@@YGHPAVLoHook@@PAUHookContext@@@Z 1001e850 f   GazeboExtender.obj
 0001:0001d870       ?Game__NewGameObjectIteration@GazeboExtender@gazebo@@CGHPAVLoHook@@PAUHookContext@@@Z 1001e870 f   GazeboExtender.obj
 0001:0001d8b0       ?GetHeroLearningPower@gazebo@@YAMPBUH3Hero@h3@@@Z 1001e8b0 f   GazeboExtender.obj
 0001:0001d8d0       ?H3AdventureManager__ObjectVisit@GazeboExtender@gazebo@@CGHPAVLoHook@@PAUHookContext@@@Z 1001e8d0 f   GazeboExtender.obj
 0001:0001db00       ?ShowMessage@gazebo@@YAXPBUH3MapItem@h3@@H_N@Z 1001eb00 f   GazeboExtender.obj
 0001:0001dda0       ?AIHero_GetObjectPosWeight@GazeboExtender@gazebo@@CGHPAVLoHook@@PAUHookContext@@@Z 1001eda0 f   GazeboExtender.obj
 0001:0001dea0       ??1GazeboExtender@gazebo@@EAE@XZ 1001eea0 f   GazeboExtender.obj
 0001:0001dee0       ??0GazeboExtender@gazebo@@AAE@XZ 1001eee0 f   GazeboExtender.obj
 0001:0001dfe0       ?Get@GazeboExtender@gazebo@@SAAAV12@XZ 1001efe0 f   GazeboExtender.obj
 0001:0001e120       ?CreatePatches@ShrinesExternder@shrines@@EAEXXZ 1001f120 f   ShrinesExternder.obj
 0001:0001e170       ?Shrine__AtGetHint@ShrinesExternder@shrines@@CGHPAVLoHook@@PAUHookContext@@@Z 1001f170 f   ShrinesExternder.obj
 0001:0001e250       ?Shrine__AtGetName@ShrinesExternder@shrines@@CGHPAVLoHook@@PAUHookContext@@@Z 1001f250 f   ShrinesExternder.obj
 0001:0001e350       ?Game__AtShrineOfMagicIncantationSettingSpell@ShrinesExternder@shrines@@CGHPAVLoHook@@PAUHookContext@@@Z 1001f350 f   ShrinesExternder.obj
 0001:0001e3a0       ??1ShrinesExternder@shrines@@EAE@XZ 1001f3a0 f   ShrinesExternder.obj
 0001:0001e3e0       ??0ShrinesExternder@shrines@@AAE@XZ 1001f3e0 f   ShrinesExternder.obj
 0001:0001e4a0       ?Get@ShrinesExternder@shrines@@SAAAV12@XZ 1001f4a0 f   ShrinesExternder.obj
 0001:0001e5a0       ?Reset@H3MapItemWarehouse@warehouses@@QAEXXZ 1001f5a0 f   WarehousesExtender.obj
 0001:0001e5f0       ?CreatePatches@WarehousesExtender@warehouses@@EAEXXZ 1001f5f0 f   WarehousesExtender.obj
 0001:0001e680       ?H3AdventureManager__GetDefaultObjectHoverHint@WarehousesExtender@warehouses@@CGHPAVLoHook@@PAUHookContext@@@Z 1001f680 f   WarehousesExtender.obj
 0001:0001e6a0       ?H3AdventureManager__GetDefaultObjectClickHint@WarehousesExtender@warehouses@@CGHPAVLoHook@@PAUHookContext@@@Z 1001f6a0 f   WarehousesExtender.obj
 0001:0001e6c0       ?ShowHint@warehouses@@YAHPAVLoHook@@PAUHookContext@@PBD@Z 1001f6c0 f   WarehousesExtender.obj
 0001:0001e810       ?Game__NewWeekObjectIteration@WarehousesExtender@warehouses@@CGHPAVLoHook@@PAUHookContext@@@Z 1001f810 f   WarehousesExtender.obj
 0001:0001e840       ?Game__NewGameObjectIteration@WarehousesExtender@warehouses@@CGHPAVLoHook@@PAUHookContext@@@Z 1001f840 f   WarehousesExtender.obj
 0001:0001e880       ?H3AdventureManager__ObjectVisit@WarehousesExtender@warehouses@@CGHPAVLoHook@@PAUHookContext@@@Z 1001f880 f   WarehousesExtender.obj
 0001:0001e960       ?ShowMessage@warehouses@@YAXPBUH3MapItem@h3@@HH@Z 1001f960 f   WarehousesExtender.obj
 0001:0001eba0       ?AIHero_GetObjectPosWeight@WarehousesExtender@warehouses@@CGHPAVLoHook@@PAUHookContext@@@Z 1001fba0 f   WarehousesExtender.obj
 0001:0001ec60       ??1WarehousesExtender@warehouses@@EAE@XZ 1001fc60 f   WarehousesExtender.obj
 0001:0001eca0       ??0WarehousesExtender@warehouses@@AAE@XZ 1001fca0 f   WarehousesExtender.obj
 0001:0001eda0       ?Get@WarehousesExtender@warehouses@@SAAAV12@XZ 1001fda0 f   WarehousesExtender.obj
 0001:0001eee0       ?CreatePatches@WateringPlaceExtender@wateringPlace@@EAEXXZ 1001fee0 f   WateringPlaceExtender.obj
 0001:0001ef70       ?WateringPlace_HeroReset@wateringPlace@@YGHPAVLoHook@@PAUHookContext@@@Z 1001ff70 f   WateringPlaceExtender.obj
 0001:0001ef80       ?OnEveryDay@wateringPlace@@YGXPAUTEvent@Era@@@Z 1001ff80 f   WateringPlaceExtender.obj
 0001:0001f050       ?H3AdventureManager__GetDefaultObjectHoverHint@WateringPlaceExtender@wateringPlace@@CGHPAVLoHook@@PAUHookContext@@@Z 10020050 f   WateringPlaceExtender.obj
 0001:0001f070       ?H3AdventureManager__GetDefaultObjectClickHint@WateringPlaceExtender@wateringPlace@@CGHPAVLoHook@@PAUHookContext@@@Z 10020070 f   WateringPlaceExtender.obj
 0001:0001f090       ?ShowHint@wateringPlace@@YAHPAVLoHook@@PAUHookContext@@PBD@Z 10020090 f   WateringPlaceExtender.obj
 0001:0001f230       ?H3AdventureManager__ObjectVisit@WateringPlaceExtender@wateringPlace@@CGHPAVLoHook@@PAUHookContext@@@Z 10020230 f   WateringPlaceExtender.obj
 0001:0001f460       ?ShowMessage@wateringPlace@@YAXPBUH3MapItem@h3@@_N@Z 10020460 f   WateringPlaceExtender.obj
 0001:0001f630       ?AIHero_GetObjectPosWeight@WateringPlaceExtender@wateringPlace@@CGHPAVLoHook@@PAUHookContext@@@Z 10020630 f   WateringPlaceExtender.obj
 0001:0001f640       ??1WateringPlaceExtender@wateringPlace@@EAE@XZ 10020640 f   WateringPlaceExtender.obj
 0001:0001f680       ??0WateringPlaceExtender@wateringPlace@@AAE@XZ 10020680 f   WateringPlaceExtender.obj
 0001:0001f770       ?Get@WateringPlaceExtender@wateringPlace@@SAAAV12@XZ 10020770 f   WateringPlaceExtender.obj
 0001:0001f8b0       ?CreatePatches@ObjectsExtender@extender@@MAEXXZ 100208b0 f   ObjectsExtender.obj
 0001:0001f930       ?H3AdventureManager__ObjectVisit_SoundPlay@ObjectsExtender@extender@@CGHPAVLoHook@@PAUHookContext@@@Z 10020930 f   ObjectsExtender.obj
 0001:0001fa80       ?AddObjectsToObjectGenList@ObjectsExtender@extender@@SAXPAU?$H3Vector@PAUH3RmgObjectGenerator@h3@@@h3@@@Z 10020a80 f   ObjectsExtender.obj
 0001:0001fd20       ??MRMGObjectSetable@extender@@QBE_NABU01@@Z 10020d20 f   ObjectsExtender.obj
 0001:0001fd50       ?CreateRmgObjectGen@extender@@YAPAUH3RmgObjectGenerator@h3@@ABURMGObjectInfo@@@Z 10020d50 f   ObjectsExtender.obj
 0001:0001fea0       ?H3GameMainSetup__LoadObjects@ObjectsExtender@extender@@CGXPAVHiHook@@PBUH3MainSetup@h3@@@Z 10020ea0 f   ObjectsExtender.obj
 0001:00020340       ?LoadObjectsTxt@ObjectsExtender@extender@@CGHPAVLoHook@@PAUHookContext@@@Z 10021340 f   ObjectsExtender.obj
 0001:00020470       ?AddLine@EditableH3TextFile@extender@@QAEXPBD@Z 10021470 f   ObjectsExtender.obj
 0001:000204b0       ?AfterLoadingObjectTxtProc@ObjectsExtender@extender@@MAEXPBF@Z 100214b0 f   ObjectsExtender.obj
 0001:000204c0       ??1ObjectsExtender@extender@@MAE@XZ 100214c0 f   ObjectsExtender.obj
 0001:00020500       ??0ObjectsExtender@extender@@IAE@PAVPatcherInstance@@@Z 10021500 f   ObjectsExtender.obj
 0001:00020660       ?Inited@GeneratedInfo@@QBEHXZ 10021660 f   RMGObjectsEditor.obj
 0001:00020670       ?Clear@GeneratedInfo@@QAEXPBUH3RmgRandomMapGenerator@h3@@@Z 10021670 f   RMGObjectsEditor.obj
 0001:000206c0       ?ObjectCantBeGenerated@GeneratedInfo@@QBEHPBUH3RmgObjectGenerator@h3@@H@Z 100216c0 f   RMGObjectsEditor.obj
 0001:00020730       ?Assign@GeneratedInfo@@QAEXPBUH3RmgRandomMapGenerator@h3@@ABV?$vector@V?$vector@URMGObjectInfo@@V?$allocator@URMGObjectInfo@@@std@@@std@@V?$allocator@V?$vector@URMGObjectInfo@@V?$allocator@URMGObjectInfo@@@std@@@std@@@2@@std@@@Z 10021730 f   RMGObjectsEditor.obj
 0001:000208e0       ?create2DArray@@YAPAHHH@Z  100218e0 f   RMGObjectsEditor.obj
 0001:00020900       ?create3DArray@@YAPAHHHH@Z 10021900 f   RMGObjectsEditor.obj
 0001:00020930       ?GetObjectName@RMGObjectInfo@@SAPBDHH@Z 10021930 f   RMGObjectsEditor.obj
 0001:00020b70       _Name                      10021b70 f   RMGObjectsEditor.obj
 0001:00020be0       ?GetName@RMGObjectInfo@@QBEPBDXZ 10021be0 f   RMGObjectsEditor.obj
 0001:00020c20       ??0RMGObjectInfo@@QAE@XZ   10021c20 f   RMGObjectsEditor.obj
 0001:00020c60       ?MakeReal@RMGObjectInfo@@QBEXXZ 10021c60 f   RMGObjectsEditor.obj
 0001:00020cb0       ?SetRandom@RMGObjectInfo@@QAEXXZ 10021cb0 f   RMGObjectsEditor.obj
 0001:00020e30       ?RestoreDefault@RMGObjectInfo@@QAEXXZ 10021e30 f   RMGObjectsEditor.obj
 0001:00020e80       ?Clamp@RMGObjectInfo@@QAEHXZ 10021e80 f   RMGObjectsEditor.obj
 0001:00020f20       ?IncreaseObjectsCounters@GeneratedInfo@@QAEXPBUH3RmgObjectProperties@h3@@H@Z 10021f20 f   RMGObjectsEditor.obj
 0001:00020f60       ?CreatePatches@RMGObjectsEditor@editor@@EAEXXZ 10021f60 f   RMGObjectsEditor.obj
 0001:00021090       ?RMG__AfterMapGenerated@RMGObjectsEditor@editor@@CGXPAVHiHook@@PAUH3RmgRandomMapGenerator@h3@@@Z 10022090 f   RMGObjectsEditor.obj
 0001:00021110       ?RMG__InitGenZones@RMGObjectsEditor@editor@@CGXPAVHiHook@@PBUH3RmgRandomMapGenerator@h3@@PBUH3RmgTemplate@5@@Z 10022110 f   RMGObjectsEditor.obj
 0001:00021140       ?RMG__RMGDwellingObject_AtGettingValue@editor@@YGHPAVHiHook@@PBUH3RmgObjectGenerator@h3@@PBUH3RmgZoneGenerator@4@PBUH3RmgRandomMapGenerator@4@@Z 10022140 f   RMGObjectsEditor.obj
 0001:000211c0       ?RMG__RMGObject_AtPlacement@RMGObjectsEditor@editor@@CGHPAVLoHook@@PAUHookContext@@@Z 100221c0 f   RMGObjectsEditor.obj
 0001:00021220       ?RMG__ZoneGeneration__AfterObjectTypeZoneLimitCheck@RMGObjectsEditor@editor@@CGHPAVLoHook@@PAUHookContext@@@Z 10022220 f   RMGObjectsEditor.obj
 0001:000212c0       ?RMG__CreateObjectGenerators@RMGObjectsEditor@editor@@CGXPAVHiHook@@PAUH3RmgRandomMapGenerator@h3@@@Z 100222c0 f   RMGObjectsEditor.obj
 0001:000215f0       ??1RMGObjectsEditor@editor@@EAE@XZ 100225f0 f   RMGObjectsEditor.obj
 0001:00021680       ?InitLoading@RMGObjectsEditor@editor@@AAEXPBF@Z 10022680 f   RMGObjectsEditor.obj
 0001:000217b0       ?GetObjectGeneratorsList@RMGObjectsEditor@editor@@QBEABU?$H3Vector@PAUH3RmgObjectGenerator@h3@@@h3@@XZ 100227b0 f   RMGObjectsEditor.obj
 0001:000217c0       ?InitDefaults@RMGObjectsEditor@editor@@AAEXPBF@Z 100227c0 f   RMGObjectsEditor.obj
 0001:00021c60       ?SetObjectInfoAsCurrent@RMGObjectsEditor@editor@@QAEXABURMGObjectInfo@@@Z 10022c60 f   RMGObjectsEditor.obj
 0001:00021cb0       ?MaxMapTypeLimit@RMGObjectsEditor@editor@@QBEHI@Z 10022cb0 f   RMGObjectsEditor.obj
 0001:00021cd0       ?CurrentObjectInfo@RMGObjectsEditor@editor@@QBEABURMGObjectInfo@@HH@Z 10022cd0 f   RMGObjectsEditor.obj
 0001:00021d00       ?DefaultObjectInfo@RMGObjectsEditor@editor@@QBEABURMGObjectInfo@@HH@Z 10022d00 f   RMGObjectsEditor.obj
 0001:00021d30       ??0RMGObjectsEditor@editor@@AAE@XZ 10022d30 f   RMGObjectsEditor.obj
 0001:00021ee0       ?Init@RMGObjectsEditor@editor@@SAXPBF@Z 10022ee0 f   RMGObjectsEditor.obj
 0001:00021f90       ??0RMGObjectInfo@@QAE@HH@Z 10022f90 f   RMGObjectsEditor.obj
 0001:00021fd0       ?GetObjectName@RMGObjectInfo@@SAPBDPBUH3MapItem@h3@@@Z 10022fd0 f   RMGObjectsEditor.obj
 0001:00021ff0       ?Get@RMGObjectsEditor@editor@@SAAAV12@XZ 10022ff0 f   RMGObjectsEditor.obj
 0001:000221c0       ?GameStart@rmgdlg@@YGXPAVHiHook@@K@Z 100231c0 f   RMG_SettingsDlg.obj
 0001:00022380       ?CreateGraphics@rmgdlg@@YAXABU?$H3Vector@PAUH3RmgObjectGenerator@h3@@@h3@@@Z 10023380 f   RMG_SettingsDlg.obj
 0001:000224b0       ?CreateResizedObjectPcx@rmgdlg@@YAXXZ 100234b0 f   RMG_SettingsDlg.obj
 0001:00022620       ?NewScenarioDlg_Create@RMG_SettingsDlg@rmgdlg@@CGXPAVHiHook@@PAUH3SelectScenarioDialog@h3@@K@Z 10023620 f   RMG_SettingsDlg.obj
 0001:00022870       ?SelectScenarioDlgRandomizeProc@rmgdlg@@YIHPAUH3Msg@h3@@@Z 10023870 f   RMG_SettingsDlg.obj
 0001:00022a00       ?H3SelectScenarioDialog_HideRandomMapsSettings@RMG_SettingsDlg@rmgdlg@@CGHPAVLoHook@@PAUHookContext@@@Z 10023a00 f   RMG_SettingsDlg.obj
 0001:00022a50       ?H3SelectScenarioDialog_ShowRandomMapsSettings@RMG_SettingsDlg@rmgdlg@@CGHPAVLoHook@@PAUHookContext@@@Z 10023a50 f   RMG_SettingsDlg.obj
 0001:00022aa0       ?Dlg_SelectScenario_Proc@RMG_SettingsDlg@rmgdlg@@CGHPAVLoHook@@PAUHookContext@@@Z 10023aa0 f   RMG_SettingsDlg.obj
 0001:00022b60       ?GetObjectPrototypesLists@rmgdlg@@YAXXZ 10023b60 f   RMG_SettingsDlg.obj
 0001:00022fb0       ?FindDataInObjectGeneratorsList@rmgdlg@@YAXAAV?$vector@U?$pair@UH3ObjectAttributes@h3@@PAUH3LoadedPcx16@2@@std@@V?$allocator@U?$pair@UH3ObjectAttributes@h3@@PAUH3LoadedPcx16@2@@std@@@2@@std@@@Z 10023fb0 f   RMG_SettingsDlg.obj
 0001:00023150       ?GetObjectPrototypesByTypes@rmgdlg@@YAXAAV?$vector@U?$pair@UH3ObjectAttributes@h3@@PAUH3LoadedPcx16@2@@std@@V?$allocator@U?$pair@UH3ObjectAttributes@h3@@PAUH3LoadedPcx16@2@@std@@@2@@std@@PBHI@Z 10024150 f   RMG_SettingsDlg.obj
 0001:000232a0       ??1MiscPage@RMG_SettingsDlg@rmgdlg@@UAE@XZ 100242a0 f   RMG_SettingsDlg.obj
 0001:000232b0       ?SetVisible@PageHeader@ObjectsPage@RMG_SettingsDlg@rmgdlg@@QAEX_N@Z 100242b0 f   RMG_SettingsDlg.obj
 0001:00023320       ??0PageHeader@ObjectsPage@RMG_SettingsDlg@rmgdlg@@QAE@HHHHH@Z 10024320 f   RMG_SettingsDlg.obj
 0001:000237c0       ??0RMGObject@rmgdlg@@QAE@ABUH3ObjectAttributes@h3@@PAUH3LoadedPcx16@3@@Z 100247c0 f   RMG_SettingsDlg.obj
 0001:00023880       ?SetActivePage@RMG_SettingsDlg@rmgdlg@@AAEHPAUPage@12@@Z 10024880 f   RMG_SettingsDlg.obj
 0001:000239a0       ?OnCreate@RMG_SettingsDlg@rmgdlg@@EAEHXZ 100249a0 f   RMG_SettingsDlg.obj
 0001:00023a20       ?HorizontalScrollBarProc@ObjectsPage@RMG_SettingsDlg@rmgdlg@@CIXHPAUH3BaseDlg@h3@@@Z 10024a20 f   RMG_SettingsDlg.obj
 0001:00023a40       ?VerticalScrollBarProc@ObjectsPage@RMG_SettingsDlg@rmgdlg@@CIXHPAUH3BaseDlg@h3@@@Z 10024a40 f   RMG_SettingsDlg.obj
 0001:00023a90       ?ResetSortingState@ObjectsPage@RMG_SettingsDlg@rmgdlg@@QAEXXZ 10024a90 f   RMG_SettingsDlg.obj
 0001:00023ac0       ??0Page@RMG_SettingsDlg@rmgdlg@@QAE@PAUH3DlgCaptionButton@h3@@@Z 10024ac0 f   RMG_SettingsDlg.obj
 0001:00023b10       ?Proc@ObjectsPage@RMG_SettingsDlg@rmgdlg@@MAEHAAUH3Msg@h3@@@Z 10024b10 f   RMG_SettingsDlg.obj
 0001:00023e30       ??1BanksPage@RMG_SettingsDlg@rmgdlg@@UAE@XZ 10024e30 f   RMG_SettingsDlg.obj
 0001:00023e40       ?ShowObjectExtendedInfo@BanksPage@RMG_SettingsDlg@rmgdlg@@UBEHPBUObjectsPanel@23@ABUH3Msg@h3@@@Z 10024e40 f   RMG_SettingsDlg.obj
 0001:00023e80       ?ShowObjectExtendedInfo@ObjectsPage@RMG_SettingsDlg@rmgdlg@@MBEHPBUObjectsPanel@23@ABUH3Msg@h3@@@Z 10024e80 f   RMG_SettingsDlg.obj
 0001:00024060       ?FillObjects@ObjectsPage@RMG_SettingsDlg@rmgdlg@@MAEXH@Z 10025060 f   RMG_SettingsDlg.obj
 0001:00024180       ??0ObjectsPage@RMG_SettingsDlg@rmgdlg@@QAE@PAUH3DlgCaptionButton@h3@@ABV?$vector@U?$pair@UH3ObjectAttributes@h3@@PAUH3LoadedPcx16@2@@std@@V?$allocator@U?$pair@UH3ObjectAttributes@h3@@PAUH3LoadedPcx16@2@@std@@@2@@std@@H@Z 10025180 f   RMG_SettingsDlg.obj
 0001:00024590       ?SetDefault@ObjectsPage@RMG_SettingsDlg@rmgdlg@@MAEXXZ 10025590 f   RMG_SettingsDlg.obj
 0001:00024610       ?SetRandom@ObjectsPage@RMG_SettingsDlg@rmgdlg@@MAEXABUH3Msg@h3@@@Z 10025610 f   RMG_SettingsDlg.obj
 0001:00024640       ?SaveData@ObjectsPage@RMG_SettingsDlg@rmgdlg@@MAEXXZ 10025640 f   RMG_SettingsDlg.obj
 0001:000246b0       ?SetVisible@ObjectsPage@RMG_SettingsDlg@rmgdlg@@MAEX_N@Z 100256b0 f   RMG_SettingsDlg.obj
 0001:000247a0       ??1RMG_SettingsDlg@rmgdlg@@EAE@XZ 100257a0 f   RMG_SettingsDlg.obj
 0001:00024960       ?H3DlgEdit__TranslateInputKey@RMG_SettingsDlg@rmgdlg@@CGPAUH3Msg@h3@@PAVHiHook@@PAUH3InputManager@4@PAU34@@Z 10025960 f   RMG_SettingsDlg.obj
 0001:000249b0       ??1ObjectsPage@RMG_SettingsDlg@rmgdlg@@UAE@XZ 100259b0 f   RMG_SettingsDlg.obj
 0001:00024b20       ??1Page@RMG_SettingsDlg@rmgdlg@@UAE@XZ 10025b20 f   RMG_SettingsDlg.obj
 0001:00024b30       ?PanelInfoToObjectInfo@ObjectsPanel@RMG_SettingsDlg@rmgdlg@@QAEXXZ 10025b30 f   RMG_SettingsDlg.obj
 0001:00024bb0       ?ObjectInfoToPanelInfo@ObjectsPanel@RMG_SettingsDlg@rmgdlg@@QAEXXZ 10025bb0 f   RMG_SettingsDlg.obj
 0001:00024cf0       ?UnfocusEdits@ObjectsPanel@RMG_SettingsDlg@rmgdlg@@QAE?BHH@Z 10025cf0 f   RMG_SettingsDlg.obj
 0001:00024de0       ?SetObject@ObjectsPanel@RMG_SettingsDlg@rmgdlg@@QAEXPAVRMGObject@3@@Z 10025de0 f   RMG_SettingsDlg.obj
 0001:00024e50       ?SetVisible@ObjectsPanel@RMG_SettingsDlg@rmgdlg@@QAEXH@Z 10025e50 f   RMG_SettingsDlg.obj
 0001:00024eb0       ??1ObjectsPanel@RMG_SettingsDlg@rmgdlg@@UAE@XZ 10025eb0 f   RMG_SettingsDlg.obj
 0001:00024f20       ??0ObjectsPanel@RMG_SettingsDlg@rmgdlg@@QAE@HHPAUPage@12@@Z 10025f20 f   RMG_SettingsDlg.obj
 0001:00025460       ??0BanksPage@RMG_SettingsDlg@rmgdlg@@QAE@PAUH3DlgCaptionButton@h3@@ABV?$vector@U?$pair@UH3ObjectAttributes@h3@@PAUH3LoadedPcx16@2@@std@@V?$allocator@U?$pair@UH3ObjectAttributes@h3@@PAUH3LoadedPcx16@2@@std@@@2@@std@@H@Z 10026460 f   RMG_SettingsDlg.obj
 0001:00025490       ?CreateHorizontalScrollBar@ObjectsPage@RMG_SettingsDlg@rmgdlg@@IAEXXZ 10026490 f   RMG_SettingsDlg.obj
 0001:000255d0       ?CreateVerticalScrollBar@ObjectsPage@RMG_SettingsDlg@rmgdlg@@IAEXXZ 100265d0 f   RMG_SettingsDlg.obj
 0001:000256d0       ?SaveObjects@RMG_SettingsDlg@rmgdlg@@AAEHH@Z 100266d0 f   RMG_SettingsDlg.obj
 0001:00025920       ?WriteIniDlgSettings@RMG_SettingsDlg@rmgdlg@@ABE?BHXZ 10026920 f   RMG_SettingsDlg.obj
 0001:00025a10       ?ReadIniDlgSettings@RMG_SettingsDlg@rmgdlg@@AAE?BHXZ 10026a10 f   RMG_SettingsDlg.obj
 0001:00025a80       ?OnCancel@RMG_SettingsDlg@rmgdlg@@EAEXXZ 10026a80 f   RMG_SettingsDlg.obj
 0001:00025ac0       ?OnOK@RMG_SettingsDlg@rmgdlg@@EAEXXZ 10026ac0 f   RMG_SettingsDlg.obj
 0001:00025b70       ?RemoveEditsFocus@RMG_SettingsDlg@rmgdlg@@ABE?BHH@Z 10026b70 f   RMG_SettingsDlg.obj
 0001:00025ca0       ?DialogProc@RMG_SettingsDlg@rmgdlg@@EAEHAAUH3Msg@h3@@@Z 10026ca0 f   RMG_SettingsDlg.obj
 0001:00025ef0       ?OnHelp@RMG_SettingsDlg@rmgdlg@@AAEXXZ 10026ef0 f   RMG_SettingsDlg.obj
 0001:000260a0       ??0RMG_SettingsDlg@rmgdlg@@QAE@HHHH@Z 100270a0 f   RMG_SettingsDlg.obj
 0001:00026a70       _RMGObjectSupportsGeneration 10027a70 f   RMG_SettingsDlg.obj
 0001:00026c20       ?SortRmgObjects@sorting@rmgdlg@@YAXAAV?$vector@VRMGObject@rmgdlg@@V?$allocator@VRMGObject@rmgdlg@@@std@@@std@@W4eSorting@12@_N@Z 10027c20 f   RMG_SettingsDlg.obj
 0001:00026ca0       ?GetObjectAttributes@RMG_SettingsDlg@rmgdlg@@SAABV?$vector@PAV?$vector@U?$pair@UH3ObjectAttributes@h3@@PAUH3LoadedPcx16@2@@std@@V?$allocator@U?$pair@UH3ObjectAttributes@h3@@PAUH3LoadedPcx16@2@@std@@@2@@std@@V?$allocator@PAV?$vector@U?$pair@UH3ObjectAttributes@h3@@PAUH3LoadedPcx16@2@@std@@V?$allocator@U?$pair@UH3ObjectAttributes@h3@@PAUH3LoadedPcx16@2@@std@@@2@@std@@@2@@std@@XZ 10027ca0 f   RMG_SettingsDlg.obj
 0001:00026cb0       ?SetPatches@RMG_SettingsDlg@rmgdlg@@SAXPAVPatcherInstance@@@Z 10027cb0 f   RMG_SettingsDlg.obj
 0001:00026dc0       __ftol3                    10027dc0 f   LIBCMT:ftol3.obj
 0001:00026e30       __dtol3                    10027e30 f   LIBCMT:ftol3.obj
 0001:00026ee0       __ltod3                    10027ee0 f   LIBCMT:ftol3.obj
 0001:00026f22       ??0__non_rtti_object@std@@QAE@ABV01@@Z 10027f22 f i libvcruntime:rtti.obj
 0001:00026f3d       ??0bad_cast@std@@QAE@ABV01@@Z 10027f3d f i libvcruntime:rtti.obj
 0001:00026f58       ??0bad_typeid@std@@QAE@ABV01@@Z 10027f58 f i libvcruntime:rtti.obj
 0001:0002730e       ?__construct_from_string_literal@__non_rtti_object@std@@SA?AV12@QBD@Z 1002830e f i libvcruntime:rtti.obj
 0001:0002732a       ?__construct_from_string_literal@bad_cast@std@@SA?AV12@QBD@Z 1002832a f i libvcruntime:rtti.obj
 0001:00027346       ___RTDynamicCast           10028346 f   libvcruntime:rtti.obj
 0002:00000000       __imp__LoadLibraryA@4      1002a000     kernel32:KERNEL32.dll
 0002:00000004       __imp__GetProcAddress@8    1002a004     kernel32:KERNEL32.dll
 0002:00000008       __imp__GetModuleHandleA@4  1002a008     kernel32:KERNEL32.dll
 0002:0000000c       __imp__CreateFileW@28      1002a00c     kernel32:KERNEL32.dll
 0002:00000010       __imp__GetCurrentThreadId@0 1002a010     kernel32:KERNEL32.dll
 0002:00000014       __imp__CloseHandle@4       1002a014     kernel32:KERNEL32.dll
 0002:00000018       __imp__ReleaseSRWLockExclusive@4 1002a018     kernel32:KERNEL32.dll
 0002:0000001c       __imp__AcquireSRWLockExclusive@4 1002a01c     kernel32:KERNEL32.dll
 0002:00000020       __imp__TryAcquireSRWLockExclusive@4 1002a020     kernel32:KERNEL32.dll
 0002:00000024       __imp__WakeAllConditionVariable@4 1002a024     kernel32:KERNEL32.dll
 0002:00000028       __imp__SleepConditionVariableSRW@16 1002a028     kernel32:KERNEL32.dll
 0002:0000002c       __imp__QueryPerformanceCounter@4 1002a02c     kernel32:KERNEL32.dll
 0002:00000030       __imp__GetSystemTimeAsFileTime@4 1002a030     kernel32:KERNEL32.dll
 0002:00000034       __imp__GetModuleHandleW@4  1002a034     kernel32:KERNEL32.dll
 0002:00000038       __imp__IsProcessorFeaturePresent@4 1002a038     kernel32:KERNEL32.dll
 0002:0000003c       __imp__IsDebuggerPresent@0 1002a03c     kernel32:KERNEL32.dll
 0002:00000040       __imp__UnhandledExceptionFilter@4 1002a040     kernel32:KERNEL32.dll
 0002:00000044       __imp__SetUnhandledExceptionFilter@4 1002a044     kernel32:KERNEL32.dll
 0002:00000048       __imp__GetStartupInfoW@4   1002a048     kernel32:KERNEL32.dll
 0002:0000004c       __imp__GetCurrentProcessId@0 1002a04c     kernel32:KERNEL32.dll
 0002:00000050       __imp__InitializeSListHead@4 1002a050     kernel32:KERNEL32.dll
 0002:00000054       __imp__GetCurrentProcess@0 1002a054     kernel32:KERNEL32.dll
 0002:00000058       __imp__TerminateProcess@8  1002a058     kernel32:KERNEL32.dll
 0002:0000005c       __imp__RtlUnwind@16        1002a05c     kernel32:KERNEL32.dll
 0002:00000060       __imp__RaiseException@16   1002a060     kernel32:KERNEL32.dll
 0002:00000064       __imp__InterlockedFlushSList@4 1002a064     kernel32:KERNEL32.dll
 0002:00000068       __imp__GetLastError@0      1002a068     kernel32:KERNEL32.dll
 0002:0000006c       __imp__SetLastError@4      1002a06c     kernel32:KERNEL32.dll
 0002:00000070       __imp__EncodePointer@4     1002a070     kernel32:KERNEL32.dll
 0002:00000074       __imp__EnterCriticalSection@4 1002a074     kernel32:KERNEL32.dll
 0002:00000078       __imp__LeaveCriticalSection@4 1002a078     kernel32:KERNEL32.dll
 0002:0000007c       __imp__DeleteCriticalSection@4 1002a07c     kernel32:KERNEL32.dll
 0002:00000080       __imp__InitializeCriticalSectionAndSpinCount@8 1002a080     kernel32:KERNEL32.dll
 0002:00000084       __imp__TlsAlloc@0          1002a084     kernel32:KERNEL32.dll
 0002:00000088       __imp__TlsGetValue@4       1002a088     kernel32:KERNEL32.dll
 0002:0000008c       __imp__TlsSetValue@8       1002a08c     kernel32:KERNEL32.dll
 0002:00000090       __imp__TlsFree@4           1002a090     kernel32:KERNEL32.dll
 0002:00000094       __imp__FreeLibrary@4       1002a094     kernel32:KERNEL32.dll
 0002:00000098       __imp__LoadLibraryExW@12   1002a098     kernel32:KERNEL32.dll
 0002:0000009c       __imp__CreateThread@24     1002a09c     kernel32:KERNEL32.dll
 0002:000000a0       __imp__ExitThread@4        1002a0a0     kernel32:KERNEL32.dll
 0002:000000a4       __imp__FreeLibraryAndExitThread@8 1002a0a4     kernel32:KERNEL32.dll
 0002:000000a8       __imp__GetModuleHandleExW@12 1002a0a8     kernel32:KERNEL32.dll
 0002:000000ac       __imp__ExitProcess@4       1002a0ac     kernel32:KERNEL32.dll
 0002:000000b0       __imp__GetModuleFileNameW@12 1002a0b0     kernel32:KERNEL32.dll
 0002:000000b4       __imp__HeapFree@12         1002a0b4     kernel32:KERNEL32.dll
 0002:000000b8       __imp__HeapAlloc@12        1002a0b8     kernel32:KERNEL32.dll
 0002:000000bc       __imp__GetStdHandle@4      1002a0bc     kernel32:KERNEL32.dll
 0002:000000c0       __imp__GetFileType@4       1002a0c0     kernel32:KERNEL32.dll
 0002:000000c4       __imp__LCMapStringW@24     1002a0c4     kernel32:KERNEL32.dll
 0002:000000c8       __imp__SetFilePointerEx@20 1002a0c8     kernel32:KERNEL32.dll
 0002:000000cc       __imp__FindClose@4         1002a0cc     kernel32:KERNEL32.dll
 0002:000000d0       __imp__FindFirstFileExW@24 1002a0d0     kernel32:KERNEL32.dll
 0002:000000d4       __imp__FindNextFileW@8     1002a0d4     kernel32:KERNEL32.dll
 0002:000000d8       __imp__IsValidCodePage@4   1002a0d8     kernel32:KERNEL32.dll
 0002:000000dc       __imp__GetACP@0            1002a0dc     kernel32:KERNEL32.dll
 0002:000000e0       __imp__GetOEMCP@0          1002a0e0     kernel32:KERNEL32.dll
 0002:000000e4       __imp__GetCPInfo@8         1002a0e4     kernel32:KERNEL32.dll
 0002:000000e8       __imp__GetCommandLineA@0   1002a0e8     kernel32:KERNEL32.dll
 0002:000000ec       __imp__GetCommandLineW@0   1002a0ec     kernel32:KERNEL32.dll
 0002:000000f0       __imp__MultiByteToWideChar@24 1002a0f0     kernel32:KERNEL32.dll
 0002:000000f4       __imp__WideCharToMultiByte@32 1002a0f4     kernel32:KERNEL32.dll
 0002:000000f8       __imp__GetEnvironmentStringsW@0 1002a0f8     kernel32:KERNEL32.dll
 0002:000000fc       __imp__FreeEnvironmentStringsW@4 1002a0fc     kernel32:KERNEL32.dll
 0002:00000100       __imp__GetProcessHeap@0    1002a100     kernel32:KERNEL32.dll
 0002:00000104       __imp__GetStringTypeW@16   1002a104     kernel32:KERNEL32.dll
 0002:00000108       __imp__SetStdHandle@8      1002a108     kernel32:KERNEL32.dll
 0002:0000010c       __imp__FlushFileBuffers@4  1002a10c     kernel32:KERNEL32.dll
 0002:00000110       __imp__WriteFile@20        1002a110     kernel32:KERNEL32.dll
 0002:00000114       __imp__GetConsoleOutputCP@0 1002a114     kernel32:KERNEL32.dll
 0002:00000118       __imp__GetConsoleMode@8    1002a118     kernel32:KERNEL32.dll
 0002:0000011c       __imp__HeapSize@12         1002a11c     kernel32:KERNEL32.dll
 0002:00000120       __imp__HeapReAlloc@16      1002a120     kernel32:KERNEL32.dll
 0002:00000124       __imp__DecodePointer@4     1002a124     kernel32:KERNEL32.dll
 0002:00000128       __imp__WriteConsoleW@20    1002a128     kernel32:KERNEL32.dll
 0002:0000012c       \177KERNEL32_NULL_THUNK_DATA 1002a12c     kernel32:KERNEL32.dll
 0002:00000130       ___guard_check_icall_fptr  1002a130     LIBCMT:guard_support.obj
 0002:00000134       ___castguard_check_failure_os_handled_fptr 1002a134     LIBCMT:guard_support.obj
 0002:00000138       ___xc_a                    1002a138     LIBCMT:initializers.obj
 0002:00000290       ___xc_z                    1002a290     LIBCMT:initializers.obj
 0002:00000294       ___xi_a                    1002a294     LIBCMT:initializers.obj
 0002:0000029c       ___acrt_stdio_initializer  1002a29c     libucrt:stdio_initializer.obj
 0002:000002a0       ___acrt_multibyte_initializer 1002a2a0     libucrt:multibyte_initializer.obj
 0002:000002a4       ___acrt_tran_sse2_initializer 1002a2a4     libucrt:sse2_initializer.obj
 0002:000002a8       ___xi_z                    1002a2a8     LIBCMT:initializers.obj
 0002:000002ac       ___xl_a                    1002a2ac     LIBCMT:tlssup.obj
 0002:000002b0       ___xl_z                    1002a2b0     LIBCMT:tlssup.obj
 0002:000002b4       ___xp_a                    1002a2b4     LIBCMT:initializers.obj
 0002:000002b8       ___acrt_locale_terminator  1002a2b8     libucrt:locale_initializer.obj
 0002:000002bc       ___dcrt_console_output_terminator 1002a2bc     libucrt:console_output_initializer.obj
 0002:000002c0       ___acrt_stdio_terminator   1002a2c0     libucrt:stdio_initializer.obj
 0002:000002c4       ___xp_z                    1002a2c4     LIBCMT:initializers.obj
 0002:000002c8       ___xt_a                    1002a2c8     LIBCMT:initializers.obj
 0002:000002cc       ___xt_z                    1002a2cc     LIBCMT:initializers.obj
 0002:000002e4       ??_7exception@std@@6B@     1002a2e4     libcpmt:xthrow.obj
 0002:000002f0       ??_7bad_alloc@std@@6B@     1002a2f0     libcpmt:xthrow.obj
 0002:000002f8       ??_C@_0P@GHFPNOJB@bad?5allocation@ 1002a2f8     libcpmt:xthrow.obj
 0002:0000030c       ??_7logic_error@std@@6B@   1002a30c     libcpmt:xthrow.obj
 0002:00000318       ??_7length_error@std@@6B@  1002a318     libcpmt:xthrow.obj
 0002:00000324       ??_7runtime_error@std@@6B@ 1002a324     libcpmt:xthrow.obj
 0002:00000364       ??_C@_0BI@NGCEHDD@device?5or?5resource?5busy@ 1002a364     libcpmt:thread0.obj
 0002:0000037c       ??_C@_0BB@FCMFBGOM@invalid?5argument@ 1002a37c     libcpmt:thread0.obj
 0002:00000390       ??_C@_0BA@ENLPPKBN@no?5such?5process@ 1002a390     libcpmt:thread0.obj
 0002:000003a0       ??_C@_0BC@ENOOLCNF@not?5enough?5memory@ 1002a3a0     libcpmt:thread0.obj
 0002:000003b4       ??_C@_0BI@OHIEJAAB@operation?5not?5permitted@ 1002a3b4     libcpmt:thread0.obj
 0002:000003cc       ??_C@_0BO@BJBOMOEJ@resource?5deadlock?5would?5occur@ 1002a3cc     libcpmt:thread0.obj
 0002:000003ec       ??_C@_0BP@LKNGHENJ@resource?5unavailable?5try?5again@ 1002a3ec     libcpmt:thread0.obj
 0002:00000410       ??_7bad_array_new_length@std@@6B@ 1002a410     libcpmt:thread0.obj
 0002:0000041c       ??_7_System_error@std@@6B@ 1002a41c     libcpmt:thread0.obj
 0002:00000424       ??_C@_02LMMGGCAJ@?3?5@     1002a424     libcpmt:thread0.obj
 0002:0000042c       ??_7system_error@std@@6B@  1002a42c     libcpmt:thread0.obj
 0002:00000438       ??_7_Generic_error_category@std@@6B@ 1002a438     libcpmt:thread0.obj
 0002:00000450       ??_C@_07DCLBNMLN@generic@  1002a450     libcpmt:thread0.obj
 0002:000009b0       ??_C@_07IPNMCAN@success@   1002a9b0     libcpmt:syserror.obj
 0002:000009b8       ??_C@_0BN@LKKBCCDB@address?5family?5not?5supported@ 1002a9b8     libcpmt:syserror.obj
 0002:000009d8       ??_C@_0P@LDMLAFHI@address?5in?5use@ 1002a9d8     libcpmt:syserror.obj
 0002:000009e8       ??_C@_0BG@DHPCNBJB@address?5not?5available@ 1002a9e8     libcpmt:syserror.obj
 0002:00000a00       ??_C@_0BC@DFIBIBIL@already?5connected@ 1002aa00     libcpmt:syserror.obj
 0002:00000a14       ??_C@_0BH@CAKOHOMI@argument?5list?5too?5long@ 1002aa14     libcpmt:syserror.obj
 0002:00000a2c       ??_C@_0BH@CGIMPKIM@argument?5out?5of?5domain@ 1002aa2c     libcpmt:syserror.obj
 0002:00000a44       ??_C@_0M@KGHGGJGL@bad?5address@ 1002aa44     libcpmt:syserror.obj
 0002:00000a50       ??_C@_0BE@MPJPGCEO@bad?5file?5descriptor@ 1002aa50     libcpmt:syserror.obj
 0002:00000a64       ??_C@_0M@PMMIEFCP@bad?5message@ 1002aa64     libcpmt:syserror.obj
 0002:00000a70       ??_C@_0M@KPHOFDBE@broken?5pipe@ 1002aa70     libcpmt:syserror.obj
 0002:00000a7c       ??_C@_0BD@MGNDDEGM@connection?5aborted@ 1002aa7c     libcpmt:syserror.obj
 0002:00000a90       ??_C@_0BP@KAIHPOGN@connection?5already?5in?5progress@ 1002aa90     libcpmt:syserror.obj
 0002:00000ab0       ??_C@_0BD@PJLIIJEL@connection?5refused@ 1002aab0     libcpmt:syserror.obj
 0002:00000ac4       ??_C@_0BB@IECNJNOI@connection?5reset@ 1002aac4     libcpmt:syserror.obj
 0002:00000ad8       ??_C@_0BC@PPHBOELF@cross?5device?5link@ 1002aad8     libcpmt:syserror.obj
 0002:00000aec       ??_C@_0BN@KDMIFEIP@destination?5address?5required@ 1002aaec     libcpmt:syserror.obj
 0002:00000b0c       ??_C@_0BE@JIDOCPHM@directory?5not?5empty@ 1002ab0c     libcpmt:syserror.obj
 0002:00000b20       ??_C@_0BI@BNCLIGPB@executable?5format?5error@ 1002ab20     libcpmt:syserror.obj
 0002:00000b38       ??_C@_0M@MIDIAGJP@file?5exists@ 1002ab38     libcpmt:syserror.obj
 0002:00000b44       ??_C@_0P@DNAJLBJK@file?5too?5large@ 1002ab44     libcpmt:syserror.obj
 0002:00000b54       ??_C@_0BC@EJHOMAAK@filename?5too?5long@ 1002ab54     libcpmt:syserror.obj
 0002:00000b68       ??_C@_0BH@KEFGLDAF@function?5not?5supported@ 1002ab68     libcpmt:syserror.obj
 0002:00000b80       ??_C@_0BB@DHFDFGDM@host?5unreachable@ 1002ab80     libcpmt:syserror.obj
 0002:00000b94       ??_C@_0BD@JPHBMONG@identifier?5removed@ 1002ab94     libcpmt:syserror.obj
 0002:00000ba8       ??_C@_0BG@CDNPAGJK@illegal?5byte?5sequence@ 1002aba8     libcpmt:syserror.obj
 0002:00000bc0       ??_C@_0CD@BNPLBMNA@inappropriate?5io?5control?5operat@ 1002abc0     libcpmt:syserror.obj
 0002:00000be4       ??_C@_0M@EGEKIIMP@interrupted@ 1002abe4     libcpmt:syserror.obj
 0002:00000bf0       ??_C@_0N@OHAFKDEK@invalid?5seek@ 1002abf0     libcpmt:syserror.obj
 0002:00000c00       ??_C@_08GLNPIFBN@io?5error@ 1002ac00     libcpmt:syserror.obj
 0002:00000c0c       ??_C@_0P@FLLDBIDK@is?5a?5directory@ 1002ac0c     libcpmt:syserror.obj
 0002:00000c1c       ??_C@_0N@IFLPBIOP@message?5size@ 1002ac1c     libcpmt:syserror.obj
 0002:00000c2c       ??_C@_0N@KIIEAAIO@network?5down@ 1002ac2c     libcpmt:syserror.obj
 0002:00000c3c       ??_C@_0O@FNPDBHEE@network?5reset@ 1002ac3c     libcpmt:syserror.obj
 0002:00000c4c       ??_C@_0BE@IFNCKGE@network?5unreachable@ 1002ac4c     libcpmt:syserror.obj
 0002:00000c60       ??_C@_0BA@PFFCAOFK@no?5buffer?5space@ 1002ac60     libcpmt:syserror.obj
 0002:00000c70       ??_C@_0BB@IEPBLJHK@no?5child?5process@ 1002ac70     libcpmt:syserror.obj
 0002:00000c84       ??_C@_07PLECNNKG@no?5link@ 1002ac84     libcpmt:syserror.obj
 0002:00000c8c       ??_C@_0BC@NJECKMKE@no?5lock?5available@ 1002ac8c     libcpmt:syserror.obj
 0002:00000ca0       ??_C@_0BF@PBGGPKKE@no?5message?5available@ 1002aca0     libcpmt:syserror.obj
 0002:00000cb8       ??_C@_0L@EDOLMPAK@no?5message@ 1002acb8     libcpmt:syserror.obj
 0002:00000cc4       ??_C@_0BD@EAMBFIDF@no?5protocol?5option@ 1002acc4     libcpmt:syserror.obj
 0002:00000cd8       ??_C@_0BD@IJDJKDEA@no?5space?5on?5device@ 1002acd8     libcpmt:syserror.obj
 0002:00000cec       ??_C@_0BE@MKFDAFMP@no?5stream?5resources@ 1002acec     libcpmt:syserror.obj
 0002:00000d00       ??_C@_0BK@IMCPHCBI@no?5such?5device?5or?5address@ 1002ad00     libcpmt:syserror.obj
 0002:00000d1c       ??_C@_0P@FDINDDOK@no?5such?5device@ 1002ad1c     libcpmt:syserror.obj
 0002:00000d2c       ??_C@_0BK@NDOCBPGE@no?5such?5file?5or?5directory@ 1002ad2c     libcpmt:syserror.obj
 0002:00000d48       ??_C@_0BA@DOCPFFJG@not?5a?5directory@ 1002ad48     libcpmt:syserror.obj
 0002:00000d58       ??_C@_0N@POEIPGGF@not?5a?5socket@ 1002ad58     libcpmt:syserror.obj
 0002:00000d68       ??_C@_0N@LGAPMMPI@not?5a?5stream@ 1002ad68     libcpmt:syserror.obj
 0002:00000d78       ??_C@_0O@GLMIBBEG@not?5connected@ 1002ad78     libcpmt:syserror.obj
 0002:00000d88       ??_C@_0O@NHEDABJP@not?5supported@ 1002ad88     libcpmt:syserror.obj
 0002:00000d98       ??_C@_0BD@MOLBPMEA@operation?5canceled@ 1002ad98     libcpmt:syserror.obj
 0002:00000dac       ??_C@_0BG@KDKHOPCO@operation?5in?5progress@ 1002adac     libcpmt:syserror.obj
 0002:00000dc4       ??_C@_0BI@LNEGIFLN@operation?5not?5supported@ 1002adc4     libcpmt:syserror.obj
 0002:00000ddc       ??_C@_0BG@OEMDKMEE@operation?5would?5block@ 1002addc     libcpmt:syserror.obj
 0002:00000df4       ??_C@_0L@BLPOFLNJ@owner?5dead@ 1002adf4     libcpmt:syserror.obj
 0002:00000e00       ??_C@_0BC@CIJDGCDI@permission?5denied@ 1002ae00     libcpmt:syserror.obj
 0002:00000e14       ??_C@_0P@FNPOCJBE@protocol?5error@ 1002ae14     libcpmt:syserror.obj
 0002:00000e24       ??_C@_0BH@JPPPLHJB@protocol?5not?5supported@ 1002ae24     libcpmt:syserror.obj
 0002:00000e3c       ??_C@_0BG@EICBIHDP@read?5only?5file?5system@ 1002ae3c     libcpmt:syserror.obj
 0002:00000e54       ??_C@_0BE@GOIPJJHG@result?5out?5of?5range@ 1002ae54     libcpmt:syserror.obj
 0002:00000e68       ??_C@_0BG@MPLKFPAE@state?5not?5recoverable@ 1002ae68     libcpmt:syserror.obj
 0002:00000e80       ??_C@_0P@DIIFGFCG@stream?5timeout@ 1002ae80     libcpmt:syserror.obj
 0002:00000e90       ??_C@_0P@IPFDMIFL@text?5file?5busy@ 1002ae90     libcpmt:syserror.obj
 0002:00000ea0       ??_C@_09KJPPMAOI@timed?5out@ 1002aea0     libcpmt:syserror.obj
 0002:00000eac       ??_C@_0BO@HACHBEKI@too?5many?5files?5open?5in?5system@ 1002aeac     libcpmt:syserror.obj
 0002:00000ecc       ??_C@_0BE@GHAFMPAH@too?5many?5files?5open@ 1002aecc     libcpmt:syserror.obj
 0002:00000ee0       ??_C@_0P@HCOMKFCC@too?5many?5links@ 1002aee0     libcpmt:syserror.obj
 0002:00000ef0       ??_C@_0BO@EFGOJEF@too?5many?5symbolic?5link?5levels@ 1002aef0     libcpmt:syserror.obj
 0002:00000f10       ??_C@_0BA@KGKGOOJA@value?5too?5large@ 1002af10     libcpmt:syserror.obj
 0002:00000f20       ??_C@_0BE@MIEJDDNH@wrong?5protocol?5type@ 1002af20     libcpmt:syserror.obj
 0002:00000f34       ??_C@_0O@BFJCFAAK@unknown?5error@ 1002af34     libcpmt:syserror.obj
 0002:00001048       ??_C@_1BK@MGMFAEKH@?$AAk?$AAe?$AAr?$AAn?$AAe?$AAl?$AA3?$AA2?$AA?4?$AAd?$AAl?$AAl@ 1002b048     libcpmt:winapisupp.obj
 0002:00001064       ??_C@_0BP@FPNJPEJC@GetSystemTimePreciseAsFileTime@ 1002b064     libcpmt:winapisupp.obj
 0002:00001084       ??_C@_0O@NNMIPI@GetTempPath2W@ 1002b084     libcpmt:winapisupp.obj
 0002:00001098       ??_7type_info@@6B@         1002b098     LIBCMT:std_type_info_static.obj
 0002:0000109c       __pDefaultRawDllMain       1002b09c     LIBCMT:dll_dllmain.obj
 0002:0000109c       __pRawDllMain              1002b09c     LIBCMT:dll_dllmain.obj
 0002:000010a8       __pDestructExceptionObject 1002b0a8     libvcruntime:ehhelpers.obj
 0002:000010b0       ??_7bad_exception@std@@6B@ 1002b0b0     libvcruntime:frame.obj
 0002:000010b8       ??_C@_0O@DPKOEFFH@bad?5exception@ 1002b0b8     libvcruntime:frame.obj
 0002:00001450       ??_C@_08EHJDFFNH@__based?$CI@ 1002b450     libvcruntime:undname.obj
 0002:0000145c       ??_C@_07KOLFKCDI@__cdecl@  1002b45c     libvcruntime:undname.obj
 0002:00001464       ??_C@_08GHMPAG@__pascal@   1002b464     libvcruntime:undname.obj
 0002:00001470       ??_C@_09IFJBGAPI@__stdcall@ 1002b470     libvcruntime:undname.obj
 0002:0000147c       ??_C@_0L@NPHFGOKO@__thiscall@ 1002b47c     libvcruntime:undname.obj
 0002:00001488       ??_C@_0L@JMKHOMEK@__fastcall@ 1002b488     libvcruntime:undname.obj
 0002:00001494       ??_C@_0N@BCKKPABJ@__vectorcall@ 1002b494     libvcruntime:undname.obj
 0002:000014a4       ??_C@_09HIJEGCPM@__clrcall@ 1002b4a4     libvcruntime:undname.obj
 0002:000014b0       ??_C@_06GHPCKEAG@__eabi@   1002b4b0     libvcruntime:undname.obj
 0002:000014b8       ??_C@_09IOPIDJLG@__swift_1@ 1002b4b8     libvcruntime:undname.obj
 0002:000014c4       ??_C@_09KFNFGKHF@__swift_2@ 1002b4c4     libvcruntime:undname.obj
 0002:000014d0       ??_C@_09LMMOFLDE@__swift_3@ 1002b4d0     libvcruntime:undname.obj
 0002:000014dc       ??_C@_07JOMMBBKO@__ptr64@  1002b4dc     libvcruntime:undname.obj
 0002:000014e4       ??_C@_0L@PILCLIHE@__restrict@ 1002b4e4     libvcruntime:undname.obj
 0002:000014f0       ??_C@_0M@GFIIJFMG@__unaligned@ 1002b4f0     libvcruntime:undname.obj
 0002:000014fc       ??_C@_09DHDLOLLB@restrict?$CI@ 1002b4fc     libvcruntime:undname.obj
 0002:00001506       ??_C@_00CNPNBAHC@@         1002b506     libvcruntime:undname.obj
 0002:00001508       ??_C@_04NIHEBCM@?5new@     1002b508     libvcruntime:undname.obj
 0002:00001510       ??_C@_07FPCDHGMM@?5delete@ 1002b510     libvcruntime:undname.obj
 0002:00001518       ??_C@_01NEMOKFLO@?$DN@     1002b518     libvcruntime:undname.obj
 0002:0000151c       ??_C@_02GPIOPFAK@?$DO?$DO@ 1002b51c     libvcruntime:undname.obj
 0002:00001520       ??_C@_02FODMEDOG@?$DM?$DM@ 1002b520     libvcruntime:undname.obj
 0002:00001524       ??_C@_01DCLJPIOD@?$CB@     1002b524     libvcruntime:undname.obj
 0002:00001528       ??_C@_02EGOFBIJA@?$DN?$DN@ 1002b528     libvcruntime:undname.obj
 0002:0000152c       ??_C@_02FDNJECIE@?$CB?$DN@ 1002b52c     libvcruntime:undname.obj
 0002:00001530       ??_C@_02GPECMEKF@?$FL?$FN@ 1002b530     libvcruntime:undname.obj
 0002:00001534       ??_C@_08LHJFAFGD@operator@ 1002b534     libvcruntime:undname.obj
 0002:00001540       ??_C@_02HBOOOICD@?9?$DO@   1002b540     libvcruntime:undname.obj
 0002:00001544       ??_C@_01NBENCBCI@?$CK@     1002b544     libvcruntime:undname.obj
 0002:00001548       ??_C@_02ECNGHCIF@?$CL?$CL@ 1002b548     libvcruntime:undname.obj
 0002:0000154c       ??_C@_02BAABKJLB@?9?9@     1002b54c     libvcruntime:undname.obj
 0002:00001550       ??_C@_01JOAMLHOP@?9@       1002b550     libvcruntime:undname.obj
 0002:00001554       ??_C@_01MIFGBAGJ@?$CL@     1002b554     libvcruntime:undname.obj
 0002:00001558       ??_C@_01HNPIGOCE@?$CG@     1002b558     libvcruntime:undname.obj
 0002:0000155c       ??_C@_03MNHNFDLC@?9?$DO?$CK@ 1002b55c     libvcruntime:undname.obj
 0002:00001560       ??_C@_01KMDKNFGN@?1@       1002b560     libvcruntime:undname.obj
 0002:00001564       ??_C@_01FGNFDNOH@?$CF@     1002b564     libvcruntime:undname.obj
 0002:00001568       ??_C@_01MNNFJEPP@?$DM@     1002b568     libvcruntime:undname.obj
 0002:0000156c       ??_C@_02EHCHHCKH@?$DM?$DN@ 1002b56c     libvcruntime:undname.obj
 0002:00001570       ??_C@_01PPODPGHN@?$DO@     1002b570     libvcruntime:undname.obj
 0002:00001574       ??_C@_02EEKDKGMJ@?$DO?$DN@ 1002b574     libvcruntime:undname.obj
 0002:00001578       ??_C@_01IHBHIGKO@?0@       1002b578     libvcruntime:undname.obj
 0002:0000157c       ??_C@_02HCKGKOFO@?$CI?$CJ@ 1002b57c     libvcruntime:undname.obj
 0002:00001580       ??_C@_01PJKLJHI@?$HO@      1002b580     libvcruntime:undname.obj
 0002:00001584       ??_C@_01JKBOJNNK@?$FO@     1002b584     libvcruntime:undname.obj
 0002:00001588       ??_C@_01DNKMNLPK@?$HM@     1002b588     libvcruntime:undname.obj
 0002:0000158c       ??_C@_02PPKAJPJL@?$CG?$CG@ 1002b58c     libvcruntime:undname.obj
 0002:00001590       ??_C@_02NONPIBCD@?$HM?$HM@ 1002b590     libvcruntime:undname.obj
 0002:00001594       ??_C@_02FPIMKNGF@?$CK?$DN@ 1002b594     libvcruntime:undname.obj
 0002:00001598       ??_C@_02FOEOMHFC@?$CL?$DN@ 1002b598     libvcruntime:undname.obj
 0002:0000159c       ??_C@_02FKMDLLOA@?9?$DN@   1002b59c     libvcruntime:undname.obj
 0002:000015a0       ??_C@_02FJEHGPIO@?1?$DN@   1002b5a0     libvcruntime:undname.obj
 0002:000015a4       ??_C@_02FENAOKFI@?$CF?$DN@ 1002b5a4     libvcruntime:undname.obj
 0002:000015a8       ??_C@_03IKFCCPFF@?$DO?$DO?$DN@ 1002b5a8     libvcruntime:undname.obj
 0002:000015ac       ??_C@_03CDNPDDLA@?$DM?$DM?$DN@ 1002b5ac     libvcruntime:undname.obj
 0002:000015b0       ??_C@_02FGJGFEAB@?$CG?$DN@ 1002b5b0     libvcruntime:undname.obj
 0002:000015b4       ??_C@_02DHLNPPGH@?$HM?$DN@ 1002b5b4     libvcruntime:undname.obj
 0002:000015b8       ??_C@_02MHEGNOJ@?$FO?$DN@  1002b5b8     libvcruntime:undname.obj
 0002:000015bc       ??_C@_09IFPLHPGF@?$GAvftable?8@ 1002b5bc     libvcruntime:undname.obj
 0002:000015c8       ??_C@_09BLBHBJP@?$GAvbtable?8@ 1002b5c8     libvcruntime:undname.obj
 0002:000015d4       ??_C@_07FEEIOKP@?$GAvcall?8@ 1002b5d4     libvcruntime:undname.obj
 0002:000015dc       ??_C@_08LLFFHHDJ@?$GAtypeof?8@ 1002b5dc     libvcruntime:undname.obj
 0002:000015e8       ??_C@_0BF@KDPPACIK@?$GAlocal?5static?5guard?8@ 1002b5e8     libvcruntime:undname.obj
 0002:00001600       ??_C@_08OBABFOLI@?$GAstring?8@ 1002b600     libvcruntime:undname.obj
 0002:0000160c       ??_C@_0BD@JDLKDPAB@?$GAvbase?5destructor?8@ 1002b60c     libvcruntime:undname.obj
 0002:00001620       ??_C@_0BN@DEGPLNFK@?$GAvector?5deleting?5destructor?8@ 1002b620     libvcruntime:undname.obj
 0002:00001640       ??_C@_0BO@OBMKPJIG@?$GAdefault?5constructor?5closure?8@ 1002b640     libvcruntime:undname.obj
 0002:00001660       ??_C@_0BN@IMDCHIKM@?$GAscalar?5deleting?5destructor?8@ 1002b660     libvcruntime:undname.obj
 0002:00001680       ??_C@_0BO@PFGOCPJJ@?$GAvector?5constructor?5iterator?8@ 1002b680     libvcruntime:undname.obj
 0002:000016a0       ??_C@_0BN@LFPFMEDL@?$GAvector?5destructor?5iterator?8@ 1002b6a0     libvcruntime:undname.obj
 0002:000016c0       ??_C@_0CE@IKBNEHA@?$GAvector?5vbase?5constructor?5itera@ 1002b6c0     libvcruntime:undname.obj
 0002:000016e4       ??_C@_0BL@NILFHHPC@?$GAvirtual?5displacement?5map?8@ 1002b6e4     libvcruntime:undname.obj
 0002:00001700       ??_C@_0CB@JONCMFFK@?$GAeh?5vector?5constructor?5iterator@ 1002b700     libvcruntime:undname.obj
 0002:00001724       ??_C@_0CA@GCEOPDGL@?$GAeh?5vector?5destructor?5iterator?8@ 1002b724     libvcruntime:undname.obj
 0002:00001744       ??_C@_0CH@OOJPLCPH@?$GAeh?5vector?5vbase?5constructor?5it@ 1002b744     libvcruntime:undname.obj
 0002:0000176c       ??_C@_0BL@LLKPOHJI@?$GAcopy?5constructor?5closure?8@ 1002b76c     libvcruntime:undname.obj
 0002:00001788       ??_C@_0BA@KBCDOMBN@?$GAudt?5returning?8@ 1002b788     libvcruntime:undname.obj
 0002:00001798       ??_C@_03KLGMFNMG@?$GAEH@   1002b798     libvcruntime:undname.obj
 0002:0000179c       ??_C@_05KHLCHHI@?$GARTTI@  1002b79c     libvcruntime:undname.obj
 0002:000017a4       ??_C@_0BA@KKLDJDLB@?$GAlocal?5vftable?8@ 1002b7a4     libvcruntime:undname.obj
 0002:000017b4       ??_C@_0CE@IIHCMGGL@?$GAlocal?5vftable?5constructor?5clos@ 1002b7b4     libvcruntime:undname.obj
 0002:000017d8       ??_C@_06FHBGPFGH@?5new?$FL?$FN@ 1002b7d8     libvcruntime:undname.obj
 0002:000017e0       ??_C@_09LBNFPBCA@?5delete?$FL?$FN@ 1002b7e0     libvcruntime:undname.obj
 0002:000017ec       ??_C@_0P@HJKNJFNN@?$GAomni?5callsig?8@ 1002b7ec     libvcruntime:undname.obj
 0002:000017fc       ??_C@_0BL@CNOONJFP@?$GAplacement?5delete?5closure?8@ 1002b7fc     libvcruntime:undname.obj
 0002:00001818       ??_C@_0BN@CKNJLHMB@?$GAplacement?5delete?$FL?$FN?5closure?8@ 1002b818     libvcruntime:undname.obj
 0002:00001838       ??_C@_0CG@CFDHKGGD@?$GAmanaged?5vector?5constructor?5ite@ 1002b838     libvcruntime:undname.obj
 0002:00001860       ??_C@_0CF@IMGKMJNO@?$GAmanaged?5vector?5destructor?5iter@ 1002b860     libvcruntime:undname.obj
 0002:00001888       ??_C@_0CG@HLDDJMAG@?$GAeh?5vector?5copy?5constructor?5ite@ 1002b888     libvcruntime:undname.obj
 0002:000018b0       ??_C@_0CM@FCBBDIGB@?$GAeh?5vector?5vbase?5copy?5construct@ 1002b8b0     libvcruntime:undname.obj
 0002:000018dc       ??_C@_0BL@CLIPGLGB@?$GAdynamic?5initializer?5for?5?8@ 1002b8dc     libvcruntime:undname.obj
 0002:000018f8       ??_C@_0CB@PDBIFEP@?$GAdynamic?5atexit?5destructor?5for?5@ 1002b8f8     libvcruntime:undname.obj
 0002:0000191c       ??_C@_0CD@CGAJBKEJ@?$GAvector?5copy?5constructor?5iterat@ 1002b91c     libvcruntime:undname.obj
 0002:00001940       ??_C@_0CJ@GJELGAMM@?$GAvector?5vbase?5copy?5constructor?5@ 1002b940     libvcruntime:undname.obj
 0002:0000196c       ??_C@_0CL@FGIJHLCE@?$GAmanaged?5vector?5copy?5constructo@ 1002b96c     libvcruntime:undname.obj
 0002:00001998       ??_C@_0BM@PMGGMLDN@?$GAlocal?5static?5thread?5guard?8@ 1002b998     libvcruntime:undname.obj
 0002:000019b4       ??_C@_0N@BDNMDMOL@operator?5?$CC?$CC?5@ 1002b9b4     libvcruntime:undname.obj
 0002:000019c4       ??_C@_0BC@GGEBGALA@operator?5co_await@ 1002b9c4     libvcruntime:undname.obj
 0002:000019d8       ??_C@_0M@GAAIMMOH@operator?$DM?$DN?$DO@ 1002b9d8     libvcruntime:undname.obj
 0002:000019e4       ??_C@_0BC@DAFEJGAK@?5Type?5Descriptor?8@ 1002b9e4     libvcruntime:undname.obj
 0002:000019f8       ??_C@_0BM@LDKODKLH@?5Base?5Class?5Descriptor?5at?5?$CI@ 1002b9f8     libvcruntime:undname.obj
 0002:00001a14       ??_C@_0BD@LGICGFMM@?5Base?5Class?5Array?8@ 1002ba14     libvcruntime:undname.obj
 0002:00001a28       ??_C@_0BN@MECKDCOJ@?5Class?5Hierarchy?5Descriptor?8@ 1002ba28     libvcruntime:undname.obj
 0002:00001a48       ??_C@_0BK@CFCOFLF@?5Complete?5Object?5Locator?8@ 1002ba48     libvcruntime:undname.obj
 0002:00001a64       ??_C@_0BG@JNJLAMPM@?$GAanonymous?5namespace?8@ 1002ba64     libvcruntime:undname.obj
 0002:00001a88       ??_C@_1DM@KHCHBNEB@?$AAa?$AAp?$AAi?$AA?9?$AAm?$AAs?$AA?9?$AAw?$AAi?$AAn?$AA?9?$AAc?$AAo?$AAr?$AAe@ 1002ba88     libvcruntime:winapi_downlevel.obj
 0002:00001ac4       ??_C@_1DK@LPPGFMPP@?$AAa?$AAp?$AAi?$AA?9?$AAm?$AAs?$AA?9?$AAw?$AAi?$AAn?$AA?9?$AAc?$AAo?$AAr?$AAe@ 1002bac4     libvcruntime:winapi_downlevel.obj
 0002:00001b00       ??_C@_1BC@GDMECMAK@?$AAk?$AAe?$AAr?$AAn?$AAe?$AAl?$AA3?$AA2@ 1002bb00     libvcruntime:winapi_downlevel.obj
 0002:00001b14       ??_C@_1BA@PFFKHIOG@?$AAa?$AAp?$AAi?$AA?9?$AAm?$AAs?$AA?9@ 1002bb14     libvcruntime:winapi_downlevel.obj
 0002:00001b2c       ??_C@_08KNHFBNJ@FlsAlloc@  1002bb2c     libvcruntime:winapi_downlevel.obj
 0002:00001b40       ??_C@_07PEJMOBNF@FlsFree@  1002bb40     libvcruntime:winapi_downlevel.obj
 0002:00001b50       ??_C@_0M@GDNOONDI@FlsGetValue@ 1002bb50     libvcruntime:winapi_downlevel.obj
 0002:00001b64       ??_C@_0M@JCPCPOEF@FlsSetValue@ 1002bb64     libvcruntime:winapi_downlevel.obj
 0002:00001b78       ??_C@_0BM@HCFOFFN@InitializeCriticalSectionEx@ 1002bb78     libvcruntime:winapi_downlevel.obj
 0002:00001b98       ?standard_lookup_table_spectre@__crt_stdio_output@@3V?$spectre_mitigated_lookup_table@Ustate_transition_pair@__crt_stdio_output@@$0IA@@1@B 1002bb98     libucrt:output.obj
 0002:00001f98       ?format_validation_lookup_table_spectre@__crt_stdio_output@@3V?$spectre_mitigated_lookup_table@Ustate_transition_pair@__crt_stdio_output@@$0IA@@1@B 1002bf98     libucrt:output.obj
 0002:00002398       ??_C@_1O@CEDCILHN@?$AA?$CI?$AAn?$AAu?$AAl?$AAl?$AA?$CJ@ 1002c398     libucrt:output.obj
 0002:000023a8       ??_C@_06OJHGLDPL@?$CInull?$CJ@ 1002c3a8     libucrt:output.obj
 0002:000023b0       ___acrt_exception_action_table 1002c3b0     libucrt:exception_filter.obj
 0002:00002440       ___acrt_signal_action_table_count 1002c440     libucrt:exception_filter.obj
 0002:00002444       ___acrt_signal_action_first_fpe_index 1002c444     libucrt:exception_filter.obj
 0002:00002448       ___acrt_signal_action_fpe_count 1002c448     libucrt:exception_filter.obj
 0002:0000244c       ??_C@_1BI@BGOHAHKC@?$AAm?$AAs?$AAc?$AAo?$AAr?$AAe?$AAe?$AA?4?$AAd?$AAl?$AAl@ 1002c44c     libucrt:exit.obj
 0002:00002464       ??_C@_0P@MIGLKIOC@CorExitProcess@ 1002c464     libucrt:exit.obj
 0002:000026a0       ??_C@_03OEIAHPBN@INF@      1002c6a0     libucrt:cvt.obj
 0002:000026a4       ??_C@_03OJHLLCGB@inf@      1002c6a4     libucrt:cvt.obj
 0002:000026a8       ??_C@_03LKNCIKJB@NAN@      1002c6a8     libucrt:cvt.obj
 0002:000026ac       ??_C@_03LHCJEHON@nan@      1002c6ac     libucrt:cvt.obj
 0002:000026b0       ??_C@_09OFJJIMPC@NAN?$CISNAN?$CJ@ 1002c6b0     libucrt:cvt.obj
 0002:000026bc       ??_C@_09IPFBKMDL@nan?$CIsnan?$CJ@ 1002c6bc     libucrt:cvt.obj
 0002:000026c8       ??_C@_08IKHNHAJ@NAN?$CIIND?$CJ@ 1002c6c8     libucrt:cvt.obj
 0002:000026d4       ??_C@_08OFCDMILK@nan?$CIind?$CJ@ 1002c6d4     libucrt:cvt.obj
 0002:000026e0       ??_C@_05KLBDPFGC@e?$CL000@ 1002c6e0     libucrt:cvt.obj
 0002:000026e8       ___lc_time_c               1002c6e8     libucrt:nlsdata.obj
 0002:0000284c       ??_C@_03KOEHGMDN@Sun@      1002c84c     libucrt:nlsdata.obj
 0002:00002850       ??_C@_03PDAGKDH@Mon@       1002c850     libucrt:nlsdata.obj
 0002:00002854       ??_C@_03NAGEINEP@Tue@      1002c854     libucrt:nlsdata.obj
 0002:00002858       ??_C@_03MHOMLAJA@Wed@      1002c858     libucrt:nlsdata.obj
 0002:0000285c       ??_C@_03IOFIKPDN@Thu@      1002c85c     libucrt:nlsdata.obj
 0002:00002860       ??_C@_03IDIOELNC@Fri@      1002c860     libucrt:nlsdata.obj
 0002:00002864       ??_C@_03FEFJNEK@Sat@       1002c864     libucrt:nlsdata.obj
 0002:00002868       ??_C@_06OOPIFAJ@Sunday@    1002c868     libucrt:nlsdata.obj
 0002:00002870       ??_C@_06JLEDEDGH@Monday@   1002c870     libucrt:nlsdata.obj
 0002:00002878       ??_C@_07BAAGCFCM@Tuesday@  1002c878     libucrt:nlsdata.obj
 0002:00002880       ??_C@_09DLIGFAKA@Wednesday@ 1002c880     libucrt:nlsdata.obj
 0002:0000288c       ??_C@_08HACCIKIA@Thursday@ 1002c88c     libucrt:nlsdata.obj
 0002:00002898       ??_C@_06JECMNKMI@Friday@   1002c898     libucrt:nlsdata.obj
 0002:000028a0       ??_C@_08INBOOONO@Saturday@ 1002c8a0     libucrt:nlsdata.obj
 0002:000028ac       ??_C@_03JIHJHPIE@Jan@      1002c8ac     libucrt:nlsdata.obj
 0002:000028b0       ??_C@_03HJBDCHOM@Feb@      1002c8b0     libucrt:nlsdata.obj
 0002:000028b4       ??_C@_03ODNJBKGA@Mar@      1002c8b4     libucrt:nlsdata.obj
 0002:000028b8       ??_C@_03LEOLGMJP@Apr@      1002c8b8     libucrt:nlsdata.obj
 0002:000028bc       ??_C@_03CNMDKL@May@        1002c8bc     libucrt:nlsdata.obj
 0002:000028c0       ??_C@_03IDFGHECI@Jun@      1002c8c0     libucrt:nlsdata.obj
 0002:000028c4       ??_C@_03LBGABGKK@Jul@      1002c8c4     libucrt:nlsdata.obj
 0002:000028c8       ??_C@_03IFJFEIGA@Aug@      1002c8c8     libucrt:nlsdata.obj
 0002:000028cc       ??_C@_03GGCAPAJC@Sep@      1002c8cc     libucrt:nlsdata.obj
 0002:000028d0       ??_C@_03BMAOKBAD@Oct@      1002c8d0     libucrt:nlsdata.obj
 0002:000028d4       ??_C@_03JPJOFNIA@Nov@      1002c8d4     libucrt:nlsdata.obj
 0002:000028d8       ??_C@_03MKABNOCG@Dec@      1002c8d8     libucrt:nlsdata.obj
 0002:000028dc       ??_C@_07CGJPFGJA@January@  1002c8dc     libucrt:nlsdata.obj
 0002:000028e4       ??_C@_08GNJGEPFN@February@ 1002c8e4     libucrt:nlsdata.obj
 0002:000028f0       ??_C@_05HPCKOFNC@March@    1002c8f0     libucrt:nlsdata.obj
 0002:000028f8       ??_C@_05DMJDNLEJ@April@    1002c8f8     libucrt:nlsdata.obj
 0002:00002900       ??_C@_04CNLMGBGM@June@     1002c900     libucrt:nlsdata.obj
 0002:00002908       ??_C@_04MIEPOIFP@July@     1002c908     libucrt:nlsdata.obj
 0002:00002910       ??_C@_06LBBHFDDG@August@   1002c910     libucrt:nlsdata.obj
 0002:00002918       ??_C@_09BHHEALKD@September@ 1002c918     libucrt:nlsdata.obj
 0002:00002924       ??_C@_07JJNFCEND@October@  1002c924     libucrt:nlsdata.obj
 0002:0000292c       ??_C@_08HCHEGEOA@November@ 1002c92c     libucrt:nlsdata.obj
 0002:00002938       ??_C@_08EDHMEBNP@December@ 1002c938     libucrt:nlsdata.obj
 0002:00002944       ??_C@_02DEDBPAFC@AM@       1002c944     libucrt:nlsdata.obj
 0002:00002948       ??_C@_02CJNFDJBF@PM@       1002c948     libucrt:nlsdata.obj
 0002:0000294c       ??_C@_08BPBNCDIB@MM?1dd?1yy@ 1002c94c     libucrt:nlsdata.obj
 0002:00002958       ??_C@_0BE@CKGJFCPC@dddd?0?5MMMM?5dd?0?5yyyy@ 1002c958     libucrt:nlsdata.obj
 0002:0000296c       ??_C@_08JCCMCCIL@HH?3mm?3ss@ 1002c96c     libucrt:nlsdata.obj
 0002:00002978       ??_C@_17MBGCMIPB@?$AAS?$AAu?$AAn@ 1002c978     libucrt:nlsdata.obj
 0002:00002980       ??_C@_17KBOMKBF@?$AAM?$AAo?$AAn@ 1002c980     libucrt:nlsdata.obj
 0002:00002988       ??_C@_17BMKGEGOJ@?$AAT?$AAu?$AAe@ 1002c988     libucrt:nlsdata.obj
 0002:00002990       ??_C@_17CJEDCEPE@?$AAW?$AAe?$AAd@ 1002c990     libucrt:nlsdata.obj
 0002:00002998       ??_C@_17PDPHAADD@?$AAT?$AAh?$AAu@ 1002c998     libucrt:nlsdata.obj
 0002:000029a0       ??_C@_17HFOLPPLP@?$AAF?$AAr?$AAi@ 1002c9a0     libucrt:nlsdata.obj
 0002:000029a8       ??_C@_17GGIBDPIH@?$AAS?$AAa?$AAt@ 1002c9a8     libucrt:nlsdata.obj
 0002:000029b0       ??_C@_1O@IHNHDHPB@?$AAS?$AAu?$AAn?$AAd?$AAa?$AAy@ 1002c9b0     libucrt:nlsdata.obj
 0002:000029c0       ??_C@_1O@MMNBFLIA@?$AAM?$AAo?$AAn?$AAd?$AAa?$AAy@ 1002c9c0     libucrt:nlsdata.obj
 0002:000029d0       ??_C@_1BA@ENFBFFEK@?$AAT?$AAu?$AAe?$AAs?$AAd?$AAa?$AAy@ 1002c9d0     libucrt:nlsdata.obj
 0002:000029e0       ??_C@_1BE@EBOGMDOH@?$AAW?$AAe?$AAd?$AAn?$AAe?$AAs?$AAd?$AAa?$AAy@ 1002c9e0     libucrt:nlsdata.obj
 0002:000029f4       ??_C@_1BC@HHMNLIHE@?$AAT?$AAh?$AAu?$AAr?$AAs?$AAd?$AAa?$AAy@ 1002c9f4     libucrt:nlsdata.obj
 0002:00002a08       ??_C@_1O@PDICJHAG@?$AAF?$AAr?$AAi?$AAd?$AAa?$AAy@ 1002ca08     libucrt:nlsdata.obj
 0002:00002a18       ??_C@_1BC@ENMNNPAJ@?$AAS?$AAa?$AAt?$AAu?$AAr?$AAd?$AAa?$AAy@ 1002ca18     libucrt:nlsdata.obj
 0002:00002a2c       ??_C@_17DKNBKCHM@?$AAJ?$AAa?$AAn@ 1002ca2c     libucrt:nlsdata.obj
 0002:00002a34       ??_C@_17LMDJEKJN@?$AAF?$AAe?$AAb@ 1002ca34     libucrt:nlsdata.obj
 0002:00002a3c       ??_C@_17CKNLEDEC@?$AAM?$AAa?$AAr@ 1002ca3c     libucrt:nlsdata.obj
 0002:00002a44       ??_C@_17LFPOIHDD@?$AAA?$AAp?$AAr@ 1002ca44     libucrt:nlsdata.obj
 0002:00002a4c       ??_C@_17PNNKMEED@?$AAM?$AAa?$AAy@ 1002ca4c     libucrt:nlsdata.obj
 0002:00002a54       ??_C@_17KCJGOCPB@?$AAJ?$AAu?$AAn@ 1002ca54     libucrt:nlsdata.obj
 0002:00002a5c       ??_C@_17IJPCKHK@?$AAJ?$AAu?$AAl@ 1002ca5c     libucrt:nlsdata.obj
 0002:00002a64       ??_C@_17ICPELBCN@?$AAA?$AAu?$AAg@ 1002ca64     libucrt:nlsdata.obj
 0002:00002a6c       ??_C@_17HCHCOKMG@?$AAS?$AAe?$AAp@ 1002ca6c     libucrt:nlsdata.obj
 0002:00002a74       ??_C@_17FNLKOI@?$AAO?$AAc?$AAt@ 1002ca74     libucrt:nlsdata.obj
 0002:00002a7c       ??_C@_17BBDMLCIG@?$AAN?$AAo?$AAv@ 1002ca7c     libucrt:nlsdata.obj
 0002:00002a84       ??_C@_17EGKACKIF@?$AAD?$AAe?$AAc@ 1002ca84     libucrt:nlsdata.obj
 0002:00002a8c       ??_C@_1BA@EFMEIEBA@?$AAJ?$AAa?$AAn?$AAu?$AAa?$AAr?$AAy@ 1002ca8c     libucrt:nlsdata.obj
 0002:00002a9c       ??_C@_1BC@JGDDFFAM@?$AAF?$AAe?$AAb?$AAr?$AAu?$AAa?$AAr?$AAy@ 1002ca9c     libucrt:nlsdata.obj
 0002:00002ab0       ??_C@_1M@IKEENEDF@?$AAM?$AAa?$AAr?$AAc?$AAh@ 1002cab0     libucrt:nlsdata.obj
 0002:00002abc       ??_C@_1M@GJNLMHFD@?$AAA?$AAp?$AAr?$AAi?$AAl@ 1002cabc     libucrt:nlsdata.obj
 0002:00002ac8       ??_C@_19EPFLPGAP@?$AAJ?$AAu?$AAn?$AAe@ 1002cac8     libucrt:nlsdata.obj
 0002:00002ad4       ??_C@_19BIFMLPCD@?$AAJ?$AAu?$AAl?$AAy@ 1002cad4     libucrt:nlsdata.obj
 0002:00002ae0       ??_C@_1O@PAHLKOAC@?$AAA?$AAu?$AAg?$AAu?$AAs?$AAt@ 1002cae0     libucrt:nlsdata.obj
 0002:00002af0       ??_C@_1BE@DKAAMBJL@?$AAS?$AAe?$AAp?$AAt?$AAe?$AAm?$AAb?$AAe?$AAr@ 1002caf0     libucrt:nlsdata.obj
 0002:00002b04       ??_C@_1BA@EPANDLNG@?$AAO?$AAc?$AAt?$AAo?$AAb?$AAe?$AAr@ 1002cb04     libucrt:nlsdata.obj
 0002:00002b14       ??_C@_1BC@BGLIFPF@?$AAN?$AAo?$AAv?$AAe?$AAm?$AAb?$AAe?$AAr@ 1002cb14     libucrt:nlsdata.obj
 0002:00002b28       ??_C@_1BC@FEMKIFH@?$AAD?$AAe?$AAc?$AAe?$AAm?$AAb?$AAe?$AAr@ 1002cb28     libucrt:nlsdata.obj
 0002:00002b3c       ??_C@_15ODEHAHHF@?$AAA?$AAM@ 1002cb3c     libucrt:nlsdata.obj
 0002:00002b44       ??_C@_15CLMNNGEL@?$AAP?$AAM@ 1002cb44     libucrt:nlsdata.obj
 0002:00002b4c       ??_C@_1BC@IEBCMHCM@?$AAM?$AAM?$AA?1?$AAd?$AAd?$AA?1?$AAy?$AAy@ 1002cb4c     libucrt:nlsdata.obj
 0002:00002b60       ??_C@_1CI@KNAKOEBC@?$AAd?$AAd?$AAd?$AAd?$AA?0?$AA?5?$AAM?$AAM?$AAM?$AAM?$AA?5?$AAd?$AAd?$AA?0?$AA?5@ 1002cb60     libucrt:nlsdata.obj
 0002:00002b88       ??_C@_1BC@GDGBMEMK@?$AAH?$AAH?$AA?3?$AAm?$AAm?$AA?3?$AAs?$AAs@ 1002cb88     libucrt:nlsdata.obj
 0002:00002b9c       ??_C@_1M@BMHNFIME@?$AAe?$AAn?$AA?9?$AAU?$AAS@ 1002cb9c     libucrt:nlsdata.obj
 0002:00002ba8       ___newctype                1002cba8     libucrt:ctype.obj
 0002:00002ea8       ___newclmap                1002cea8     libucrt:ctype.obj
 0002:00003028       ___newcumap                1002d028     libucrt:ctype.obj
 0002:000031f8       ??_C@_1EA@JGEFHKEI@?$AAa?$AAp?$AAi?$AA?9?$AAm?$AAs?$AA?9?$AAw?$AAi?$AAn?$AA?9?$AAc?$AAo?$AAr?$AAe@ 1002d1f8     libucrt:winapi_thunks.obj
 0002:00003238       ??_C@_1DI@IJCEHOCB@?$AAa?$AAp?$AAi?$AA?9?$AAm?$AAs?$AA?9?$AAw?$AAi?$AAn?$AA?9?$AAc?$AAo?$AAr?$AAe@ 1002d238     libucrt:winapi_thunks.obj
 0002:00003270       ??_C@_1EI@MPIAOHOC@?$AAa?$AAp?$AAi?$AA?9?$AAm?$AAs?$AA?9?$AAw?$AAi?$AAn?$AA?9?$AAc?$AAo?$AAr?$AAe@ 1002d270     libucrt:winapi_thunks.obj
 0002:000032b8       ??_C@_1FK@FPHCKFIE@?$AAa?$AAp?$AAi?$AA?9?$AAm?$AAs?$AA?9?$AAw?$AAi?$AAn?$AA?9?$AAc?$AAo?$AAr?$AAe@ 1002d2b8     libucrt:winapi_thunks.obj
 0002:00003318       ??_C@_1EM@DILCGIIO@?$AAa?$AAp?$AAi?$AA?9?$AAm?$AAs?$AA?9?$AAw?$AAi?$AAn?$AA?9?$AAc?$AAo?$AAr?$AAe@ 1002d318     libucrt:winapi_thunks.obj
 0002:00003364       ??_C@_1DM@LNCGDDPN@?$AAa?$AAp?$AAi?$AA?9?$AAm?$AAs?$AA?9?$AAw?$AAi?$AAn?$AA?9?$AAc?$AAo?$AAr?$AAe@ 1002d364     libucrt:winapi_thunks.obj
 0002:000033a0       ??_C@_1DO@FPAPJEMD@?$AAa?$AAp?$AAi?$AA?9?$AAm?$AAs?$AA?9?$AAw?$AAi?$AAn?$AA?9?$AAc?$AAo?$AAr?$AAe@ 1002d3a0     libucrt:winapi_thunks.obj
 0002:000033e0       ??_C@_1DK@NDHNAHIO@?$AAa?$AAp?$AAi?$AA?9?$AAm?$AAs?$AA?9?$AAw?$AAi?$AAn?$AA?9?$AAc?$AAo?$AAr?$AAe@ 1002d3e0     libucrt:winapi_thunks.obj
 0002:0000341c       ??_C@_1DM@KGHDGBCM@?$AAa?$AAp?$AAi?$AA?9?$AAm?$AAs?$AA?9?$AAw?$AAi?$AAn?$AA?9?$AAc?$AAo?$AAr?$AAe@ 1002d41c     libucrt:winapi_thunks.obj
 0002:00003458       ??_C@_1EO@IJIOEFOH@?$AAa?$AAp?$AAi?$AA?9?$AAm?$AAs?$AA?9?$AAw?$AAi?$AAn?$AA?9?$AAr?$AAt?$AAc?$AAo@ 1002d458     libucrt:winapi_thunks.obj
 0002:000034a8       ??_C@_1FG@HHGEKANL@?$AAa?$AAp?$AAi?$AA?9?$AAm?$AAs?$AA?9?$AAw?$AAi?$AAn?$AA?9?$AAs?$AAe?$AAc?$AAu@ 1002d4a8     libucrt:winapi_thunks.obj
 0002:00003500       ??_C@_1EG@DBIOJECG@?$AAe?$AAx?$AAt?$AA?9?$AAm?$AAs?$AA?9?$AAw?$AAi?$AAn?$AA?9?$AAn?$AAt?$AAu?$AAs@ 1002d500     libucrt:winapi_thunks.obj
 0002:00003548       ??_C@_1EO@FIHMJCLF@?$AAe?$AAx?$AAt?$AA?9?$AAm?$AAs?$AA?9?$AAw?$AAi?$AAn?$AA?9?$AAn?$AAt?$AAu?$AAs@ 1002d548     libucrt:winapi_thunks.obj
 0002:00003598       ??_C@_1BC@DNHGCMLG@?$AAa?$AAd?$AAv?$AAa?$AAp?$AAi?$AA3?$AA2@ 1002d598     libucrt:winapi_thunks.obj
 0002:000035ac       ??_C@_1M@OAIMIKLP@?$AAn?$AAt?$AAd?$AAl?$AAl@ 1002d5ac     libucrt:winapi_thunks.obj
 0002:000035b8       ??_C@_1EG@DPGNFKGC@?$AAa?$AAp?$AAi?$AA?9?$AAm?$AAs?$AA?9?$AAw?$AAi?$AAn?$AA?9?$AAa?$AAp?$AAp?$AAm@ 1002d5b8     libucrt:winapi_thunks.obj
 0002:00003600       ??_C@_1O@BCCLBEOE@?$AAu?$AAs?$AAe?$AAr?$AA3?$AA2@ 1002d600     libucrt:winapi_thunks.obj
 0002:00003610       ??_C@_1BA@IAIFMGEF@?$AAe?$AAx?$AAt?$AA?9?$AAm?$AAs?$AA?9@ 1002d610     libucrt:winapi_thunks.obj
 0002:00003624       ??_C@_0BA@FHFNEAED@AreFileApisANSI@ 1002d624     libucrt:winapi_thunks.obj
 0002:00003664       ??_C@_0O@KKBNKAPF@LCMapStringEx@ 1002d664     libucrt:winapi_thunks.obj
 0002:0000367c       ??_C@_0BB@HBDEELFH@LocaleNameToLCID@ 1002d67c     libucrt:winapi_thunks.obj
 0002:00003694       ??_C@_0N@PPOMPGGK@RoInitialize@ 1002d694     libucrt:winapi_thunks.obj
 0002:000036a8       ??_C@_0P@LLFHBIJD@RoUninitialize@ 1002d6a8     libucrt:winapi_thunks.obj
 0002:000036bc       ??_C@_0CF@OJOFEIGO@AppPolicyGetProcessTerminationM@ 1002d6bc     libucrt:winapi_thunks.obj
 0002:000036e8       ??_C@_0CF@NNDFDCOC@AppPolicyGetThreadInitializatio@ 1002d6e8     libucrt:winapi_thunks.obj
 0002:00003720       ??_C@_1M@HPNHIDJI@?$AAj?$AAa?$AA?9?$AAJ?$AAP@ 1002d720     libucrt:mbctype.obj
 0002:0000372c       ??_C@_1M@BIBDDEMK@?$AAz?$AAh?$AA?9?$AAC?$AAN@ 1002d72c     libucrt:mbctype.obj
 0002:00003738       ??_C@_1M@JLOOOEGK@?$AAk?$AAo?$AA?9?$AAK?$AAR@ 1002d738     libucrt:mbctype.obj
 0002:00003744       ??_C@_1M@CLNBBOPM@?$AAz?$AAh?$AA?9?$AAT?$AAW@ 1002d744     libucrt:mbctype.obj
 0002:00003750       ?large_power_data@?1??multiply_by_power_of_ten@__crt_strtox@@YA_NAAUbig_integer@2@I@Z@4QBIB 1002d750     libucrt:cfout.obj
 0002:00004058       ?large_power_indices@?1??multiply_by_power_of_ten@__crt_strtox@@YA_NAAUbig_integer@2@I@Z@4QBUunpack_index@?1??12@YA_N0I@Z@B 1002e058     libucrt:cfout.obj
 0002:000040f0       ?small_powers_of_ten@?1??multiply_by_power_of_ten@__crt_strtox@@YA_NAAUbig_integer@2@I@Z@4QBIB 1002e0f0     libucrt:cfout.obj
 0002:00004114       ??_C@_01GBGANLPD@0@        1002e114     libucrt:cfout.obj
 0002:00004118       ??_C@_05DNEBIAHO@1?$CDINF@ 1002e118     libucrt:cfout.obj
 0002:00004120       ??_C@_06IMKFLFPG@1?$CDQNAN@ 1002e120     libucrt:cfout.obj
 0002:00004128       ??_C@_06PGGFOGJG@1?$CDSNAN@ 1002e128     libucrt:cfout.obj
 0002:00004130       ??_C@_05PHHOCPM@1?$CDIND@  1002e130     libucrt:cfout.obj
 0002:00004138       ??_C@_15PJPFLCCM@?$AAu?$AAk@ 1002e138     libucrt:get_qualified_locale.obj
 0002:00004860       ??_C@_15EMKDOKLE@?$AAa?$AAr@ 1002e860     libucrt:lcidtoname_downlevel.obj
 0002:00004868       ??_C@_15KNPADPLH@?$AAb?$AAg@ 1002e868     libucrt:lcidtoname_downlevel.obj
 0002:00004870       ??_C@_15EDMHLDMO@?$AAc?$AAa@ 1002e870     libucrt:lcidtoname_downlevel.obj
 0002:00004878       ??_C@_1O@BPEAJADD@?$AAz?$AAh?$AA?9?$AAC?$AAH?$AAS@ 1002e878     libucrt:lcidtoname_downlevel.obj
 0002:00004888       ??_C@_15LJNHCMNK@?$AAc?$AAs@ 1002e888     libucrt:lcidtoname_downlevel.obj
 0002:00004890       ??_C@_15FOMCIDHG@?$AAd?$AAa@ 1002e890     libucrt:lcidtoname_downlevel.obj
 0002:00004898       ??_C@_15NBKABECB@?$AAd?$AAe@ 1002e898     libucrt:lcidtoname_downlevel.obj
 0002:000048a0       ??_C@_15GHPEIIAO@?$AAe?$AAl@ 1002e8a0     libucrt:lcidtoname_downlevel.obj
 0002:000048a8       ??_C@_15MNPNEAIF@?$AAe?$AAn@ 1002e8a8     libucrt:lcidtoname_downlevel.obj
 0002:000048b0       ??_C@_15GPIOMPMH@?$AAe?$AAs@ 1002e8b0     libucrt:lcidtoname_downlevel.obj
 0002:000048b8       ??_C@_15NGLOAKJC@?$AAf?$AAi@ 1002e8b8     libucrt:lcidtoname_downlevel.obj
 0002:000048c0       ??_C@_15FBKGNKAM@?$AAf?$AAr@ 1002e8c0     libucrt:lcidtoname_downlevel.obj
 0002:000048c8       ??_C@_15KGGCNEFK@?$AAh?$AAe@ 1002e8c8     libucrt:lcidtoname_downlevel.obj
 0002:000048d0       ??_C@_15PGHLIDMF@?$AAh?$AAu@ 1002e8d0     libucrt:lcidtoname_downlevel.obj
 0002:000048d8       ??_C@_15BIEMAPLM@?$AAi?$AAs@ 1002e8d8     libucrt:lcidtoname_downlevel.obj
 0002:000048e0       ??_C@_15IFJLDHAF@?$AAi?$AAt@ 1002e8e0     libucrt:lcidtoname_downlevel.obj
 0002:000048e8       ??_C@_15GEMIOCAG@?$AAj?$AAa@ 1002e8e8     libucrt:lcidtoname_downlevel.obj
 0002:000048f0       ??_C@_15EPELEGJA@?$AAk?$AAo@ 1002e8f0     libucrt:lcidtoname_downlevel.obj
 0002:000048f8       ??_C@_15NDDHIMN@?$AAn?$AAl@ 1002e8f8     libucrt:lcidtoname_downlevel.obj
 0002:00004900       ??_C@_15BPIGNHCD@?$AAn?$AAo@ 1002e900     libucrt:lcidtoname_downlevel.obj
 0002:00004908       ??_C@_15DEOPBLCG@?$AAp?$AAl@ 1002e908     libucrt:lcidtoname_downlevel.obj
 0002:00004910       ??_C@_15KBECGEFG@?$AAp?$AAt@ 1002e910     libucrt:lcidtoname_downlevel.obj
 0002:00004918       ??_C@_15GLJCBFMD@?$AAr?$AAo@ 1002e918     libucrt:lcidtoname_downlevel.obj
 0002:00004920       ??_C@_15FEDGKCDI@?$AAr?$AAu@ 1002e920     libucrt:lcidtoname_downlevel.obj
 0002:00004928       ??_C@_15GLKMLLHM@?$AAh?$AAr@ 1002e928     libucrt:lcidtoname_downlevel.obj
 0002:00004930       ??_C@_15CPKMFBDB@?$AAs?$AAk@ 1002e930     libucrt:lcidtoname_downlevel.obj
 0002:00004938       ??_C@_15BAAIOGMK@?$AAs?$AAq@ 1002e938     libucrt:lcidtoname_downlevel.obj
 0002:00004940       ??_C@_15INNPNOHD@?$AAs?$AAv@ 1002e940     libucrt:lcidtoname_downlevel.obj
 0002:00004948       ??_C@_15CABMMOGH@?$AAt?$AAh@ 1002e948     libucrt:lcidtoname_downlevel.obj
 0002:00004950       ??_C@_15BPLIHJJM@?$AAt?$AAr@ 1002e950     libucrt:lcidtoname_downlevel.obj
 0002:00004958       ??_C@_15NEOEKKDJ@?$AAu?$AAr@ 1002e958     libucrt:lcidtoname_downlevel.obj
 0002:00004960       ??_C@_15NFICGAJK@?$AAi?$AAd@ 1002e960     libucrt:lcidtoname_downlevel.obj
 0002:00004968       ??_C@_15HPJPHDM@?$AAb?$AAe@ 1002e968     libucrt:lcidtoname_downlevel.obj
 0002:00004970       ??_C@_15LCHLGJII@?$AAs?$AAl@ 1002e970     libucrt:lcidtoname_downlevel.obj
 0002:00004978       ??_C@_15PCFJPHHO@?$AAe?$AAt@ 1002e978     libucrt:lcidtoname_downlevel.obj
 0002:00004980       ??_C@_15HPFPGODN@?$AAl?$AAv@ 1002e980     libucrt:lcidtoname_downlevel.obj
 0002:00004988       ??_C@_15NFFGKGLG@?$AAl?$AAt@ 1002e988     libucrt:lcidtoname_downlevel.obj
 0002:00004990       ??_C@_15BDAKCCHN@?$AAf?$AAa@ 1002e990     libucrt:lcidtoname_downlevel.obj
 0002:00004998       ??_C@_15NFGIAIAJ@?$AAv?$AAi@ 1002e998     libucrt:lcidtoname_downlevel.obj
 0002:000049a0       ??_C@_15LMKNDMHN@?$AAh?$AAy@ 1002e9a0     libucrt:lcidtoname_downlevel.obj
 0002:000049a8       ??_C@_15IJBHMCFL@?$AAa?$AAz@ 1002e9a8     libucrt:lcidtoname_downlevel.obj
 0002:000049b0       ??_C@_15EKOFJABL@?$AAe?$AAu@ 1002e9b0     libucrt:lcidtoname_downlevel.obj
 0002:000049b8       ??_C@_15BGHADCNK@?$AAm?$AAk@ 1002e9b8     libucrt:lcidtoname_downlevel.obj
 0002:000049c0       ??_C@_15JDNICKHM@?$AAa?$AAf@ 1002e9c0     libucrt:lcidtoname_downlevel.obj
 0002:000049c8       ??_C@_15KPJEDBKD@?$AAk?$AAa@ 1002e9c8     libucrt:lcidtoname_downlevel.obj
 0002:000049d0       ??_C@_15PDNFFFEO@?$AAf?$AAo@ 1002e9d0     libucrt:lcidtoname_downlevel.obj
 0002:000049d8       ??_C@_15OMLEGLOC@?$AAh?$AAi@ 1002e9d8     libucrt:lcidtoname_downlevel.obj
 0002:000049e0       ??_C@_15IDNNENKK@?$AAm?$AAs@ 1002e9e0     libucrt:lcidtoname_downlevel.obj
 0002:000049e8       ??_C@_15MACJNBMH@?$AAk?$AAk@ 1002e9e8     libucrt:lcidtoname_downlevel.obj
 0002:000049f0       ??_C@_15DKDJEOND@?$AAk?$AAy@ 1002e9f0     libucrt:lcidtoname_downlevel.obj
 0002:000049f8       ??_C@_15DFGDLJBG@?$AAs?$AAw@ 1002e9f8     libucrt:lcidtoname_downlevel.obj
 0002:00004a00       ??_C@_15BBFAICNG@?$AAu?$AAz@ 1002ea00     libucrt:lcidtoname_downlevel.obj
 0002:00004a08       ??_C@_15DKNDCGEA@?$AAt?$AAt@ 1002ea08     libucrt:lcidtoname_downlevel.obj
 0002:00004a10       ??_C@_15MGIFMDPL@?$AAp?$AAa@ 1002ea10     libucrt:lcidtoname_downlevel.obj
 0002:00004a18       ??_C@_15HCNDBBA@?$AAg?$AAu@ 1002ea18     libucrt:lcidtoname_downlevel.obj
 0002:00004a20       ??_C@_15FNBEIBON@?$AAt?$AAa@ 1002ea20     libucrt:lcidtoname_downlevel.obj
 0002:00004a28       ??_C@_15NCHGBGLK@?$AAt?$AAe@ 1002ea28     libucrt:lcidtoname_downlevel.obj
 0002:00004a30       ??_C@_15PHPHCBPF@?$AAk?$AAn@ 1002ea30     libucrt:lcidtoname_downlevel.obj
 0002:00004a38       ??_C@_15DLGBCKMP@?$AAm?$AAr@ 1002ea38     libucrt:lcidtoname_downlevel.obj
 0002:00004a40       ??_C@_15EABBLBFF@?$AAs?$AAa@ 1002ea40     libucrt:lcidtoname_downlevel.obj
 0002:00004a48       ??_C@_15CBKOMCOI@?$AAm?$AAn@ 1002ea48     libucrt:lcidtoname_downlevel.obj
 0002:00004a50       ??_C@_15CKDMCJAF@?$AAg?$AAl@ 1002ea50     libucrt:lcidtoname_downlevel.obj
 0002:00004a58       ??_C@_17CNJFBPG@?$AAk?$AAo?$AAk@ 1002ea58     libucrt:lcidtoname_downlevel.obj
 0002:00004a60       ??_C@_17FFBJICPL@?$AAs?$AAy?$AAr@ 1002ea60     libucrt:lcidtoname_downlevel.obj
 0002:00004a68       ??_C@_17KPNDCPAF@?$AAd?$AAi?$AAv@ 1002ea68     libucrt:lcidtoname_downlevel.obj
 0002:00004a70       ??_C@_11LOCGONAA@@         1002ea70     libucrt:lcidtoname_downlevel.obj
 0002:00004a74       ??_C@_1M@OKAHONE@?$AAa?$AAr?$AA?9?$AAS?$AAA@ 1002ea74     libucrt:lcidtoname_downlevel.obj
 0002:00004a80       ??_C@_1M@FFFIGIGK@?$AAb?$AAg?$AA?9?$AAB?$AAG@ 1002ea80     libucrt:lcidtoname_downlevel.obj
 0002:00004a8c       ??_C@_1M@BJNKEDC@?$AAc?$AAa?$AA?9?$AAE?$AAS@ 1002ea8c     libucrt:lcidtoname_downlevel.obj
 0002:00004a98       ??_C@_1M@IJJHFJHA@?$AAc?$AAs?$AA?9?$AAC?$AAZ@ 1002ea98     libucrt:lcidtoname_downlevel.obj
 0002:00004aa4       ??_C@_1M@CLPEOBGI@?$AAd?$AAa?$AA?9?$AAD?$AAK@ 1002eaa4     libucrt:lcidtoname_downlevel.obj
 0002:00004ab0       ??_C@_1M@MCMADGCB@?$AAd?$AAe?$AA?9?$AAD?$AAE@ 1002eab0     libucrt:lcidtoname_downlevel.obj
 0002:00004abc       ??_C@_1M@OOCKEMAM@?$AAe?$AAl?$AA?9?$AAG?$AAR@ 1002eabc     libucrt:lcidtoname_downlevel.obj
 0002:00004ac8       ??_C@_1M@DDNJFGID@?$AAf?$AAi?$AA?9?$AAF?$AAI@ 1002eac8     libucrt:lcidtoname_downlevel.obj
 0002:00004ad4       ??_C@_1M@GLIPPMAC@?$AAf?$AAr?$AA?9?$AAF?$AAR@ 1002ead4     libucrt:lcidtoname_downlevel.obj
 0002:00004ae0       ??_C@_1M@GFMCHPE@?$AAh?$AAe?$AA?9?$AAI?$AAL@ 1002eae0     libucrt:lcidtoname_downlevel.obj
 0002:00004aec       ??_C@_1M@MHLPGNKM@?$AAh?$AAu?$AA?9?$AAH?$AAU@ 1002eaec     libucrt:lcidtoname_downlevel.obj
 0002:00004af8       ??_C@_1M@LPDDNNPN@?$AAi?$AAs?$AA?9?$AAI?$AAS@ 1002eaf8     libucrt:lcidtoname_downlevel.obj
 0002:00004b04       ??_C@_1M@MADIPODN@?$AAi?$AAt?$AA?9?$AAI?$AAT@ 1002eb04     libucrt:lcidtoname_downlevel.obj
 0002:00004b10       ??_C@_1M@IHBJJGG@?$AAn?$AAl?$AA?9?$AAN?$AAL@ 1002eb10     libucrt:lcidtoname_downlevel.obj
 0002:00004b1c       ??_C@_1M@EANAGDL@?$AAn?$AAb?$AA?9?$AAN?$AAO@ 1002eb1c     libucrt:lcidtoname_downlevel.obj
 0002:00004b28       ??_C@_1M@NEIEMEGP@?$AAp?$AAl?$AA?9?$AAP?$AAL@ 1002eb28     libucrt:lcidtoname_downlevel.obj
 0002:00004b34       ??_C@_1M@BOCFIGEP@?$AAp?$AAt?$AA?9?$AAB?$AAR@ 1002eb34     libucrt:lcidtoname_downlevel.obj
 0002:00004b40       ??_C@_1M@IMPFOPBG@?$AAr?$AAo?$AA?9?$AAR?$AAO@ 1002eb40     libucrt:lcidtoname_downlevel.obj
 0002:00004b4c       ??_C@_1M@IDNNEJMM@?$AAr?$AAu?$AA?9?$AAR?$AAU@ 1002eb4c     libucrt:lcidtoname_downlevel.obj
 0002:00004b58       ??_C@_1M@LILEEOGM@?$AAh?$AAr?$AA?9?$AAH?$AAR@ 1002eb58     libucrt:lcidtoname_downlevel.obj
 0002:00004b64       ??_C@_1M@FKIFEHPB@?$AAs?$AAk?$AA?9?$AAS?$AAK@ 1002eb64     libucrt:lcidtoname_downlevel.obj
 0002:00004b70       ??_C@_1M@LJMAMNPJ@?$AAs?$AAq?$AA?9?$AAA?$AAL@ 1002eb70     libucrt:lcidtoname_downlevel.obj
 0002:00004b7c       ??_C@_1M@GIAKDKJK@?$AAs?$AAv?$AA?9?$AAS?$AAE@ 1002eb7c     libucrt:lcidtoname_downlevel.obj
 0002:00004b88       ??_C@_1M@MKJKIKCL@?$AAt?$AAh?$AA?9?$AAT?$AAH@ 1002eb88     libucrt:lcidtoname_downlevel.obj
 0002:00004b94       ??_C@_1M@MFLCCMPB@?$AAt?$AAr?$AA?9?$AAT?$AAR@ 1002eb94     libucrt:lcidtoname_downlevel.obj
 0002:00004ba0       ??_C@_1M@OIJHDKJN@?$AAu?$AAr?$AA?9?$AAP?$AAK@ 1002eba0     libucrt:lcidtoname_downlevel.obj
 0002:00004bac       ??_C@_1M@LHIPCIEK@?$AAi?$AAd?$AA?9?$AAI?$AAD@ 1002ebac     libucrt:lcidtoname_downlevel.obj
 0002:00004bb8       ??_C@_1M@MFMOBGI@?$AAu?$AAk?$AA?9?$AAU?$AAA@ 1002ebb8     libucrt:lcidtoname_downlevel.obj
 0002:00004bc4       ??_C@_1M@OBGLJIPL@?$AAb?$AAe?$AA?9?$AAB?$AAY@ 1002ebc4     libucrt:lcidtoname_downlevel.obj
 0002:00004bd0       ??_C@_1M@BCFAJEAD@?$AAs?$AAl?$AA?9?$AAS?$AAI@ 1002ebd0     libucrt:lcidtoname_downlevel.obj
 0002:00004bdc       ??_C@_1M@FKFFEDDN@?$AAe?$AAt?$AA?9?$AAE?$AAE@ 1002ebdc     libucrt:lcidtoname_downlevel.obj
 0002:00004be8       ??_C@_1M@KGKKAACI@?$AAl?$AAv?$AA?9?$AAL?$AAV@ 1002ebe8     libucrt:lcidtoname_downlevel.obj
 0002:00004bf4       ??_C@_1M@IFGBIJO@?$AAl?$AAt?$AA?9?$AAL?$AAT@ 1002ebf4     libucrt:lcidtoname_downlevel.obj
 0002:00004c00       ??_C@_1M@FGEAHEDM@?$AAf?$AAa?$AA?9?$AAI?$AAR@ 1002ec00     libucrt:lcidtoname_downlevel.obj
 0002:00004c0c       ??_C@_1M@KBMAIBFN@?$AAv?$AAi?$AA?9?$AAV?$AAN@ 1002ec0c     libucrt:lcidtoname_downlevel.obj
 0002:00004c18       ??_C@_1M@GPCBKDJK@?$AAh?$AAy?$AA?9?$AAA?$AAM@ 1002ec18     libucrt:lcidtoname_downlevel.obj
 0002:00004c24       ??_C@_1BG@BECMDDJB@?$AAa?$AAz?$AA?9?$AAA?$AAZ?$AA?9?$AAL?$AAa?$AAt?$AAn@ 1002ec24     libucrt:lcidtoname_downlevel.obj
 0002:00004c3c       ??_C@_1M@MAOFCAEA@?$AAe?$AAu?$AA?9?$AAE?$AAS@ 1002ec3c     libucrt:lcidtoname_downlevel.obj
 0002:00004c48       ??_C@_1M@IGHABKPI@?$AAm?$AAk?$AA?9?$AAM?$AAK@ 1002ec48     libucrt:lcidtoname_downlevel.obj
 0002:00004c54       ??_C@_1M@IAIGNEJG@?$AAt?$AAn?$AA?9?$AAZ?$AAA@ 1002ec54     libucrt:lcidtoname_downlevel.obj
 0002:00004c60       ??_C@_1M@IIJCOJFA@?$AAx?$AAh?$AA?9?$AAZ?$AAA@ 1002ec60     libucrt:lcidtoname_downlevel.obj
 0002:00004c6c       ??_C@_1M@LGPJHNJH@?$AAz?$AAu?$AA?9?$AAZ?$AAA@ 1002ec6c     libucrt:lcidtoname_downlevel.obj
 0002:00004c78       ??_C@_1M@HOKAOIO@?$AAa?$AAf?$AA?9?$AAZ?$AAA@ 1002ec78     libucrt:lcidtoname_downlevel.obj
 0002:00004c84       ??_C@_1M@DPCLHLIE@?$AAk?$AAa?$AA?9?$AAG?$AAE@ 1002ec84     libucrt:lcidtoname_downlevel.obj
 0002:00004c90       ??_C@_1M@BLKMHJBI@?$AAf?$AAo?$AA?9?$AAF?$AAO@ 1002ec90     libucrt:lcidtoname_downlevel.obj
 0002:00004c9c       ??_C@_1M@LGGJAPPB@?$AAh?$AAi?$AA?9?$AAI?$AAN@ 1002ec9c     libucrt:lcidtoname_downlevel.obj
 0002:00004ca8       ??_C@_1M@FIKPIHFE@?$AAm?$AAt?$AA?9?$AAM?$AAT@ 1002eca8     libucrt:lcidtoname_downlevel.obj
 0002:00004cb4       ??_C@_1M@HEGGPBFA@?$AAs?$AAe?$AA?9?$AAN?$AAO@ 1002ecb4     libucrt:lcidtoname_downlevel.obj
 0002:00004cc0       ??_C@_1M@EIBJEEPA@?$AAm?$AAs?$AA?9?$AAM?$AAY@ 1002ecc0     libucrt:lcidtoname_downlevel.obj
 0002:00004ccc       ??_C@_1M@FHLBGMPP@?$AAk?$AAk?$AA?9?$AAK?$AAZ@ 1002eccc     libucrt:lcidtoname_downlevel.obj
 0002:00004cd8       ??_C@_1M@NGJJLCGI@?$AAk?$AAy?$AA?9?$AAK?$AAG@ 1002ecd8     libucrt:lcidtoname_downlevel.obj
 0002:00004ce4       ??_C@_1M@GIENNBFC@?$AAs?$AAw?$AA?9?$AAK?$AAE@ 1002ece4     libucrt:lcidtoname_downlevel.obj
 0002:00004cf0       ??_C@_1BG@NDGMJIMJ@?$AAu?$AAz?$AA?9?$AAU?$AAZ?$AA?9?$AAL?$AAa?$AAt?$AAn@ 1002ecf0     libucrt:lcidtoname_downlevel.obj
 0002:00004d08       ??_C@_1M@IDCCIHBC@?$AAt?$AAt?$AA?9?$AAR?$AAU@ 1002ed08     libucrt:lcidtoname_downlevel.obj
 0002:00004d14       ??_C@_1M@LOICPMOJ@?$AAb?$AAn?$AA?9?$AAI?$AAN@ 1002ed14     libucrt:lcidtoname_downlevel.obj
 0002:00004d20       ??_C@_1M@KPKKNEAH@?$AAp?$AAa?$AA?9?$AAI?$AAN@ 1002ed20     libucrt:lcidtoname_downlevel.obj
 0002:00004d2c       ??_C@_1M@PJGPPBOG@?$AAg?$AAu?$AA?9?$AAI?$AAN@ 1002ed2c     libucrt:lcidtoname_downlevel.obj
 0002:00004d38       ??_C@_1M@KMKMOPHI@?$AAt?$AAa?$AA?9?$AAI?$AAN@ 1002ed38     libucrt:lcidtoname_downlevel.obj
 0002:00004d44       ??_C@_1M@KFEHEPAC@?$AAt?$AAe?$AA?9?$AAI?$AAN@ 1002ed44     libucrt:lcidtoname_downlevel.obj
 0002:00004d50       ??_C@_1M@CDCLMGHI@?$AAk?$AAn?$AA?9?$AAI?$AAN@ 1002ed50     libucrt:lcidtoname_downlevel.obj
 0002:00004d5c       ??_C@_1M@MIODLDKF@?$AAm?$AAl?$AA?9?$AAI?$AAN@ 1002ed5c     libucrt:lcidtoname_downlevel.obj
 0002:00004d68       ??_C@_1M@PBIEACPO@?$AAm?$AAr?$AA?9?$AAI?$AAN@ 1002ed68     libucrt:lcidtoname_downlevel.obj
 0002:00004d74       ??_C@_1M@NIDEAGPH@?$AAs?$AAa?$AA?9?$AAI?$AAN@ 1002ed74     libucrt:lcidtoname_downlevel.obj
 0002:00004d80       ??_C@_1M@FHIHCBIO@?$AAm?$AAn?$AA?9?$AAM?$AAN@ 1002ed80     libucrt:lcidtoname_downlevel.obj
 0002:00004d8c       ??_C@_1M@JAIJPENP@?$AAc?$AAy?$AA?9?$AAG?$AAB@ 1002ed8c     libucrt:lcidtoname_downlevel.obj
 0002:00004d98       ??_C@_1M@PHGFBEPN@?$AAg?$AAl?$AA?9?$AAE?$AAS@ 1002ed98     libucrt:lcidtoname_downlevel.obj
 0002:00004da4       ??_C@_1O@KPIPDNCP@?$AAk?$AAo?$AAk?$AA?9?$AAI?$AAN@ 1002eda4     libucrt:lcidtoname_downlevel.obj
 0002:00004db4       ??_C@_1O@KNHJLDJA@?$AAs?$AAy?$AAr?$AA?9?$AAS?$AAY@ 1002edb4     libucrt:lcidtoname_downlevel.obj
 0002:00004dc4       ??_C@_1O@MKEKBLAH@?$AAd?$AAi?$AAv?$AA?9?$AAM?$AAV@ 1002edc4     libucrt:lcidtoname_downlevel.obj
 0002:00004dd4       ??_C@_1O@OHDCKDDF@?$AAq?$AAu?$AAz?$AA?9?$AAB?$AAO@ 1002edd4     libucrt:lcidtoname_downlevel.obj
 0002:00004de4       ??_C@_1M@LEPJNLFD@?$AAn?$AAs?$AA?9?$AAZ?$AAA@ 1002ede4     libucrt:lcidtoname_downlevel.obj
 0002:00004df0       ??_C@_1M@OMLEIIJB@?$AAm?$AAi?$AA?9?$AAN?$AAZ@ 1002edf0     libucrt:lcidtoname_downlevel.obj
 0002:00004dfc       ??_C@_1M@PMPEAILG@?$AAa?$AAr?$AA?9?$AAI?$AAQ@ 1002edfc     libucrt:lcidtoname_downlevel.obj
 0002:00004e08       ??_C@_1M@CNKPNOEE@?$AAd?$AAe?$AA?9?$AAC?$AAH@ 1002ee08     libucrt:lcidtoname_downlevel.obj
 0002:00004e14       ??_C@_1M@LKMGMLKO@?$AAe?$AAn?$AA?9?$AAG?$AAB@ 1002ee14     libucrt:lcidtoname_downlevel.obj
 0002:00004e20       ??_C@_1M@PGKJFFGL@?$AAe?$AAs?$AA?9?$AAM?$AAX@ 1002ee20     libucrt:lcidtoname_downlevel.obj
 0002:00004e2c       ??_C@_1M@DNNANBDC@?$AAf?$AAr?$AA?9?$AAB?$AAE@ 1002ee2c     libucrt:lcidtoname_downlevel.obj
 0002:00004e38       ??_C@_1M@HLGMDFHM@?$AAi?$AAt?$AA?9?$AAC?$AAH@ 1002ee38     libucrt:lcidtoname_downlevel.obj
 0002:00004e44       ??_C@_1M@CLLBGJH@?$AAn?$AAl?$AA?9?$AAB?$AAE@ 1002ee44     libucrt:lcidtoname_downlevel.obj
 0002:00004e50       ??_C@_1M@BODBOGLF@?$AAn?$AAn?$AA?9?$AAN?$AAO@ 1002ee50     libucrt:lcidtoname_downlevel.obj
 0002:00004e5c       ??_C@_1M@HFFAHKAD@?$AAp?$AAt?$AA?9?$AAP?$AAT@ 1002ee5c     libucrt:lcidtoname_downlevel.obj
 0002:00004e68       ??_C@_1BG@LNOAKHIE@?$AAs?$AAr?$AA?9?$AAS?$AAP?$AA?9?$AAL?$AAa?$AAt?$AAn@ 1002ee68     libucrt:lcidtoname_downlevel.obj
 0002:00004e80       ??_C@_1M@HBMHBGAK@?$AAs?$AAv?$AA?9?$AAF?$AAI@ 1002ee80     libucrt:lcidtoname_downlevel.obj
 0002:00004e8c       ??_C@_1BG@DGCJGJBE@?$AAa?$AAz?$AA?9?$AAA?$AAZ?$AA?9?$AAC?$AAy?$AAr?$AAl@ 1002ee8c     libucrt:lcidtoname_downlevel.obj
 0002:00004ea4       ??_C@_1M@KEJDAAHB@?$AAs?$AAe?$AA?9?$AAS?$AAE@ 1002eea4     libucrt:lcidtoname_downlevel.obj
 0002:00004eb0       ??_C@_1M@HEIBJJAD@?$AAm?$AAs?$AA?9?$AAB?$AAN@ 1002eeb0     libucrt:lcidtoname_downlevel.obj
 0002:00004ebc       ??_C@_1BG@PBGJMCEM@?$AAu?$AAz?$AA?9?$AAU?$AAZ?$AA?9?$AAC?$AAy?$AAr?$AAl@ 1002eebc     libucrt:lcidtoname_downlevel.obj
 0002:00004ed4       ??_C@_1O@LAOBCMDF@?$AAq?$AAu?$AAz?$AA?9?$AAE?$AAC@ 1002eed4     libucrt:lcidtoname_downlevel.obj
 0002:00004ee4       ??_C@_1M@POEEMAIO@?$AAa?$AAr?$AA?9?$AAE?$AAG@ 1002eee4     libucrt:lcidtoname_downlevel.obj
 0002:00004ef0       ??_C@_1M@EFAKDEDL@?$AAz?$AAh?$AA?9?$AAH?$AAK@ 1002eef0     libucrt:lcidtoname_downlevel.obj
 0002:00004efc       ??_C@_1M@HKKIJHGI@?$AAd?$AAe?$AA?9?$AAA?$AAT@ 1002eefc     libucrt:lcidtoname_downlevel.obj
 0002:00004f08       ??_C@_1M@KBFBEHJF@?$AAe?$AAn?$AA?9?$AAA?$AAU@ 1002ef08     libucrt:lcidtoname_downlevel.obj
 0002:00004f14       ??_C@_1M@MNPLFAAH@?$AAe?$AAs?$AA?9?$AAE?$AAS@ 1002ef14     libucrt:lcidtoname_downlevel.obj
 0002:00004f20       ??_C@_1M@HJOOJFMA@?$AAf?$AAr?$AA?9?$AAC?$AAA@ 1002ef20     libucrt:lcidtoname_downlevel.obj
 0002:00004f2c       ??_C@_1BG@JPOFPNAB@?$AAs?$AAr?$AA?9?$AAS?$AAP?$AA?9?$AAC?$AAy?$AAr?$AAl@ 1002ef2c     libucrt:lcidtoname_downlevel.obj
 0002:00004f44       ??_C@_1M@LNFOCMOB@?$AAs?$AAe?$AA?9?$AAF?$AAI@ 1002ef44     libucrt:lcidtoname_downlevel.obj
 0002:00004f50       ??_C@_1O@MGJBOAMB@?$AAq?$AAu?$AAz?$AA?9?$AAP?$AAE@ 1002ef50     libucrt:lcidtoname_downlevel.obj
 0002:00004f60       ??_C@_1M@GJINLBOK@?$AAa?$AAr?$AA?9?$AAL?$AAY@ 1002ef60     libucrt:lcidtoname_downlevel.obj
 0002:00004f6c       ??_C@_1M@GGMNHJNL@?$AAz?$AAh?$AA?9?$AAS?$AAG@ 1002ef6c     libucrt:lcidtoname_downlevel.obj
 0002:00004f78       ??_C@_1M@HOIKODND@?$AAd?$AAe?$AA?9?$AAL?$AAU@ 1002ef78     libucrt:lcidtoname_downlevel.obj
 0002:00004f84       ??_C@_1M@DDOCCGFG@?$AAe?$AAn?$AA?9?$AAC?$AAA@ 1002ef84     libucrt:lcidtoname_downlevel.obj
 0002:00004f90       ??_C@_1M@BNOEMJLF@?$AAe?$AAs?$AA?9?$AAG?$AAT@ 1002ef90     libucrt:lcidtoname_downlevel.obj
 0002:00004f9c       ??_C@_1M@EOGNKEK@?$AAf?$AAr?$AA?9?$AAC?$AAH@ 1002ef9c     libucrt:lcidtoname_downlevel.obj
 0002:00004fa8       ??_C@_1M@FLIDJFHL@?$AAh?$AAr?$AA?9?$AAB?$AAA@ 1002efa8     libucrt:lcidtoname_downlevel.obj
 0002:00004fb4       ??_C@_1O@FMCELNAJ@?$AAs?$AAm?$AAj?$AA?9?$AAN?$AAO@ 1002efb4     libucrt:lcidtoname_downlevel.obj
 0002:00004fc4       ??_C@_1M@JHGLJMGJ@?$AAa?$AAr?$AA?9?$AAD?$AAZ@ 1002efc4     libucrt:lcidtoname_downlevel.obj
 0002:00004fd0       ??_C@_1M@JKKFDCNP@?$AAz?$AAh?$AA?9?$AAM?$AAO@ 1002efd0     libucrt:lcidtoname_downlevel.obj
 0002:00004fdc       ??_C@_1M@GEEFALPE@?$AAd?$AAe?$AA?9?$AAL?$AAI@ 1002efdc     libucrt:lcidtoname_downlevel.obj
 0002:00004fe8       ??_C@_1M@IGEOFBG@?$AAe?$AAn?$AA?9?$AAN?$AAZ@ 1002efe8     libucrt:lcidtoname_downlevel.obj
 0002:00004ff4       ??_C@_1M@KDBONEHP@?$AAe?$AAs?$AA?9?$AAC?$AAR@ 1002eff4     libucrt:lcidtoname_downlevel.obj
 0002:00005000       ??_C@_1M@FHMDOHNN@?$AAf?$AAr?$AA?9?$AAL?$AAU@ 1002f000     libucrt:lcidtoname_downlevel.obj
 0002:0000500c       ??_C@_1BG@NFKKMAFG@?$AAb?$AAs?$AA?9?$AAB?$AAA?$AA?9?$AAL?$AAa?$AAt?$AAn@ 1002f00c     libucrt:lcidtoname_downlevel.obj
 0002:00005024       ??_C@_1O@IMNBEMCI@?$AAs?$AAm?$AAj?$AA?9?$AAS?$AAE@ 1002f024     libucrt:lcidtoname_downlevel.obj
 0002:00005034       ??_C@_1M@DHHMBNDP@?$AAa?$AAr?$AA?9?$AAM?$AAA@ 1002f034     libucrt:lcidtoname_downlevel.obj
 0002:00005040       ??_C@_1M@BNBLJCGH@?$AAe?$AAn?$AA?9?$AAI?$AAE@ 1002f040     libucrt:lcidtoname_downlevel.obj
 0002:0000504c       ??_C@_1M@GEPAFMDL@?$AAe?$AAs?$AA?9?$AAP?$AAA@ 1002f04c     libucrt:lcidtoname_downlevel.obj
 0002:00005058       ??_C@_1M@OJONDMDL@?$AAf?$AAr?$AA?9?$AAM?$AAC@ 1002f058     libucrt:lcidtoname_downlevel.obj
 0002:00005064       ??_C@_1BG@OBCNFJB@?$AAs?$AAr?$AA?9?$AAB?$AAA?$AA?9?$AAL?$AAa?$AAt?$AAn@ 1002f064     libucrt:lcidtoname_downlevel.obj
 0002:0000507c       ??_C@_1O@KEMEEGPO@?$AAs?$AAm?$AAa?$AA?9?$AAN?$AAO@ 1002f07c     libucrt:lcidtoname_downlevel.obj
 0002:0000508c       ??_C@_1M@ELMGFODK@?$AAa?$AAr?$AA?9?$AAT?$AAN@ 1002f08c     libucrt:lcidtoname_downlevel.obj
 0002:00005098       ??_C@_1M@BHDLHFAF@?$AAe?$AAn?$AA?9?$AAZ?$AAA@ 1002f098     libucrt:lcidtoname_downlevel.obj
 0002:000050a4       ??_C@_1M@BMGIGLIF@?$AAe?$AAs?$AA?9?$AAD?$AAO@ 1002f0a4     libucrt:lcidtoname_downlevel.obj
 0002:000050b0       ??_C@_1BG@CMBHIPBE@?$AAs?$AAr?$AA?9?$AAB?$AAA?$AA?9?$AAC?$AAy?$AAr?$AAl@ 1002f0b0     libucrt:lcidtoname_downlevel.obj
 0002:000050c8       ??_C@_1O@HEDBLHNP@?$AAs?$AAm?$AAa?$AA?9?$AAS?$AAE@ 1002f0c8     libucrt:lcidtoname_downlevel.obj
 0002:000050d8       ??_C@_1M@DAGCADIM@?$AAa?$AAr?$AA?9?$AAO?$AAM@ 1002f0d8     libucrt:lcidtoname_downlevel.obj
 0002:000050e4       ??_C@_1M@FODLMICG@?$AAe?$AAn?$AA?9?$AAJ?$AAM@ 1002f0e4     libucrt:lcidtoname_downlevel.obj
 0002:000050f0       ??_C@_1M@DNMLCIHB@?$AAe?$AAs?$AA?9?$AAV?$AAE@ 1002f0f0     libucrt:lcidtoname_downlevel.obj
 0002:000050fc       ??_C@_1O@EOKHMKJK@?$AAs?$AAm?$AAs?$AA?9?$AAF?$AAI@ 1002f0fc     libucrt:lcidtoname_downlevel.obj
 0002:0000510c       ??_C@_1M@CAFJMKOF@?$AAa?$AAr?$AA?9?$AAY?$AAE@ 1002f10c     libucrt:lcidtoname_downlevel.obj
 0002:00005118       ??_C@_1M@CBFHIJLI@?$AAe?$AAn?$AA?9?$AAC?$AAB@ 1002f118     libucrt:lcidtoname_downlevel.obj
 0002:00005124       ??_C@_1M@BGNFLDN@?$AAe?$AAs?$AA?9?$AAC?$AAO@ 1002f124     libucrt:lcidtoname_downlevel.obj
 0002:00005130       ??_C@_1O@JMPHMAMC@?$AAs?$AAm?$AAn?$AA?9?$AAF?$AAI@ 1002f130     libucrt:lcidtoname_downlevel.obj
 0002:00005140       ??_C@_1M@JLANABKE@?$AAa?$AAr?$AA?9?$AAS?$AAY@ 1002f140     libucrt:lcidtoname_downlevel.obj
 0002:0000514c       ??_C@_1M@HPKGCFGN@?$AAe?$AAn?$AA?9?$AAB?$AAZ@ 1002f14c     libucrt:lcidtoname_downlevel.obj
 0002:00005158       ??_C@_1M@OLJCMLGM@?$AAe?$AAs?$AA?9?$AAP?$AAE@ 1002f158     libucrt:lcidtoname_downlevel.obj
 0002:00005164       ??_C@_1M@MKKGFKLE@?$AAa?$AAr?$AA?9?$AAJ?$AAO@ 1002f164     libucrt:lcidtoname_downlevel.obj
 0002:00005170       ??_C@_1M@EKPGLDNI@?$AAe?$AAn?$AA?9?$AAT?$AAT@ 1002f170     libucrt:lcidtoname_downlevel.obj
 0002:0000517c       ??_C@_1M@OONGHFHE@?$AAe?$AAs?$AA?9?$AAA?$AAR@ 1002f17c     libucrt:lcidtoname_downlevel.obj
 0002:00005188       ??_C@_1M@OOJFGBHE@?$AAa?$AAr?$AA?9?$AAL?$AAB@ 1002f188     libucrt:lcidtoname_downlevel.obj
 0002:00005194       ??_C@_1M@GCEJHNEG@?$AAe?$AAn?$AA?9?$AAZ?$AAW@ 1002f194     libucrt:lcidtoname_downlevel.obj
 0002:000051a0       ??_C@_1M@JNOCAHJI@?$AAe?$AAs?$AA?9?$AAE?$AAC@ 1002f1a0     libucrt:lcidtoname_downlevel.obj
 0002:000051ac       ??_C@_1M@JEFHPGGB@?$AAa?$AAr?$AA?9?$AAK?$AAW@ 1002f1ac     libucrt:lcidtoname_downlevel.obj
 0002:000051b8       ??_C@_1M@MLKIBJOJ@?$AAe?$AAn?$AA?9?$AAP?$AAH@ 1002f1b8     libucrt:lcidtoname_downlevel.obj
 0002:000051c4       ??_C@_1M@BDNIPEND@?$AAe?$AAs?$AA?9?$AAC?$AAL@ 1002f1c4     libucrt:lcidtoname_downlevel.obj
 0002:000051d0       ??_C@_1M@MPNMEKBD@?$AAa?$AAr?$AA?9?$AAA?$AAE@ 1002f1d0     libucrt:lcidtoname_downlevel.obj
 0002:000051dc       ??_C@_1M@KBJALCPI@?$AAe?$AAs?$AA?9?$AAU?$AAY@ 1002f1dc     libucrt:lcidtoname_downlevel.obj
 0002:000051e8       ??_C@_1M@LLCCOAGA@?$AAa?$AAr?$AA?9?$AAB?$AAH@ 1002f1e8     libucrt:lcidtoname_downlevel.obj
 0002:000051f4       ??_C@_1M@PBFNCDEL@?$AAe?$AAs?$AA?9?$AAP?$AAY@ 1002f1f4     libucrt:lcidtoname_downlevel.obj
 0002:00005200       ??_C@_1M@EDGINPNP@?$AAa?$AAr?$AA?9?$AAQ?$AAA@ 1002f200     libucrt:lcidtoname_downlevel.obj
 0002:0000520c       ??_C@_1M@MKDBIIJI@?$AAe?$AAs?$AA?9?$AAB?$AAO@ 1002f20c     libucrt:lcidtoname_downlevel.obj
 0002:00005218       ??_C@_1M@CPKKEBLD@?$AAe?$AAs?$AA?9?$AAS?$AAV@ 1002f218     libucrt:lcidtoname_downlevel.obj
 0002:00005224       ??_C@_1M@NDBGMMJL@?$AAe?$AAs?$AA?9?$AAH?$AAN@ 1002f224     libucrt:lcidtoname_downlevel.obj
 0002:00005230       ??_C@_1M@JIJIBHDP@?$AAe?$AAs?$AA?9?$AAN?$AAI@ 1002f230     libucrt:lcidtoname_downlevel.obj
 0002:0000523c       ??_C@_1M@CGFMKEEK@?$AAe?$AAs?$AA?9?$AAP?$AAR@ 1002f23c     libucrt:lcidtoname_downlevel.obj
 0002:00005248       ??_C@_1O@ICJHKIIK@?$AAz?$AAh?$AA?9?$AAC?$AAH?$AAT@ 1002f248     libucrt:lcidtoname_downlevel.obj
 0002:00005258       ??_C@_15CLNEJCE@?$AAs?$AAr@ 1002f258     libucrt:lcidtoname_downlevel.obj
 0002:00005980       ??_C@_1M@KAHEKEIG@?$AAa?$AAf?$AA?9?$AAz?$AAa@ 1002f980     libucrt:lcidtoname_downlevel.obj
 0002:0000598c       ??_C@_1M@GIECOABL@?$AAa?$AAr?$AA?9?$AAa?$AAe@ 1002f98c     libucrt:lcidtoname_downlevel.obj
 0002:00005998       ??_C@_1M@BMLMEKGI@?$AAa?$AAr?$AA?9?$AAb?$AAh@ 1002f998     libucrt:lcidtoname_downlevel.obj
 0002:000059a4       ??_C@_1M@DAPFDGGB@?$AAa?$AAr?$AA?9?$AAd?$AAz@ 1002f9a4     libucrt:lcidtoname_downlevel.obj
 0002:000059b0       ??_C@_1M@FJNKGKIG@?$AAa?$AAr?$AA?9?$AAe?$AAg@ 1002f9b0     libucrt:lcidtoname_downlevel.obj
 0002:000059bc       ??_C@_1M@FLGKKCLO@?$AAa?$AAr?$AA?9?$AAi?$AAq@ 1002f9bc     libucrt:lcidtoname_downlevel.obj
 0002:000059c8       ??_C@_1M@GNDIPALM@?$AAa?$AAr?$AA?9?$AAj?$AAo@ 1002f9c8     libucrt:lcidtoname_downlevel.obj
 0002:000059d4       ??_C@_1M@DDMJFMGJ@?$AAa?$AAr?$AA?9?$AAk?$AAw@ 1002f9d4     libucrt:lcidtoname_downlevel.obj
 0002:000059e0       ??_C@_1M@EJALMLHM@?$AAa?$AAr?$AA?9?$AAl?$AAb@ 1002f9e0     libucrt:lcidtoname_downlevel.obj
 0002:000059ec       ??_C@_1M@MOBDBLOC@?$AAa?$AAr?$AA?9?$AAl?$AAy@ 1002f9ec     libucrt:lcidtoname_downlevel.obj
 0002:000059f8       ??_C@_1M@JAOCLHDH@?$AAa?$AAr?$AA?9?$AAm?$AAa@ 1002f9f8     libucrt:lcidtoname_downlevel.obj
 0002:00005a04       ??_C@_1M@JHPMKJIE@?$AAa?$AAr?$AA?9?$AAo?$AAm@ 1002fa04     libucrt:lcidtoname_downlevel.obj
 0002:00005a10       ??_C@_1M@OEPGHFNH@?$AAa?$AAr?$AA?9?$AAq?$AAa@ 1002fa10     libucrt:lcidtoname_downlevel.obj
 0002:00005a1c       ??_C@_1M@KJDONENM@?$AAa?$AAr?$AA?9?$AAs?$AAa@ 1002fa1c     libucrt:lcidtoname_downlevel.obj
 0002:00005a28       ??_C@_1M@DMJDKLKM@?$AAa?$AAr?$AA?9?$AAs?$AAy@ 1002fa28     libucrt:lcidtoname_downlevel.obj
 0002:00005a34       ??_C@_1M@OMFIPEDC@?$AAa?$AAr?$AA?9?$AAt?$AAn@ 1002fa34     libucrt:lcidtoname_downlevel.obj
 0002:00005a40       ??_C@_1M@IHMHGAON@?$AAa?$AAr?$AA?9?$AAy?$AAe@ 1002fa40     libucrt:lcidtoname_downlevel.obj
 0002:00005a4c       ??_C@_1BG@KDCPGJGB@?$AAa?$AAz?$AA?9?$AAa?$AAz?$AA?9?$AAc?$AAy?$AAr?$AAl@ 1002fa4c     libucrt:lcidtoname_downlevel.obj
 0002:00005a64       ??_C@_1BG@IBCKDDOE@?$AAa?$AAz?$AA?9?$AAa?$AAz?$AA?9?$AAl?$AAa?$AAt?$AAn@ 1002fa64     libucrt:lcidtoname_downlevel.obj
 0002:00005a7c       ??_C@_1M@EGPFDCPD@?$AAb?$AAe?$AA?9?$AAb?$AAy@ 1002fa7c     libucrt:lcidtoname_downlevel.obj
 0002:00005a88       ??_C@_1M@PCMGMCGC@?$AAb?$AAg?$AA?9?$AAb?$AAg@ 1002fa88     libucrt:lcidtoname_downlevel.obj
 0002:00005a94       ??_C@_1M@BJBMFGOB@?$AAb?$AAn?$AA?9?$AAi?$AAn@ 1002fa94     libucrt:lcidtoname_downlevel.obj
 0002:00005aa0       ??_C@_1BG@EAKMMACD@?$AAb?$AAs?$AA?9?$AAb?$AAa?$AA?9?$AAl?$AAa?$AAt?$AAn@ 1002faa0     libucrt:lcidtoname_downlevel.obj
 0002:00005ab8       ??_C@_1M@KGADAODK@?$AAc?$AAa?$AA?9?$AAe?$AAs@ 1002fab8     libucrt:lcidtoname_downlevel.obj
 0002:00005ac4       ??_C@_1M@COAJPDHI@?$AAc?$AAs?$AA?9?$AAc?$AAz@ 1002fac4     libucrt:lcidtoname_downlevel.obj
 0002:00005ad0       ??_C@_1M@DHBHFONH@?$AAc?$AAy?$AA?9?$AAg?$AAb@ 1002fad0     libucrt:lcidtoname_downlevel.obj
 0002:00005adc       ??_C@_1M@IMGKELGA@?$AAd?$AAa?$AA?9?$AAd?$AAk@ 1002fadc     libucrt:lcidtoname_downlevel.obj
 0002:00005ae8       ??_C@_1M@NNDGDNGA@?$AAd?$AAe?$AA?9?$AAa?$AAt@ 1002fae8     libucrt:lcidtoname_downlevel.obj
 0002:00005af4       ??_C@_1M@IKDBHEEM@?$AAd?$AAe?$AA?9?$AAc?$AAh@ 1002faf4     libucrt:lcidtoname_downlevel.obj
 0002:00005b00       ??_C@_1M@GFFOJMCJ@?$AAd?$AAe?$AA?9?$AAd?$AAe@ 1002fb00     libucrt:lcidtoname_downlevel.obj
 0002:00005b0c       ??_C@_1M@MDNLKBPM@?$AAd?$AAe?$AA?9?$AAl?$AAi@ 1002fb0c     libucrt:lcidtoname_downlevel.obj
 0002:00005b18       ??_C@_1M@NJBEEJNL@?$AAd?$AAe?$AA?9?$AAl?$AAu@ 1002fb18     libucrt:lcidtoname_downlevel.obj
 0002:00005b24       ??_C@_1O@GNNELBAP@?$AAd?$AAi?$AAv?$AA?9?$AAm?$AAv@ 1002fb24     libucrt:lcidtoname_downlevel.obj
 0002:00005b34       ??_C@_1M@EJLEOGAE@?$AAe?$AAl?$AA?9?$AAg?$AAr@ 1002fb34     libucrt:lcidtoname_downlevel.obj
 0002:00005b40       ??_C@_1M@GMPONJN@?$AAe?$AAn?$AA?9?$AAa?$AAu@ 1002fb40     libucrt:lcidtoname_downlevel.obj
 0002:00005b4c       ??_C@_1M@NIDIIPGF@?$AAe?$AAn?$AA?9?$AAb?$AAz@ 1002fb4c     libucrt:lcidtoname_downlevel.obj
 0002:00005b58       ??_C@_1M@JEHMIMFO@?$AAe?$AAn?$AA?9?$AAc?$AAa@ 1002fb58     libucrt:lcidtoname_downlevel.obj
 0002:00005b64       ??_C@_1M@IGMJCDLA@?$AAe?$AAn?$AA?9?$AAc?$AAb@ 1002fb64     libucrt:lcidtoname_downlevel.obj
 0002:00005b70       ??_C@_1M@BNFIGBKG@?$AAe?$AAn?$AA?9?$AAg?$AAb@ 1002fb70     libucrt:lcidtoname_downlevel.obj
 0002:00005b7c       ??_C@_1M@LKIFDIGP@?$AAe?$AAn?$AA?9?$AAi?$AAe@ 1002fb7c     libucrt:lcidtoname_downlevel.obj
 0002:00005b88       ??_C@_1M@PJKFGCCO@?$AAe?$AAn?$AA?9?$AAj?$AAm@ 1002fb88     libucrt:lcidtoname_downlevel.obj
 0002:00005b94       ??_C@_1M@KPPKEPBO@?$AAe?$AAn?$AA?9?$AAn?$AAz@ 1002fb94     libucrt:lcidtoname_downlevel.obj
 0002:00005ba0       ??_C@_1M@GMDGLDOB@?$AAe?$AAn?$AA?9?$AAp?$AAh@ 1002fba0     libucrt:lcidtoname_downlevel.obj
 0002:00005bac       ??_C@_1M@ONGIBJNA@?$AAe?$AAn?$AA?9?$AAt?$AAt@ 1002fbac     libucrt:lcidtoname_downlevel.obj
 0002:00005bb8       ??_C@_1M@LLODPCMM@?$AAe?$AAn?$AA?9?$AAu?$AAs@ 1002fbb8     libucrt:lcidtoname_downlevel.obj
 0002:00005bc4       ??_C@_1M@LAKFNPAN@?$AAe?$AAn?$AA?9?$AAz?$AAa@ 1002fbc4     libucrt:lcidtoname_downlevel.obj
 0002:00005bd0       ??_C@_1M@MFNHNHEO@?$AAe?$AAn?$AA?9?$AAz?$AAw@ 1002fbd0     libucrt:lcidtoname_downlevel.obj
 0002:00005bdc       ??_C@_1M@EJEINPHM@?$AAe?$AAs?$AA?9?$AAa?$AAr@ 1002fbdc     libucrt:lcidtoname_downlevel.obj
 0002:00005be8       ??_C@_1M@GNKPCCJA@?$AAe?$AAs?$AA?9?$AAb?$AAo@ 1002fbe8     libucrt:lcidtoname_downlevel.obj
 0002:00005bf4       ??_C@_1M@LEEGFONL@?$AAe?$AAs?$AA?9?$AAc?$AAl@ 1002fbf4     libucrt:lcidtoname_downlevel.obj
 0002:00005c00       ??_C@_1M@KGPDPBDF@?$AAe?$AAs?$AA?9?$AAc?$AAo@ 1002fc00     libucrt:lcidtoname_downlevel.obj
 0002:00005c0c       ??_C@_1M@EIAHOHH@?$AAe?$AAs?$AA?9?$AAc?$AAr@ 1002fc0c     libucrt:lcidtoname_downlevel.obj
 0002:00005c18       ??_C@_1M@LLPGMBIN@?$AAe?$AAs?$AA?9?$AAd?$AAo@ 1002fc18     libucrt:lcidtoname_downlevel.obj
 0002:00005c24       ??_C@_1M@DKHMKNJA@?$AAe?$AAs?$AA?9?$AAe?$AAc@ 1002fc24     libucrt:lcidtoname_downlevel.obj
 0002:00005c30       ??_C@_1M@GKGFPKAP@?$AAe?$AAs?$AA?9?$AAe?$AAs@ 1002fc30     libucrt:lcidtoname_downlevel.obj
 0002:00005c3c       ??_C@_1M@LKHKGDLN@?$AAe?$AAs?$AA?9?$AAg?$AAt@ 1002fc3c     libucrt:lcidtoname_downlevel.obj
 0002:00005c48       ??_C@_1M@HEIIGGJD@?$AAe?$AAs?$AA?9?$AAh?$AAn@ 1002fc48     libucrt:lcidtoname_downlevel.obj
 0002:00005c54       ??_C@_1M@FBDHPPGD@?$AAe?$AAs?$AA?9?$AAm?$AAx@ 1002fc54     libucrt:lcidtoname_downlevel.obj
 0002:00005c60       ??_C@_1M@DPAGLNDH@?$AAe?$AAs?$AA?9?$AAn?$AAi@ 1002fc60     libucrt:lcidtoname_downlevel.obj
 0002:00005c6c       ??_C@_1M@MDGOPGDD@?$AAe?$AAs?$AA?9?$AAp?$AAa@ 1002fc6c     libucrt:lcidtoname_downlevel.obj
 0002:00005c78       ??_C@_1M@EMAMGBGE@?$AAe?$AAs?$AA?9?$AAp?$AAe@ 1002fc78     libucrt:lcidtoname_downlevel.obj
 0002:00005c84       ??_C@_1M@IBMCAOEC@?$AAe?$AAs?$AA?9?$AAp?$AAr@ 1002fc84     libucrt:lcidtoname_downlevel.obj
 0002:00005c90       ??_C@_1M@FGMDIJED@?$AAe?$AAs?$AA?9?$AAp?$AAy@ 1002fc90     libucrt:lcidtoname_downlevel.obj
 0002:00005c9c       ??_C@_1M@IIDEOLLL@?$AAe?$AAs?$AA?9?$AAs?$AAv@ 1002fc9c     libucrt:lcidtoname_downlevel.obj
 0002:00005ca8       ??_C@_1M@GAOBIPA@?$AAe?$AAs?$AA?9?$AAu?$AAy@ 1002fca8     libucrt:lcidtoname_downlevel.obj
 0002:00005cb4       ??_C@_1M@JKFFICHJ@?$AAe?$AAs?$AA?9?$AAv?$AAe@ 1002fcb4     libucrt:lcidtoname_downlevel.obj
 0002:00005cc0       ??_C@_1M@PNMLOJDF@?$AAe?$AAt?$AA?9?$AAe?$AAe@ 1002fcc0     libucrt:lcidtoname_downlevel.obj
 0002:00005ccc       ??_C@_1M@GHHLIKEI@?$AAe?$AAu?$AA?9?$AAe?$AAs@ 1002fccc     libucrt:lcidtoname_downlevel.obj
 0002:00005cd8       ??_C@_1M@PBNONODE@?$AAf?$AAa?$AA?9?$AAi?$AAr@ 1002fcd8     libucrt:lcidtoname_downlevel.obj
 0002:00005ce4       ??_C@_1M@JEEHPMIL@?$AAf?$AAi?$AA?9?$AAf?$AAi@ 1002fce4     libucrt:lcidtoname_downlevel.obj
 0002:00005cf0       ??_C@_1M@LMDCNDBA@?$AAf?$AAo?$AA?9?$AAf?$AAo@ 1002fcf0     libucrt:lcidtoname_downlevel.obj
 0002:00005cfc       ??_C@_1M@JKEOHLDK@?$AAf?$AAr?$AA?9?$AAb?$AAe@ 1002fcfc     libucrt:lcidtoname_downlevel.obj
 0002:00005d08       ??_C@_1M@NOHADPMI@?$AAf?$AAr?$AA?9?$AAc?$AAa@ 1002fd08     libucrt:lcidtoname_downlevel.obj
 0002:00005d14       ??_C@_1M@KDHIHAEC@?$AAf?$AAr?$AA?9?$AAc?$AAh@ 1002fd14     libucrt:lcidtoname_downlevel.obj
 0002:00005d20       ??_C@_1M@MMBBFGAK@?$AAf?$AAr?$AA?9?$AAf?$AAr@ 1002fd20     libucrt:lcidtoname_downlevel.obj
 0002:00005d2c       ??_C@_1M@PAFNENNF@?$AAf?$AAr?$AA?9?$AAl?$AAu@ 1002fd2c     libucrt:lcidtoname_downlevel.obj
 0002:00005d38       ??_C@_1M@EOHDJGDD@?$AAf?$AAr?$AA?9?$AAm?$AAc@ 1002fd38     libucrt:lcidtoname_downlevel.obj
 0002:00005d44       ??_C@_1M@FAPLLOPF@?$AAg?$AAl?$AA?9?$AAe?$AAs@ 1002fd44     libucrt:lcidtoname_downlevel.obj
 0002:00005d50       ??_C@_1M@FOPBFLOO@?$AAg?$AAu?$AA?9?$AAi?$AAn@ 1002fd50     libucrt:lcidtoname_downlevel.obj
 0002:00005d5c       ??_C@_1M@KBMCINPM@?$AAh?$AAe?$AA?9?$AAi?$AAl@ 1002fd5c     libucrt:lcidtoname_downlevel.obj
 0002:00005d68       ??_C@_1M@BBPHKFPJ@?$AAh?$AAi?$AA?9?$AAi?$AAn@ 1002fd68     libucrt:lcidtoname_downlevel.obj
 0002:00005d74       ??_C@_1M@PMBNDPHD@?$AAh?$AAr?$AA?9?$AAb?$AAa@ 1002fd74     libucrt:lcidtoname_downlevel.obj
 0002:00005d80       ??_C@_1M@BPCKOEGE@?$AAh?$AAr?$AA?9?$AAh?$AAr@ 1002fd80     libucrt:lcidtoname_downlevel.obj
 0002:00005d8c       ??_C@_1M@GACBMHKE@?$AAh?$AAu?$AA?9?$AAh?$AAu@ 1002fd8c     libucrt:lcidtoname_downlevel.obj
 0002:00005d98       ??_C@_1M@MILPAJJC@?$AAh?$AAy?$AA?9?$AAa?$AAm@ 1002fd98     libucrt:lcidtoname_downlevel.obj
 0002:00005da4       ??_C@_1M@BABBICEC@?$AAi?$AAd?$AA?9?$AAi?$AAd@ 1002fda4     libucrt:lcidtoname_downlevel.obj
 0002:00005db0       ??_C@_1M@BIKNHHPF@?$AAi?$AAs?$AA?9?$AAi?$AAs@ 1002fdb0     libucrt:lcidtoname_downlevel.obj
 0002:00005dbc       ??_C@_1M@NMPCJPHE@?$AAi?$AAt?$AA?9?$AAc?$AAh@ 1002fdbc     libucrt:lcidtoname_downlevel.obj
 0002:00005dc8       ??_C@_1M@GHKGFEDF@?$AAi?$AAt?$AA?9?$AAi?$AAt@ 1002fdc8     libucrt:lcidtoname_downlevel.obj
 0002:00005dd4       ??_C@_1M@NIEJCJJA@?$AAj?$AAa?$AA?9?$AAj?$AAp@ 1002fdd4     libucrt:lcidtoname_downlevel.obj
 0002:00005de0       ??_C@_1M@JILFNBIM@?$AAk?$AAa?$AA?9?$AAg?$AAe@ 1002fde0     libucrt:lcidtoname_downlevel.obj
 0002:00005dec       ??_C@_1M@PACPMGPH@?$AAk?$AAk?$AA?9?$AAk?$AAz@ 1002fdec     libucrt:lcidtoname_downlevel.obj
 0002:00005df8       ??_C@_1M@IELFGMHA@?$AAk?$AAn?$AA?9?$AAi?$AAn@ 1002fdf8     libucrt:lcidtoname_downlevel.obj
 0002:00005e04       ??_C@_1O@IBBJHCH@?$AAk?$AAo?$AAk?$AA?9?$AAi?$AAn@ 1002fe04     libucrt:lcidtoname_downlevel.obj
 0002:00005e14       ??_C@_1M@DMHAEOGC@?$AAk?$AAo?$AA?9?$AAk?$AAr@ 1002fe14     libucrt:lcidtoname_downlevel.obj
 0002:00005e20       ??_C@_1M@HBAHBIGA@?$AAk?$AAy?$AA?9?$AAk?$AAg@ 1002fe20     libucrt:lcidtoname_downlevel.obj
 0002:00005e2c       ??_C@_1M@KPMILCJG@?$AAl?$AAt?$AA?9?$AAl?$AAt@ 1002fe2c     libucrt:lcidtoname_downlevel.obj
 0002:00005e38       ??_C@_1M@BDEKKCA@?$AAl?$AAv?$AA?9?$AAl?$AAv@ 1002fe38     libucrt:lcidtoname_downlevel.obj
 0002:00005e44       ??_C@_1M@ELCKCCJJ@?$AAm?$AAi?$AA?9?$AAn?$AAz@ 1002fe44     libucrt:lcidtoname_downlevel.obj
 0002:00005e50       ??_C@_1M@CBOOLAPA@?$AAm?$AAk?$AA?9?$AAm?$AAk@ 1002fe50     libucrt:lcidtoname_downlevel.obj
 0002:00005e5c       ??_C@_1M@GPHNBJKN@?$AAm?$AAl?$AA?9?$AAi?$AAn@ 1002fe5c     libucrt:lcidtoname_downlevel.obj
 0002:00005e68       ??_C@_1M@PABJILIG@?$AAm?$AAn?$AA?9?$AAm?$AAn@ 1002fe68     libucrt:lcidtoname_downlevel.obj
 0002:00005e74       ??_C@_1M@FGBKKIPG@?$AAm?$AAr?$AA?9?$AAi?$AAn@ 1002fe74     libucrt:lcidtoname_downlevel.obj
 0002:00005e80       ??_C@_1M@NDBPDDAL@?$AAm?$AAs?$AA?9?$AAb?$AAn@ 1002fe80     libucrt:lcidtoname_downlevel.obj
 0002:00005e8c       ??_C@_1M@OPIHOOPI@?$AAm?$AAs?$AA?9?$AAm?$AAy@ 1002fe8c     libucrt:lcidtoname_downlevel.obj
 0002:00005e98       ??_C@_1M@PPDBCNFM@?$AAm?$AAt?$AA?9?$AAm?$AAt@ 1002fe98     libucrt:lcidtoname_downlevel.obj
 0002:00005ea4       ??_C@_1M@KDJDKMDD@?$AAn?$AAb?$AA?9?$AAn?$AAo@ 1002fea4     libucrt:lcidtoname_downlevel.obj
 0002:00005eb0       ??_C@_1M@KFCFLMJP@?$AAn?$AAl?$AA?9?$AAb?$AAe@ 1002feb0     libucrt:lcidtoname_downlevel.obj
 0002:00005ebc       ??_C@_1M@KPOPDDGO@?$AAn?$AAl?$AA?9?$AAn?$AAl@ 1002febc     libucrt:lcidtoname_downlevel.obj
 0002:00005ec8       ??_C@_1M@LJKPEMLN@?$AAn?$AAn?$AA?9?$AAn?$AAo@ 1002fec8     libucrt:lcidtoname_downlevel.obj
 0002:00005ed4       ??_C@_1M@BDGHHBFL@?$AAn?$AAs?$AA?9?$AAz?$AAa@ 1002fed4     libucrt:lcidtoname_downlevel.obj
 0002:00005ee0       ??_C@_1M@IDEHOAP@?$AAp?$AAa?$AA?9?$AAi?$AAn@ 1002fee0     libucrt:lcidtoname_downlevel.obj
 0002:00005eec       ??_C@_1M@HDBKGOGH@?$AAp?$AAl?$AA?9?$AAp?$AAl@ 1002feec     libucrt:lcidtoname_downlevel.obj
 0002:00005ef8       ??_C@_1M@LJLLCMEH@?$AAp?$AAt?$AA?9?$AAb?$AAr@ 1002fef8     libucrt:lcidtoname_downlevel.obj
 0002:00005f04       ??_C@_1M@NCMONAAL@?$AAp?$AAt?$AA?9?$AAp?$AAt@ 1002ff04     libucrt:lcidtoname_downlevel.obj
 0002:00005f10       ??_C@_1O@EAKMAJDN@?$AAq?$AAu?$AAz?$AA?9?$AAb?$AAo@ 1002ff10     libucrt:lcidtoname_downlevel.obj
 0002:00005f20       ??_C@_1O@BHHPIGDN@?$AAq?$AAu?$AAz?$AA?9?$AAe?$AAc@ 1002ff20     libucrt:lcidtoname_downlevel.obj
 0002:00005f30       ??_C@_1O@GBAPEKMJ@?$AAq?$AAu?$AAz?$AA?9?$AAp?$AAe@ 1002ff30     libucrt:lcidtoname_downlevel.obj
 0002:00005f40       ??_C@_1M@CLGLEFBO@?$AAr?$AAo?$AA?9?$AAr?$AAo@ 1002ff40     libucrt:lcidtoname_downlevel.obj
 0002:00005f4c       ??_C@_1M@CEEDODME@?$AAr?$AAu?$AA?9?$AAr?$AAu@ 1002ff4c     libucrt:lcidtoname_downlevel.obj
 0002:00005f58       ??_C@_1M@HPKKKMPP@?$AAs?$AAa?$AA?9?$AAi?$AAn@ 1002ff58     libucrt:lcidtoname_downlevel.obj
 0002:00005f64       ??_C@_1M@BKMAIGOJ@?$AAs?$AAe?$AA?9?$AAf?$AAi@ 1002ff64     libucrt:lcidtoname_downlevel.obj
 0002:00005f70       ??_C@_1M@NDPIFLFI@?$AAs?$AAe?$AA?9?$AAn?$AAo@ 1002ff70     libucrt:lcidtoname_downlevel.obj
 0002:00005f7c       ??_C@_1M@DANKKHJ@?$AAs?$AAe?$AA?9?$AAs?$AAe@ 1002ff7c     libucrt:lcidtoname_downlevel.obj
 0002:00005f88       ??_C@_1M@PNBLONPJ@?$AAs?$AAk?$AA?9?$AAs?$AAk@ 1002ff88     libucrt:lcidtoname_downlevel.obj
 0002:00005f94       ??_C@_1M@LFMODOAL@?$AAs?$AAl?$AA?9?$AAs?$AAi@ 1002ff94     libucrt:lcidtoname_downlevel.obj
 0002:00005fa0       ??_C@_1O@DFKOMPG@?$AAs?$AAm?$AAa?$AA?9?$AAn?$AAo@ 1002ffa0     libucrt:lcidtoname_downlevel.obj
 0002:00005fb0       ??_C@_1O@NDKPBNNH@?$AAs?$AAm?$AAa?$AA?9?$AAs?$AAe@ 1002ffb0     libucrt:lcidtoname_downlevel.obj
 0002:00005fc0       ??_C@_1O@PLLKBHAB@?$AAs?$AAm?$AAj?$AA?9?$AAn?$AAo@ 1002ffc0     libucrt:lcidtoname_downlevel.obj
 0002:00005fd0       ??_C@_1O@CLEPOGCA@?$AAs?$AAm?$AAj?$AA?9?$AAs?$AAe@ 1002ffd0     libucrt:lcidtoname_downlevel.obj
 0002:00005fe0       ??_C@_1O@DLGJGKMK@?$AAs?$AAm?$AAn?$AA?9?$AAf?$AAi@ 1002ffe0     libucrt:lcidtoname_downlevel.obj
 0002:00005ff0       ??_C@_1O@OJDJGAJC@?$AAs?$AAm?$AAs?$AA?9?$AAf?$AAi@ 1002fff0     libucrt:lcidtoname_downlevel.obj
 0002:00006000       ??_C@_1M@BOFOGHPB@?$AAs?$AAq?$AA?9?$AAa?$AAl@ 10030000     libucrt:lcidtoname_downlevel.obj
 0002:0000600c       ??_C@_1BG@LJBBIPGB@?$AAs?$AAr?$AA?9?$AAb?$AAa?$AA?9?$AAc?$AAy?$AAr?$AAl@ 1003000c     libucrt:lcidtoname_downlevel.obj
 0002:00006024       ??_C@_1BG@JLBENFOE@?$AAs?$AAr?$AA?9?$AAb?$AAa?$AA?9?$AAl?$AAa?$AAt?$AAn@ 10030024     libucrt:lcidtoname_downlevel.obj
 0002:0000603c       ??_C@_1BG@KODPNHE@?$AAs?$AAr?$AA?9?$AAs?$AAp?$AA?9?$AAc?$AAy?$AAr?$AAl@ 1003003c     libucrt:lcidtoname_downlevel.obj
 0002:00006054       ??_C@_1BG@CIOGKHPB@?$AAs?$AAr?$AA?9?$AAs?$AAp?$AA?9?$AAl?$AAa?$AAt?$AAn@ 10030054     libucrt:lcidtoname_downlevel.obj
 0002:0000606c       ??_C@_1M@NGFJLMAC@?$AAs?$AAv?$AA?9?$AAf?$AAi@ 1003006c     libucrt:lcidtoname_downlevel.obj
 0002:00006078       ??_C@_1M@MPJEJAJC@?$AAs?$AAv?$AA?9?$AAs?$AAe@ 10030078     libucrt:lcidtoname_downlevel.obj
 0002:00006084       ??_C@_1M@MPNDHLFK@?$AAs?$AAw?$AA?9?$AAk?$AAe@ 10030084     libucrt:lcidtoname_downlevel.obj
 0002:00006090       ??_C@_1O@KOHBJJI@?$AAs?$AAy?$AAr?$AA?9?$AAs?$AAy@ 10030090     libucrt:lcidtoname_downlevel.obj
 0002:000060a0       ??_C@_1M@LDCEFHA@?$AAt?$AAa?$AA?9?$AAi?$AAn@ 100300a0     libucrt:lcidtoname_downlevel.obj
 0002:000060ac       ??_C@_1M@CNJOFAK@?$AAt?$AAe?$AA?9?$AAi?$AAn@ 100300ac     libucrt:lcidtoname_downlevel.obj
 0002:000060b8       ??_C@_1M@GNAECACD@?$AAt?$AAh?$AA?9?$AAt?$AAh@ 100300b8     libucrt:lcidtoname_downlevel.obj
 0002:000060c4       ??_C@_1M@CHBIHOJO@?$AAt?$AAn?$AA?9?$AAz?$AAa@ 100300c4     libucrt:lcidtoname_downlevel.obj
 0002:000060d0       ??_C@_1M@GCCMIGPJ@?$AAt?$AAr?$AA?9?$AAt?$AAr@ 100300d0     libucrt:lcidtoname_downlevel.obj
 0002:000060dc       ??_C@_1M@CELMCNBK@?$AAt?$AAt?$AA?9?$AAr?$AAu@ 100300dc     libucrt:lcidtoname_downlevel.obj
 0002:000060e8       ??_C@_1M@KLMCELGA@?$AAu?$AAk?$AA?9?$AAu?$AAa@ 100300e8     libucrt:lcidtoname_downlevel.obj
 0002:000060f4       ??_C@_1M@EPAJJAJF@?$AAu?$AAr?$AA?9?$AAp?$AAk@ 100300f4     libucrt:lcidtoname_downlevel.obj
 0002:00006100       ??_C@_1BG@GEGPMCDJ@?$AAu?$AAz?$AA?9?$AAu?$AAz?$AA?9?$AAc?$AAy?$AAr?$AAl@ 10030100     libucrt:lcidtoname_downlevel.obj
 0002:00006118       ??_C@_1BG@EGGKJILM@?$AAu?$AAz?$AA?9?$AAu?$AAz?$AA?9?$AAl?$AAa?$AAt?$AAn@ 10030118     libucrt:lcidtoname_downlevel.obj
 0002:00006130       ??_C@_1M@GFOCLFF@?$AAv?$AAi?$AA?9?$AAv?$AAn@ 10030130     libucrt:lcidtoname_downlevel.obj
 0002:0000613c       ??_C@_1M@CPAMEDFI@?$AAx?$AAh?$AA?9?$AAz?$AAa@ 1003013c     libucrt:lcidtoname_downlevel.obj
 0002:00006148       ??_C@_1O@EBKIFIGN@?$AAz?$AAh?$AA?9?$AAc?$AAh?$AAs@ 10030148     libucrt:lcidtoname_downlevel.obj
 0002:00006158       ??_C@_1O@NMHPGANE@?$AAz?$AAh?$AA?9?$AAc?$AAh?$AAt@ 10030158     libucrt:lcidtoname_downlevel.obj
 0002:00006168       ??_C@_1M@LPINJOMC@?$AAz?$AAh?$AA?9?$AAc?$AAn@ 10030168     libucrt:lcidtoname_downlevel.obj
 0002:00006174       ??_C@_1M@OCJEJODD@?$AAz?$AAh?$AA?9?$AAh?$AAk@ 10030174     libucrt:lcidtoname_downlevel.obj
 0002:00006180       ??_C@_1M@DNDLJINH@?$AAz?$AAh?$AA?9?$AAm?$AAo@ 10030180     libucrt:lcidtoname_downlevel.obj
 0002:0000618c       ??_C@_1M@MBFDNDND@?$AAz?$AAh?$AA?9?$AAs?$AAg@ 1003018c     libucrt:lcidtoname_downlevel.obj
 0002:00006198       ??_C@_1M@IMEPLEPE@?$AAz?$AAh?$AA?9?$AAt?$AAw@ 10030198     libucrt:lcidtoname_downlevel.obj
 0002:000061a4       ??_C@_1M@BBGHNHJP@?$AAz?$AAu?$AA?9?$AAz?$AAa@ 100301a4     libucrt:lcidtoname_downlevel.obj
 0002:00006310       __infinity                 10030310     libucrt:87tran.obj
 0002:0000631a       __minfinity                1003031a     libucrt:87tran.obj
 0002:00006324       __logemax                  10030324     libucrt:87tran.obj
 0002:0000634a       __OP_EXPjmptab             1003034a     libucrt:87tran.obj
 0002:00006370       __indefinite               10030370     libucrt:87disp.obj
 0002:0000637a       __piby2                    1003037a     libucrt:87disp.obj
 0002:00006384       __piby4                    10030384     libucrt:87disp.obj
 0002:000063b8       __DEFAULT_CW_in_mem        100303b8     libucrt:common.obj
 0002:000063ba       __pi_by_2_to_61            100303ba     libucrt:common.obj
 0002:000063f4       ??_C@_03MGHMBJCF@log@      100303f4     libucrt:libm_error.obj
 0002:000063f8       ??_C@_05HGHHAHAP@log10@    100303f8     libucrt:libm_error.obj
 0002:00006400       ??_C@_03KHJOGHMM@exp@      10030400     libucrt:libm_error.obj
 0002:00006404       ??_C@_03JGHBODFD@pow@      10030404     libucrt:libm_error.obj
 0002:00006408       ??_C@_04FIHNOPOL@asin@     10030408     libucrt:libm_error.obj
 0002:00006410       ??_C@_04PDIFKINK@acos@     10030410     libucrt:libm_error.obj
 0002:00006418       ??_C@_04EIAKFFMI@sqrt@     10030418     libucrt:libm_error.obj
 0002:00006420       ??_C@_1BA@BALFACEM@?$AAC?$AAO?$AAN?$AAO?$AAU?$AAT?$AA$@ 10030420     libucrt:initcon.obj
 0002:00006450       ___acrt_log10_table_t      10030450     libucrt:log10_tables.obj
 0002:00006860       ___acrt_log10_table_cb     10030860     libucrt:log10_tables.obj
 0002:00006d58       ??_C@_04COOMCNPB@sinh@     10030d58     libucrt:fpexcept.obj
 0002:00006d60       ??_C@_04HPJJNFIM@cosh@     10030d60     libucrt:fpexcept.obj
 0002:00006d68       ??_C@_04FJHINJAO@tanh@     10030d68     libucrt:fpexcept.obj
 0002:00006d70       ??_C@_04MLLJIGOK@atan@     10030d70     libucrt:fpexcept.obj
 0002:00006d78       ??_C@_05KNGEOGJB@atan2@    10030d78     libucrt:fpexcept.obj
 0002:00006d80       ??_C@_03BLEJJJBH@sin@      10030d80     libucrt:fpexcept.obj
 0002:00006d84       ??_C@_03LALBNOCG@cos@      10030d84     libucrt:fpexcept.obj
 0002:00006d88       ??_C@_03IIINPABG@tan@      10030d88     libucrt:fpexcept.obj
 0002:00006d8c       ??_C@_04GFPJNGEK@ceil@     10030d8c     libucrt:fpexcept.obj
 0002:00006d94       ??_C@_05PBJFFIGL@floor@    10030d94     libucrt:fpexcept.obj
 0002:00006d9c       ??_C@_04ODHECPBC@fabs@     10030d9c     libucrt:fpexcept.obj
 0002:00006da4       ??_C@_04EHEDPDJG@modf@     10030da4     libucrt:fpexcept.obj
 0002:00006dac       ??_C@_05CEJMAHNP@ldexp@    10030dac     libucrt:fpexcept.obj
 0002:00006db4       ??_C@_05KBKMEMPO@_cabs@    10030db4     libucrt:fpexcept.obj
 0002:00006dbc       ??_C@_06MEIMCGCF@_hypot@   10030dbc     libucrt:fpexcept.obj
 0002:00006dc4       ??_C@_04KEPJIHGP@fmod@     10030dc4     libucrt:fpexcept.obj
 0002:00006dcc       ??_C@_05GKKHEGJL@frexp@    10030dcc     libucrt:fpexcept.obj
 0002:00006dd4       ??_C@_03MJLDFKDL@_y0@      10030dd4     libucrt:fpexcept.obj
 0002:00006dd8       ??_C@_03NAKIGLHK@_y1@      10030dd8     libucrt:fpexcept.obj
 0002:00006ddc       ??_C@_03ONILCKOB@_yn@      10030ddc     libucrt:fpexcept.obj
 0002:00006de0       ??_C@_05JGDBENOH@_logb@    10030de0     libucrt:fpexcept.obj
 0002:00006de8       ??_C@_0L@KDOEJCKC@_nextafter@ 10030de8     libucrt:fpexcept.obj
 0002:00006df8       __d_inf                    10030df8     libucrt:util.obj
 0002:00006e00       __d_max                    10030e00     libucrt:util.obj
 0002:00006e08       __d_mzero                  10030e08     libucrt:util.obj
 0002:00006e1c       __Asan_string_should_annotate 10030e1c     libcpmt:asan_noop.obj
 0002:00006e1c       __Asan_string_should_annotate_default 10030e1c     libcpmt:asan_noop.obj
 0002:00006e1d       __Asan_vector_should_annotate_default 10030e1d     libcpmt:asan_noop.obj
 0002:00006e20       ??_C@_0N@IAJIDHKP@DlgBluBo?4def@ 10030e20     DrawPcx16ResizedBicubic.obj
 0002:00006e30       ??_C@_0N@BJEFDLGA@DlgBluBk?4PCX@ 10030e30     DrawPcx16ResizedBicubic.obj
 0002:00006e40       ??_C@_0N@BJNHCFMF@HD_TStat?4pcx@ 10030e40     DrawPcx16ResizedBicubic.obj
 0002:00006e60       ?PLUGIN_VERSION@dllText@@3PBDB 10030e60     dllmain.obj
 0002:00006e64       ?INSTANCE_NAME@dllText@@3PBDB 10030e64     dllmain.obj
 0002:00006ee4       ??_C@_0BC@EOODALEL@Unknown?5exception@ 10030ee4     era.obj
 0002:00006ef8       ??_C@_0BF@KINCDENJ@bad?5array?5new?5length@ 10030ef8     era.obj
 0002:00006f10       ??_C@_0BA@JFNIOLAK@string?5too?5long@ 10030f10     era.obj
 0002:00006f20       ??_C@_07PILJHEGK@era?4dll@ 10030f20     era.obj
 0002:00006f28       ??_C@_0N@ILCPAELP@AllocErmFunc@ 10030f28     era.obj
 0002:00006f38       ??_C@_0BC@HPECFMPN@CalcHookPatchSize@ 10030f38     era.obj
 0002:00006f4c       ??_C@_0BB@NFICFMFA@ClearAllIniCache@ 10030f4c     era.obj
 0002:00006f60       ??_C@_0O@KHPPEFLJ@ClearIniCache@ 10030f60     era.obj
 0002:00006f70       ??_C@_0M@MCBFFFFK@DecorateInt@ 10030f70     era.obj
 0002:00006f7c       ??_C@_0L@GHCNBJIK@ExecErmCmd@ 10030f7c     era.obj
 0002:00006f88       ??_C@_0BE@JPCODAJD@ExecPersistedErmCmd@ 10030f88     era.obj
 0002:00006f9c       ??_C@_0L@BBNMEHJH@ExtractErm@ 10030f9c     era.obj
 0002:00006fa8       ??_C@_0BD@HGLMDBJA@FastQuitToGameMenu@ 10030fa8     era.obj
 0002:00006fbc       ??_C@_0L@CKILDBJC@FatalError@ 10030fbc     era.obj
 0002:00006fc8       ??_C@_0P@MELBKLIK@FindNextObject@ 10030fc8     era.obj
 0002:00006fd8       ??_C@_0N@HFGMKLEN@FireErmEvent@ 10030fd8     era.obj
 0002:00006fe8       ??_C@_09GEAPPBGH@FireEvent@ 10030fe8     era.obj
 0002:00006ff4       ??_C@_0P@GBBGLPHE@FormatQuantity@ 10030ff4     era.obj
 0002:00007004       ??_C@_0BB@CAMNCLPO@FreeAppliedPatch@ 10031004     era.obj
 0002:00007018       ??_C@_0BC@GKDCPLNJ@GenerateDebugInfo@ 10031018     era.obj
 0002:0000702c       ??_C@_0M@PAAODNCJ@GetArgXVars@ 1003102c     era.obj
 0002:00007038       ??_C@_0BE@LLFNHKFA@GetAssocVarIntValue@ 10031038     era.obj
 0002:0000704c       ??_C@_0BE@MBIKKGG@GetAssocVarStrValue@ 1003104c     era.obj
 0002:00007060       ??_C@_0M@KJHFCLAP@GetButtonID@ 10031060     era.obj
 0002:0000706c       ??_C@_0BE@OEHKLKHD@GetCampaignFileName@ 1003106c     era.obj
 0002:00007080       ??_C@_0BC@BDDDAFDE@GetCampaignMapInd@ 10031080     era.obj
 0002:00007094       ??_C@_0BH@JHIEBJBG@GetEraRegistryIntValue@ 10031094     era.obj
 0002:000070ac       ??_C@_0BH@CAMBMJCA@GetEraRegistryStrValue@ 100310ac     era.obj
 0002:000070c4       ??_C@_0N@CFMBLIKP@GetGameState@ 100310c4     era.obj
 0002:000070d4       ??_C@_0P@IIOFMNON@GetMapFileName@ 100310d4     era.obj
 0002:000070e4       ??_C@_0P@OMEKLNHG@GetProcessGuid@ 100310e4     era.obj
 0002:000070f4       ??_C@_0M@LKIFOAN@GetRealAddr@ 100310f4     era.obj
 0002:00007100       ??_C@_0M@EFALPNPM@GetRetXVars@ 10031100     era.obj
 0002:0000710c       ??_C@_0BH@MJACGIOO@GetTriggerReadableName@ 1003110c     era.obj
 0002:00007124       ??_C@_0O@FNMDEAHG@GetVersionNum@ 10031124     era.obj
 0002:00007134       ??_C@_0BD@DPCJBLFO@GlobalRedirectFile@ 10031134     era.obj
 0002:00007148       ??_C@_06FNGCINCL@Hash32@   10031148     era.obj
 0002:00007150       ??_C@_08EBPIACBO@HookCode@ 10031150     era.obj
 0002:0000715c       ??_C@_0L@GKIEJFBJ@IsCampaign@ 1003115c     era.obj
 0002:00007168       ??_C@_0O@HBOCCCBJ@IsCommanderId@ 10031168     era.obj
 0002:00007178       ??_C@_0BB@PHLEIINC@LoadImageAsPcx16@ 10031178     era.obj
 0002:0000718c       ??_C@_07FLCNLLL@MemFree@   1003118c     era.obj
 0002:00007194       ??_C@_09PIKCKENJ@NameColor@ 10031194     era.obj
 0002:000071a0       ??_C@_0M@KFFJELFJ@NameTrigger@ 100311a0     era.obj
 0002:000071ac       ??_C@_0M@LNHBMGFH@NotifyError@ 100311ac     era.obj
 0002:000071b8       ??_C@_0M@PLEJCMGM@PatchExists@ 100311b8     era.obj
 0002:000071c4       ??_C@_0N@FOLHNDBL@PcxPngExists@ 100311c4     era.obj
 0002:000071d4       ??_C@_0O@IAKAAEFK@PersistErmCmd@ 100311d4     era.obj
 0002:000071e4       ??_C@_0N@BGLGOOMO@PluginExists@ 100311e4     era.obj
 0002:000071f4       ??_C@_0BE@CIDOCKGN@ReadSavegameSection@ 100311f4     era.obj
 0002:00007208       ??_C@_0P@CCLIEMKP@ReadStrFromIni@ 10031208     era.obj
 0002:00007218       ??_C@_0N@EADKAOLK@RedirectFile@ 10031218     era.obj
 0002:00007228       ??_C@_0BE@OJOEEMJD@RedirectMemoryBlock@ 10031228     era.obj
 0002:0000723c       ??_C@_0BA@BCNGHKCC@RegisterHandler@ 1003123c     era.obj
 0002:0000724c       ??_C@_09MJCMIAEG@ReloadErm@ 1003124c     era.obj
 0002:00007258       ??_C@_0BD@CHCJJBJH@ReloadLanguageData@ 10031258     era.obj
 0002:0000726c       ??_C@_0BE@JBKGKCON@ReportPluginVersion@ 1003126c     era.obj
 0002:00007280       ??_C@_0BF@KLCOOELO@RollbackAppliedPatch@ 10031280     era.obj
 0002:00007298       ??_C@_07PAHGKEHA@SaveIni@  10031298     era.obj
 0002:000072a0       ??_C@_0BE@BFHGDKCM@SetAssocVarIntValue@ 100312a0     era.obj
 0002:000072b4       ??_C@_0BE@KCDDOKBK@SetAssocVarStrValue@ 100312b4     era.obj
 0002:000072c8       ??_C@_0BH@JGKKDOMJ@SetEraRegistryIntValue@ 100312c8     era.obj
 0002:000072e0       ??_C@_0BH@CBOPOOPP@SetEraRegistryStrValue@ 100312e0     era.obj
 0002:000072f8       ??_C@_0BF@KNHFCCLI@SetIsCommanderIdFunc@ 100312f8     era.obj
 0002:00007310       ??_C@_0BL@CFMKIIJH@SetIsElixirOfLifeStackFunc@ 10031310     era.obj
 0002:0000732c       ??_C@_0M@BMMLELAG@SetLanguage@ 1003132c     era.obj
 0002:00007338       ??_C@_0BH@GOLMFEJO@SetRegenerationAbility@ 10031338     era.obj
 0002:00007350       ??_C@_0BJ@PGHLMJLL@SetStdRegenerationEffect@ 10031350     era.obj
 0002:0000736c       ??_C@_0N@GOAOCOKF@ShowErmError@ 1003136c     era.obj
 0002:0000737c       ??_C@_0M@BPKMLENP@ShowMessage@ 1003137c     era.obj
 0002:00007388       ??_C@_06DDHLBGDE@Splice@   10031388     era.obj
 0002:00007390       ??_C@_0L@KMILMGPD@SplitMix32@ 10031390     era.obj
 0002:0000739c       ??_C@_0M@OFFBOJCJ@ToStaticStr@ 1003139c     era.obj
 0002:000073a8       ??_C@_08JBJLPCGF@trStatic@ 100313a8     era.obj
 0002:000073b4       ??_C@_06JCAFDHMM@trTemp@   100313b4     era.obj
 0002:000073bc       ??_C@_0M@CLLMHKFF@WriteAtCode@ 100313bc     era.obj
 0002:000073c8       ??_C@_0BF@HMHBLPO@WriteSavegameSection@ 100313c8     era.obj
 0002:000073e0       ??_C@_0O@POMBDOKD@WriteStrToIni@ 100313e0     era.obj
 0002:000073f0       ??_C@_0L@LNAOMCPJ@GetVersion@ 100313f0     era.obj
 0002:000073fc       ??_C@_02EOEPPNBF@tr@       100313fc     era.obj
 0002:00007400       ??_C@_02DPKJAMEF@?$CFd@    10031400     era.obj
 0002:00007404       ??_C@_0BA@FDLNIKIG@patcher_x86?4dll@ 10031404     dllmain.obj
 0002:00007414       ??_C@_0BB@CKHJKIEB@_GetPatcherX86?$EA0@ 10031414     dllmain.obj
 0002:00007428       ??_C@_04HEHKDPL@1?401@     10031428     dllmain.obj
 0002:00007430       ??_C@_0CD@DOKMFMCP@EraPlugin?4ObjectsExtender?4daemo@ 10031430     dllmain.obj
 0002:00007454       ??_C@_0M@ONMJKKIN@Jan?5?52?52025@ 10031454     dllmain.obj
 0002:00007460       ??_C@_0BO@GGFEMENP@RMG_CustomizeObjectProperties@ 10031460     dllmain.obj
 0002:00007480       ??_C@_0O@JANCNCJA@?$HL?$CFs?$HN?5v?$CFs?5?$CI?$CFs?$CJ@ 10031480     dllmain.obj
 0002:00007490       ??_C@_0BA@DNDFOHJM@OnReportVersion@ 10031490     dllmain.obj
 0002:000074a0       ??_C@_0CJ@IMEFFEIP@EraPlugin?4CreatureBanksExtender@ 100314a0     CreatureBanksExtender.obj
 0002:000074cc       ??_C@_0CA@MEKELAEM@RMG?4objectGeneration?416?4?$CFd?4name@ 100314cc     CreatureBanksExtender.obj
 0002:000074ec       ??_C@_0BK@EGLDKPPK@OnAfterReloadLanguageData@ 100314ec     CreatureBanksExtender.obj
 0002:00007508       ??_C@_0M@IDEFNKHF@OnGameLeave@ 10031508     CreatureBanksExtender.obj
 0002:00007514       ??_C@_0N@CMKJBHAK@LoopCave?4wav@ 10031514     CreatureBanksExtender.obj
 0002:00007524       ??_C@_0CG@BMEHLDMP@RMG?4objectGeneration?416?4?$CFd?4soun@ 10031524     CreatureBanksExtender.obj
 0002:0000754c       ??_C@_0DI@LMBNEBAO@RMG?4objectGeneration?416?4?$CFd?4stat@ 1003154c     CreatureBanksExtender.obj
 0002:00007584       ??_C@_0DJ@GGKPMDGG@RMG?4objectGeneration?416?4?$CFd?4stat@ 10031584     CreatureBanksExtender.obj
 0002:000075c0       ??_C@_0CM@KLAPMINN@RMG?4objectGeneration?416?4?$CFd?4stat@ 100315c0     CreatureBanksExtender.obj
 0002:000075ec       ??_C@_0CN@NGCEOPGE@RMG?4objectGeneration?416?4?$CFd?4stat@ 100315ec     CreatureBanksExtender.obj
 0002:0000761c       ??_C@_0DL@FDGGLCJE@RMG?4objectGeneration?416?4?$CFd?4stat@ 1003161c     CreatureBanksExtender.obj
 0002:00007658       ??_C@_0DH@OFGCOACD@RMG?4objectGeneration?416?4?$CFd?4stat@ 10031658     CreatureBanksExtender.obj
 0002:00007690       ??_C@_0DI@DNGDMCNN@RMG?4objectGeneration?416?4?$CFd?4stat@ 10031690     CreatureBanksExtender.obj
 0002:000076c8       ??_C@_0DC@JOKGMFFL@RMG?4objectGeneration?416?4?$CFd?4stat@ 100316c8     CreatureBanksExtender.obj
 0002:000076fc       ??_C@_0CF@LHKPNHIP@RMG?4objectGeneration?416?4?$CFd?4isNo@ 100316fc     CreatureBanksExtender.obj
 0002:00007724       ??_C@_0BA@FOIKENOD@vector?5too?5long@ 10031724     CreatureBanksExtender.obj
 0002:00007738       ??_7CreatureBanksExtender@cbanks@@6B@ 10031738     CreatureBanksExtender.obj
 0002:00007744       ??_C@_02DKCKIIND@?$CFs@    10031744     GazeboExtender.obj
 0002:00007748       ??_C@_0N@CCNGHCGA@gazebo_?$CFd_?$CFd@ 10031748     GazeboExtender.obj
 0002:00007758       ??_C@_0CC@EFGNJAPE@EraPlugin?4GazeboExtender?4daemon@ 10031758     GazeboExtender.obj
 0002:0000777c       ??_C@_0BJ@KMGFKKNA@HD?4UI?4AdvMgr?4SkipMapMsgs@ 1003177c     GazeboExtender.obj
 0002:00007798       ??_C@_04OMBFFHIC@?$HL?$CFs?$HN@ 10031798     GazeboExtender.obj
 0002:000077a0       ??_C@_0CI@LNHKLPMO@RMG?4objectGeneration?4?$CFd?4?$CFd?4text@ 100317a0     GazeboExtender.obj
 0002:000077c8       ??_C@_0CM@OIOOCINP@RMG?4objectGeneration?4?$CFd?4?$CFd?4text@ 100317c8     GazeboExtender.obj
 0002:000077f4       ??_C@_0CG@KHKCNBMI@RMG?4objectGeneration?4?$CFd?4?$CFd?4text@ 100317f4     GazeboExtender.obj
 0002:0000781c       ??_C@_04HDOCAJNK@?$CFs?$CFs@ 1003181c     GazeboExtender.obj
 0002:00007824       ??_C@_02PHMGELLB@?6?6@     10031824     GazeboExtender.obj
 0002:00007828       ??_C@_01CLKCMJKC@?5@       10031828     GazeboExtender.obj
 0002:00007830       ??_7GazeboExtender@gazebo@@6B@ 10031830     GazeboExtender.obj
 0002:0000783c       ??_C@_0CD@HDGCDMOG@EraPlugin?4ShrinesExtender?4daemo@ 1003183c     ShrinesExternder.obj
 0002:00007860       ??_C@_0CA@KBCALOHK@RMG?4objectGeneration?488?4?$CFd?4name@ 10031860     ShrinesExternder.obj
 0002:00007880       ??_C@_0CA@LKELPOHM@RMG?4objectGeneration?488?4?$CFd?4hint@ 10031880     ShrinesExternder.obj
 0002:000078a4       ??_7ShrinesExternder@shrines@@6B@ 100318a4     ShrinesExternder.obj
 0002:000078b0       ??_C@_0CG@JLPFIJMD@EraPlugin?4WarehousesExtender?4da@ 100318b0     WarehousesExtender.obj
 0002:000078d8       ??_C@_0CF@FPLPOOGM@RMG?4objectGeneration?4?$CFd?4text?4vi@ 100318d8     WarehousesExtender.obj
 0002:00007900       ??_C@_0CD@ILIKKJEH@RMG?4objectGeneration?4?$CFd?4text?4vi@ 10031900     WarehousesExtender.obj
 0002:00007928       ??_7WarehousesExtender@warehouses@@6B@ 10031928     WarehousesExtender.obj
 0002:00007934       ??_C@_0BB@JEJHMAMA@wateringPlace_?$CFd@ 10031934     WateringPlaceExtender.obj
 0002:00007948       ??_C@_0CJ@PAKDKBIE@EraPlugin?4WateringPlaceExtender@ 10031948     WateringPlaceExtender.obj
 0002:00007974       ??_C@_0L@CIOEKIFC@OnEveryDay@ 10031974     WateringPlaceExtender.obj
 0002:00007984       ??_7WateringPlaceExtender@wateringPlace@@6B@ 10031984     WateringPlaceExtender.obj
 0002:00007990       ??_C@_0CA@GHGKFBHA@RMG?4objectGeneration?4?$CFd?4?$CFd?4name@ 10031990     ObjectsExtender.obj
 0002:000079b0       ??_C@_0BB@GCADKGJO@map?1set?5too?5long@ 100319b0     ObjectsExtender.obj
 0002:000079c4       ??_C@_0CJ@ICHIANEC@RMG?4objectGeneration?4?$CFd?4?$CFd?4prop@ 100319c4     ObjectsExtender.obj
 0002:000079f0       ??_C@_0BO@JCBLFBPE@RMG?4objectGeneration?4?$CFd?4value@ 100319f0     ObjectsExtender.obj
 0002:00007a10       ??_C@_0CA@IDDGCMKF@RMG?4objectGeneration?4?$CFd?4density@ 10031a10     ObjectsExtender.obj
 0002:00007a30       ??_C@_0CB@DPHMAGM@RMG?4objectGeneration?4?$CFd?4?$CFd?4valu@ 10031a30     ObjectsExtender.obj
 0002:00007a54       ??_C@_0CD@LNKGBOIJ@RMG?4objectGeneration?4?$CFd?4?$CFd?4dens@ 10031a54     ObjectsExtender.obj
 0002:00007a78       ??_C@_0CH@CKHEKNML@RMG?4objectGeneration?4?$CFd?4?$CFd?4soun@ 10031a78     ObjectsExtender.obj
 0002:00007aa4       ??_7ObjectsExtender@extender@@6B@ 10031aa4     ObjectsExtender.obj
 0002:00007ab0       ??_C@_07MHHIKOPA@enabled@  10031ab0     RMGObjectsEditor.obj
 0002:00007ab8       ??_C@_03HBNNNHNM@map@      10031ab8     RMGObjectsEditor.obj
 0002:00007abc       ??_C@_04LDDJGOBB@zone@     10031abc     RMGObjectsEditor.obj
 0002:00007ac4       ??_C@_05MFEJDJP@value@     10031ac4     RMGObjectsEditor.obj
 0002:00007acc       ??_C@_07HAFFKDBK@density@  10031acc     RMGObjectsEditor.obj
 0002:00007ad4       ??_C@_0CL@BKBOHCBN@Runtime?1RMG_CustomizeObjectsPro@ 10031ad4     RMGObjectsEditor.obj
 0002:00007b00       ??_C@_0BL@MLLECAFL@RMG?4objectGeneration?4?$CFd?4?$CFs@ 10031b00     RMGObjectsEditor.obj
 0002:00007b1c       ??_C@_0BO@JBNIKPAM@RMG?4objectGeneration?4?$CFd?4?$CFd?4?$CFs@ 10031b1c     RMGObjectsEditor.obj
 0002:00007b3c       ??_C@_0CE@JNCCGFFC@EraPlugin?4RMG?4ObjectEditor?4daem@ 10031b3c     RMGObjectsEditor.obj
 0002:00007b60       ??_C@_08MHAGGLPG@?$CFd_?$CFd_?$CFd@ 10031b60     RMGObjectsEditor.obj
 0002:00007b6c       ??_C@_0N@OPCJEEAC@alwaysRandom@ 10031b6c     RMGObjectsEditor.obj
 0002:00007b7c       ??_C@_0M@IDKLKEPG@DlgSettings@ 10031b7c     RMGObjectsEditor.obj
 0002:00007b90       ?propertyNames@RMGObjectInfo@@2QBQBDB 10031b90     RMGObjectsEditor.obj
 0002:00007ba8       ??_7RMGObjectsEditor@editor@@6B@ 10031ba8     RMGObjectsEditor.obj
 0002:00007bb0       ??_C@_0N@IOPNELGI@RMG_back?4pcx@ 10031bb0     RMG_SettingsDlg.obj
 0002:00007bc0       ??_C@_0N@FCBEPOJK@RMG_cncl?4def@ 10031bc0     RMG_SettingsDlg.obj
 0002:00007bd0       ??_C@_06JDKABGKH@cancel@   10031bd0     RMG_SettingsDlg.obj
 0002:00007bd8       ??_C@_0N@DIEEIBOL@RMG_okay?4def@ 10031bd8     RMG_SettingsDlg.obj
 0002:00007be8       ??_C@_02MFDMBIJM@ok@       10031be8     RMG_SettingsDlg.obj
 0002:00007bec       ??_C@_0N@PMFNHIPJ@RMG_dflt?4def@ 10031bec     RMG_SettingsDlg.obj
 0002:00007bfc       ??_C@_07DLHCIBDH@default@  10031bfc     RMG_SettingsDlg.obj
 0002:00007c04       ??_C@_0M@LFBJAHMC@RanRand?4def@ 10031c04     RMG_SettingsDlg.obj
 0002:00007c10       ??_C@_06NLFCANPD@random@   10031c10     RMG_SettingsDlg.obj
 0002:00007c18       ??_C@_0N@PHHMOBI@RMG_help?4def@ 10031c18     RMG_SettingsDlg.obj
 0002:00007c28       ??_C@_04PCJFHION@help@     10031c28     RMG_SettingsDlg.obj
 0002:00007c30       ??_C@_0BM@PLGPGLFG@RMG?4text?4dlg?4buttons?4?$CFs?4rmc@ 10031c30     RMG_SettingsDlg.obj
 0002:00007c4c       ??_C@_0BN@GEEKKMHP@RMG?4text?4dlg?4buttons?4?$CFs?4hint@ 10031c4c     RMG_SettingsDlg.obj
 0002:00007c6c       ??_C@_0BL@PGFBCEPO@RMG?4text?4dlg?4pages?4?$CFd?4name@ 10031c6c     RMG_SettingsDlg.obj
 0002:00007c88       ??_C@_0N@EPKFOFH@RMGmenbt?4def@ 10031c88     RMG_SettingsDlg.obj
 0002:00007c98       ??_C@_0BK@FIIMAMMP@RMG?4text?4dlg?4pages?4?$CFd?4rmc@ 10031c98     RMG_SettingsDlg.obj
 0002:00007cb4       ??_C@_0BL@ONDKGEPI@RMG?4text?4dlg?4pages?4?$CFd?4hint@ 10031cb4     RMG_SettingsDlg.obj
 0002:00007cd0       ??_C@_0N@HJMAFJEP@rmghntbr?4pcx@ 10031cd0     RMG_SettingsDlg.obj
 0002:00007ce0       ??_C@_0BP@OHJKPKFO@RMG?4text?4dlg?4buttons?4help?4help@ 10031ce0     RMG_SettingsDlg.obj
 0002:00007d00       ??_C@_0BL@MAAEMKCK@RMG?4text?4dlg?4pages?4?$CFd?4help@ 10031d00     RMG_SettingsDlg.obj
 0002:00007d1c       ??_C@_0BM@HILNFCFM@RMG?4text?4dlg?4notImplemented@ 10031d1c     RMG_SettingsDlg.obj
 0002:00007d38       ??_C@_0BG@OALOHHGG@RMG?4text?4dlg?4iniError@ 10031d38     RMG_SettingsDlg.obj
 0002:00007d50       ??_C@_0L@KIOKMEBA@lastPageId@ 10031d50     RMG_SettingsDlg.obj
 0002:00007d5c       ??_C@_0N@KKELLMCE@RMG_chbx?4def@ 10031d5c     RMG_SettingsDlg.obj
 0002:00007d6c       ??_C@_0CH@FDIOKPGC@RMG?4text?4dlg?4objectPanel?4checkb@ 10031d6c     RMG_SettingsDlg.obj
 0002:00007d94       ??_C@_0N@PEIMMHMF@RMG_edit?4pcx@ 10031d94     RMG_SettingsDlg.obj
 0002:00007da4       ??_C@_0BC@EIKHJJKL@?$HL?$HO?$DO?$CFs?30?3?$CFd?5block?$HN@ 10031da4     RMG_SettingsDlg.obj
 0002:00007db8       ??_C@_08GAJBFAKI@?5?$CI?$CFd?1?$CFd?$CJ@ 10031db8     RMG_SettingsDlg.obj
 0002:00007dc4       ??_C@_0BM@EAMBDDNG@RMG?4text?4dlg?4header?4?$CFd?4name@ 10031dc4     RMG_SettingsDlg.obj
 0002:00007de0       ??_C@_07JMKCEEPK@?$CFs?5?$CI?$CFd?$CJ@ 10031de0     RMG_SettingsDlg.obj
 0002:00007de8       ??_C@_0BL@KOLGBJPA@RMG?4text?4dlg?4header?4?$CFd?4rmc@ 10031de8     RMG_SettingsDlg.obj
 0002:00007e04       ??_C@_0BM@FLKKHDNA@RMG?4text?4dlg?4header?4?$CFd?4hint@ 10031e04     RMG_SettingsDlg.obj
 0002:00007e20       ??_C@_0BN@GOJDLJNJ@RMG?4text?4buttons?4random?4help@ 10031e20     RMG_SettingsDlg.obj
 0002:00007e40       ??_C@_0P@PFNDCDKB@RMG?4text?4title@ 10031e40     RMG_SettingsDlg.obj
 0002:00007e50       ??_C@_0BM@LFAKAJM@RMG?4text?4buttons?4setup?4name@ 10031e50     RMG_SettingsDlg.obj
 0002:00007e6c       ??_C@_0BL@DLPBBENF@RMG?4text?4buttons?4setup?4rmc@ 10031e6c     RMG_SettingsDlg.obj
 0002:00007e88       ??_C@_0BM@BOJFLFCH@RMG?4text?4buttons?4random?4rmc@ 10031e88     RMG_SettingsDlg.obj
 0002:00007ea4       ??_C@_0L@HPIELNIB@HD_WOG?4dll@ 10031ea4     RMG_SettingsDlg.obj
 0002:00007eb4       ??_7Page@RMG_SettingsDlg@rmgdlg@@6B@ 10031eb4     RMG_SettingsDlg.obj
 0002:00007ed4       ??_7MiscPage@RMG_SettingsDlg@rmgdlg@@6B@ 10031ed4     RMG_SettingsDlg.obj
 0002:00007ef8       ??_7H3Dlg@h3@@6B@          10031ef8     RMG_SettingsDlg.obj
 0002:00007f7c       ??_7ObjectsPage@RMG_SettingsDlg@rmgdlg@@6B@ 10031f7c     RMG_SettingsDlg.obj
 0002:00007fa0       ??_7RMG_SettingsDlg@rmgdlg@@6B@ 10031fa0     RMG_SettingsDlg.obj
 0002:00008028       ??_7ObjectsPanel@RMG_SettingsDlg@rmgdlg@@6B@ 10032028     RMG_SettingsDlg.obj
 0002:00008030       ??_7BanksPage@RMG_SettingsDlg@rmgdlg@@6B@ 10032030     RMG_SettingsDlg.obj
 0002:00008050       __real@3fc5555555555555    10032050     DrawPcx16ResizedBicubic.obj
 0002:00008058       __real@3fe0000000000000    10032058     DrawPcx16ResizedBicubic.obj
 0002:00008060       __real@3ff0000000000000    10032060     DrawPcx16ResizedBicubic.obj
 0002:00008068       __real@4000000000000000    10032068     DrawPcx16ResizedBicubic.obj
 0002:00008070       __real@4010000000000000    10032070     DrawPcx16ResizedBicubic.obj
 0002:00008078       __real@4018000000000000    10032078     DrawPcx16ResizedBicubic.obj
 0002:00008080       __real@4046000000000000    10032080     RMG_SettingsDlg.obj
 0002:00008088       __real@408f400000000000    10032088     GazeboExtender.obj
 0002:00008090       __real@44fa0000            10032090     GazeboExtender.obj
 0002:000080a0       __xmm@00000000000000000000000000000023 100320a0     RMG_SettingsDlg.obj
 0002:000080b0       __xmm@00000000000000010000000000000013 100320b0     RMG_SettingsDlg.obj
 0002:000080c0       __xmm@00000000000000010000000000000020 100320c0     RMG_SettingsDlg.obj
 0002:000080d0       __xmm@00000000000000010000001f00000001 100320d0     RMG_SettingsDlg.obj
 0002:000080e0       __xmm@0000000000000001000000390000001c 100320e0     RMG_SettingsDlg.obj
 0002:000080f0       __xmm@00000005000000050000001400000010 100320f0     RMG_SettingsDlg.obj
 0002:00008100       __xmm@0000000e0000000d0000000700000004 10032100     RMG_SettingsDlg.obj
 0002:00008110       __xmm@0000001f0000001e0000003d00000033 10032110     RMG_SettingsDlg.obj
 0002:00008120       __xmm@000000200000001c0000001700000016 10032120     RMG_SettingsDlg.obj
 0002:00008130       __xmm@000000310000002f0000002900000026 10032130     RMG_SettingsDlg.obj
 0002:00008140       __xmm@00000037000000300000002700000023 10032140     RMG_SettingsDlg.obj
 0002:00008150       __xmm@0000003c0000003a0000003900000038 10032150     RMG_SettingsDlg.obj
 0002:00008160       __xmm@0000004100000041000000ee00000041 10032160     RMG_SettingsDlg.obj
 0002:00008170       __xmm@00000054000000190000001800000010 10032170     RMG_SettingsDlg.obj
 0002:00008180       __xmm@00000058000000510000004e00000040 10032180     RMG_SettingsDlg.obj
 0002:00008190       __xmm@0000005e0000005c0000005a00000059 10032190     RMG_SettingsDlg.obj
 0002:000081a0       __xmm@0000006300000061000000600000005f 100321a0     RMG_SettingsDlg.obj
 0002:000081b0       __xmm@00000069000000680000006600000064 100321b0     RMG_SettingsDlg.obj
 0002:000081c0       __xmm@0000006d0000006c0000006b0000006a 100321c0     RMG_SettingsDlg.obj
 0002:000081d0       __xmm@0000008e00000071000000700000006e 100321d0     RMG_SettingsDlg.obj
 0002:000081e0       __xmm@000001c20000015e0000005800000014 100321e0     RMG_SettingsDlg.obj
 0002:00008224       ??_7bad_cast@std@@6B@      10032224     libvcruntime:rtti.obj
 0002:00008230       ??_7bad_typeid@std@@6B@    10032230     libvcruntime:rtti.obj
 0002:0000823c       ??_7__non_rtti_object@std@@6B@ 1003223c     libvcruntime:rtti.obj
 0002:00008244       ??_C@_0CB@CGKGGDFI@Access?5violation?5?9?5no?5RTTI?5data@ 10032244     libvcruntime:rtti.obj
 0002:00008268       ??_C@_0BC@JNJNLHBP@Bad?5dynamic_cast?$CB@ 10032268     libvcruntime:rtti.obj
 0002:00008280       __load_config_used         10032280     LIBCMT:loadcfg.obj
 0002:000083c0       __tls_used                 100323c0     LIBCMT:tlssup.obj
 0002:000083d8       ??_R4logic_error@std@@6B@  100323d8     libcpmt:xthrow.obj
 0002:000083ec       ??_R3logic_error@std@@8    100323ec     libcpmt:xthrow.obj
 0002:000083fc       ??_R2logic_error@std@@8    100323fc     libcpmt:xthrow.obj
 0002:00008408       ??_R1A@?0A@EA@logic_error@std@@8 10032408     libcpmt:xthrow.obj
 0002:00008424       ??_R4length_error@std@@6B@ 10032424     libcpmt:xthrow.obj
 0002:00008438       ??_R3length_error@std@@8   10032438     libcpmt:xthrow.obj
 0002:00008448       ??_R2length_error@std@@8   10032448     libcpmt:xthrow.obj
 0002:00008458       ??_R1A@?0A@EA@length_error@std@@8 10032458     libcpmt:xthrow.obj
 0002:00008474       ??_R4runtime_error@std@@6B@ 10032474     libcpmt:xthrow.obj
 0002:00008488       ??_R3runtime_error@std@@8  10032488     libcpmt:xthrow.obj
 0002:00008498       ??_R2runtime_error@std@@8  10032498     libcpmt:xthrow.obj
 0002:000084a4       ??_R1A@?0A@EA@runtime_error@std@@8 100324a4     libcpmt:xthrow.obj
 0002:000084c0       ??_R3error_category@std@@8 100324c0     libcpmt:thread0.obj
 0002:000084d0       ??_R2error_category@std@@8 100324d0     libcpmt:thread0.obj
 0002:000084d8       ??_R1A@?0A@EA@error_category@std@@8 100324d8     libcpmt:thread0.obj
 0002:000084f4       ??_R4_System_error@std@@6B@ 100324f4     libcpmt:thread0.obj
 0002:00008508       ??_R3_System_error@std@@8  10032508     libcpmt:thread0.obj
 0002:00008518       ??_R2_System_error@std@@8  10032518     libcpmt:thread0.obj
 0002:00008528       ??_R1A@?0A@EA@_System_error@std@@8 10032528     libcpmt:thread0.obj
 0002:00008544       ??_R4system_error@std@@6B@ 10032544     libcpmt:thread0.obj
 0002:00008558       ??_R3system_error@std@@8   10032558     libcpmt:thread0.obj
 0002:00008568       ??_R2system_error@std@@8   10032568     libcpmt:thread0.obj
 0002:0000857c       ??_R1A@?0A@EA@system_error@std@@8 1003257c     libcpmt:thread0.obj
 0002:00008598       ??_R4_Generic_error_category@std@@6B@ 10032598     libcpmt:thread0.obj
 0002:000085ac       ??_R3_Generic_error_category@std@@8 100325ac     libcpmt:thread0.obj
 0002:000085bc       ??_R2_Generic_error_category@std@@8 100325bc     libcpmt:thread0.obj
 0002:000085c8       ??_R1A@?0A@EA@_Generic_error_category@std@@8 100325c8     libcpmt:thread0.obj
 0002:000085e4       ??_R4type_info@@6B@        100325e4     LIBCMT:std_type_info_static.obj
 0002:000085f8       ??_R3type_info@@8          100325f8     LIBCMT:std_type_info_static.obj
 0002:00008608       ??_R2type_info@@8          10032608     LIBCMT:std_type_info_static.obj
 0002:00008610       ??_R1A@?0A@EA@type_info@@8 10032610     LIBCMT:std_type_info_static.obj
 0002:0000862c       ??_R4bad_exception@std@@6B@ 1003262c     libvcruntime:frame.obj
 0002:00008640       ??_R3bad_exception@std@@8  10032640     libvcruntime:frame.obj
 0002:00008650       ??_R2bad_exception@std@@8  10032650     libvcruntime:frame.obj
 0002:0000865c       ??_R1A@?0A@EA@bad_exception@std@@8 1003265c     libvcruntime:frame.obj
 0002:00008678       ??_R4exception@std@@6B@    10032678     era.obj
 0002:0000868c       ??_R2bad_array_new_length@std@@8 1003268c     era.obj
 0002:0000869c       ??_R2bad_alloc@std@@8      1003269c     era.obj
 0002:000086a8       ??_R1A@?0A@EA@exception@std@@8 100326a8     era.obj
 0002:000086c4       ??_R1A@?0A@EA@bad_alloc@std@@8 100326c4     era.obj
 0002:000086e0       ??_R2exception@std@@8      100326e0     era.obj
 0002:000086e8       ??_R3exception@std@@8      100326e8     era.obj
 0002:000086f8       ??_R4bad_alloc@std@@6B@    100326f8     era.obj
 0002:0000870c       ??_R3bad_array_new_length@std@@8 1003270c     era.obj
 0002:0000871c       ??_R3bad_alloc@std@@8      1003271c     era.obj
 0002:0000872c       ??_R4bad_array_new_length@std@@6B@ 1003272c     era.obj
 0002:00008740       ??_R1A@?0A@EA@bad_array_new_length@std@@8 10032740     era.obj
 0002:0000875c       ??_R4CreatureBanksExtender@cbanks@@6B@ 1003275c     CreatureBanksExtender.obj
 0002:00008770       ??_R1A@?0A@EA@IGamePatch@@8 10032770     CreatureBanksExtender.obj
 0002:0000878c       ??_R3CreatureBanksExtender@cbanks@@8 1003278c     CreatureBanksExtender.obj
 0002:0000879c       ??_R1A@?0A@EA@CreatureBanksExtender@cbanks@@8 1003279c     CreatureBanksExtender.obj
 0002:000087b8       ??_R2IGamePatch@@8         100327b8     CreatureBanksExtender.obj
 0002:000087c0       ??_R2CreatureBanksExtender@cbanks@@8 100327c0     CreatureBanksExtender.obj
 0002:000087d0       ??_R3IGamePatch@@8         100327d0     CreatureBanksExtender.obj
 0002:000087e0       ??_R1A@?0A@EA@ObjectsExtender@extender@@8 100327e0     CreatureBanksExtender.obj
 0002:000087fc       ??_R3ObjectsExtender@extender@@8 100327fc     CreatureBanksExtender.obj
 0002:0000880c       ??_R2ObjectsExtender@extender@@8 1003280c     CreatureBanksExtender.obj
 0002:00008818       ??_R2GazeboExtender@gazebo@@8 10032818     GazeboExtender.obj
 0002:00008828       ??_R4GazeboExtender@gazebo@@6B@ 10032828     GazeboExtender.obj
 0002:0000883c       ??_R1A@?0A@EA@GazeboExtender@gazebo@@8 1003283c     GazeboExtender.obj
 0002:00008858       ??_R3GazeboExtender@gazebo@@8 10032858     GazeboExtender.obj
 0002:00008868       ??_R3ShrinesExternder@shrines@@8 10032868     ShrinesExternder.obj
 0002:00008878       ??_R1A@?0A@EA@ShrinesExternder@shrines@@8 10032878     ShrinesExternder.obj
 0002:00008894       ??_R2ShrinesExternder@shrines@@8 10032894     ShrinesExternder.obj
 0002:000088a4       ??_R4ShrinesExternder@shrines@@6B@ 100328a4     ShrinesExternder.obj
 0002:000088b8       ??_R2WarehousesExtender@warehouses@@8 100328b8     WarehousesExtender.obj
 0002:000088c8       ??_R4WarehousesExtender@warehouses@@6B@ 100328c8     WarehousesExtender.obj
 0002:000088dc       ??_R1A@?0A@EA@WarehousesExtender@warehouses@@8 100328dc     WarehousesExtender.obj
 0002:000088f8       ??_R3WarehousesExtender@warehouses@@8 100328f8     WarehousesExtender.obj
 0002:00008908       ??_R3WateringPlaceExtender@wateringPlace@@8 10032908     WateringPlaceExtender.obj
 0002:00008918       ??_R1A@?0A@EA@WateringPlaceExtender@wateringPlace@@8 10032918     WateringPlaceExtender.obj
 0002:00008934       ??_R2WateringPlaceExtender@wateringPlace@@8 10032934     WateringPlaceExtender.obj
 0002:00008944       ??_R4WateringPlaceExtender@wateringPlace@@6B@ 10032944     WateringPlaceExtender.obj
 0002:00008958       ??_R4ObjectsExtender@extender@@6B@ 10032958     ObjectsExtender.obj
 0002:0000896c       ??_R2RMGObjectsEditor@editor@@8 1003296c     RMGObjectsEditor.obj
 0002:00008978       ??_R4RMGObjectsEditor@editor@@6B@ 10032978     RMGObjectsEditor.obj
 0002:0000898c       ??_R1A@?0A@EA@RMGObjectsEditor@editor@@8 1003298c     RMGObjectsEditor.obj
 0002:000089a8       ??_R3RMGObjectsEditor@editor@@8 100329a8     RMGObjectsEditor.obj
 0002:000089b8       ??_R3BanksPage@RMG_SettingsDlg@rmgdlg@@8 100329b8     RMG_SettingsDlg.obj
 0002:000089c8       ??_R1A@?0A@EA@H3ExtendedDlg@h3@@8 100329c8     RMG_SettingsDlg.obj
 0002:000089e4       ??_R13?0A@EA@H3Allocator@h3@@8 100329e4     RMG_SettingsDlg.obj
 0002:00008a00       ??_R3H3BaseDlg@h3@@8       10032a00     RMG_SettingsDlg.obj
 0002:00008a10       ??_R2H3NetworkDlg@h3@@8    10032a10     RMG_SettingsDlg.obj
 0002:00008a24       ??_R1A@?0A@EA@H3BaseDlg@h3@@8 10032a24     RMG_SettingsDlg.obj
 0002:00008a40       ??_R4MiscPage@RMG_SettingsDlg@rmgdlg@@6B@ 10032a40     RMG_SettingsDlg.obj
 0002:00008a54       ??_R1A@?0A@EA@BanksPage@RMG_SettingsDlg@rmgdlg@@8 10032a54     RMG_SettingsDlg.obj
 0002:00008a70       ??_R1A@?0A@EA@Page@RMG_SettingsDlg@rmgdlg@@8 10032a70     RMG_SettingsDlg.obj
 0002:00008a8c       ??_R2H3BaseDlg@h3@@8       10032a8c     RMG_SettingsDlg.obj
 0002:00008a98       ??_R2H3ExtendedDlg@h3@@8   10032a98     RMG_SettingsDlg.obj
 0002:00008aa8       ??_R4BanksPage@RMG_SettingsDlg@rmgdlg@@6B@ 10032aa8     RMG_SettingsDlg.obj
 0002:00008abc       ??_R1A@?0A@EA@MiscPage@RMG_SettingsDlg@rmgdlg@@8 10032abc     RMG_SettingsDlg.obj
 0002:00008ad8       ??_R3H3Dlg@h3@@8           10032ad8     RMG_SettingsDlg.obj
 0002:00008ae8       ??_R4RMG_SettingsDlg@rmgdlg@@6B@ 10032ae8     RMG_SettingsDlg.obj
 0002:00008afc       ??_R1A@?0A@EA@H3Dlg@h3@@8  10032afc     RMG_SettingsDlg.obj
 0002:00008b18       ??_R3RMG_SettingsDlg@rmgdlg@@8 10032b18     RMG_SettingsDlg.obj
 0002:00008b28       ??_R2Page@RMG_SettingsDlg@rmgdlg@@8 10032b28     RMG_SettingsDlg.obj
 0002:00008b30       ??_R2H3Allocator@h3@@8     10032b30     RMG_SettingsDlg.obj
 0002:00008b38       ??_R1A@?0A@EA@H3NetworkDlg@h3@@8 10032b38     RMG_SettingsDlg.obj
 0002:00008b54       ??_R3H3NetworkDlg@h3@@8    10032b54     RMG_SettingsDlg.obj
 0002:00008b64       ??_R4H3Dlg@h3@@6B@         10032b64     RMG_SettingsDlg.obj
 0002:00008b78       ??_R1A@?0A@EA@H3Allocator@h3@@8 10032b78     RMG_SettingsDlg.obj
 0002:00008b94       ??_R2ObjectsPanel@RMG_SettingsDlg@rmgdlg@@8 10032b94     RMG_SettingsDlg.obj
 0002:00008b9c       ??_R2MiscPage@RMG_SettingsDlg@rmgdlg@@8 10032b9c     RMG_SettingsDlg.obj
 0002:00008bac       ??_R1A@?0A@EA@RMG_SettingsDlg@rmgdlg@@8 10032bac     RMG_SettingsDlg.obj
 0002:00008bc8       ??_R3ObjectsPanel@RMG_SettingsDlg@rmgdlg@@8 10032bc8     RMG_SettingsDlg.obj
 0002:00008bd8       ??_R3H3ExtendedDlg@h3@@8   10032bd8     RMG_SettingsDlg.obj
 0002:00008be8       ??_R3H3Allocator@h3@@8     10032be8     RMG_SettingsDlg.obj
 0002:00008bf8       ??_R3Page@RMG_SettingsDlg@rmgdlg@@8 10032bf8     RMG_SettingsDlg.obj
 0002:00008c08       ??_R2RMG_SettingsDlg@rmgdlg@@8 10032c08     RMG_SettingsDlg.obj
 0002:00008c24       ??_R2H3Dlg@h3@@8           10032c24     RMG_SettingsDlg.obj
 0002:00008c3c       ??_R1A@?0A@EA@ObjectsPage@RMG_SettingsDlg@rmgdlg@@8 10032c3c     RMG_SettingsDlg.obj
 0002:00008c58       ??_R2ObjectsPage@RMG_SettingsDlg@rmgdlg@@8 10032c58     RMG_SettingsDlg.obj
 0002:00008c64       ??_R4ObjectsPage@RMG_SettingsDlg@rmgdlg@@6B@ 10032c64     RMG_SettingsDlg.obj
 0002:00008c78       ??_R4ObjectsPanel@RMG_SettingsDlg@rmgdlg@@6B@ 10032c78     RMG_SettingsDlg.obj
 0002:00008c8c       ??_R3ObjectsPage@RMG_SettingsDlg@rmgdlg@@8 10032c8c     RMG_SettingsDlg.obj
 0002:00008c9c       ??_R3MiscPage@RMG_SettingsDlg@rmgdlg@@8 10032c9c     RMG_SettingsDlg.obj
 0002:00008cac       ??_R1A@?0A@EA@ObjectsPanel@RMG_SettingsDlg@rmgdlg@@8 10032cac     RMG_SettingsDlg.obj
 0002:00008cc8       ??_R2BanksPage@RMG_SettingsDlg@rmgdlg@@8 10032cc8     RMG_SettingsDlg.obj
 0002:00008cd8       ??_R4Page@RMG_SettingsDlg@rmgdlg@@6B@ 10032cd8     RMG_SettingsDlg.obj
 0002:00008cec       ??_R4bad_cast@std@@6B@     10032cec     libvcruntime:rtti.obj
 0002:00008d00       ??_R3bad_cast@std@@8       10032d00     libvcruntime:rtti.obj
 0002:00008d10       ??_R2bad_cast@std@@8       10032d10     libvcruntime:rtti.obj
 0002:00008d1c       ??_R1A@?0A@EA@bad_cast@std@@8 10032d1c     libvcruntime:rtti.obj
 0002:00008d38       ??_R4bad_typeid@std@@6B@   10032d38     libvcruntime:rtti.obj
 0002:00008d4c       ??_R3bad_typeid@std@@8     10032d4c     libvcruntime:rtti.obj
 0002:00008d5c       ??_R2bad_typeid@std@@8     10032d5c     libvcruntime:rtti.obj
 0002:00008d68       ??_R1A@?0A@EA@bad_typeid@std@@8 10032d68     libvcruntime:rtti.obj
 0002:00008d84       ??_R4__non_rtti_object@std@@6B@ 10032d84     libvcruntime:rtti.obj
 0002:00008d98       ??_R3__non_rtti_object@std@@8 10032d98     libvcruntime:rtti.obj
 0002:00008da8       ??_R2__non_rtti_object@std@@8 10032da8     libvcruntime:rtti.obj
 0002:00008db8       ??_R1A@?0A@EA@__non_rtti_object@std@@8 10032db8     libvcruntime:rtti.obj
 0002:00008dd4       ___safe_se_handler_table   10032dd4     <linker-defined>
 0002:00008fa8       ___volatile_metadata       10032fa8     <linker-defined>
 0002:00009490       ___rtc_iaa                 10033490     LIBCMT:initsect.obj
 0002:00009494       ___rtc_izz                 10033494     LIBCMT:initsect.obj
 0002:00009498       ___rtc_taa                 10033498     LIBCMT:initsect.obj
 0002:0000949c       ___rtc_tzz                 1003349c     LIBCMT:initsect.obj
 0002:000094a0       __tls_start                100334a0     LIBCMT:tlssup.obj
 0002:000094a4       __Init_thread_epoch        100334a4     LIBCMT:thread_safe_statics.obj
 0002:000094a8       __tls_end                  100334a8     LIBCMT:tlssup.obj
 0002:0000a508       __CT??_R0?AVruntime_error@std@@@8??0runtime_error@std@@QAE@ABV01@@Z12 10034508     libcpmt:xthrow.obj
 0002:0000a524       __TI2?AVbad_alloc@std@@    10034524     libcpmt:xthrow.obj
 0002:0000a534       __CTA2?AVbad_alloc@std@@   10034534     libcpmt:xthrow.obj
 0002:0000a540       __CT??_R0?AVlogic_error@std@@@8??0logic_error@std@@QAE@ABV01@@Z12 10034540     libcpmt:xthrow.obj
 0002:0000a55c       __TI3?AVlength_error@std@@ 1003455c     libcpmt:xthrow.obj
 0002:0000a56c       __CTA3?AVlength_error@std@@ 1003456c     libcpmt:xthrow.obj
 0002:0000a57c       __CT??_R0?AVlength_error@std@@@8??0length_error@std@@QAE@ABV01@@Z12 1003457c     libcpmt:xthrow.obj
 0002:0000a5f8       __TI4?AVsystem_error@std@@ 100345f8     libcpmt:thread0.obj
 0002:0000a608       __CTA4?AVsystem_error@std@@ 10034608     libcpmt:thread0.obj
 0002:0000a61c       __CT??_R0?AVsystem_error@std@@@8??0system_error@std@@QAE@ABV01@@Z20 1003461c     libcpmt:thread0.obj
 0002:0000a638       __CT??_R0?AV_System_error@std@@@8??0_System_error@std@@QAE@ABV01@@Z20 10034638     libcpmt:thread0.obj
 0002:0000a844       __TI2?AVbad_exception@std@@ 10034844     libvcruntime:frame.obj
 0002:0000a854       __CTA2?AVbad_exception@std@@ 10034854     libvcruntime:frame.obj
 0002:0000a860       __CT??_R0?AVbad_exception@std@@@8??0bad_exception@std@@QAE@ABV01@@Z12 10034860     libvcruntime:frame.obj
 0002:0000abfc       __CTA3?AVbad_array_new_length@std@@ 10034bfc     era.obj
 0002:0000ac0c       __CT??_R0?AVbad_alloc@std@@@8??0bad_alloc@std@@QAE@ABV01@@Z12 10034c0c     era.obj
 0002:0000ac28       __CT??_R0?AVexception@std@@@8??0exception@std@@QAE@ABV01@@Z12 10034c28     era.obj
 0002:0000ac44       __TI3?AVbad_array_new_length@std@@ 10034c44     era.obj
 0002:0000ac54       __CT??_R0?AVbad_array_new_length@std@@@8??0bad_array_new_length@std@@QAE@ABV01@@Z12 10034c54     era.obj
 0002:0000c0dc       __TI3?AV__non_rtti_object@std@@ 100360dc     libvcruntime:rtti.obj
 0002:0000c0ec       __CTA3?AV__non_rtti_object@std@@ 100360ec     libvcruntime:rtti.obj
 0002:0000c0fc       __CT??_R0?AV__non_rtti_object@std@@@8??0__non_rtti_object@std@@QAE@ABV01@@Z12 100360fc     libvcruntime:rtti.obj
 0002:0000c118       __CT??_R0?AVbad_typeid@std@@@8??0bad_typeid@std@@QAE@ABV01@@Z12 10036118     libvcruntime:rtti.obj
 0002:0000c134       __TI2?AVbad_cast@std@@     10036134     libvcruntime:rtti.obj
 0002:0000c144       __CTA2?AVbad_cast@std@@    10036144     libvcruntime:rtti.obj
 0002:0000c150       __CT??_R0?AVbad_cast@std@@@8??0bad_cast@std@@QAE@ABV01@@Z12 10036150     libvcruntime:rtti.obj
 0002:0000c1f0       __IMPORT_DESCRIPTOR_KERNEL32 100361f0     kernel32:KERNEL32.dll
 0002:0000c204       __NULL_IMPORT_DESCRIPTOR   10036204     kernel32:KERNEL32.dll
 0003:00000000       ?_Static@?1???$_Immortalize_memcpy_image@V_Generic_error_category@std@@@std@@YAABV_Generic_error_category@1@XZ@4V21@B 10037000     libcpmt:thread0.obj
 0003:00000038       __Init_global_epoch        10037038     LIBCMT:thread_safe_statics.obj
 0003:0000003c       ___scrt_native_dllmain_reason 1003703c     LIBCMT:utility.obj
 0003:00000040       ___security_cookie         10037040     LIBCMT:gs_cookie.obj
 0003:00000080       ___security_cookie_complement 10037080     LIBCMT:gs_cookie.obj
 0003:00000088       ___isa_inverted            10037088     LIBCMT:cpu_disp.obj
 0003:00000090       ___isa_enabled             10037090     LIBCMT:cpu_disp.obj
 0003:00000094       __fltused                  10037094     LIBCMT:fltused.obj
 0003:000000b0       __NLG_Destination          100370b0     libvcruntime:exsup.obj
 0003:000000c0       ___abort_behavior          100370c0     libucrt:abort.obj
 0003:000000c8       __iob                      100370c8     libucrt:_file.obj
 0003:00000180       ___acrt_initial_locale_data 10037180     libucrt:nlsdata.obj
 0003:00000238       ___acrt_initial_locale_pointers 10037238     libucrt:nlsdata.obj
 0003:00000240       ___acrt_wide_c_locale_string 10037240     libucrt:nlsdata.obj
 0003:00000248       ___acrt_initial_multibyte_data 10037248     libucrt:mbctype.obj
 0003:00000768       ___globallocalestatus      10037768     libucrt:glstatus.obj
 0003:00000770       ___acrt_lconv_c            10037770     libucrt:localeconv.obj
 0003:000007c0       ___acrt_lconv_static_decimal 100377c0     libucrt:localeconv.obj
 0003:000007c4       ___acrt_lconv_static_W_decimal 100377c4     libucrt:localeconv.obj
 0003:000007d0       __lookuptrailbytes         100377d0     libucrt:read.obj
 0003:00000900       ??_R0?AVruntime_error@std@@@8 10037900     libcpmt:xthrow.obj
 0003:00000920       ??_R0?AVlogic_error@std@@@8 10037920     libcpmt:xthrow.obj
 0003:00000940       ??_R0?AVlength_error@std@@@8 10037940     libcpmt:xthrow.obj
 0003:00000960       ??_R0?AVsystem_error@std@@@8 10037960     libcpmt:thread0.obj
 0003:00000980       ??_R0?AV_System_error@std@@@8 10037980     libcpmt:thread0.obj
 0003:000009a0       ??_R0?AVbad_exception@std@@@8 100379a0     libvcruntime:frame.obj
 0003:000009c0       ??_R0?AVbad_alloc@std@@@8  100379c0     era.obj
 0003:000009dc       ??_R0?AVexception@std@@@8  100379dc     era.obj
 0003:000009f8       ??_R0?AVbad_array_new_length@std@@@8 100379f8     era.obj
 0003:00000a20       ??_R0?AUPage@RMG_SettingsDlg@rmgdlg@@@8 10037a20     RMG_SettingsDlg.obj
 0003:00000a4c       ??_R0?AVRMG_SettingsDlg@rmgdlg@@@8 10037a4c     RMG_SettingsDlg.obj
 0003:00000a74       ??_R0?AUObjectsPage@RMG_SettingsDlg@rmgdlg@@@8 10037a74     RMG_SettingsDlg.obj
 0003:00000aa8       ??_R0?AUH3BaseDlg@h3@@@8   10037aa8     RMG_SettingsDlg.obj
 0003:00000ac4       ??_R0?AV__non_rtti_object@std@@@8 10037ac4     libvcruntime:rtti.obj
 0003:00000ae8       ??_R0?AVbad_typeid@std@@@8 10037ae8     libvcruntime:rtti.obj
 0003:00000b08       ??_R0?AVbad_cast@std@@@8   10037b08     libvcruntime:rtti.obj
 0003:00000b24       ??_R0?AVerror_category@std@@@8 10037b24     libcpmt:thread0.obj
 0003:00000b48       ??_R0?AV_Generic_error_category@std@@@8 10037b48     libcpmt:thread0.obj
 0003:00000b74       ??_R0?AVtype_info@@@8      10037b74     LIBCMT:std_type_info_static.obj
 0003:00000b8c       ??_R0?AVIGamePatch@@@8     10037b8c     CreatureBanksExtender.obj
 0003:00000ba8       ??_R0?AVObjectsExtender@extender@@@8 10037ba8     CreatureBanksExtender.obj
 0003:00000bd0       ??_R0?AVCreatureBanksExtender@cbanks@@@8 10037bd0     CreatureBanksExtender.obj
 0003:00000bfc       ??_R0?AVGazeboExtender@gazebo@@@8 10037bfc     GazeboExtender.obj
 0003:00000c20       ??_R0?AVShrinesExternder@shrines@@@8 10037c20     ShrinesExternder.obj
 0003:00000c48       ??_R0?AVWarehousesExtender@warehouses@@@8 10037c48     WarehousesExtender.obj
 0003:00000c74       ??_R0?AVWateringPlaceExtender@wateringPlace@@@8 10037c74     WateringPlaceExtender.obj
 0003:00000ca8       ??_R0?AVRMGObjectsEditor@editor@@@8 10037ca8     RMGObjectsEditor.obj
 0003:00000cd0       ??_R0?AUH3Allocator@h3@@@8 10037cd0     RMG_SettingsDlg.obj
 0003:00000cf0       ??_R0?AUObjectsPanel@RMG_SettingsDlg@rmgdlg@@@8 10037cf0     RMG_SettingsDlg.obj
 0003:00000d24       ??_R0?AUH3ExtendedDlg@h3@@@8 10037d24     RMG_SettingsDlg.obj
 0003:00000d44       ??_R0?AUBanksPage@RMG_SettingsDlg@rmgdlg@@@8 10037d44     RMG_SettingsDlg.obj
 0003:00000d74       ??_R0?AUH3NetworkDlg@h3@@@8 10037d74     RMG_SettingsDlg.obj
 0003:00000d94       ??_R0?AUMiscPage@RMG_SettingsDlg@rmgdlg@@@8 10037d94     RMG_SettingsDlg.obj
 0003:00000dc4       ??_R0?AUH3Dlg@h3@@@8       10037dc4     RMG_SettingsDlg.obj
 0003:00000f88       ___scrt_current_native_startup_state 10037f88     LIBCMT:utility.obj
 0003:00000f8c       ___scrt_native_startup_lock 10037f8c     LIBCMT:utility.obj
 0003:00000fb0       ___avx10_version           10037fb0     LIBCMT:cpu_disp.obj
 0003:00000fb4       ___isa_available           10037fb4     LIBCMT:cpu_disp.obj
 0003:00000fb8       ___favor                   10037fb8     LIBCMT:cpu_disp.obj
 0003:00000fbc       __tls_index                10037fbc     LIBCMT:tlssup.obj
 0003:00000fc0       ___scrt_debugger_hook_flag 10037fc0     LIBCMT:utility_desktop.obj
 0003:00000fc8       ?__type_info_root_node@@3U__type_info_node@@A 10037fc8     LIBCMT:tncleanup.obj
 0003:00000fd0       ?_OptionsStorage@?1??__local_stdio_scanf_options@@9@4_KA 10037fd0     LIBCMT:default_local_stdio_options.obj
 0003:000012f4       ?__WinRTOutOfMemoryExceptionCallback@@3P6GPAXXZA 100382f4     libvcruntime:ehhelpers.obj
 0003:00001320       ___pPurecall               10038320     libvcruntime:purevirt_data.obj
 0003:00001340       ?pArgList@UnDecorator@@0PAVReplicator@@A 10038340     libvcruntime:undname.obj
 0003:00001344       ?pZNameList@UnDecorator@@0PAVReplicator@@A 10038344     libvcruntime:undname.obj
 0003:00001348       ?pTemplateArgList@UnDecorator@@0PAVReplicator@@A 10038348     libvcruntime:undname.obj
 0003:0000134c       ?gName@UnDecorator@@0PBDB  1003834c     libvcruntime:undname.obj
 0003:00001350       ?name@UnDecorator@@0PBDB   10038350     libvcruntime:undname.obj
 0003:00001354       ?disableFlags@UnDecorator@@0KA 10038354     libvcruntime:undname.obj
 0003:00001358       ?fExplicitTemplateParams@UnDecorator@@0_NA 10038358     libvcruntime:undname.obj
 0003:00001359       ?fGetTemplateArgumentList@UnDecorator@@0_NA 10038359     libvcruntime:undname.obj
 0003:0000135c       ?m_pGetParameter@UnDecorator@@0P6APADJ@ZA 1003835c     libvcruntime:undname.obj
 0003:00001360       ?m_CHPENameOffset@UnDecorator@@0KA 10038360     libvcruntime:undname.obj
 0003:00001364       ?m_recursionLevel@UnDecorator@@0KA 10038364     libvcruntime:undname.obj
 0003:000013a0       __nstream                  100383a0     libucrt:_file.obj
 0003:000013a4       ___piob                    100383a4     libucrt:_file.obj
 0003:000013b4       ?c_exit_complete@?1???R<lambda_6e4b09c48022b2350581041d5f6b0c4c>@@QBE@XZ@4_NA 100383b4     libucrt:exit.obj
 0003:000014c0       __environ_table            100384c0     libucrt:environment_initialization.obj
 0003:000014c4       __wenviron_table           100384c4     libucrt:environment_initialization.obj
 0003:000014c8       ___dcrt_initial_wide_environment 100384c8     libucrt:environment_initialization.obj
 0003:000014cc       ___dcrt_initial_narrow_environment 100384cc     libucrt:environment_initialization.obj
 0003:000014d0       ___acrt_atexit_table       100384d0     libucrt:onexit.obj
 0003:000014dc       ___acrt_at_quick_exit_table 100384dc     libucrt:onexit.obj
 0003:000014f4       ___acrt_stdout_buffer      100384f4     libucrt:_sftbuf.obj
 0003:000014f8       ___acrt_stderr_buffer      100384f8     libucrt:_sftbuf.obj
 0003:000014fc       ___acrt_locale_changed_data 100384fc     libucrt:wsetlocale.obj
 0003:00001500       ___acrt_current_locale_data 10038500     libucrt:nlsdata.obj
 0003:00001508       ___pioinfo                 10038508     libucrt:ioinit.obj
 0003:00001708       __nhandle                  10038708     libucrt:ioinit.obj
 0003:00001954       __mbctype                  10038954     libucrt:mbctype.obj
 0003:00001958       __mbcasemap                10038958     libucrt:mbctype.obj
 0003:0000195c       ___acrt_current_multibyte_data 1003895c     libucrt:mbctype.obj
 0003:00001968       __pgmptr                   10038968     libucrt:argv_data.obj
 0003:0000196c       ___argc                    1003896c     libucrt:argv_data.obj
 0003:00001970       ___argv                    10038970     libucrt:argv_data.obj
 0003:00001974       ___wargv                   10038974     libucrt:argv_data.obj
 0003:00001978       __acmdln                   10038978     libucrt:argv_data.obj
 0003:0000197c       __wcmdln                   1003897c     libucrt:argv_data.obj
 0003:00001980       ___acrt_heap               10038980     libucrt:heap_handle.obj
 0003:0000198c       ___acrt_lconv_static_null  1003898c     libucrt:localeconv.obj
 0003:00001990       ___acrt_lconv_static_W_null 10038990     libucrt:localeconv.obj
 0003:000019a0       ___fastflag                100389a0     libucrt:fp_flags.obj
 0003:000019a8       ?_OptionsStorage@?1??__local_stdio_printf_options@@9@4_KA 100389a8     era.obj
 0003:000019b0       ?globalPatcher@@3PAVPatcher@@A 100389b0     dllmain.obj
 0003:000019b4       ?_PI@@3PAVPatcherInstance@@A 100389b4     dllmain.obj
 0003:000019b8       ?gazeboCounter@gazebo@@3HA 100389b8     GazeboExtender.obj
 0003:000019bc       ?currentShrineHint@ShrinesExternder@shrines@@0PBUH3MapItem@h3@@B 100389bc     ShrinesExternder.obj
 0003:000019c0       ?id@ObjectsPanel@RMG_SettingsDlg@rmgdlg@@2IA 100389c0     RMG_SettingsDlg.obj
 0003:000019c4       ?instance@RMG_SettingsDlg@rmgdlg@@0PAV12@A 100389c4     RMG_SettingsDlg.obj
 0003:000019c8       ?dlg@Page@RMG_SettingsDlg@rmgdlg@@2PAV23@A 100389c8     RMG_SettingsDlg.obj
 0003:000019cc       ?hEra@Era@@3PAUHINSTANCE__@@A 100389cc     era.obj
 0003:000019d0       ?WriteStrToIni@Era@@3P6GHPBD000@ZA 100389d0     era.obj
 0003:000019d4       ?SetAssocVarIntValue@Era@@3P6GXPBDH@ZA 100389d4     era.obj
 0003:000019d8       ?ReadStrFromIni@Era@@3P6GHPBD00PAD@ZA 100389d8     era.obj
 0003:000019dc       ?GetAssocVarIntValue@Era@@3P6GHPBD@ZA 100389dc     era.obj
 0003:000019e0       ?SaveIni@Era@@3P6GHPBD@ZA  100389e0     era.obj
 0003:000019e4       ?trStatic@Era@@3P6GPADPBD@ZA 100389e4     era.obj
 0003:000019e8       ?ReportPluginVersion@Era@@3P6GXPBD@ZA 100389e8     era.obj
 0003:000019ec       ?RegisterHandler@Era@@3P6GXP6GXPAUTEvent@1@@ZPBD@ZA 100389ec     era.obj
 0003:000019f0       ?additionalRmgObjects@ObjectsExtender@extender@@1V?$vector@URMGObjectInfo@@V?$allocator@URMGObjectInfo@@@std@@@std@@A 100389f0     ObjectsExtender.obj
 0003:000019fc       ?additionalProperties@ObjectsExtender@extender@@1V?$vector@V?$basic_string@DU?$char_traits@D@std@@V?$allocator@D@2@@std@@V?$allocator@V?$basic_string@DU?$char_traits@D@std@@V?$allocator@D@2@@std@@@2@@std@@A 100389fc     ObjectsExtender.obj
 0003:00001a08       ?extenders@ObjectsExtender@extender@@0V?$set@PAVObjectsExtender@extender@@U?$less@PAVObjectsExtender@extender@@@std@@V?$allocator@PAVObjectsExtender@extender@@@4@@std@@A 10038a08     ObjectsExtender.obj
 0003:00001a10       ?generatedInfo@RMGObjectsEditor@editor@@0UGeneratedInfo@@A 10038a10     RMGObjectsEditor.obj
 0003:00001a28       ?m_commonObjects@RMG_SettingsDlg@rmgdlg@@0V?$vector@U?$pair@UH3ObjectAttributes@h3@@PAUH3LoadedPcx16@2@@std@@V?$allocator@U?$pair@UH3ObjectAttributes@h3@@PAUH3LoadedPcx16@2@@std@@@2@@std@@A 10038a28     RMG_SettingsDlg.obj
 0003:00001a34       ?m_banks@RMG_SettingsDlg@rmgdlg@@0V?$vector@U?$pair@UH3ObjectAttributes@h3@@PAUH3LoadedPcx16@2@@std@@V?$allocator@U?$pair@UH3ObjectAttributes@h3@@PAUH3LoadedPcx16@2@@std@@@2@@std@@A 10038a34     RMG_SettingsDlg.obj
 0003:00001a40       ?m_wogObjects@RMG_SettingsDlg@rmgdlg@@0V?$vector@U?$pair@UH3ObjectAttributes@h3@@PAUH3LoadedPcx16@2@@std@@V?$allocator@U?$pair@UH3ObjectAttributes@h3@@PAUH3LoadedPcx16@2@@std@@@2@@std@@A 10038a40     RMG_SettingsDlg.obj
 0003:00001a4c       ?m_dwellings@RMG_SettingsDlg@rmgdlg@@0V?$vector@U?$pair@UH3ObjectAttributes@h3@@PAUH3LoadedPcx16@2@@std@@V?$allocator@U?$pair@UH3ObjectAttributes@h3@@PAUH3LoadedPcx16@2@@std@@@2@@std@@A 10038a4c     RMG_SettingsDlg.obj
 0003:00001a58       ?m_objectAttributes@RMG_SettingsDlg@rmgdlg@@0V?$vector@PAV?$vector@U?$pair@UH3ObjectAttributes@h3@@PAUH3LoadedPcx16@2@@std@@V?$allocator@U?$pair@UH3ObjectAttributes@h3@@PAUH3LoadedPcx16@2@@std@@@2@@std@@V?$allocator@PAV?$vector@U?$pair@UH3ObjectAttributes@h3@@PAUH3LoadedPcx16@2@@std@@V?$allocator@U?$pair@UH3ObjectAttributes@h3@@PAUH3LoadedPcx16@2@@std@@@2@@std@@@2@@std@@B 10038a58     RMG_SettingsDlg.obj
 0003:000033cc       ___dyn_tls_init_callback   1003a3cc     <common>
 0003:000033d0       ___scrt_ucrt_dll_is_in_use 1003a3d0     <common>
 0003:000033d4       __pmatherr                 1003a3d4     <common>
 0003:000033d8       ___use_sse2_mathfcns       1003a3d8     <common>

 entry point at        0001:0000a35b

 Static symbols

 0000:fffc1000       .debug$S                   10000000     RMG_CustomizeObjectProperties.exp
 0000:fffc1000       .debug$S                   10000000     kernel32:KERNEL32.dll
 0000:fffc1000       .debug$S                   10000000     kernel32:KERNEL32.dll
 0000:fffc1000       .debug$S                   10000000     kernel32:KERNEL32.dll
 0000:fffc1000       .debug$S                   10000000     kernel32:KERNEL32.dll
 0000:fffc1000       .debug$S                   10000000     kernel32:KERNEL32.dll
 0000:fffc1000       .debug$S                   10000000     kernel32:KERNEL32.dll
 0000:fffc1000       .debug$S                   10000000     kernel32:KERNEL32.dll
 0000:fffc1000       .debug$S                   10000000     kernel32:KERNEL32.dll
 0000:fffc1000       .debug$S                   10000000     kernel32:KERNEL32.dll
 0000:fffc1000       .debug$S                   10000000     kernel32:KERNEL32.dll
 0000:fffc1000       .debug$S                   10000000     kernel32:KERNEL32.dll
 0000:fffc1000       .debug$S                   10000000     kernel32:KERNEL32.dll
 0000:fffc1000       .debug$S                   10000000     kernel32:KERNEL32.dll
 0000:fffc1000       .debug$S                   10000000     kernel32:KERNEL32.dll
 0000:fffc1000       .debug$S                   10000000     kernel32:KERNEL32.dll
 0000:fffc1000       .debug$S                   10000000     kernel32:KERNEL32.dll
 0000:fffc1000       .debug$S                   10000000     kernel32:KERNEL32.dll
 0000:fffc1000       .debug$S                   10000000     kernel32:KERNEL32.dll
 0000:fffc1000       .debug$S                   10000000     kernel32:KERNEL32.dll
 0000:fffc1000       .debug$S                   10000000     kernel32:KERNEL32.dll
 0000:fffc1000       .debug$S                   10000000     kernel32:KERNEL32.dll
 0000:fffc1000       .debug$S                   10000000     kernel32:KERNEL32.dll
 0000:fffc1000       .debug$S                   10000000     kernel32:KERNEL32.dll
 0000:fffc1000       .debug$S                   10000000     kernel32:KERNEL32.dll
 0000:fffc1000       .debug$S                   10000000     kernel32:KERNEL32.dll
 0000:fffc1000       .debug$S                   10000000     kernel32:KERNEL32.dll
 0000:fffc1000       .debug$S                   10000000     kernel32:KERNEL32.dll
 0000:fffc1000       .debug$S                   10000000     kernel32:KERNEL32.dll
 0000:fffc1000       .debug$S                   10000000     kernel32:KERNEL32.dll
 0000:fffc1000       .debug$S                   10000000     kernel32:KERNEL32.dll
 0000:fffc1000       .debug$S                   10000000     kernel32:KERNEL32.dll
 0000:fffc1000       .debug$S                   10000000     kernel32:KERNEL32.dll
 0000:fffc1000       .debug$S                   10000000     kernel32:KERNEL32.dll
 0000:fffc1000       .debug$S                   10000000     kernel32:KERNEL32.dll
 0000:fffc1000       .debug$S                   10000000     kernel32:KERNEL32.dll
 0000:fffc1000       .debug$S                   10000000     kernel32:KERNEL32.dll
 0000:fffc1000       .debug$S                   10000000     kernel32:KERNEL32.dll
 0000:fffc1000       .debug$S                   10000000     kernel32:KERNEL32.dll
 0000:fffc1000       .debug$S                   10000000     kernel32:KERNEL32.dll
 0000:fffc1000       .debug$S                   10000000     kernel32:KERNEL32.dll
 0000:fffc1000       .debug$S                   10000000     kernel32:KERNEL32.dll
 0000:fffc1000       .debug$S                   10000000     kernel32:KERNEL32.dll
 0000:fffc1000       .debug$S                   10000000     kernel32:KERNEL32.dll
 0000:fffc1000       .debug$S                   10000000     kernel32:KERNEL32.dll
 0000:fffc1000       .debug$S                   10000000     kernel32:KERNEL32.dll
 0000:fffc1000       .debug$S                   10000000     kernel32:KERNEL32.dll
 0000:fffc1000       .debug$S                   10000000     kernel32:KERNEL32.dll
 0000:fffc1000       .debug$S                   10000000     kernel32:KERNEL32.dll
 0000:fffc1000       .debug$S                   10000000     kernel32:KERNEL32.dll
 0000:fffc1000       .debug$S                   10000000     kernel32:KERNEL32.dll
 0000:fffc1000       .debug$S                   10000000     kernel32:KERNEL32.dll
 0000:fffc1000       .debug$S                   10000000     kernel32:KERNEL32.dll
 0000:fffc1000       .debug$S                   10000000     kernel32:KERNEL32.dll
 0000:fffc1000       .debug$S                   10000000     kernel32:KERNEL32.dll
 0000:fffc1000       .debug$S                   10000000     kernel32:KERNEL32.dll
 0000:fffc1000       .debug$S                   10000000     kernel32:KERNEL32.dll
 0000:fffc1000       .debug$S                   10000000     kernel32:KERNEL32.dll
 0000:fffc1000       .debug$S                   10000000     kernel32:KERNEL32.dll
 0000:fffc1000       .debug$S                   10000000     kernel32:KERNEL32.dll
 0000:fffc1000       .debug$S                   10000000     kernel32:KERNEL32.dll
 0000:fffc1000       .debug$S                   10000000     kernel32:KERNEL32.dll
 0000:fffc1000       .debug$S                   10000000     kernel32:KERNEL32.dll
 0000:fffc1000       .debug$S                   10000000     kernel32:KERNEL32.dll
 0000:fffc1000       .debug$S                   10000000     kernel32:KERNEL32.dll
 0000:fffc1000       .debug$S                   10000000     kernel32:KERNEL32.dll
 0000:fffc1000       .debug$S                   10000000     kernel32:KERNEL32.dll
 0000:fffc1000       .debug$S                   10000000     kernel32:KERNEL32.dll
 0000:fffc1000       .debug$S                   10000000     kernel32:KERNEL32.dll
 0000:fffc1000       .debug$S                   10000000     kernel32:KERNEL32.dll
 0000:fffc1000       .debug$S                   10000000     kernel32:KERNEL32.dll
 0000:fffc1000       .debug$S                   10000000     kernel32:KERNEL32.dll
 0000:fffc1000       .debug$S                   10000000     kernel32:KERNEL32.dll
 0000:fffc1000       .debug$S                   10000000     kernel32:KERNEL32.dll
 0000:fffc1000       .debug$S                   10000000     kernel32:KERNEL32.dll
 0000:fffc1000       .debug$S                   10000000     kernel32:KERNEL32.dll
 0000:fffc1000       .debug$S                   10000000     kernel32:KERNEL32.dll
 0000:fffc1000       .debug$S                   10000000     kernel32:KERNEL32.dll
 0000:fffc1000       .debug$S                   10000000     kernel32:KERNEL32.dll
 0000:fffc1000       .debug$S                   10000000     kernel32:KERNEL32.dll
 0000:fffc1000       .debug$S                   10000000     kernel32:KERNEL32.dll
 0000:fffc1000       .debug$S                   10000000     kernel32:KERNEL32.dll
 0000:fffc1000       .debug$S                   10000000     kernel32:KERNEL32.dll
 0000:fffc1000       .debug$S                   10000000     kernel32:KERNEL32.dll
 0000:fffc1000       .debug$S                   10000000     kernel32:KERNEL32.dll
 0000:fffc1000       .debug$S                   10000000     kernel32:KERNEL32.dll
 0000:fffc1000       .debug$S                   10000000     kernel32:KERNEL32.dll
 0000:fffc1000       .debug$S                   10000000     kernel32:KERNEL32.dll
 0000:fffc1000       .debug$S                   10000000     kernel32:KERNEL32.dll
 0000:fffc1000       .debug$S                   10000000     kernel32:KERNEL32.dll
 0000:fffc1000       .debug$S                   10000000     kernel32:KERNEL32.dll
 0000:fffc1000       .debug$S                   10000000     kernel32:KERNEL32.dll
 0000:fffc1000       .debug$S                   10000000     kernel32:KERNEL32.dll
 0000:fffc1000       .debug$S                   10000000     kernel32:KERNEL32.dll
 0000:fffc1000       .debug$S                   10000000     kernel32:KERNEL32.dll
 0000:fffc1000       .debug$S                   10000000     kernel32:KERNEL32.dll
 0000:fffc1000       .debug$S                   10000000     kernel32:KERNEL32.dll
 0000:fffc1000       .debug$S                   10000000     kernel32:KERNEL32.dll
 0000:fffc1000       .debug$S                   10000000     kernel32:KERNEL32.dll
 0000:fffc1000       .debug$S                   10000000     kernel32:KERNEL32.dll
 0000:fffc1000       .debug$S                   10000000     kernel32:KERNEL32.dll
 0000:fffc1000       .debug$S                   10000000     kernel32:KERNEL32.dll
 0000:fffc1000       .debug$S                   10000000     kernel32:KERNEL32.dll
 0000:fffc1000       .debug$S                   10000000     kernel32:KERNEL32.dll
 0000:fffc1000       .debug$S                   10000000     kernel32:KERNEL32.dll
 0000:fffc1000       .debug$S                   10000000     kernel32:KERNEL32.dll
 0000:fffc1000       .debug$S                   10000000     kernel32:KERNEL32.dll
 0000:fffc1000       .debug$S                   10000000     kernel32:KERNEL32.dll
 0000:fffc1000       .debug$S                   10000000     kernel32:KERNEL32.dll
 0000:fffc1000       .debug$S                   10000000     kernel32:KERNEL32.dll
 0000:fffc1000       .debug$S                   10000000     kernel32:KERNEL32.dll
 0000:fffc1000       .debug$S                   10000000     kernel32:KERNEL32.dll
 0000:fffc1000       .debug$S                   10000000     kernel32:KERNEL32.dll
 0000:fffc1000       .debug$S                   10000000     kernel32:KERNEL32.dll
 0000:fffc1000       .debug$S                   10000000     kernel32:KERNEL32.dll
 0000:fffc1000       .debug$S                   10000000     kernel32:KERNEL32.dll
 0000:fffc1000       .debug$S                   10000000     kernel32:KERNEL32.dll
 0000:fffc1000       .debug$S                   10000000     kernel32:KERNEL32.dll
 0000:fffc1000       .debug$S                   10000000     kernel32:KERNEL32.dll
 0000:fffc1000       .debug$S                   10000000     kernel32:KERNEL32.dll
 0000:fffc1000       .debug$S                   10000000     kernel32:KERNEL32.dll
 0000:fffc1000       .debug$S                   10000000     kernel32:KERNEL32.dll
 0000:fffc1000       .debug$S                   10000000     kernel32:KERNEL32.dll
 0001:00000000       ??__EhEra@Era@@YAXXZ       10001000 f   era.obj
 0001:00000020       ??__EAllocErmFunc@Era@@YAXXZ 10001020 f   era.obj
 0001:00000040       ??__ECalcHookPatchSize@Era@@YAXXZ 10001040 f   era.obj
 0001:00000060       ??__EClearAllIniCache@Era@@YAXXZ 10001060 f   era.obj
 0001:00000080       ??__EClearIniCache@Era@@YAXXZ 10001080 f   era.obj
 0001:000000a0       ??__EDecorateInt@Era@@YAXXZ 100010a0 f   era.obj
 0001:000000c0       ??__EExecErmCmd@Era@@YAXXZ 100010c0 f   era.obj
 0001:000000e0       ??__EExecPersistedErmCmd@Era@@YAXXZ 100010e0 f   era.obj
 0001:00000100       ??__EExtractErm@Era@@YAXXZ 10001100 f   era.obj
 0001:00000120       ??__EFastQuitToGameMenu@Era@@YAXXZ 10001120 f   era.obj
 0001:00000140       ??__EFatalError@Era@@YAXXZ 10001140 f   era.obj
 0001:00000160       ??__EFindNextObject@Era@@YAXXZ 10001160 f   era.obj
 0001:00000180       ??__EFireErmEvent@Era@@YAXXZ 10001180 f   era.obj
 0001:000001a0       ??__EFireEvent@Era@@YAXXZ  100011a0 f   era.obj
 0001:000001c0       ??__EFormatQuantity@Era@@YAXXZ 100011c0 f   era.obj
 0001:000001e0       ??__EFreeAppliedPatch@Era@@YAXXZ 100011e0 f   era.obj
 0001:00000200       ??__EGenerateDebugInfo@Era@@YAXXZ 10001200 f   era.obj
 0001:00000220       ??__EGetArgXVars@Era@@YAXXZ 10001220 f   era.obj
 0001:00000240       ??__EGetAssocVarIntValue@Era@@YAXXZ 10001240 f   era.obj
 0001:00000260       ??__EGetAssocVarStrValue@Era@@YAXXZ 10001260 f   era.obj
 0001:00000280       ??__EGetButtonID@Era@@YAXXZ 10001280 f   era.obj
 0001:000002a0       ??__EGetCampaignFileName@Era@@YAXXZ 100012a0 f   era.obj
 0001:000002c0       ??__EGetCampaignMapInd@Era@@YAXXZ 100012c0 f   era.obj
 0001:000002e0       ??__EGetEraRegistryIntValue@Era@@YAXXZ 100012e0 f   era.obj
 0001:00000300       ??__EGetEraRegistryStrValue@Era@@YAXXZ 10001300 f   era.obj
 0001:00000320       ??__EGetGameState@Era@@YAXXZ 10001320 f   era.obj
 0001:00000340       ??__EGetMapFileName@Era@@YAXXZ 10001340 f   era.obj
 0001:00000360       ??__EGetProcessGuid@Era@@YAXXZ 10001360 f   era.obj
 0001:00000380       ??__EGetRealAddr@Era@@YAXXZ 10001380 f   era.obj
 0001:000003a0       ??__EGetRetXVars@Era@@YAXXZ 100013a0 f   era.obj
 0001:000003c0       ??__EGetTriggerReadableName@Era@@YAXXZ 100013c0 f   era.obj
 0001:000003e0       ??__EGetVersionNum@Era@@YAXXZ 100013e0 f   era.obj
 0001:00000400       ??__EGlobalRedirectFile@Era@@YAXXZ 10001400 f   era.obj
 0001:00000420       ??__EHash32@Era@@YAXXZ     10001420 f   era.obj
 0001:00000440       ??__EHookCode@Era@@YAXXZ   10001440 f   era.obj
 0001:00000460       ??__EIsCampaign@Era@@YAXXZ 10001460 f   era.obj
 0001:00000480       ??__EIsCommanderId@Era@@YAXXZ 10001480 f   era.obj
 0001:000004a0       ??__ELoadImageAsPcx16@Era@@YAXXZ 100014a0 f   era.obj
 0001:000004c0       ??__EMemFree@Era@@YAXXZ    100014c0 f   era.obj
 0001:000004e0       ??__ENameColor@Era@@YAXXZ  100014e0 f   era.obj
 0001:00000500       ??__ENameTrigger@Era@@YAXXZ 10001500 f   era.obj
 0001:00000520       ??__ENotifyError@Era@@YAXXZ 10001520 f   era.obj
 0001:00000540       ??__EPatchExists@Era@@YAXXZ 10001540 f   era.obj
 0001:00000560       ??__EPcxPngExists@Era@@YAXXZ 10001560 f   era.obj
 0001:00000580       ??__EPersistErmCmd@Era@@YAXXZ 10001580 f   era.obj
 0001:000005a0       ??__EPluginExists@Era@@YAXXZ 100015a0 f   era.obj
 0001:000005c0       ??__EReadSavegameSection@Era@@YAXXZ 100015c0 f   era.obj
 0001:000005e0       ??__EReadStrFromIni@Era@@YAXXZ 100015e0 f   era.obj
 0001:00000600       ??__ERedirectFile@Era@@YAXXZ 10001600 f   era.obj
 0001:00000620       ??__ERedirectMemoryBlock@Era@@YAXXZ 10001620 f   era.obj
 0001:00000640       ??__ERegisterHandler@Era@@YAXXZ 10001640 f   era.obj
 0001:00000660       ??__EReloadErm@Era@@YAXXZ  10001660 f   era.obj
 0001:00000680       ??__EReloadLanguageData@Era@@YAXXZ 10001680 f   era.obj
 0001:000006a0       ??__EReportPluginVersion@Era@@YAXXZ 100016a0 f   era.obj
 0001:000006c0       ??__ERollbackAppliedPatch@Era@@YAXXZ 100016c0 f   era.obj
 0001:000006e0       ??__ESaveIni@Era@@YAXXZ    100016e0 f   era.obj
 0001:00000700       ??__ESetAssocVarIntValue@Era@@YAXXZ 10001700 f   era.obj
 0001:00000720       ??__ESetAssocVarStrValue@Era@@YAXXZ 10001720 f   era.obj
 0001:00000740       ??__ESetEraRegistryIntValue@Era@@YAXXZ 10001740 f   era.obj
 0001:00000760       ??__ESetEraRegistryStrValue@Era@@YAXXZ 10001760 f   era.obj
 0001:00000780       ??__ESetIsCommanderIdFunc@Era@@YAXXZ 10001780 f   era.obj
 0001:000007a0       ??__ESetIsElixirOfLifeStackFunc@Era@@YAXXZ 100017a0 f   era.obj
 0001:000007c0       ??__ESetLanguage@Era@@YAXXZ 100017c0 f   era.obj
 0001:000007e0       ??__ESetRegenerationAbility@Era@@YAXXZ 100017e0 f   era.obj
 0001:00000800       ??__ESetStdRegenerationEffect@Era@@YAXXZ 10001800 f   era.obj
 0001:00000820       ??__EShowErmError@Era@@YAXXZ 10001820 f   era.obj
 0001:00000840       ??__EShowMessage@Era@@YAXXZ 10001840 f   era.obj
 0001:00000860       ??__ESplice@Era@@YAXXZ     10001860 f   era.obj
 0001:00000880       ??__ESplitMix32@Era@@YAXXZ 10001880 f   era.obj
 0001:000008a0       ??__EToStaticStr@Era@@YAXXZ 100018a0 f   era.obj
 0001:000008c0       ??__EtrStatic@Era@@YAXXZ   100018c0 f   era.obj
 0001:000008e0       ??__EtrTemp@Era@@YAXXZ     100018e0 f   era.obj
 0001:00000900       ??__EWriteAtCode@Era@@YAXXZ 10001900 f   era.obj
 0001:00000920       ??__EWriteSavegameSection@Era@@YAXXZ 10001920 f   era.obj
 0001:00000940       ??__EWriteStrToIni@Era@@YAXXZ 10001940 f   era.obj
 0001:00000960       ??__EGetEraVersion@Era@@YAXXZ 10001960 f   era.obj
 0001:00000980       ??__E_tr@Era@@YAXXZ        10001980 f   era.obj
 0001:000009a0       ??__E?extenders@ObjectsExtender@extender@@0V?$set@PAVObjectsExtender@extender@@U?$less@PAVObjectsExtender@extender@@@std@@V?$allocator@PAVObjectsExtender@extender@@@4@@std@@A@@YAXXZ 100019a0 f   ObjectsExtender.obj
 0001:000009d0       ??__E?additionalProperties@ObjectsExtender@extender@@1V?$vector@V?$basic_string@DU?$char_traits@D@std@@V?$allocator@D@2@@std@@V?$allocator@V?$basic_string@DU?$char_traits@D@std@@V?$allocator@D@2@@std@@@2@@std@@A@@YAXXZ 100019d0 f   ObjectsExtender.obj
 0001:000009e0       ??__E?additionalRmgObjects@ObjectsExtender@extender@@1V?$vector@URMGObjectInfo@@V?$allocator@URMGObjectInfo@@@std@@@std@@A@@YAXXZ 100019e0 f   ObjectsExtender.obj
 0001:000009f0       ??__E?m_banks@RMG_SettingsDlg@rmgdlg@@0V?$vector@U?$pair@UH3ObjectAttributes@h3@@PAUH3LoadedPcx16@2@@std@@V?$allocator@U?$pair@UH3ObjectAttributes@h3@@PAUH3LoadedPcx16@2@@std@@@2@@std@@A@@YAXXZ 100019f0 f   RMG_SettingsDlg.obj
 0001:00000a00       ??__E?m_commonObjects@RMG_SettingsDlg@rmgdlg@@0V?$vector@U?$pair@UH3ObjectAttributes@h3@@PAUH3LoadedPcx16@2@@std@@V?$allocator@U?$pair@UH3ObjectAttributes@h3@@PAUH3LoadedPcx16@2@@std@@@2@@std@@A@@YAXXZ 10001a00 f   RMG_SettingsDlg.obj
 0001:00000a10       ??__E?m_dwellings@RMG_SettingsDlg@rmgdlg@@0V?$vector@U?$pair@UH3ObjectAttributes@h3@@PAUH3LoadedPcx16@2@@std@@V?$allocator@U?$pair@UH3ObjectAttributes@h3@@PAUH3LoadedPcx16@2@@std@@@2@@std@@A@@YAXXZ 10001a10 f   RMG_SettingsDlg.obj
 0001:00000a20       ??__E?m_wogObjects@RMG_SettingsDlg@rmgdlg@@0V?$vector@U?$pair@UH3ObjectAttributes@h3@@PAUH3LoadedPcx16@2@@std@@V?$allocator@U?$pair@UH3ObjectAttributes@h3@@PAUH3LoadedPcx16@2@@std@@@2@@std@@A@@YAXXZ 10001a20 f   RMG_SettingsDlg.obj
 0001:00000a30       ??__E?m_objectAttributes@RMG_SettingsDlg@rmgdlg@@0V?$vector@PAV?$vector@U?$pair@UH3ObjectAttributes@h3@@PAUH3LoadedPcx16@2@@std@@V?$allocator@U?$pair@UH3ObjectAttributes@h3@@PAUH3LoadedPcx16@2@@std@@@2@@std@@V?$allocator@PAV?$vector@U?$pair@UH3ObjectAttributes@h3@@PAUH3LoadedPcx16@2@@std@@V?$allocator@U?$pair@UH3ObjectAttributes@h3@@PAUH3LoadedPcx16@2@@std@@@2@@std@@@2@@std@@B@@YAXXZ 10001a30 f   RMG_SettingsDlg.obj
 0001:0000163a       __catch$??$_Reallocate@$00@?$vector@UH3CreatureBankSetup@h3@@V?$allocator@UH3CreatureBankSetup@h3@@@std@@@std@@AAEXAAI@Z$0 1000263a f i CreatureBanksExtender.obj
 0001:0000163a       __catch$??$_Reallocate@$0A@@?$vector@UH3CreatureBankSetup@h3@@V?$allocator@UH3CreatureBankSetup@h3@@@std@@@std@@AAEXAAI@Z$0 1000263a f i CreatureBanksExtender.obj
 0001:00001b22       __catch$??$_Emplace_reallocate@AAUH3CreatureBankSetup@h3@@@?$vector@UH3CreatureBankSetup@h3@@V?$allocator@UH3CreatureBankSetup@h3@@@std@@@std@@AAEPAUH3CreatureBankSetup@h3@@QAU23@AAU23@@Z$0 10002b22 f i CreatureBanksExtender.obj
 0001:00001ed7       __catch$??$_Resize_reallocate@U_Value_init_tag@std@@@?$vector@UH3CreatureBankSetup@h3@@V?$allocator@UH3CreatureBankSetup@h3@@@std@@@std@@AAEXIABU_Value_init_tag@1@@Z$0 10002ed7 f i CreatureBanksExtender.obj
 0001:00003051       __catch$??$_Emplace_reallocate@AAPBD@?$vector@V?$basic_string@DU?$char_traits@D@std@@V?$allocator@D@2@@std@@V?$allocator@V?$basic_string@DU?$char_traits@D@std@@V?$allocator@D@2@@std@@@2@@std@@AAEPAV?$basic_string@DU?$char_traits@D@std@@V?$allocator@D@2@@1@QAV21@AAPBD@Z$0 10004051 f i ObjectsExtender.obj
 0001:0000528c       $LN178                     1000628c     RMG_SettingsDlg.obj
 0001:000052a0       $LN177                     100062a0     RMG_SettingsDlg.obj
 0001:00005f50       ??$_Sort_unchecked@PAVRMGObject@rmgdlg@@V<lambda_1>@?1??SortRmgObjects@sorting@2@YAXAAV?$vector@VRMGObject@rmgdlg@@V?$allocator@VRMGObject@rmgdlg@@@std@@@std@@W4eSorting@52@_N@Z@@std@@YAXPAVRMGObject@rmgdlg@@0HV<lambda_1>@?1??SortRmgObjects@sorting@2@YAXAAV?$vector@VRMGObject@rmgdlg@@V?$allocator@VRMGObject@rmgdlg@@@std@@@0@W4eSorting@52@_N@Z@@Z 10006f50 f   RMG_SettingsDlg.obj
 0001:000061bb       __catch$??$_Emplace_reallocate@ABUH3ObjectAttributes@h3@@ABQAUH3LoadedPcx16@2@@?$vector@VRMGObject@rmgdlg@@V?$allocator@VRMGObject@rmgdlg@@@std@@@std@@AAEPAVRMGObject@rmgdlg@@QAV23@ABUH3ObjectAttributes@h3@@ABQAUH3LoadedPcx16@5@@Z$0 100071bb f i RMG_SettingsDlg.obj
 0001:000066a2       __catch$??$_Emplace_reallocate@AAU?$pair@UH3ObjectAttributes@h3@@PAUH3LoadedPcx16@2@@std@@@?$vector@U?$pair@UH3ObjectAttributes@h3@@PAUH3LoadedPcx16@2@@std@@V?$allocator@U?$pair@UH3ObjectAttributes@h3@@PAUH3LoadedPcx16@2@@std@@@2@@std@@AAEPAU?$pair@UH3ObjectAttributes@h3@@PAUH3LoadedPcx16@2@@1@QAU21@AAU21@@Z$0 100076a2 f i RMG_SettingsDlg.obj
 0001:00006900       ??$_Insertion_sort_unchecked@PAVRMGObject@rmgdlg@@V<lambda_1>@?1??SortRmgObjects@sorting@2@YAXAAV?$vector@VRMGObject@rmgdlg@@V?$allocator@VRMGObject@rmgdlg@@@std@@@std@@W4eSorting@52@_N@Z@@std@@YAPAVRMGObject@rmgdlg@@QAV12@0V<lambda_1>@?1??SortRmgObjects@sorting@2@YAXAAV?$vector@VRMGObject@rmgdlg@@V?$allocator@VRMGObject@rmgdlg@@@std@@@0@W4eSorting@52@_N@Z@@Z 10007900 f   RMG_SettingsDlg.obj
 0001:00006e78       $LN415                     10007e78     RMG_SettingsDlg.obj
 0001:00006e94       $LN416                     10007e94     RMG_SettingsDlg.obj
 0001:00006eb0       ??$_Make_heap_unchecked@PAVRMGObject@rmgdlg@@V<lambda_1>@?1??SortRmgObjects@sorting@2@YAXAAV?$vector@VRMGObject@rmgdlg@@V?$allocator@VRMGObject@rmgdlg@@@std@@@std@@W4eSorting@52@_N@Z@@std@@YAXPAVRMGObject@rmgdlg@@0V<lambda_1>@?1??SortRmgObjects@sorting@2@YAXAAV?$vector@VRMGObject@rmgdlg@@V?$allocator@VRMGObject@rmgdlg@@@std@@@0@W4eSorting@52@_N@Z@@Z 10007eb0 f   RMG_SettingsDlg.obj
 0001:00007228       $LN215                     10008228     RMG_SettingsDlg.obj
 0001:00007250       ??$_Partition_by_median_guess_unchecked@PAVRMGObject@rmgdlg@@V<lambda_1>@?1??SortRmgObjects@sorting@2@YAXAAV?$vector@VRMGObject@rmgdlg@@V?$allocator@VRMGObject@rmgdlg@@@std@@@std@@W4eSorting@52@_N@Z@@std@@YA?AU?$pair@PAVRMGObject@rmgdlg@@PAV12@@0@PAVRMGObject@rmgdlg@@0V<lambda_1>@?1??SortRmgObjects@sorting@3@YAXAAV?$vector@VRMGObject@rmgdlg@@V?$allocator@VRMGObject@rmgdlg@@@std@@@0@W4eSorting@63@_N@Z@@Z 10008250 f   RMG_SettingsDlg.obj
 0001:0000865c       $LN1648                    1000965c     RMG_SettingsDlg.obj
 0001:00008678       $LN1649                    10009678     RMG_SettingsDlg.obj
 0001:00008694       $LN1650                    10009694     RMG_SettingsDlg.obj
 0001:000086b0       $LN1651                    100096b0     RMG_SettingsDlg.obj
 0001:000086cc       $LN1652                    100096cc     RMG_SettingsDlg.obj
 0001:000086e8       $LN1653                    100096e8     RMG_SettingsDlg.obj
 0001:00008704       $LN1654                    10009704     RMG_SettingsDlg.obj
 0001:00008720       $LN1655                    10009720     RMG_SettingsDlg.obj
 0001:00008840       ??$_Pop_heap_hole_by_index@PAVRMGObject@rmgdlg@@V12@V<lambda_1>@?1??SortRmgObjects@sorting@2@YAXAAV?$vector@VRMGObject@rmgdlg@@V?$allocator@VRMGObject@rmgdlg@@@std@@@std@@W4eSorting@52@_N@Z@@std@@YAXPAVRMGObject@rmgdlg@@HH$$QAV12@V<lambda_1>@?1??SortRmgObjects@sorting@2@YAXAAV?$vector@VRMGObject@rmgdlg@@V?$allocator@VRMGObject@rmgdlg@@@std@@@0@W4eSorting@52@_N@Z@@Z 10009840 f   RMG_SettingsDlg.obj
 0001:00008b34       $LN206                     10009b34     RMG_SettingsDlg.obj
 0001:00008b50       ??$_Push_heap_by_index@PAVRMGObject@rmgdlg@@V12@V<lambda_1>@?1??SortRmgObjects@sorting@2@YAXAAV?$vector@VRMGObject@rmgdlg@@V?$allocator@VRMGObject@rmgdlg@@@std@@@std@@W4eSorting@52@_N@Z@@std@@YAXPAVRMGObject@rmgdlg@@HH$$QAV12@V<lambda_1>@?1??SortRmgObjects@sorting@2@YAXAAV?$vector@VRMGObject@rmgdlg@@V?$allocator@VRMGObject@rmgdlg@@@std@@@0@W4eSorting@52@_N@Z@@Z 10009b50 f   RMG_SettingsDlg.obj
 0001:00008e34       $LN205                     10009e34     RMG_SettingsDlg.obj
 0001:00008e50       ??$_Med3_unchecked@PAVRMGObject@rmgdlg@@V<lambda_1>@?1??SortRmgObjects@sorting@2@YAXAAV?$vector@VRMGObject@rmgdlg@@V?$allocator@VRMGObject@rmgdlg@@@std@@@std@@W4eSorting@52@_N@Z@@std@@YAXPAVRMGObject@rmgdlg@@00V<lambda_1>@?1??SortRmgObjects@sorting@2@YAXAAV?$vector@VRMGObject@rmgdlg@@V?$allocator@VRMGObject@rmgdlg@@@std@@@0@W4eSorting@52@_N@Z@@Z 10009e50 f   RMG_SettingsDlg.obj
 0001:000096b0       ??$__std_find_trivial_impl@U_Find_traits_4@?A0x8417fefe@@I@?A0x8417fefe@@YGPBXPBX0I@Z 1000a6b0 f   libcpmt:vector_algorithms.obj
 0001:000097fe       _mtx_do_lock               1000a7fe f   libcpmt:mutex.obj
 0001:000099a3       ?initialize_pointers@@YAHXZ 1000a9a3 f   libcpmt:winapisupp.obj
 0001:00009b7b       ?find_pe_section@@YAPAU_IMAGE_SECTION_HEADER@@QAEI@Z 1000ab7b f   LIBCMT:utility.obj
 0001:0000a01d       ?dllmain_crt_dispatch@@YGHQAUHINSTANCE__@@KQAX@Z 1000b01d f   LIBCMT:dll_dllmain.obj
 0001:0000a070       ?dllmain_crt_process_attach@@YAHQAUHINSTANCE__@@QAX@Z 1000b070 f   LIBCMT:dll_dllmain.obj
 0001:0000a177       ?dllmain_crt_process_detach@@YAH_N@Z 1000b177 f   LIBCMT:dll_dllmain.obj
 0001:0000a225       ?dllmain_dispatch@@YAHQAUHINSTANCE__@@KQAX@Z 1000b225 f   LIBCMT:dll_dllmain.obj
 0001:0000a330       ?dllmain_raw@@YGHQAUHINSTANCE__@@KQAX@Z 1000b330 f   LIBCMT:dll_dllmain.obj
 0001:0000a750       $$000000                   1000b750     LIBCMT:ulldiv.obj
 0001:0000a772       L1                         1000b772     LIBCMT:ulldiv.obj
 0001:0000a780       L3                         1000b780     LIBCMT:ulldiv.obj
 0001:0000a7ae       L4                         1000b7ae     LIBCMT:ulldiv.obj
 0001:0000a7af       L5                         1000b7af     LIBCMT:ulldiv.obj
 0001:0000a7b3       L2                         1000b7b3     LIBCMT:ulldiv.obj
 0001:0000a7c0       $$000000                   1000b7c0     LIBCMT:ullrem.obj
 0001:0000a7e1       L1                         1000b7e1     LIBCMT:ullrem.obj
 0001:0000a7ef       L3                         1000b7ef     LIBCMT:ullrem.obj
 0001:0000a81a       L4                         1000b81a     LIBCMT:ullrem.obj
 0001:0000a822       L5                         1000b822     LIBCMT:ullrem.obj
 0001:0000a831       L2                         1000b831     LIBCMT:ullrem.obj
 0001:0000a990       $$000000                   1000b990     LIBCMT:sehprolg4.obj
 0001:0000a9d5       ___get_entropy             1000b9d5 f   LIBCMT:gs_support.obj
 0001:0000b089       ?_FilterSetCurrentException@@YAKPAU_EXCEPTION_POINTERS@@E@Z 1000c089 f   libvcruntime:ehhelpers.obj
 0001:0000b2b0       $$000000                   1000c2b0     libvcruntime:memcpy.obj
 0001:0000b2b0       $$000000                   1000c2b0     libvcruntime:memmove.obj
 0001:0000b2d0       CopyUp                     1000c2d0     libvcruntime:memcpy.obj
 0001:0000b2d0       CopyUp                     1000c2d0     libvcruntime:memmove.obj
 0001:0000b2f4       CopyUpLargeMov             1000c2f4     libvcruntime:memcpy.obj
 0001:0000b2f4       CopyUpLargeMov             1000c2f4     libvcruntime:memmove.obj
 0001:0000b307       CopyUpSSE2Check            1000c307     libvcruntime:memcpy.obj
 0001:0000b307       CopyUpSSE2Check            1000c307     libvcruntime:memmove.obj
 0001:0000b320       AtomChk                    1000c320     libvcruntime:memcpy.obj
 0001:0000b320       AtomChk                    1000c320     libvcruntime:memmove.obj
 0001:0000b346       PalignHead4                1000c346     libvcruntime:memcpy.obj
 0001:0000b346       PalignHead4                1000c346     libvcruntime:memmove.obj
 0001:0000b359       PalignHead8                1000c359     libvcruntime:memcpy.obj
 0001:0000b359       PalignHead8                1000c359     libvcruntime:memmove.obj
 0001:0000b370       PalignLoop                 1000c370     libvcruntime:memcpy.obj
 0001:0000b370       PalignLoop                 1000c370     libvcruntime:memmove.obj
 0001:0000b382       MovPalign12                1000c382     libvcruntime:memcpy.obj
 0001:0000b382       MovPalign12                1000c382     libvcruntime:memmove.obj
 0001:0000b38c       PalignLoop12               1000c38c     libvcruntime:memcpy.obj
 0001:0000b38c       PalignLoop12               1000c38c     libvcruntime:memmove.obj
 0001:0000b3dd       MovPalign8                 1000c3dd     libvcruntime:memcpy.obj
 0001:0000b3dd       MovPalign8                 1000c3dd     libvcruntime:memmove.obj
 0001:0000b3e8       PalignLoop8                1000c3e8     libvcruntime:memcpy.obj
 0001:0000b3e8       PalignLoop8                1000c3e8     libvcruntime:memmove.obj
 0001:0000b436       MovPalign4                 1000c436     libvcruntime:memcpy.obj
 0001:0000b436       MovPalign4                 1000c436     libvcruntime:memmove.obj
 0001:0000b440       PalignLoop4                1000c440     libvcruntime:memcpy.obj
 0001:0000b440       PalignLoop4                1000c440     libvcruntime:memmove.obj
 0001:0000b48c       PalignTail                 1000c48c     libvcruntime:memcpy.obj
 0001:0000b48c       PalignTail                 1000c48c     libvcruntime:memmove.obj
 0001:0000b4a4       PalignTail4                1000c4a4     libvcruntime:memcpy.obj
 0001:0000b4a4       PalignTail4                1000c4a4     libvcruntime:memmove.obj
 0001:0000b4b7       PalignTail8                1000c4b7     libvcruntime:memcpy.obj
 0001:0000b4b7       PalignTail8                1000c4b7     libvcruntime:memmove.obj
 0001:0000b4ce       PalignTailLE3              1000c4ce     libvcruntime:memcpy.obj
 0001:0000b4ce       PalignTailLE3              1000c4ce     libvcruntime:memmove.obj
 0001:0000b4d7       Dword_align                1000c4d7     libvcruntime:memcpy.obj
 0001:0000b4d7       Dword_align                1000c4d7     libvcruntime:memmove.obj
 0001:0000b4df       Dword_up_align_loop        1000c4df     libvcruntime:memcpy.obj
 0001:0000b4df       Dword_up_align_loop        1000c4df     libvcruntime:memmove.obj
 0001:0000b4f2       Dword_align_Ok             1000c4f2     libvcruntime:memcpy.obj
 0001:0000b4f2       Dword_align_Ok             1000c4f2     libvcruntime:memmove.obj
 0001:0000b50c       ByteCopyUp                 1000c50c     libvcruntime:memcpy.obj
 0001:0000b50c       ByteCopyUp                 1000c50c     libvcruntime:memmove.obj
 0001:0000b514       TrailingUpVec              1000c514     libvcruntime:memcpy.obj
 0001:0000b514       TrailingUpVec              1000c514     libvcruntime:memmove.obj
 0001:0000b524       TrailingUp0                1000c524     libvcruntime:memcpy.obj
 0001:0000b524       TrailingUp0                1000c524     libvcruntime:memmove.obj
 0001:0000b52c       TrailingUp1                1000c52c     libvcruntime:memcpy.obj
 0001:0000b52c       TrailingUp1                1000c52c     libvcruntime:memmove.obj
 0001:0000b538       TrailingUp2                1000c538     libvcruntime:memcpy.obj
 0001:0000b538       TrailingUp2                1000c538     libvcruntime:memmove.obj
 0001:0000b54c       TrailingUp3                1000c54c     libvcruntime:memcpy.obj
 0001:0000b54c       TrailingUp3                1000c54c     libvcruntime:memmove.obj
 0001:0000b564       CopyDown                   1000c564     libvcruntime:memcpy.obj
 0001:0000b564       CopyDown                   1000c564     libvcruntime:memmove.obj
 0001:0000b589       CopyDownNotAligned         1000c589     libvcruntime:memcpy.obj
 0001:0000b589       CopyDownNotAligned         1000c589     libvcruntime:memmove.obj
 0001:0000b590       CopyDownAlignLoop          1000c590     libvcruntime:memcpy.obj
 0001:0000b590       CopyDownAlignLoop          1000c590     libvcruntime:memmove.obj
 0001:0000b59d       CopyDownAligned            1000c59d     libvcruntime:memcpy.obj
 0001:0000b59d       CopyDownAligned            1000c59d     libvcruntime:memmove.obj
 0001:0000b5c0       TrailingDownVec            1000c5c0     libvcruntime:memcpy.obj
 0001:0000b5c0       TrailingDownVec            1000c5c0     libvcruntime:memmove.obj
 0001:0000b5d0       TrailingDown0              1000c5d0     libvcruntime:memcpy.obj
 0001:0000b5d0       TrailingDown0              1000c5d0     libvcruntime:memmove.obj
 0001:0000b5d8       TrailingDown1              1000c5d8     libvcruntime:memcpy.obj
 0001:0000b5d8       TrailingDown1              1000c5d8     libvcruntime:memmove.obj
 0001:0000b5e8       TrailingDown2              1000c5e8     libvcruntime:memcpy.obj
 0001:0000b5e8       TrailingDown2              1000c5e8     libvcruntime:memmove.obj
 0001:0000b5fc       TrailingDown3              1000c5fc     libvcruntime:memcpy.obj
 0001:0000b5fc       TrailingDown3              1000c5fc     libvcruntime:memmove.obj
 0001:0000b615       XmmMovLargeAlignTest       1000c615     libvcruntime:memcpy.obj
 0001:0000b615       XmmMovLargeAlignTest       1000c615     libvcruntime:memmove.obj
 0001:0000b61d       XmmMovAlignLoop            1000c61d     libvcruntime:memcpy.obj
 0001:0000b61d       XmmMovAlignLoop            1000c61d     libvcruntime:memmove.obj
 0001:0000b62c       XmmMovLargeLoop            1000c62c     libvcruntime:memcpy.obj
 0001:0000b62c       XmmMovLargeLoop            1000c62c     libvcruntime:memmove.obj
 0001:0000b69c       XmmMovSmallTest            1000c69c     libvcruntime:memcpy.obj
 0001:0000b69c       XmmMovSmallTest            1000c69c     libvcruntime:memmove.obj
 0001:0000b6a1       XmmMovSmallLoop            1000c6a1     libvcruntime:memcpy.obj
 0001:0000b6a1       XmmMovSmallLoop            1000c6a1     libvcruntime:memmove.obj
 0001:0000b6c4       CopyDownSmall              1000c6c4     libvcruntime:memcpy.obj
 0001:0000b6c4       CopyDownSmall              1000c6c4     libvcruntime:memmove.obj
 0001:0000b6cc       CopyDownDwordLoop          1000c6cc     libvcruntime:memcpy.obj
 0001:0000b6cc       CopyDownDwordLoop          1000c6cc     libvcruntime:memmove.obj
 0001:0000b6e1       CopyDownByteTest           1000c6e1     libvcruntime:memcpy.obj
 0001:0000b6e1       CopyDownByteTest           1000c6e1     libvcruntime:memmove.obj
 0001:0000b6e5       CopyDownByteLoop           1000c6e5     libvcruntime:memcpy.obj
 0001:0000b6e5       CopyDownByteLoop           1000c6e5     libvcruntime:memmove.obj
 0001:0000b6f4       CopyDownReturn             1000c6f4     libvcruntime:memcpy.obj
 0001:0000b6f4       CopyDownReturn             1000c6f4     libvcruntime:memmove.obj
 0001:0000b700       XmmCopy                    1000c700     libvcruntime:memcpy.obj
 0001:0000b700       XmmCopy                    1000c700     libvcruntime:memmove.obj
 0001:0000b70d       XmmCopyAligned             1000c70d     libvcruntime:memcpy.obj
 0001:0000b70d       XmmCopyAligned             1000c70d     libvcruntime:memmove.obj
 0001:0000b720       XmmCopyLargeLoop           1000c720     libvcruntime:memcpy.obj
 0001:0000b720       XmmCopyLargeLoop           1000c720     libvcruntime:memmove.obj
 0001:0000b77d       XmmCopySmallTest           1000c77d     libvcruntime:memcpy.obj
 0001:0000b77d       XmmCopySmallTest           1000c77d     libvcruntime:memmove.obj
 0001:0000b790       XmmCopySmallLoop           1000c790     libvcruntime:memcpy.obj
 0001:0000b790       XmmCopySmallLoop           1000c790     libvcruntime:memmove.obj
 0001:0000b7ab       CopyUpDwordMov             1000c7ab     libvcruntime:memcpy.obj
 0001:0000b7ab       CopyUpDwordMov             1000c7ab     libvcruntime:memmove.obj
 0001:0000b7b0       CopyUpDwordTest            1000c7b0     libvcruntime:memcpy.obj
 0001:0000b7b0       CopyUpDwordTest            1000c7b0     libvcruntime:memmove.obj
 0001:0000b7b7       CopyUpDwordLoop            1000c7b7     libvcruntime:memcpy.obj
 0001:0000b7b7       CopyUpDwordLoop            1000c7b7     libvcruntime:memmove.obj
 0001:0000b7c6       CopyUpByteTest             1000c7c6     libvcruntime:memcpy.obj
 0001:0000b7c6       CopyUpByteTest             1000c7c6     libvcruntime:memmove.obj
 0001:0000b7cd       CopyUpByteLoop             1000c7cd     libvcruntime:memcpy.obj
 0001:0000b7cd       CopyUpByteLoop             1000c7cd     libvcruntime:memmove.obj
 0001:0000b7e0       CopyUpReturn               1000c7e0     libvcruntime:memcpy.obj
 0001:0000b7e0       CopyUpReturn               1000c7e0     libvcruntime:memmove.obj
 0001:0000b7f0       XmmCopyUnaligned           1000c7f0     libvcruntime:memcpy.obj
 0001:0000b7f0       XmmCopyUnaligned           1000c7f0     libvcruntime:memmove.obj
 0001:0000b803       XmmAlignByte               1000c803     libvcruntime:memcpy.obj
 0001:0000b803       XmmAlignByte               1000c803     libvcruntime:memmove.obj
 0001:0000b80c       XmmAlignDwordTest          1000c80c     libvcruntime:memcpy.obj
 0001:0000b80c       XmmAlignDwordTest          1000c80c     libvcruntime:memmove.obj
 0001:0000b811       XmmAlignDwordLoop          1000c811     libvcruntime:memcpy.obj
 0001:0000b811       XmmAlignDwordLoop          1000c811     libvcruntime:memmove.obj
 0001:0000b81e       XmmAlignAdjustCnt          1000c81e     libvcruntime:memcpy.obj
 0001:0000b81e       XmmAlignAdjustCnt          1000c81e     libvcruntime:memmove.obj
 0001:0000b890       _ValidateLocalCookies      1000c890 f   libvcruntime:chandler4.obj
 0001:0000ba30       $$000000                   1000ca30     libvcruntime:memset.obj
 0001:0000ba75       XMMMov                     1000ca75     libvcruntime:memset.obj
 0001:0000bab0       LargeRangeBytes            1000cab0     libvcruntime:memset.obj
 0001:0000baed       XmmMovSmall                1000caed     libvcruntime:memset.obj
 0001:0000bb00       XmmSmallLoop               1000cb00     libvcruntime:memset.obj
 0001:0000bb05       MidRangeBytes              1000cb05     libvcruntime:memset.obj
 0001:0000bb21       XMMTrailingBytes           1000cb21     libvcruntime:memset.obj
 0001:0000bb35       SmallMov                   1000cb35     libvcruntime:memset.obj
 0001:0000bb3d       ByteLoop                   1000cb3d     libvcruntime:memset.obj
 0001:0000bb4b       DwordTest                  1000cb4b     libvcruntime:memset.obj
 0001:0000bb5b       QwordTest                  1000cb5b     libvcruntime:memset.obj
 0001:0000bb70       QwordLoop                  1000cb70     libvcruntime:memset.obj
 0001:0000bb83       toend                      1000cb83     libvcruntime:memset.obj
 0001:0000bd1e       ??$BuildCatchObjectHelperInternal@V__FrameHandler3@@@@YAHPAUEHExceptionRecord@@PAXPBU_s_HandlerType@@PBU_s_CatchableType@@@Z 1000cd1e f   libvcruntime:frame.obj
 0001:0000be5c       ??$BuildCatchObjectInternal@V__FrameHandler3@@@@YAXPAUEHExceptionRecord@@PAXPBU_s_HandlerType@@PBU_s_CatchableType@@@Z 1000ce5c f   libvcruntime:frame.obj
 0001:0000bef5       ??$CatchIt@V__FrameHandler3@@@@YAXPAUEHExceptionRecord@@PAUEHRegistrationNode@@PAU_CONTEXT@@PAXPBU_s_FuncInfo@@PBU_s_HandlerType@@PBU_s_CatchableType@@PBU_s_TryBlockMapEntry@@H1EE@Z 1000cef5 f   libvcruntime:frame.obj
 0001:0000bf76       ??$FindHandler@V__FrameHandler3@@@@YAXPAUEHExceptionRecord@@PAUEHRegistrationNode@@PAU_CONTEXT@@PAXPBU_s_FuncInfo@@EH1@Z 1000cf76 f   libvcruntime:frame.obj
 0001:0000c319       ??$FindHandlerForForeignException@V__FrameHandler3@@@@YAXPAUEHExceptionRecord@@PAUEHRegistrationNode@@PAU_CONTEXT@@PAXPBU_s_FuncInfo@@HH1@Z 1000d319 f   libvcruntime:frame.obj
 0001:0000c63a       ?CallCatchBlock@@YAPAXPAUEHExceptionRecord@@PAUEHRegistrationNode@@PAU_CONTEXT@@PBU_s_FuncInfo@@PAXHK@Z 1000d63a f   libvcruntime:frame.obj
 0001:0000c809       ?CallUnexpected@@YAXPBU_s_ESTypeList@@@Z 1000d809 f   libvcruntime:frame.obj
 0001:0000c829       __catch$?CallUnexpected@@YAXPBU_s_ESTypeList@@@Z$0 1000d829 f   libvcruntime:frame.obj
 0001:0000c848       ?ExFilterRethrow@@YAHPAU_EXCEPTION_POINTERS@@@Z 1000d848 f   libvcruntime:frame.obj
 0001:0000c992       ?IsInExceptionSpec@@YAEPAUEHExceptionRecord@@PBU_s_ESTypeList@@@Z 1000d992 f   libvcruntime:frame.obj
 0001:0000ca60       $$000000                   1000da60     libvcruntime:lowhelpr.obj
 0001:0000ca9f       _NLG_Continue              1000da9f     libvcruntime:lowhelpr.obj
 0001:0000cb50       $$000000                   1000db50     libvcruntime:exsup4.obj
 0001:0000cb82       _lu_top                    1000db82     libvcruntime:exsup4.obj
 0001:0000cbe1       _lu_done                   1000dbe1     libvcruntime:exsup4.obj
 0001:0000cbf0       $$000000                   1000dbf0     libvcruntime:exsup4.obj
 0001:0000cbf0       __unwind_handler4          1000dbf0 f   libvcruntime:exsup4.obj
 0001:0000cc40       $$000000                   1000dc40     libvcruntime:exsup4.obj
 0001:0000cc60       $$000000                   1000dc60     libvcruntime:exsup4.obj
 0001:0000cc80       $$000000                   1000dc80     libvcruntime:exsup4.obj
 0001:0000cc95       ReturnPoint                1000dc95     libvcruntime:exsup4.obj
 0001:0000cca0       $$000000                   1000dca0     libvcruntime:exsup4.obj
 0001:0000ccb7       ?try_get_function@@YAPAXW4function_id@?A0x14174aea@@QBDQBW4module_id@2@2@Z 1000dcb7 f   libvcruntime:winapi_downlevel.obj
 0001:0000cd57       ?try_load_library_from_system_directory@@YAPAUHINSTANCE__@@QB_W@Z 1000dd57 f   libvcruntime:winapi_downlevel.obj
 0001:0000cf20       $$000000                   1000df20     libvcruntime:exsup.obj
 0001:0000cf30       $$000000                   1000df30     libvcruntime:exsup.obj
 0001:0000cf3b       __NLG_Go                   1000df3b     libvcruntime:exsup.obj
 0001:0000cf50       $$000000                   1000df50     libvcruntime:exsup.obj
 0001:0000cf53       ??$common_vsprintf@Vformat_validation_base@__crt_stdio_output@@D@@YAH_KQADIQBDQAU__crt_locale_pointers@@1@Z 1000df53 f   libucrt:output.obj
 0001:0000d0d1       ??$common_vsprintf@Vstandard_base@__crt_stdio_output@@D@@YAH_KQADIQBDQAU__crt_locale_pointers@@1@Z 1000e0d1 f   libucrt:output.obj
 0001:0000d24f       ??$common_vsprintf_s@D@@YAH_KQADIQBDQAU__crt_locale_pointers@@1@Z 1000e24f f   libucrt:output.obj
 0001:0000d8ed       $LN48                      1000e8ed     libucrt:output.obj
 0001:0000da01       $LN50                      1000ea01     libucrt:output.obj
 0001:0000df1c       $LN18                      1000ef1c     libucrt:output.obj
 0001:0000df30       $LN17                      1000ef30     libucrt:output.obj
 0001:0000eadd       ??$thread_start@P6GIPAX@Z$00@@YGKQAX@Z 1000fadd f   libucrt:thread.obj
 0001:0000eb5b       ??1?$__crt_unique_heap_ptr@U__acrt_thread_parameter@@Uthread_parameter_free_policy@?A0x4e93fcdd@@@@QAE@XZ 1000fb5b f   libucrt:thread.obj
 0001:0000eb92       ?common_end_thread@@YAXI@Z 1000fb92 f   libucrt:thread.obj
 0001:0000ebe9       ?create_thread_parameter@@YAPAU__acrt_thread_parameter@@QAX0@Z 1000fbe9 f   libucrt:thread.obj
 0001:0000f0e8       ??$?RV<lambda_03b1d95aef87969028cfba75ccab2455>@@AAV<lambda_6e4b09c48022b2350581041d5f6b0c4c>@@V<lambda_22bdf7517842c4b3e53723af5aa32b9e>@@@?$__crt_seh_guarded_call@X@@QAEX$$QAV<lambda_03b1d95aef87969028cfba75ccab2455>@@AAV<lambda_6e4b09c48022b2350581041d5f6b0c4c>@@$$QAV<lambda_22bdf7517842c4b3e53723af5aa32b9e>@@@Z 100100e8 f   libucrt:exit.obj
 0001:0000f135       ??R<lambda_6e4b09c48022b2350581041d5f6b0c4c>@@QBE@XZ 10010135 f   libucrt:exit.obj
 0001:0000f20f       ?atexit_exception_filter@@YAHK@Z 1001020f f   libucrt:exit.obj
 0001:0000f222       ?common_exit@@YAXHW4_crt_exit_cleanup_mode@@W4_crt_exit_return_mode@@@Z 10010222 f   libucrt:exit.obj
 0001:0000f286       ?exit_or_terminate_process@@YAXI@Z 10010286 f   libucrt:exit.obj
 0001:0000f2c8       ?is_managed_app@@YA_NXZ    100102c8 f   libucrt:exit.obj
 0001:0000f30b       ?try_cor_exit_process@@YAXI@Z 1001030b f   libucrt:exit.obj
 0001:0000f399       ??$common_configure_argv@D@@YAHW4_crt_argv_mode@@@Z 10010399 f   libucrt:argv_parsing.obj
 0001:0000f4cf       ??$parse_command_line@D@@YAXPADPAPAD0PAI2@Z 100104cf f   libucrt:argv_parsing.obj
 0001:0000f69d       ??$common_initialize_environment_nolock@D@@YAHXZ 1001069d f   libucrt:environment_initialization.obj
 0001:0000f6f0       ??$create_environment@D@@YAQAPADQAD@Z 100106f0 f   libucrt:environment_initialization.obj
 0001:0000f7c0       ??$free_environment@D@@YAXQAPAD@Z 100107c0 f   libucrt:environment_initialization.obj
 0001:0000f7c0       ??$free_environment@_W@@YAXQAPA_W@Z 100107c0 f   libucrt:environment_initialization.obj
 0001:0000f818       ??$uninitialize_environment_internal@D@@YAXAAPAPAD@Z 10010818 f   libucrt:environment_initialization.obj
 0001:0000f833       ??$uninitialize_environment_internal@_W@@YAXAAPAPA_W@Z 10010833 f   libucrt:environment_initialization.obj
 0001:0000f88a       ??$?RV<lambda_69a2805e680e0e292e8ba93315fe43a8>@@AAV<lambda_f03950bc5685219e0bcd2087efbe011e>@@V<lambda_03fcd07e894ec930e3f35da366ca99d6>@@@?$__crt_seh_guarded_call@H@@QAEH$$QAV<lambda_69a2805e680e0e292e8ba93315fe43a8>@@AAV<lambda_f03950bc5685219e0bcd2087efbe011e>@@$$QAV<lambda_03fcd07e894ec930e3f35da366ca99d6>@@@Z 1001088a f   libucrt:onexit.obj
 0001:0000f8e5       ??$?RV<lambda_8e746cf0007f6ed984d6f78af1fec997>@@AAV<lambda_22ebabd17bc4fa466a2aca6d8deb888d>@@V<lambda_18ed0c0b38a6dc0daf1e7ac6d6adf05e>@@@?$__crt_seh_guarded_call@H@@QAEH$$QAV<lambda_8e746cf0007f6ed984d6f78af1fec997>@@AAV<lambda_22ebabd17bc4fa466a2aca6d8deb888d>@@$$QAV<lambda_18ed0c0b38a6dc0daf1e7ac6d6adf05e>@@@Z 100108e5 f   libucrt:onexit.obj
 0001:0000f95f       ??R<lambda_22ebabd17bc4fa466a2aca6d8deb888d>@@QBEHXZ 1001095f f   libucrt:onexit.obj
 0001:0000fa88       ??R<lambda_f03950bc5685219e0bcd2087efbe011e>@@QBEHXZ 10010a88 f   libucrt:onexit.obj
 0001:0000fc01       _initialize_global_variables 10010c01 f   libucrt:initialization.obj
 0001:0000fc0e       _initialize_c              10010c0e f   libucrt:initialization.obj
 0001:0000fc28       _initialize_environment    10010c28 f   libucrt:initialization.obj
 0001:0000fc28       _initialize_global_state_isolation 10010c28 f   libucrt:initialization.obj
 0001:0000fc28       _report_memory_leaks       10010c28 f   libucrt:initialization.obj
 0001:0000fc28       _uninitialize_c            10010c28 f   libucrt:initialization.obj
 0001:0000fc28       _uninitialize_global_state_isolation 10010c28 f   libucrt:initialization.obj
 0001:0000fc2b       _uninitialize_environment  10010c2b f   libucrt:initialization.obj
 0001:0000fc33       _initialize_pointers       10010c33 f   libucrt:initialization.obj
 0001:0000fc61       _uninitialize_vcruntime    10010c61 f   libucrt:initialization.obj
 0001:0000fc6a       _uninitialize_allocated_memory 10010c6a f   libucrt:initialization.obj
 0001:0000fc81       _uninitialize_allocated_io_buffers 10010c81 f   libucrt:initialization.obj
 0001:0000fcd1       ??R<lambda_af42a3ee9806e9a7305d451646e05244>@@QBEXAAPAU__crt_multibyte_data@@@Z 10010cd1 f   libucrt:initialization.obj
 0001:0000fe40       $$000000                   10010e40     libucrt:strncmp.obj
 0001:000105d4       ??$?RV<lambda_15ade71b0218206bbe3333a0c9b79046>@@AAV<lambda_da44e0f8b0f19ba52fefafb335991732>@@V<lambda_207f2d024fc103971653565357d6cd41>@@@?$__crt_seh_guarded_call@X@@QAEX$$QAV<lambda_15ade71b0218206bbe3333a0c9b79046>@@AAV<lambda_da44e0f8b0f19ba52fefafb335991732>@@$$QAV<lambda_207f2d024fc103971653565357d6cd41>@@@Z 100115d4 f   libucrt:per_thread_data.obj
 0001:00010626       ??$?RV<lambda_38edbb1296d33220d7e4dd0ed76b244a>@@AAV<lambda_5ce1d447e08cb34b2473517608e21441>@@V<lambda_fb385d3da700c9147fc39e65dd577a8c>@@@?$__crt_seh_guarded_call@X@@QAEX$$QAV<lambda_38edbb1296d33220d7e4dd0ed76b244a>@@AAV<lambda_5ce1d447e08cb34b2473517608e21441>@@$$QAV<lambda_fb385d3da700c9147fc39e65dd577a8c>@@@Z 10011626 f   libucrt:per_thread_data.obj
 0001:00010691       ??$?RV<lambda_6affb1475c98b40b75cdec977db92e3c>@@AAV<lambda_b8d4b9c228a6ecc3f80208dbb4b4a104>@@V<lambda_608742c3c92a14382c1684fc64f96c88>@@@?$__crt_seh_guarded_call@X@@QAEX$$QAV<lambda_6affb1475c98b40b75cdec977db92e3c>@@AAV<lambda_b8d4b9c228a6ecc3f80208dbb4b4a104>@@$$QAV<lambda_608742c3c92a14382c1684fc64f96c88>@@@Z 10011691 f   libucrt:per_thread_data.obj
 0001:000106e6       ??$?RV<lambda_a7e850c220f1c8d1e6efeecdedd162c6>@@AAV<lambda_46720907175c18b6c9d2717bc0d2d362>@@V<lambda_9048902d66e8d99359bc9897bbb930a8>@@@?$__crt_seh_guarded_call@X@@QAEX$$QAV<lambda_a7e850c220f1c8d1e6efeecdedd162c6>@@AAV<lambda_46720907175c18b6c9d2717bc0d2d362>@@$$QAV<lambda_9048902d66e8d99359bc9897bbb930a8>@@@Z 100116e6 f   libucrt:per_thread_data.obj
 0001:00010740       ?construct_ptd@@YAXQAU__acrt_ptd@@QAPAU__crt_locale_data@@@Z 10011740 f   libucrt:per_thread_data.obj
 0001:000107d9       ?destroy_fls@@YGXPAX@Z     100117d9 f   libucrt:per_thread_data.obj
 0001:000107fa       ?destroy_ptd@@YAXQAU__acrt_ptd@@@Z 100117fa f   libucrt:per_thread_data.obj
 0001:000108c7       ?replace_current_thread_locale_nolock@@YAXQAU__acrt_ptd@@QAU__crt_locale_data@@@Z 100118c7 f   libucrt:per_thread_data.obj
 0001:00010c4c       ?fe_to_nearest@@YA_NQBN_KF@Z 10011c4c f   libucrt:cvt.obj
 0001:00010cef       ?fp_format_a@@YAHQBNPADIQADIH_NIQAU__crt_locale_pointers@@W4__acrt_rounding_mode@@@Z 10011cef f   libucrt:cvt.obj
 0001:00010ffe       ?fp_format_e@@YAHQBNQADI1IH_NIQAU__crt_locale_pointers@@W4__acrt_rounding_mode@@@Z 10011ffe f   libucrt:cvt.obj
 0001:000110a6       ?fp_format_e_internal@@YAHQADIH_NIQAU_strflt@@1QAU__crt_locale_pointers@@@Z 100120a6 f   libucrt:cvt.obj
 0001:000111ee       ?fp_format_f@@YAHQBNQADI1IHQAU__crt_locale_pointers@@W4__acrt_rounding_mode@@@Z 100121ee f   libucrt:cvt.obj
 0001:0001127f       ?fp_format_f_internal@@YAHQADIHQAU_strflt@@_NQAU__crt_locale_pointers@@@Z 1001227f f   libucrt:cvt.obj
 0001:00011377       ?fp_format_g@@YAHQBNQADI1IH_NIW4__acrt_rounding_mode@@QAU__crt_locale_pointers@@@Z 10012377 f   libucrt:cvt.obj
 0001:00011441       ?fp_format_nan_or_infinity@@YAHW4__acrt_fp_class@@_NPADI1@Z 10012441 f   libucrt:cvt.obj
 0001:000114d6       ?shift_bytes@@YAXQADI0H@Z  100124d6 f   libucrt:cvt.obj
 0001:0001150a       ?should_round_up@@YA_NQBN_KFW4__acrt_rounding_mode@@@Z 1001250a f   libucrt:cvt.obj
 0001:00011735       ??$?RV<lambda_e5124f882df8998aaf41531e079ba474>@@AAV<lambda_3e16ef9562a7dcce91392c22ab16ea36>@@V<lambda_e25ca0880e6ef98be67edffd8c599615>@@@?$__crt_seh_guarded_call@X@@QAEX$$QAV<lambda_e5124f882df8998aaf41531e079ba474>@@AAV<lambda_3e16ef9562a7dcce91392c22ab16ea36>@@$$QAV<lambda_e25ca0880e6ef98be67edffd8c599615>@@@Z 10012735 f   libucrt:wsetlocale.obj
 0001:000117d5       ?initialize_inherited_file_handles_nolock@@YAXXZ 100127d5 f   libucrt:ioinit.obj
 0001:0001188b       ?initialize_stdio_handles_nolock@@YAXXZ 1001288b f   libucrt:ioinit.obj
 0001:00011b17       ?try_get_AreFileApisANSI@@YAP6GHXZXZ 10012b17 f   libucrt:winapi_thunks.obj
 0001:00011b31       ?try_get_LCMapStringEx@@YAP6GHPB_WK0HPA_WHPAU_nlsversioninfo@@PAXJ@ZXZ 10012b31 f   libucrt:winapi_thunks.obj
 0001:00011b4b       ?try_get_LocaleNameToLCID@@YAP6GKPB_WK@ZXZ 10012b4b f   libucrt:winapi_thunks.obj
 0001:00011b65       ?try_get_first_available_module@@YAPAUHINSTANCE__@@QBW4module_id@?A0x391cf84c@@0@Z 10012b65 f   libucrt:winapi_thunks.obj
 0001:00011c2c       ?try_get_function@@YAPAXW4function_id@?A0x391cf84c@@QBDQBW4module_id@2@2@Z 10012c2c f   libucrt:winapi_thunks.obj
 0001:00012065       ??$?RV<lambda_cbab9ec6f41b0180b23cc171c22676b0>@@AAV<lambda_44731a7d0e6d81c3e6aa82d741081786>@@V<lambda_4b292cb8dd18144e164572427af410ab>@@@?$__crt_seh_guarded_call@P6AXH@Z@@QAEP6AXH@Z$$QAV<lambda_cbab9ec6f41b0180b23cc171c22676b0>@@AAV<lambda_44731a7d0e6d81c3e6aa82d741081786>@@$$QAV<lambda_4b292cb8dd18144e164572427af410ab>@@@Z 10013065 f   libucrt:signal.obj
 0001:000120c9       ?get_global_action_nolock@@YAPAP6AXH@ZH@Z 100130c9 f   libucrt:signal.obj
 0001:0001210b       ?siglookup@@YAPAU__crt_signal_action_t@@HQAU1@@Z 1001310b f   libucrt:signal.obj
 0001:00012416       ??$?RV<lambda_2866be3712abc81a800a822484c830d8>@@AAV<lambda_39ca0ed439415581b5b15c265174cece>@@V<lambda_2b24c74d71094a6cd0cb82e44167d71b>@@@?$__crt_seh_guarded_call@X@@QAEX$$QAV<lambda_2866be3712abc81a800a822484c830d8>@@AAV<lambda_39ca0ed439415581b5b15c265174cece>@@$$QAV<lambda_2b24c74d71094a6cd0cb82e44167d71b>@@@Z 10013416 f   libucrt:fflush.obj
 0001:000124a2       ??$?RV<lambda_2cc53f568c5a2bb6f192f930a45d44ea>@@AAV<lambda_ab61a845afdef5b7c387490eaf3616ee>@@V<lambda_c2ffc0b7726aa6be21d5f0026187e748>@@@?$__crt_seh_guarded_call@X@@QAEX$$QAV<lambda_2cc53f568c5a2bb6f192f930a45d44ea>@@AAV<lambda_ab61a845afdef5b7c387490eaf3616ee>@@$$QAV<lambda_c2ffc0b7726aa6be21d5f0026187e748>@@@Z 100134a2 f   libucrt:fflush.obj
 0001:0001254e       ?common_flush_all@@YAH_N@Z 1001354e f   libucrt:fflush.obj
 0001:0001259b       ?common_flush_all_should_try_to_flush_stream@@YA_NV__crt_stdio_stream@@QAH@Z 1001359b f   libucrt:fflush.obj
 0001:000125ce       ?is_stream_flushable_or_commitable@@YA_NJ@Z 100135ce f   libucrt:fflush.obj
 0001:00012789       ?<lambda_invoker_cdecl>@<lambda_838c7f62c73c983481e27c09e84b0b5d>@@CAHPBX0@Z 10013789 f   libucrt:argv_wildcards.obj
 0001:000127a1       ??$__acrt_convert_wcs_mbs_cp@D_WV<lambda_62f6974d9771e494a5ea317cc32e971c>@@U__crt_win32_buffer_internal_dynamic_resizing@@@@YAHQBDAAV?$__crt_win32_buffer@_WU__crt_win32_buffer_internal_dynamic_resizing@@@@ABV<lambda_62f6974d9771e494a5ea317cc32e971c>@@I@Z 100137a1 f   libucrt:argv_wildcards.obj
 0001:00012853       ??$__acrt_convert_wcs_mbs_cp@_WDV<lambda_28bda7af82a03b66c1cb3803a755f95d>@@U__crt_win32_buffer_internal_dynamic_resizing@@@@YAHQB_WAAV?$__crt_win32_buffer@DU__crt_win32_buffer_internal_dynamic_resizing@@@@ABV<lambda_28bda7af82a03b66c1cb3803a755f95d>@@I@Z 10013853 f   libucrt:argv_wildcards.obj
 0001:0001293f       ??$common_expand_argv_wildcards@D@@YAHQAPADQAPAPAD@Z 1001393f f   libucrt:argv_wildcards.obj
 0001:00012b2e       ??$copy_and_add_argument_to_buffer@D@@YAHQBD0IAAV?$argument_list@D@?A0x5f5c8891@@@Z 10013b2e f   libucrt:argv_wildcards.obj
 0001:00012bdf       ??$expand_argument_wildcards@D@@YAHQAD0AAV?$argument_list@D@?A0x5f5c8891@@@Z 10013bdf f   libucrt:argv_wildcards.obj
 0001:00012f29       ?expand_if_necessary@?$argument_list@D@?A0x5f5c8891@@AAEHXZ 10013f29 f   libucrt:argv_wildcards.obj
 0001:00012fbb       ??$__acrt_convert_wcs_mbs_cp@_WDV<lambda_0fec1a7b3f42a53036604e18c2d5e07e>@@U__crt_win32_buffer_no_resizing@@@@YAHQB_WAAV?$__crt_win32_buffer@DU__crt_win32_buffer_no_resizing@@@@ABV<lambda_0fec1a7b3f42a53036604e18c2d5e07e>@@I@Z 10013fbb f   libucrt:getmodulefilenamea.obj
 0001:0001315e       ??$?RV<lambda_ceb1ee4838e85a9d631eb091e2fbe199>@@AAV<lambda_ae742caa10f662c28703da3d2ea5e57e>@@V<lambda_cd08b5d6af4937fe54fc07d0c9bf6b37>@@@?$__crt_seh_guarded_call@X@@QAEX$$QAV<lambda_ceb1ee4838e85a9d631eb091e2fbe199>@@AAV<lambda_ae742caa10f662c28703da3d2ea5e57e>@@$$QAV<lambda_cd08b5d6af4937fe54fc07d0c9bf6b37>@@@Z 1001415e f   libucrt:mbctype.obj
 0001:000131ab       ??R<lambda_ae742caa10f662c28703da3d2ea5e57e>@@QBEXXZ 100141ab f   libucrt:mbctype.obj
 0001:0001322e       ?CPtoLocaleName@@YAPB_WH@Z 1001422e f   libucrt:mbctype.obj
 0001:0001326c       ?getSystemCP@@YAHH@Z       1001426c f   libucrt:mbctype.obj
 0001:000132dd       ?setSBCS@@YAXPAU__crt_multibyte_data@@@Z 100142dd f   libucrt:mbctype.obj
 0001:00013342       ?setSBUpLow@@YAXPAU__crt_multibyte_data@@@Z 10014342 f   libucrt:mbctype.obj
 0001:000134c2       ?setmbcp_internal@@YAHH_NQAU__acrt_ptd@@QAPAU__crt_multibyte_data@@@Z 100144c2 f   libucrt:mbctype.obj
 0001:000135d6       ?update_thread_multibyte_data_internal@@YAPAU__crt_multibyte_data@@QAU__acrt_ptd@@QAPAU1@@Z 100145d6 f   libucrt:mbctype.obj
 0001:000138c4       _memcpy_s                  100148c4 f   libucrt:cfout.obj
 0001:000138c4       _memcpy_s                  100148c4 f   libucrt:mbctype.obj
 0001:00013945       ?x_ismbbtype_l@@YAHPAU__crt_locale_pointers@@IHH@Z 10014945 f   libucrt:ismbbyte.obj
 0001:00013b00       ?find_end_of_double_null_terminated_sequence@@YAPB_WQB_W@Z 10014b00 f   libucrt:get_environment_from_os.obj
 0001:00013d76       ??R<lambda_3d301b9e52f5099be73030e1f0bf487e>@@QBEIPBD@Z 10014d76 f   libucrt:mbrtowc.obj
 0001:00014341       ?should_round_up@@YA_NQBDHW4__acrt_has_trailing_digits@@W4__acrt_rounding_mode@@@Z 10015341 f   libucrt:_fptostr.obj
 0001:00016009       ?free_crt_array_internal@@YAXQAPBXI@Z 10017009 f   libucrt:inittime.obj
 0001:000164d7       ?GetTableIndexFromLocaleName@@YAHPB_W@Z 100174d7 f   libucrt:lcidtoname_downlevel.obj
 0001:0001664e       ??$?RV<lambda_9e9de3de5fa147e2223d7db92bc10aa6>@@AAV<lambda_38ce7e780aa69e748d6df282ebc68efe>@@V<lambda_8ca6da459f0f6780f1cff60fdc3d00e5>@@@?$__crt_seh_guarded_call@H@@QAEH$$QAV<lambda_9e9de3de5fa147e2223d7db92bc10aa6>@@AAV<lambda_38ce7e780aa69e748d6df282ebc68efe>@@$$QAV<lambda_8ca6da459f0f6780f1cff60fdc3d00e5>@@@Z 1001764e f   libucrt:commit.obj
 0001:0001676d       ?write_double_translated_ansi_nolock@@YA?AUwrite_result@?A0x17268360@@HQBDI@Z 1001776d f   libucrt:write.obj
 0001:00016b19       ?write_double_translated_unicode_nolock@@YA?AUwrite_result@?A0x17268360@@QBDI@Z 10017b19 f   libucrt:write.obj
 0001:00016b81       ?write_requires_double_translation_nolock@@YA_NH@Z 10017b81 f   libucrt:write.obj
 0001:00016bf2       ?write_text_ansi_nolock@@YA?AUwrite_result@?A0x17268360@@HQBDI@Z 10017bf2 f   libucrt:write.obj
 0001:00016ccd       ?write_text_utf16le_nolock@@YA?AUwrite_result@?A0x17268360@@HQBDI@Z 10017ccd f   libucrt:write.obj
 0001:00016db6       ?write_text_utf8_nolock@@YA?AUwrite_result@?A0x17268360@@HQBDI@Z 10017db6 f   libucrt:write.obj
 0001:000171b4       ??$common_lseek_nolock@_J@@YA_JH_JH@Z 100181b4 f   libucrt:lseek.obj
 0001:0001773e       ??$common_tcsncpy_s@D@@YAHQADIQBDI@Z 1001873e f   libucrt:strncpy_s.obj
 0001:00017800       $$000000                   10018800     libucrt:strpbrk.obj
 0001:000178e4       ?__acrt_LCMapStringA_stat@@YAHPAU__crt_locale_pointers@@PB_WKPBDHPADHHH@Z 100188e4 f   libucrt:lcmapstringa.obj
 0001:00017b17       ?initialize_multibyte@@YAHXZ 10018b17 f   libucrt:multibyte_initializer.obj
 0001:00017e80       $$000000                   10018e80     libucrt:log10_impl.obj
 0001:00017f90       $$000000                   10018f90     libucrt:ceil_pentium4.obj
 0001:000180ad       ?to_abstract_control@@YA?AW4__acrt_fenv_abstract_control@@W4__acrt_fenv_machine_sse_control@@@Z 100190ad f   libucrt:_fenvutils.obj
 0001:00018169       ?to_abstract_control@@YA?AW4__acrt_fenv_abstract_control@@W4__acrt_fenv_machine_x87_control@@@Z 10019169 f   libucrt:_fenvutils.obj
 0001:00018222       ?to_machine_sse_control@@YA?AW4__acrt_fenv_machine_sse_control@@W4__acrt_fenv_abstract_control@@@Z 10019222 f   libucrt:_fenvutils.obj
 0001:000182ef       ?to_machine_x87_control@@YA?AW4__acrt_fenv_machine_x87_control@@W4__acrt_fenv_abstract_control@@@Z 100192ef f   libucrt:_fenvutils.obj
 0001:000186d8       ??$?RV<lambda_218ce3db14220d0be481dae8ef3383b6>@@AAV<lambda_628dfdc04ba53c8bfc02c9951375f3f5>@@V<lambda_57dc472bd5c9d5f3b2cbca59b8a843ae>@@@?$__crt_seh_guarded_call@H@@QAEH$$QAV<lambda_218ce3db14220d0be481dae8ef3383b6>@@AAV<lambda_628dfdc04ba53c8bfc02c9951375f3f5>@@$$QAV<lambda_57dc472bd5c9d5f3b2cbca59b8a843ae>@@@Z 100196d8 f   libucrt:close.obj
 0001:00018916       ___hw_cw_sse2              10019916 f   libucrt:ieee87.obj
 0001:00018d9c       __hw_cw                    10019d9c f   libucrt:ieee87.obj
 0001:00018e50       $$000000                   10019e50     libucrt:log10_pentium4.obj
 0001:000190e0       $$000000                   1001a0e0     libucrt:87tran.obj
 0001:000192f0       $$000000                   1001a2f0     libucrt:87disp.obj
 0001:00019550       $$000000                   1001a550     libucrt:common.obj
 0001:000196e0       $$000000                   1001a6e0     libucrt:genexcep.obj
 0001:000199dc       ?__dcrt_lowio_initialize_console_output@@YAXXZ 1001a9dc f   libucrt:initcon.obj
 0001:00019a90       $$000000                   1001aa90     libucrt:_strnicm.obj
 0001:0001a900       $$000000                   1001b900     LIBCMT:ulldvrm.obj
 0001:0001a931       L1                         1001b931     LIBCMT:ulldvrm.obj
 0001:0001a93f       L3                         1001b93f     LIBCMT:ulldvrm.obj
 0001:0001a96d       L4                         1001b96d     LIBCMT:ulldvrm.obj
 0001:0001a976       L5                         1001b976     LIBCMT:ulldvrm.obj
 0001:0001a978       L2                         1001b978     LIBCMT:ulldvrm.obj
 0001:0001a9a0       $$000000                   1001b9a0     LIBCMT:llmul.obj
 0001:0001a9b9       hard                       1001b9b9     LIBCMT:llmul.obj
 0001:0001a9e0       $$000000                   1001b9e0     LIBCMT:lldvrm.obj
 0001:0001aa04       L1                         1001ba04     LIBCMT:lldvrm.obj
 0001:0001aa20       L2                         1001ba20     LIBCMT:lldvrm.obj
 0001:0001aa4c       L3                         1001ba4c     LIBCMT:lldvrm.obj
 0001:0001aa5a       L5                         1001ba5a     LIBCMT:lldvrm.obj
 0001:0001aa88       L6                         1001ba88     LIBCMT:lldvrm.obj
 0001:0001aa91       L7                         1001ba91     LIBCMT:lldvrm.obj
 0001:0001aa93       L4                         1001ba93     LIBCMT:lldvrm.obj
 0001:0001aaa5       L9                         1001baa5     LIBCMT:lldvrm.obj
 0001:0001aab9       L8                         1001bab9     LIBCMT:lldvrm.obj
 0001:0001aac0       $$000000                   1001bac0     LIBCMT:llshl.obj
 0001:0001aad0       MORE32                     1001bad0     LIBCMT:llshl.obj
 0001:0001aada       RETZERO                    1001bada     LIBCMT:llshl.obj
 0001:0001aae0       $$000000                   1001bae0     LIBCMT:ullshr.obj
 0001:0001aaf0       MORE32                     1001baf0     LIBCMT:ullshr.obj
 0001:0001aafa       RETZERO                    1001bafa     LIBCMT:ullshr.obj
 0001:0001ab00       $$000000                   1001bb00     LIBCMT:ftol2.obj
 0001:0001ab10       $$000000                   1001bb10     LIBCMT:ftol2.obj
 0001:0001ab21       L3B                        1001bb21     LIBCMT:ftol2.obj
 0001:0001ab64       L3F                        1001bb64     LIBCMT:ftol2.obj
 0001:0001ab6c       L40                        1001bb6c     LIBCMT:ftol2.obj
 0001:0001ab7f       L41                        1001bb7f     LIBCMT:ftol2.obj
 0001:0001ab90       $$000000                   1001bb90     LIBCMT:alloca16.obj
 0001:0001aba6       alloca_8                   1001bba6     LIBCMT:alloca16.obj
 0001:0001abc0       $$000000                   1001bbc0     LIBCMT:chkstk.obj
 0001:0001abd4       cs10                       1001bbd4     LIBCMT:chkstk.obj
 0001:0001abe2       cs20                       1001bbe2     LIBCMT:chkstk.obj
 0001:0001abf0       $$000000                   1001bbf0     libvcruntime:strrchr.obj
 0001:0001ac2d       strrchr_sse_loop           1001bc2d     libvcruntime:strrchr.obj
 0001:0001ac5d       strrchr_sse_break          1001bc5d     libvcruntime:strrchr.obj
 0001:0001ac7d       strrchr_sttni              1001bc7d     libvcruntime:strrchr.obj
 0001:0001ac8f       strrchr_sttni_chars        1001bc8f     libvcruntime:strrchr.obj
 0001:0001aca4       strrchr_sttni_aligned      1001bca4     libvcruntime:strrchr.obj
 0001:0001aca8       strrchr_sttni_xmm          1001bca8     libvcruntime:strrchr.obj
 0001:0001acbb       exit                       1001bcbb     libvcruntime:strrchr.obj
 0001:0001acbe       strrchr_zero               1001bcbe     libvcruntime:strrchr.obj
 0001:0001ace3       strchr_zero_loop           1001bce3     libvcruntime:strrchr.obj
 0001:0001acf7       strchr_zero_result         1001bcf7     libvcruntime:strrchr.obj
 0001:0001acfe       strrchr_no_sse             1001bcfe     libvcruntime:strrchr.obj
 0001:0001ad21       returndi                   1001bd21     libvcruntime:strrchr.obj
 0001:0001ad23       toend                      1001bd23     libvcruntime:strrchr.obj
 0001:0001cf4c       $LN298                     1001df4c     CreatureBanksExtender.obj
 0001:0001cf64       $LN297                     1001df64     CreatureBanksExtender.obj
 0001:0001e5d4       $LN13                      1001f5d4     WarehousesExtender.obj
 0001:0001fc8c       $LN432                     10020c8c     ObjectsExtender.obj
 0001:0001fc98       $LN431                     10020c98     ObjectsExtender.obj
 0001:0001fe0c       $LN37                      10020e0c     ObjectsExtender.obj
 0001:0001fe18       $LN36                      10020e18     ObjectsExtender.obj
 0001:00020ab4       $LN91                      10021ab4     RMGObjectsEditor.obj
 0001:00020ad8       $LN90                      10021ad8     RMGObjectsEditor.obj
 0001:00022f70       ??0<lambda_1>@?8??FindDataInObjectGeneratorsList@rmgdlg@@YAXAAV?$vector@U?$pair@UH3ObjectAttributes@h3@@PAUH3LoadedPcx16@2@@std@@V?$allocator@U?$pair@UH3ObjectAttributes@h3@@PAUH3LoadedPcx16@2@@std@@@2@@std@@@Z@QAE@AAPBUH3RmgObjectGenerator@h3@@@Z 10023f70 f   RMG_SettingsDlg.obj
 0001:00022f80       ??R<lambda_1>@?8??FindDataInObjectGeneratorsList@rmgdlg@@YAXAAV?$vector@U?$pair@UH3ObjectAttributes@h3@@PAUH3LoadedPcx16@2@@std@@V?$allocator@U?$pair@UH3ObjectAttributes@h3@@PAUH3LoadedPcx16@2@@std@@@2@@std@@@Z@QBE_NABU?$pair@UH3ObjectAttributes@h3@@PAUH3LoadedPcx16@2@@4@@Z 10023f80 f   RMG_SettingsDlg.obj
 0001:00023110       ??0<lambda_1>@?7??GetObjectPrototypesByTypes@rmgdlg@@YAXAAV?$vector@U?$pair@UH3ObjectAttributes@h3@@PAUH3LoadedPcx16@2@@std@@V?$allocator@U?$pair@UH3ObjectAttributes@h3@@PAUH3LoadedPcx16@2@@std@@@2@@std@@PBHI@Z@QAE@ABUH3ObjectAttributes@h3@@@Z 10024110 f   RMG_SettingsDlg.obj
 0001:00023120       ??R<lambda_1>@?7??GetObjectPrototypesByTypes@rmgdlg@@YAXAAV?$vector@U?$pair@UH3ObjectAttributes@h3@@PAUH3LoadedPcx16@2@@std@@V?$allocator@U?$pair@UH3ObjectAttributes@h3@@PAUH3LoadedPcx16@2@@std@@@2@@std@@PBHI@Z@QBE_NABU?$pair@UH3ObjectAttributes@h3@@PAUH3LoadedPcx16@2@@4@@Z 10024120 f   RMG_SettingsDlg.obj
 0001:00024170       ??0<unnamed-type-lastSorting>@ObjectsPage@RMG_SettingsDlg@rmgdlg@@QAE@XZ 10025170 f   RMG_SettingsDlg.obj
 0001:00025e68       $LN113                     10026e68     RMG_SettingsDlg.obj
 0001:00025e84       $LN112                     10026e84     RMG_SettingsDlg.obj
 0001:00026ad0       ??0<lambda_1>@?1??SortRmgObjects@sorting@rmgdlg@@YAXAAV?$vector@VRMGObject@rmgdlg@@V?$allocator@VRMGObject@rmgdlg@@@std@@@std@@W4eSorting@23@_N@Z@QAE@ABW4623@@Z 10027ad0 f   RMG_SettingsDlg.obj
 0001:00026ae0       ??R<lambda_1>@?1??SortRmgObjects@sorting@rmgdlg@@YAXAAV?$vector@VRMGObject@rmgdlg@@V?$allocator@VRMGObject@rmgdlg@@@std@@@std@@W4eSorting@23@_N@Z@QBE_NABVRMGObject@3@3@Z 10027ae0 f   RMG_SettingsDlg.obj
 0001:00026bfc       $LN204                     10027bfc     RMG_SettingsDlg.obj
 0001:00026dc0       $$000000                   10027dc0     LIBCMT:ftol3.obj
 0001:00026ddf       _ftol3_default             10027ddf     LIBCMT:ftol3.obj
 0001:00026df3       _ftol3_notsafe             10027df3     LIBCMT:ftol3.obj
 0001:00026e13       _ftol3_mincheck            10027e13     LIBCMT:ftol3.obj
 0001:00026e19       _ftol3_NaN                 10027e19     LIBCMT:ftol3.obj
 0001:00026e21       _ftol3_retmin              10027e21     LIBCMT:ftol3.obj
 0001:00026e30       $$000000                   10027e30     LIBCMT:ftol3.obj
 0001:00026e4e       _dtol3_default             10027e4e     LIBCMT:ftol3.obj
 0001:00026e78       _dtol3_getbits             10027e78     LIBCMT:ftol3.obj
 0001:00026ea1       _dtol3_trunc               10027ea1     LIBCMT:ftol3.obj
 0001:00026ea8       _dtol3_lshift              10027ea8     LIBCMT:ftol3.obj
 0001:00026eae       _dtol3_notsafe             10027eae     LIBCMT:ftol3.obj
 0001:00026ec7       _dtol3_large               10027ec7     LIBCMT:ftol3.obj
 0001:00026ecf       _dtol3_NaN                 10027ecf     LIBCMT:ftol3.obj
 0001:00026ed7       _dtol3_retmin              10027ed7     LIBCMT:ftol3.obj
 0001:00026ee0       $$000000                   10027ee0     LIBCMT:ftol3.obj
 0001:00026efa       _ltod3_default             10027efa     LIBCMT:ftol3.obj
 0001:00026f21       _ltod3_lt33                10027f21     LIBCMT:ftol3.obj
 0001:00026f73       ?FindMITargetTypeInstance@@YAPBU_s_RTTIBaseClassDescriptor@@PAXPBU_s_RTTICompleteObjectLocator@@PAUTypeDescriptor@@H2@Z 10027f73 f   libvcruntime:rtti.obj
 0001:0002705c       ?FindSITargetTypeInstance@@YAPBU_s_RTTIBaseClassDescriptor@@PBU_s_RTTICompleteObjectLocator@@PAUTypeDescriptor@@1@Z 1002805c f   libvcruntime:rtti.obj
 0001:00027145       ?FindVITargetTypeInstance@@YAPBU_s_RTTIBaseClassDescriptor@@PAXPBU_s_RTTICompleteObjectLocator@@PAUTypeDescriptor@@H2@Z 10028145 f   libvcruntime:rtti.obj
 0001:000272a4       ?PMDtoOffset@@YAHPAXABUPMD@@@Z 100282a4 f   libvcruntime:rtti.obj
 0001:000272c8       ?TypeidsEqual@@YA_NQBUTypeDescriptor@@0@Z 100282c8 f   libvcruntime:rtti.obj
 0001:00027440       __ehhandler$??1H3String@h3@@QAE@XZ 10028440 f   CreatureBanksExtender.obj
 0001:00027440       __ehhandler$??$_Invoke@V?$tuple@P8RMGObjectsEditor@editor@@AEXPBF@ZPAV12@PBF@std@@$0A@$00$01@thread@std@@CGIPAX@Z 10028440 f   RMGObjectsEditor.obj
 0001:00027440       __ehhandler$??$_Invoke@V?$tuple@P6AXXZ@std@@$0A@@thread@std@@CGIPAX@Z 10028440 f   RMG_SettingsDlg.obj
 0001:00027440       __ehhandler$??1?$H3BinaryLoader@UH3LoadedDef@h3@@@h3@@QAE@XZ 10028440 f   RMG_SettingsDlg.obj
 0001:00027440       __ehhandler$??1?$H3BinaryLoader@UH3LoadedPcx@h3@@@h3@@QAE@XZ 10028440 f   RMG_SettingsDlg.obj
 0001:00027440       __ehhandler$??1?$array@V?$vector@HV?$allocator@H@std@@@std@@$03@std@@QAE@XZ 10028440 f   RMG_SettingsDlg.obj
 0001:00027440       __ehhandler$??1H3BasePalette565@h3@@QAE@XZ 10028440 f   RMG_SettingsDlg.obj
 0001:00027450       __unwindfunclet$?Format@H3String@h3@@SA?AU12@PBDZZ$1 10028450 f   CreatureBanksExtender.obj
 0001:0002746e       __ehhandler$?Format@H3String@h3@@SA?AU12@PBDZZ 1002846e f   CreatureBanksExtender.obj
 0001:00027480       __unwindfunclet$??0H3CreatureBankSetup@h3@@QAE@XZ$0 10028480 f   CreatureBanksExtender.obj
 0001:0002748d       __ehhandler$??0H3CreatureBankSetup@h3@@QAE@XZ 1002848d f   CreatureBanksExtender.obj
 0001:000274a0       __ehhandler$??$_Destroy_range@V?$allocator@UH3CreatureBankSetup@h3@@@std@@@std@@YAXPAUH3CreatureBankSetup@h3@@QAU12@AAV?$allocator@UH3CreatureBankSetup@h3@@@0@@Z 100284a0 f   CreatureBanksExtender.obj
 0001:000274a0       __ehhandler$??1?$_Uninitialized_backout_al@V?$allocator@UH3CreatureBankSetup@h3@@@std@@@std@@QAE@XZ 100284a0 f   CreatureBanksExtender.obj
 0001:000274a0       __ehhandler$??1H3CreatureBankSetup@h3@@QAE@XZ 100284a0 f   CreatureBanksExtender.obj
 0001:000274a0       __ehhandler$??1?$H3Vector@PAUH3RmgObjectGenerator@h3@@@h3@@QAE@XZ 100284a0 f   RMGObjectsEditor.obj
 0001:000274a0       __ehhandler$??$_Destroy_range@V?$allocator@U?$pair@UH3ObjectAttributes@h3@@PAUH3LoadedPcx16@2@@std@@@std@@@std@@YAXPAU?$pair@UH3ObjectAttributes@h3@@PAUH3LoadedPcx16@2@@0@QAU10@AAV?$allocator@U?$pair@UH3ObjectAttributes@h3@@PAUH3LoadedPcx16@2@@std@@@0@@Z 100284a0 f   RMG_SettingsDlg.obj
 0001:000274a0       __ehhandler$??1?$_Uninitialized_backout_al@V?$allocator@U?$pair@UH3ObjectAttributes@h3@@PAUH3LoadedPcx16@2@@std@@@std@@@std@@QAE@XZ 100284a0 f   RMG_SettingsDlg.obj
 0001:000274a0       __ehhandler$??1?$pair@UH3ObjectAttributes@h3@@$$T@std@@QAE@XZ 100284a0 f   RMG_SettingsDlg.obj
 0001:000274a0       __ehhandler$??1H3Dlg@h3@@QAE@XZ 100284a0 f   RMG_SettingsDlg.obj
 0001:000274a0       __ehhandler$??1H3NetworkDlg@h3@@QAE@XZ 100284a0 f   RMG_SettingsDlg.obj
 0001:000274a0       __ehhandler$??_GRMG_SettingsDlg@rmgdlg@@EAEPAXI@Z 100284a0 f   RMG_SettingsDlg.obj
 0001:000274a0       __ehhandler$?_Tidy@?$vector@U?$pair@UH3ObjectAttributes@h3@@PAUH3LoadedPcx16@2@@std@@V?$allocator@U?$pair@UH3ObjectAttributes@h3@@PAUH3LoadedPcx16@2@@std@@@2@@std@@AAEXXZ 100284a0 f   RMG_SettingsDlg.obj
 0001:000274b0       __unwindfunclet$??$_Reallocate@$00@?$vector@UH3CreatureBankSetup@h3@@V?$allocator@UH3CreatureBankSetup@h3@@@std@@@std@@AAEXAAI@Z$2 100284b0 f   CreatureBanksExtender.obj
 0001:000274b0       __unwindfunclet$??$_Reallocate@$0A@@?$vector@UH3CreatureBankSetup@h3@@V?$allocator@UH3CreatureBankSetup@h3@@@std@@@std@@AAEXAAI@Z$2 100284b0 f   CreatureBanksExtender.obj
 0001:000274bd       __ehhandler$??$_Reallocate@$00@?$vector@UH3CreatureBankSetup@h3@@V?$allocator@UH3CreatureBankSetup@h3@@@std@@@std@@AAEXAAI@Z 100284bd f   CreatureBanksExtender.obj
 0001:000274bd       __ehhandler$??$_Reallocate@$0A@@?$vector@UH3CreatureBankSetup@h3@@V?$allocator@UH3CreatureBankSetup@h3@@@std@@@std@@AAEXAAI@Z 100284bd f   CreatureBanksExtender.obj
 0001:000274d0       __ehhandler$??$_Emplace_reallocate@AAUH3CreatureBankSetup@h3@@@?$vector@UH3CreatureBankSetup@h3@@V?$allocator@UH3CreatureBankSetup@h3@@@std@@@std@@AAEPAUH3CreatureBankSetup@h3@@QAU23@AAU23@@Z 100284d0 f   CreatureBanksExtender.obj
 0001:000274e0       __unwindfunclet$??$_Uninitialized_copy@PAUH3CreatureBankSetup@h3@@PAU12@V?$allocator@UH3CreatureBankSetup@h3@@@std@@@std@@YAPAUH3CreatureBankSetup@h3@@PAU12@00AAV?$allocator@UH3CreatureBankSetup@h3@@@0@@Z$0 100284e0 f   CreatureBanksExtender.obj
 0001:000274e0       __unwindfunclet$??$_Uninitialized_value_construct_n@V?$allocator@UH3CreatureBankSetup@h3@@@std@@@std@@YAPAUH3CreatureBankSetup@h3@@PAU12@IAAV?$allocator@UH3CreatureBankSetup@h3@@@0@@Z$0 100284e0 f   CreatureBanksExtender.obj
 0001:000274ed       __ehhandler$??$_Uninitialized_copy@PAUH3CreatureBankSetup@h3@@PAU12@V?$allocator@UH3CreatureBankSetup@h3@@@std@@@std@@YAPAUH3CreatureBankSetup@h3@@PAU12@00AAV?$allocator@UH3CreatureBankSetup@h3@@@0@@Z 100284ed f   CreatureBanksExtender.obj
 0001:000274ed       __ehhandler$??$_Uninitialized_value_construct_n@V?$allocator@UH3CreatureBankSetup@h3@@@std@@@std@@YAPAUH3CreatureBankSetup@h3@@PAU12@IAAV?$allocator@UH3CreatureBankSetup@h3@@@0@@Z 100284ed f   CreatureBanksExtender.obj
 0001:00027500       __unwindfunclet$??$_Resize_reallocate@U_Value_init_tag@std@@@?$vector@UH3CreatureBankSetup@h3@@V?$allocator@UH3CreatureBankSetup@h3@@@std@@@std@@AAEXIABU_Value_init_tag@1@@Z$2 10028500 f   CreatureBanksExtender.obj
 0001:0002750d       __ehhandler$??$_Resize_reallocate@U_Value_init_tag@std@@@?$vector@UH3CreatureBankSetup@h3@@V?$allocator@UH3CreatureBankSetup@h3@@@std@@@std@@AAEXIABU_Value_init_tag@1@@Z 1002850d f   CreatureBanksExtender.obj
 0001:00027520       __ehhandler$??$_Uninitialized_move@PAUH3CreatureBankSetup@h3@@V?$allocator@UH3CreatureBankSetup@h3@@@std@@@std@@YAPAUH3CreatureBankSetup@h3@@QAU12@0PAU12@AAV?$allocator@UH3CreatureBankSetup@h3@@@0@@Z 10028520 f   CreatureBanksExtender.obj
 0001:00027530       __unwindfunclet$??$insert@$0A@$0A@@?$_Tree@V?$_Tset_traits@PBDU?$less@PBD@std@@V?$allocator@PBD@2@$0A@@std@@@std@@QAE?AU?$pair@V?$_Tree_const_iterator@V?$_Tree_val@U?$_Tree_simple_types@PBD@std@@@std@@@std@@_N@1@$$QAPBD@Z$2 10028530 f   ObjectsExtender.obj
 0001:0002753d       __ehhandler$??$insert@$0A@$0A@@?$_Tree@V?$_Tset_traits@PBDU?$less@PBD@std@@V?$allocator@PBD@2@$0A@@std@@@std@@QAE?AU?$pair@V?$_Tree_const_iterator@V?$_Tree_val@U?$_Tree_simple_types@PBD@std@@@std@@@std@@_N@1@$$QAPBD@Z 1002853d f   ObjectsExtender.obj
 0001:00027550       __unwindfunclet$??$insert@$0A@$0A@@?$_Tree@V?$_Tset_traits@URMGObjectSetable@extender@@U?$less@URMGObjectSetable@extender@@@std@@V?$allocator@URMGObjectSetable@extender@@@4@$0A@@std@@@std@@QAE?AU?$pair@V?$_Tree_const_iterator@V?$_Tree_val@U?$_Tree_simple_types@URMGObjectSetable@extender@@@std@@@std@@@std@@_N@1@$$QAURMGObjectSetable@extender@@@Z$2 10028550 f   ObjectsExtender.obj
 0001:0002755d       __ehhandler$??$insert@$0A@$0A@@?$_Tree@V?$_Tset_traits@URMGObjectSetable@extender@@U?$less@URMGObjectSetable@extender@@@std@@V?$allocator@URMGObjectSetable@extender@@@4@$0A@@std@@@std@@QAE?AU?$pair@V?$_Tree_const_iterator@V?$_Tree_val@U?$_Tree_simple_types@URMGObjectSetable@extender@@@std@@@std@@@std@@_N@1@$$QAURMGObjectSetable@extender@@@Z 1002855d f   ObjectsExtender.obj
 0001:00027570       __ehhandler$??$_Emplace_reallocate@AAPBD@?$vector@V?$basic_string@DU?$char_traits@D@std@@V?$allocator@D@2@@std@@V?$allocator@V?$basic_string@DU?$char_traits@D@std@@V?$allocator@D@2@@std@@@2@@std@@AAEPAV?$basic_string@DU?$char_traits@D@std@@V?$allocator@D@2@@1@QAV21@AAPBD@Z 10028570 f   ObjectsExtender.obj
 0001:00027580       __ehhandler$?Reserve@?$H3Vector@PAUH3RmgObjectGenerator@h3@@@h3@@QAEHI@Z 10028580 f   ObjectsExtender.obj
 0001:00027580       __ehhandler$?Reserve@?$H3Vector@PBD@h3@@QAEHI@Z 10028580 f   ObjectsExtender.obj
 0001:00027580       __ehhandler$?Reserve@?$H3Vector@H@h3@@QAEHI@Z 10028580 f   RMG_SettingsDlg.obj
 0001:00027580       __ehhandler$?Reserve@?$H3Vector@PAUH3DlgItem@h3@@@h3@@QAEHI@Z 10028580 f   RMG_SettingsDlg.obj
 0001:00027590       __unwindfunclet$??$_Insert_range_unchecked@PAPBDPAPBD@?$_Tree@V?$_Tset_traits@PBDU?$less@PBD@std@@V?$allocator@PBD@2@$0A@@std@@@std@@IAEXPAPBDQAPBD@Z$2 10028590 f   ObjectsExtender.obj
 0001:0002759d       __ehhandler$??$_Insert_range_unchecked@PAPBDPAPBD@?$_Tree@V?$_Tset_traits@PBDU?$less@PBD@std@@V?$allocator@PBD@2@$0A@@std@@@std@@IAEXPAPBDQAPBD@Z 1002859d f   ObjectsExtender.obj
 0001:000275b0       __ehhandler$??1PseudoH3RmgRandomMapGenerator@@QAE@XZ 100285b0 f   RMGObjectsEditor.obj
 0001:000275c0       __ehhandler$??1?$H3Vector@UH3ObjectAttributes@h3@@@h3@@QAE@XZ 100285c0 f   RMGObjectsEditor.obj
 0001:000275d0       __ehhandler$??$swap@U?$H3Vector@PAUH3RmgObjectGenerator@h3@@@h3@@$0A@@std@@YAXAAU?$H3Vector@PAUH3RmgObjectGenerator@h3@@@h3@@0@Z 100285d0 f   RMGObjectsEditor.obj
 0001:000275d0       __ehhandler$?CreateText@H3BaseDlg@h3@@QAEPAUH3DlgText@2@HHHHPBD0HHW4eTextAlignment@NTextAlignment@NH3Dlg@2@H@Z 100285d0 f   RMG_SettingsDlg.obj
 0001:000275d0       __ehhandler$?_Change_array@?$vector@U?$pair@UH3ObjectAttributes@h3@@PAUH3LoadedPcx16@2@@std@@V?$allocator@U?$pair@UH3ObjectAttributes@h3@@PAUH3LoadedPcx16@2@@std@@@2@@std@@AAEXQAU?$pair@UH3ObjectAttributes@h3@@PAUH3LoadedPcx16@2@@2@II@Z 100285d0 f   RMG_SettingsDlg.obj
 0001:000275e0       __unwindfunclet$??$_Uninitialized_copy_n@PAV?$vector@URMGObjectInfo@@V?$allocator@URMGObjectInfo@@@std@@@std@@V?$allocator@V?$vector@URMGObjectInfo@@V?$allocator@URMGObjectInfo@@@std@@@std@@@2@@std@@YAPAV?$vector@URMGObjectInfo@@V?$allocator@URMGObjectInfo@@@std@@@0@PAV10@I0AAV?$allocator@V?$vector@URMGObjectInfo@@V?$allocator@URMGObjectInfo@@@std@@@std@@@0@@Z$0 100285e0 f   RMGObjectsEditor.obj
 0001:000275ed       __ehhandler$??$_Uninitialized_copy_n@PAV?$vector@URMGObjectInfo@@V?$allocator@URMGObjectInfo@@@std@@@std@@V?$allocator@V?$vector@URMGObjectInfo@@V?$allocator@URMGObjectInfo@@@std@@@std@@@2@@std@@YAPAV?$vector@URMGObjectInfo@@V?$allocator@URMGObjectInfo@@@std@@@0@PAV10@I0AAV?$allocator@V?$vector@URMGObjectInfo@@V?$allocator@URMGObjectInfo@@@std@@@std@@@0@@Z 100285ed f   RMGObjectsEditor.obj
 0001:00027600       __unwindfunclet$?FrameRegion@H3LoadedPcx16@h3@@QAEHHHHHHHH@Z$0 10028600 f   RMG_SettingsDlg.obj
 0001:00027608       __unwindfunclet$?FrameRegion@H3LoadedPcx16@h3@@QAEHHHHHHHH@Z$1 10028608 f   RMG_SettingsDlg.obj
 0001:00027618       __ehhandler$?FrameRegion@H3LoadedPcx16@h3@@QAEHHHHHHHH@Z 10028618 f   RMG_SettingsDlg.obj
 0001:00027630       __unwindfunclet$??0H3Dlg@h3@@QAE@HHHHHHH@Z$0 10028630 f   RMG_SettingsDlg.obj
 0001:0002763d       __ehhandler$??0H3Dlg@h3@@QAE@HHHHHHH@Z 1002863d f   RMG_SettingsDlg.obj
 0001:00027650       __unwindfunclet$?AddBackground@H3Dlg@h3@@QAEHHHHHHHHH@Z$2 10028650 f   RMG_SettingsDlg.obj
 0001:0002765d       __ehhandler$?AddBackground@H3Dlg@h3@@QAEHHHHHHHHH@Z 1002865d f   RMG_SettingsDlg.obj
 0001:00027670       __ehhandler$??$_Reallocate@$00@?$vector@U?$pair@UH3ObjectAttributes@h3@@PAUH3LoadedPcx16@2@@std@@V?$allocator@U?$pair@UH3ObjectAttributes@h3@@PAUH3LoadedPcx16@2@@std@@@2@@std@@AAEXAAI@Z 10028670 f   RMG_SettingsDlg.obj
 0001:00027670       __ehhandler$??$_Reallocate@$0A@@?$vector@U?$pair@UH3ObjectAttributes@h3@@PAUH3LoadedPcx16@2@@std@@V?$allocator@U?$pair@UH3ObjectAttributes@h3@@PAUH3LoadedPcx16@2@@std@@@2@@std@@AAEXAAI@Z 10028670 f   RMG_SettingsDlg.obj
 0001:00027680       __unwindfunclet$??$_Assign_counted_range@PAU?$pair@UH3ObjectAttributes@h3@@PAUH3LoadedPcx16@2@@std@@@?$vector@U?$pair@UH3ObjectAttributes@h3@@PAUH3LoadedPcx16@2@@std@@V?$allocator@U?$pair@UH3ObjectAttributes@h3@@PAUH3LoadedPcx16@2@@std@@@2@@std@@AAEXPAU?$pair@UH3ObjectAttributes@h3@@PAUH3LoadedPcx16@2@@1@I@Z$0 10028680 f   RMG_SettingsDlg.obj
 0001:00027688       __unwindfunclet$??$_Assign_counted_range@PAU?$pair@UH3ObjectAttributes@h3@@PAUH3LoadedPcx16@2@@std@@@?$vector@U?$pair@UH3ObjectAttributes@h3@@PAUH3LoadedPcx16@2@@std@@V?$allocator@U?$pair@UH3ObjectAttributes@h3@@PAUH3LoadedPcx16@2@@std@@@2@@std@@AAEXPAU?$pair@UH3ObjectAttributes@h3@@PAUH3LoadedPcx16@2@@1@I@Z$5 10028688 f   RMG_SettingsDlg.obj
 0001:00027695       __ehhandler$??$_Assign_counted_range@PAU?$pair@UH3ObjectAttributes@h3@@PAUH3LoadedPcx16@2@@std@@@?$vector@U?$pair@UH3ObjectAttributes@h3@@PAUH3LoadedPcx16@2@@std@@V?$allocator@U?$pair@UH3ObjectAttributes@h3@@PAUH3LoadedPcx16@2@@std@@@2@@std@@AAEXPAU?$pair@UH3ObjectAttributes@h3@@PAUH3LoadedPcx16@2@@1@I@Z 10028695 f   RMG_SettingsDlg.obj
 0001:000276b0       __ehhandler$??$_Emplace_reallocate@ABUH3ObjectAttributes@h3@@ABQAUH3LoadedPcx16@2@@?$vector@VRMGObject@rmgdlg@@V?$allocator@VRMGObject@rmgdlg@@@std@@@std@@AAEPAVRMGObject@rmgdlg@@QAV23@ABUH3ObjectAttributes@h3@@ABQAUH3LoadedPcx16@5@@Z 100286b0 f   RMG_SettingsDlg.obj
 0001:000276c0       __ehhandler$??$_Emplace_reallocate@U?$pair@UH3ObjectAttributes@h3@@$$T@std@@@?$vector@U?$pair@UH3ObjectAttributes@h3@@PAUH3LoadedPcx16@2@@std@@V?$allocator@U?$pair@UH3ObjectAttributes@h3@@PAUH3LoadedPcx16@2@@std@@@2@@std@@AAEPAU?$pair@UH3ObjectAttributes@h3@@PAUH3LoadedPcx16@2@@1@QAU21@$$QAU?$pair@UH3ObjectAttributes@h3@@$$T@1@@Z 100286c0 f   RMG_SettingsDlg.obj
 0001:000276d0       __ehhandler$??$_Emplace_reallocate@AAU?$pair@UH3ObjectAttributes@h3@@PAUH3LoadedPcx16@2@@std@@@?$vector@U?$pair@UH3ObjectAttributes@h3@@PAUH3LoadedPcx16@2@@std@@V?$allocator@U?$pair@UH3ObjectAttributes@h3@@PAUH3LoadedPcx16@2@@std@@@2@@std@@AAEPAU?$pair@UH3ObjectAttributes@h3@@PAUH3LoadedPcx16@2@@1@QAU21@AAU21@@Z 100286d0 f   RMG_SettingsDlg.obj
 0001:000276e0       __unwindfunclet$??$_Insertion_sort_unchecked@PAVRMGObject@rmgdlg@@V<lambda_1>@?1??SortRmgObjects@sorting@2@YAXAAV?$vector@VRMGObject@rmgdlg@@V?$allocator@VRMGObject@rmgdlg@@@std@@@std@@W4eSorting@52@_N@Z@@std@@YAPAVRMGObject@rmgdlg@@QAV12@0V<lambda_1>@?1??SortRmgObjects@sorting@2@YAXAAV?$vector@VRMGObject@rmgdlg@@V?$allocator@VRMGObject@rmgdlg@@@std@@@0@W4eSorting@52@_N@Z@@Z$0 100286e0 f   RMG_SettingsDlg.obj
 0001:000276e8       __unwindfunclet$??$_Insertion_sort_unchecked@PAVRMGObject@rmgdlg@@V<lambda_1>@?1??SortRmgObjects@sorting@2@YAXAAV?$vector@VRMGObject@rmgdlg@@V?$allocator@VRMGObject@rmgdlg@@@std@@@std@@W4eSorting@52@_N@Z@@std@@YAPAVRMGObject@rmgdlg@@QAV12@0V<lambda_1>@?1??SortRmgObjects@sorting@2@YAXAAV?$vector@VRMGObject@rmgdlg@@V?$allocator@VRMGObject@rmgdlg@@@std@@@0@W4eSorting@52@_N@Z@@Z$1 100286e8 f   RMG_SettingsDlg.obj
 0001:000276f0       __unwindfunclet$??$_Insertion_sort_unchecked@PAVRMGObject@rmgdlg@@V<lambda_1>@?1??SortRmgObjects@sorting@2@YAXAAV?$vector@VRMGObject@rmgdlg@@V?$allocator@VRMGObject@rmgdlg@@@std@@@std@@W4eSorting@52@_N@Z@@std@@YAPAVRMGObject@rmgdlg@@QAV12@0V<lambda_1>@?1??SortRmgObjects@sorting@2@YAXAAV?$vector@VRMGObject@rmgdlg@@V?$allocator@VRMGObject@rmgdlg@@@std@@@0@W4eSorting@52@_N@Z@@Z$22 100286f0 f   RMG_SettingsDlg.obj
 0001:000276f8       __unwindfunclet$??$_Insertion_sort_unchecked@PAVRMGObject@rmgdlg@@V<lambda_1>@?1??SortRmgObjects@sorting@2@YAXAAV?$vector@VRMGObject@rmgdlg@@V?$allocator@VRMGObject@rmgdlg@@@std@@@std@@W4eSorting@52@_N@Z@@std@@YAPAVRMGObject@rmgdlg@@QAV12@0V<lambda_1>@?1??SortRmgObjects@sorting@2@YAXAAV?$vector@VRMGObject@rmgdlg@@V?$allocator@VRMGObject@rmgdlg@@@std@@@0@W4eSorting@52@_N@Z@@Z$23 100286f8 f   RMG_SettingsDlg.obj
 0001:00027705       __ehhandler$??$_Insertion_sort_unchecked@PAVRMGObject@rmgdlg@@V<lambda_1>@?1??SortRmgObjects@sorting@2@YAXAAV?$vector@VRMGObject@rmgdlg@@V?$allocator@VRMGObject@rmgdlg@@@std@@@std@@W4eSorting@52@_N@Z@@std@@YAPAVRMGObject@rmgdlg@@QAV12@0V<lambda_1>@?1??SortRmgObjects@sorting@2@YAXAAV?$vector@VRMGObject@rmgdlg@@V?$allocator@VRMGObject@rmgdlg@@@std@@@0@W4eSorting@52@_N@Z@@Z 10028705 f   RMG_SettingsDlg.obj
 0001:00027720       __unwindfunclet$??$_Make_heap_unchecked@PAVRMGObject@rmgdlg@@V<lambda_1>@?1??SortRmgObjects@sorting@2@YAXAAV?$vector@VRMGObject@rmgdlg@@V?$allocator@VRMGObject@rmgdlg@@@std@@@std@@W4eSorting@52@_N@Z@@std@@YAXPAVRMGObject@rmgdlg@@0V<lambda_1>@?1??SortRmgObjects@sorting@2@YAXAAV?$vector@VRMGObject@rmgdlg@@V?$allocator@VRMGObject@rmgdlg@@@std@@@0@W4eSorting@52@_N@Z@@Z$0 10028720 f   RMG_SettingsDlg.obj
 0001:00027728       __unwindfunclet$??$_Make_heap_unchecked@PAVRMGObject@rmgdlg@@V<lambda_1>@?1??SortRmgObjects@sorting@2@YAXAAV?$vector@VRMGObject@rmgdlg@@V?$allocator@VRMGObject@rmgdlg@@@std@@@std@@W4eSorting@52@_N@Z@@std@@YAXPAVRMGObject@rmgdlg@@0V<lambda_1>@?1??SortRmgObjects@sorting@2@YAXAAV?$vector@VRMGObject@rmgdlg@@V?$allocator@VRMGObject@rmgdlg@@@std@@@0@W4eSorting@52@_N@Z@@Z$1 10028728 f   RMG_SettingsDlg.obj
 0001:00027735       __ehhandler$??$_Make_heap_unchecked@PAVRMGObject@rmgdlg@@V<lambda_1>@?1??SortRmgObjects@sorting@2@YAXAAV?$vector@VRMGObject@rmgdlg@@V?$allocator@VRMGObject@rmgdlg@@@std@@@std@@W4eSorting@52@_N@Z@@std@@YAXPAVRMGObject@rmgdlg@@0V<lambda_1>@?1??SortRmgObjects@sorting@2@YAXAAV?$vector@VRMGObject@rmgdlg@@V?$allocator@VRMGObject@rmgdlg@@@std@@@0@W4eSorting@52@_N@Z@@Z 10028735 f   RMG_SettingsDlg.obj
 0001:00027750       __unwindfunclet$??$_Partition_by_median_guess_unchecked@PAVRMGObject@rmgdlg@@V<lambda_1>@?1??SortRmgObjects@sorting@2@YAXAAV?$vector@VRMGObject@rmgdlg@@V?$allocator@VRMGObject@rmgdlg@@@std@@@std@@W4eSorting@52@_N@Z@@std@@YA?AU?$pair@PAVRMGObject@rmgdlg@@PAV12@@0@PAVRMGObject@rmgdlg@@0V<lambda_1>@?1??SortRmgObjects@sorting@3@YAXAAV?$vector@VRMGObject@rmgdlg@@V?$allocator@VRMGObject@rmgdlg@@@std@@@0@W4eSorting@63@_N@Z@@Z$88 10028750 f   RMG_SettingsDlg.obj
 0001:00027758       __unwindfunclet$??$_Partition_by_median_guess_unchecked@PAVRMGObject@rmgdlg@@V<lambda_1>@?1??SortRmgObjects@sorting@2@YAXAAV?$vector@VRMGObject@rmgdlg@@V?$allocator@VRMGObject@rmgdlg@@@std@@@std@@W4eSorting@52@_N@Z@@std@@YA?AU?$pair@PAVRMGObject@rmgdlg@@PAV12@@0@PAVRMGObject@rmgdlg@@0V<lambda_1>@?1??SortRmgObjects@sorting@3@YAXAAV?$vector@VRMGObject@rmgdlg@@V?$allocator@VRMGObject@rmgdlg@@@std@@@0@W4eSorting@63@_N@Z@@Z$89 10028758 f   RMG_SettingsDlg.obj
 0001:00027760       __unwindfunclet$??$_Partition_by_median_guess_unchecked@PAVRMGObject@rmgdlg@@V<lambda_1>@?1??SortRmgObjects@sorting@2@YAXAAV?$vector@VRMGObject@rmgdlg@@V?$allocator@VRMGObject@rmgdlg@@@std@@@std@@W4eSorting@52@_N@Z@@std@@YA?AU?$pair@PAVRMGObject@rmgdlg@@PAV12@@0@PAVRMGObject@rmgdlg@@0V<lambda_1>@?1??SortRmgObjects@sorting@3@YAXAAV?$vector@VRMGObject@rmgdlg@@V?$allocator@VRMGObject@rmgdlg@@@std@@@0@W4eSorting@63@_N@Z@@Z$132 10028760 f   RMG_SettingsDlg.obj
 0001:00027768       __unwindfunclet$??$_Partition_by_median_guess_unchecked@PAVRMGObject@rmgdlg@@V<lambda_1>@?1??SortRmgObjects@sorting@2@YAXAAV?$vector@VRMGObject@rmgdlg@@V?$allocator@VRMGObject@rmgdlg@@@std@@@std@@W4eSorting@52@_N@Z@@std@@YA?AU?$pair@PAVRMGObject@rmgdlg@@PAV12@@0@PAVRMGObject@rmgdlg@@0V<lambda_1>@?1??SortRmgObjects@sorting@3@YAXAAV?$vector@VRMGObject@rmgdlg@@V?$allocator@VRMGObject@rmgdlg@@@std@@@0@W4eSorting@63@_N@Z@@Z$133 10028768 f   RMG_SettingsDlg.obj
 0001:00027770       __unwindfunclet$??$_Partition_by_median_guess_unchecked@PAVRMGObject@rmgdlg@@V<lambda_1>@?1??SortRmgObjects@sorting@2@YAXAAV?$vector@VRMGObject@rmgdlg@@V?$allocator@VRMGObject@rmgdlg@@@std@@@std@@W4eSorting@52@_N@Z@@std@@YA?AU?$pair@PAVRMGObject@rmgdlg@@PAV12@@0@PAVRMGObject@rmgdlg@@0V<lambda_1>@?1??SortRmgObjects@sorting@3@YAXAAV?$vector@VRMGObject@rmgdlg@@V?$allocator@VRMGObject@rmgdlg@@@std@@@0@W4eSorting@63@_N@Z@@Z$110 10028770 f   RMG_SettingsDlg.obj
 0001:00027778       __unwindfunclet$??$_Partition_by_median_guess_unchecked@PAVRMGObject@rmgdlg@@V<lambda_1>@?1??SortRmgObjects@sorting@2@YAXAAV?$vector@VRMGObject@rmgdlg@@V?$allocator@VRMGObject@rmgdlg@@@std@@@std@@W4eSorting@52@_N@Z@@std@@YA?AU?$pair@PAVRMGObject@rmgdlg@@PAV12@@0@PAVRMGObject@rmgdlg@@0V<lambda_1>@?1??SortRmgObjects@sorting@3@YAXAAV?$vector@VRMGObject@rmgdlg@@V?$allocator@VRMGObject@rmgdlg@@@std@@@0@W4eSorting@63@_N@Z@@Z$111 10028778 f   RMG_SettingsDlg.obj
 0001:00027780       __unwindfunclet$??$_Partition_by_median_guess_unchecked@PAVRMGObject@rmgdlg@@V<lambda_1>@?1??SortRmgObjects@sorting@2@YAXAAV?$vector@VRMGObject@rmgdlg@@V?$allocator@VRMGObject@rmgdlg@@@std@@@std@@W4eSorting@52@_N@Z@@std@@YA?AU?$pair@PAVRMGObject@rmgdlg@@PAV12@@0@PAVRMGObject@rmgdlg@@0V<lambda_1>@?1??SortRmgObjects@sorting@3@YAXAAV?$vector@VRMGObject@rmgdlg@@V?$allocator@VRMGObject@rmgdlg@@@std@@@0@W4eSorting@63@_N@Z@@Z$154 10028780 f   RMG_SettingsDlg.obj
 0001:00027788       __unwindfunclet$??$_Partition_by_median_guess_unchecked@PAVRMGObject@rmgdlg@@V<lambda_1>@?1??SortRmgObjects@sorting@2@YAXAAV?$vector@VRMGObject@rmgdlg@@V?$allocator@VRMGObject@rmgdlg@@@std@@@std@@W4eSorting@52@_N@Z@@std@@YA?AU?$pair@PAVRMGObject@rmgdlg@@PAV12@@0@PAVRMGObject@rmgdlg@@0V<lambda_1>@?1??SortRmgObjects@sorting@3@YAXAAV?$vector@VRMGObject@rmgdlg@@V?$allocator@VRMGObject@rmgdlg@@@std@@@0@W4eSorting@63@_N@Z@@Z$155 10028788 f   RMG_SettingsDlg.obj
 0001:00027790       __unwindfunclet$??$_Partition_by_median_guess_unchecked@PAVRMGObject@rmgdlg@@V<lambda_1>@?1??SortRmgObjects@sorting@2@YAXAAV?$vector@VRMGObject@rmgdlg@@V?$allocator@VRMGObject@rmgdlg@@@std@@@std@@W4eSorting@52@_N@Z@@std@@YA?AU?$pair@PAVRMGObject@rmgdlg@@PAV12@@0@PAVRMGObject@rmgdlg@@0V<lambda_1>@?1??SortRmgObjects@sorting@3@YAXAAV?$vector@VRMGObject@rmgdlg@@V?$allocator@VRMGObject@rmgdlg@@@std@@@0@W4eSorting@63@_N@Z@@Z$44 10028790 f   RMG_SettingsDlg.obj
 0001:00027798       __unwindfunclet$??$_Partition_by_median_guess_unchecked@PAVRMGObject@rmgdlg@@V<lambda_1>@?1??SortRmgObjects@sorting@2@YAXAAV?$vector@VRMGObject@rmgdlg@@V?$allocator@VRMGObject@rmgdlg@@@std@@@std@@W4eSorting@52@_N@Z@@std@@YA?AU?$pair@PAVRMGObject@rmgdlg@@PAV12@@0@PAVRMGObject@rmgdlg@@0V<lambda_1>@?1??SortRmgObjects@sorting@3@YAXAAV?$vector@VRMGObject@rmgdlg@@V?$allocator@VRMGObject@rmgdlg@@@std@@@0@W4eSorting@63@_N@Z@@Z$45 10028798 f   RMG_SettingsDlg.obj
 0001:000277a0       __unwindfunclet$??$_Partition_by_median_guess_unchecked@PAVRMGObject@rmgdlg@@V<lambda_1>@?1??SortRmgObjects@sorting@2@YAXAAV?$vector@VRMGObject@rmgdlg@@V?$allocator@VRMGObject@rmgdlg@@@std@@@std@@W4eSorting@52@_N@Z@@std@@YA?AU?$pair@PAVRMGObject@rmgdlg@@PAV12@@0@PAVRMGObject@rmgdlg@@0V<lambda_1>@?1??SortRmgObjects@sorting@3@YAXAAV?$vector@VRMGObject@rmgdlg@@V?$allocator@VRMGObject@rmgdlg@@@std@@@0@W4eSorting@63@_N@Z@@Z$66 100287a0 f   RMG_SettingsDlg.obj
 0001:000277a8       __unwindfunclet$??$_Partition_by_median_guess_unchecked@PAVRMGObject@rmgdlg@@V<lambda_1>@?1??SortRmgObjects@sorting@2@YAXAAV?$vector@VRMGObject@rmgdlg@@V?$allocator@VRMGObject@rmgdlg@@@std@@@std@@W4eSorting@52@_N@Z@@std@@YA?AU?$pair@PAVRMGObject@rmgdlg@@PAV12@@0@PAVRMGObject@rmgdlg@@0V<lambda_1>@?1??SortRmgObjects@sorting@3@YAXAAV?$vector@VRMGObject@rmgdlg@@V?$allocator@VRMGObject@rmgdlg@@@std@@@0@W4eSorting@63@_N@Z@@Z$67 100287a8 f   RMG_SettingsDlg.obj
 0001:000277b0       __unwindfunclet$??$_Partition_by_median_guess_unchecked@PAVRMGObject@rmgdlg@@V<lambda_1>@?1??SortRmgObjects@sorting@2@YAXAAV?$vector@VRMGObject@rmgdlg@@V?$allocator@VRMGObject@rmgdlg@@@std@@@std@@W4eSorting@52@_N@Z@@std@@YA?AU?$pair@PAVRMGObject@rmgdlg@@PAV12@@0@PAVRMGObject@rmgdlg@@0V<lambda_1>@?1??SortRmgObjects@sorting@3@YAXAAV?$vector@VRMGObject@rmgdlg@@V?$allocator@VRMGObject@rmgdlg@@@std@@@0@W4eSorting@63@_N@Z@@Z$0 100287b0 f   RMG_SettingsDlg.obj
 0001:000277bb       __unwindfunclet$??$_Partition_by_median_guess_unchecked@PAVRMGObject@rmgdlg@@V<lambda_1>@?1??SortRmgObjects@sorting@2@YAXAAV?$vector@VRMGObject@rmgdlg@@V?$allocator@VRMGObject@rmgdlg@@@std@@@std@@W4eSorting@52@_N@Z@@std@@YA?AU?$pair@PAVRMGObject@rmgdlg@@PAV12@@0@PAVRMGObject@rmgdlg@@0V<lambda_1>@?1??SortRmgObjects@sorting@3@YAXAAV?$vector@VRMGObject@rmgdlg@@V?$allocator@VRMGObject@rmgdlg@@@std@@@0@W4eSorting@63@_N@Z@@Z$1 100287bb f   RMG_SettingsDlg.obj
 0001:000277c6       __unwindfunclet$??$_Partition_by_median_guess_unchecked@PAVRMGObject@rmgdlg@@V<lambda_1>@?1??SortRmgObjects@sorting@2@YAXAAV?$vector@VRMGObject@rmgdlg@@V?$allocator@VRMGObject@rmgdlg@@@std@@@std@@W4eSorting@52@_N@Z@@std@@YA?AU?$pair@PAVRMGObject@rmgdlg@@PAV12@@0@PAVRMGObject@rmgdlg@@0V<lambda_1>@?1??SortRmgObjects@sorting@3@YAXAAV?$vector@VRMGObject@rmgdlg@@V?$allocator@VRMGObject@rmgdlg@@@std@@@0@W4eSorting@63@_N@Z@@Z$22 100287c6 f   RMG_SettingsDlg.obj
 0001:000277d1       __unwindfunclet$??$_Partition_by_median_guess_unchecked@PAVRMGObject@rmgdlg@@V<lambda_1>@?1??SortRmgObjects@sorting@2@YAXAAV?$vector@VRMGObject@rmgdlg@@V?$allocator@VRMGObject@rmgdlg@@@std@@@std@@W4eSorting@52@_N@Z@@std@@YA?AU?$pair@PAVRMGObject@rmgdlg@@PAV12@@0@PAVRMGObject@rmgdlg@@0V<lambda_1>@?1??SortRmgObjects@sorting@3@YAXAAV?$vector@VRMGObject@rmgdlg@@V?$allocator@VRMGObject@rmgdlg@@@std@@@0@W4eSorting@63@_N@Z@@Z$23 100287d1 f   RMG_SettingsDlg.obj
 0001:000277e1       __ehhandler$??$_Partition_by_median_guess_unchecked@PAVRMGObject@rmgdlg@@V<lambda_1>@?1??SortRmgObjects@sorting@2@YAXAAV?$vector@VRMGObject@rmgdlg@@V?$allocator@VRMGObject@rmgdlg@@@std@@@std@@W4eSorting@52@_N@Z@@std@@YA?AU?$pair@PAVRMGObject@rmgdlg@@PAV12@@0@PAVRMGObject@rmgdlg@@0V<lambda_1>@?1??SortRmgObjects@sorting@3@YAXAAV?$vector@VRMGObject@rmgdlg@@V?$allocator@VRMGObject@rmgdlg@@@std@@@0@W4eSorting@63@_N@Z@@Z 100287e1 f   RMG_SettingsDlg.obj
 0001:000277f0       __ehhandler$??$construct@VRMGObject@rmgdlg@@ABUH3ObjectAttributes@h3@@ABQAUH3LoadedPcx16@4@@?$_Default_allocator_traits@V?$allocator@VRMGObject@rmgdlg@@@std@@@std@@SAXAAV?$allocator@VRMGObject@rmgdlg@@@1@QAVRMGObject@rmgdlg@@ABUH3ObjectAttributes@h3@@ABQAUH3LoadedPcx16@6@@Z 100287f0 f   RMG_SettingsDlg.obj
 0001:00027800       __unwindfunclet$??$_Pop_heap_hole_by_index@PAVRMGObject@rmgdlg@@V12@V<lambda_1>@?1??SortRmgObjects@sorting@2@YAXAAV?$vector@VRMGObject@rmgdlg@@V?$allocator@VRMGObject@rmgdlg@@@std@@@std@@W4eSorting@52@_N@Z@@std@@YAXPAVRMGObject@rmgdlg@@HH$$QAV12@V<lambda_1>@?1??SortRmgObjects@sorting@2@YAXAAV?$vector@VRMGObject@rmgdlg@@V?$allocator@VRMGObject@rmgdlg@@@std@@@0@W4eSorting@52@_N@Z@@Z$0 10028800 f   RMG_SettingsDlg.obj
 0001:00027808       __unwindfunclet$??$_Pop_heap_hole_by_index@PAVRMGObject@rmgdlg@@V12@V<lambda_1>@?1??SortRmgObjects@sorting@2@YAXAAV?$vector@VRMGObject@rmgdlg@@V?$allocator@VRMGObject@rmgdlg@@@std@@@std@@W4eSorting@52@_N@Z@@std@@YAXPAVRMGObject@rmgdlg@@HH$$QAV12@V<lambda_1>@?1??SortRmgObjects@sorting@2@YAXAAV?$vector@VRMGObject@rmgdlg@@V?$allocator@VRMGObject@rmgdlg@@@std@@@0@W4eSorting@52@_N@Z@@Z$1 10028808 f   RMG_SettingsDlg.obj
 0001:00027815       __ehhandler$??$_Pop_heap_hole_by_index@PAVRMGObject@rmgdlg@@V12@V<lambda_1>@?1??SortRmgObjects@sorting@2@YAXAAV?$vector@VRMGObject@rmgdlg@@V?$allocator@VRMGObject@rmgdlg@@@std@@@std@@W4eSorting@52@_N@Z@@std@@YAXPAVRMGObject@rmgdlg@@HH$$QAV12@V<lambda_1>@?1??SortRmgObjects@sorting@2@YAXAAV?$vector@VRMGObject@rmgdlg@@V?$allocator@VRMGObject@rmgdlg@@@std@@@0@W4eSorting@52@_N@Z@@Z 10028815 f   RMG_SettingsDlg.obj
 0001:00027830       __unwindfunclet$??$_Push_heap_by_index@PAVRMGObject@rmgdlg@@V12@V<lambda_1>@?1??SortRmgObjects@sorting@2@YAXAAV?$vector@VRMGObject@rmgdlg@@V?$allocator@VRMGObject@rmgdlg@@@std@@@std@@W4eSorting@52@_N@Z@@std@@YAXPAVRMGObject@rmgdlg@@HH$$QAV12@V<lambda_1>@?1??SortRmgObjects@sorting@2@YAXAAV?$vector@VRMGObject@rmgdlg@@V?$allocator@VRMGObject@rmgdlg@@@std@@@0@W4eSorting@52@_N@Z@@Z$0 10028830 f   RMG_SettingsDlg.obj
 0001:00027838       __unwindfunclet$??$_Push_heap_by_index@PAVRMGObject@rmgdlg@@V12@V<lambda_1>@?1??SortRmgObjects@sorting@2@YAXAAV?$vector@VRMGObject@rmgdlg@@V?$allocator@VRMGObject@rmgdlg@@@std@@@std@@W4eSorting@52@_N@Z@@std@@YAXPAVRMGObject@rmgdlg@@HH$$QAV12@V<lambda_1>@?1??SortRmgObjects@sorting@2@YAXAAV?$vector@VRMGObject@rmgdlg@@V?$allocator@VRMGObject@rmgdlg@@@std@@@0@W4eSorting@52@_N@Z@@Z$1 10028838 f   RMG_SettingsDlg.obj
 0001:00027845       __ehhandler$??$_Push_heap_by_index@PAVRMGObject@rmgdlg@@V12@V<lambda_1>@?1??SortRmgObjects@sorting@2@YAXAAV?$vector@VRMGObject@rmgdlg@@V?$allocator@VRMGObject@rmgdlg@@@std@@@std@@W4eSorting@52@_N@Z@@std@@YAXPAVRMGObject@rmgdlg@@HH$$QAV12@V<lambda_1>@?1??SortRmgObjects@sorting@2@YAXAAV?$vector@VRMGObject@rmgdlg@@V?$allocator@VRMGObject@rmgdlg@@@std@@@0@W4eSorting@52@_N@Z@@Z 10028845 f   RMG_SettingsDlg.obj
 0001:00027851       __unwindfunclet$??0system_error@std@@QAE@HABVerror_category@1@PBD@Z$0 10028851 f   libcpmt:thread0.obj
 0001:0002785e       __ehhandler$??0system_error@std@@QAE@HABVerror_category@1@PBD@Z 1002885e f   libcpmt:thread0.obj
 0001:00027885       __unwindfunclet$?_Makestr@_System_error@std@@CA?AV?$basic_string@DU?$char_traits@D@std@@V?$allocator@D@2@@2@Verror_code@2@V32@@Z$0 10028885 f   libcpmt:thread0.obj
 0001:0002788d       __unwindfunclet$?_Makestr@_System_error@std@@CA?AV?$basic_string@DU?$char_traits@D@std@@V?$allocator@D@2@@2@Verror_code@2@V32@@Z$1 1002888d f   libcpmt:thread0.obj
 0001:0002789a       __ehhandler$?_Makestr@_System_error@std@@CA?AV?$basic_string@DU?$char_traits@D@std@@V?$allocator@D@2@@2@Verror_code@2@V32@@Z 1002889a f   libcpmt:thread0.obj
 0001:000278c1       __ehhandler$__Cnd_do_broadcast_at_thread_exit 100288c1 f   libcpmt:xnotify.obj
 0001:000278de       __ehhandler$___crtGetSystemTimePreciseAsFileTime 100288de f   libcpmt:winapisupp.obj
 0001:000278fb       __ehhandler$?CallUnexpected@@YAXPBU_s_ESTypeList@@@Z 100288fb f   libvcruntime:frame.obj
 0001:00027920       __unwindfunclet$?CrBanksTxt_AfterLoad@@YGHPAVLoHook@@PAUHookContext@@@Z$0 10028920 f   dllmain.obj
 0001:0002792c       __unwindfunclet$?CrBanksTxt_AfterLoad@@YGHPAVLoHook@@PAUHookContext@@@Z$1 1002892c f   dllmain.obj
 0001:00027936       __unwindfunclet$?CrBanksTxt_AfterLoad@@YGHPAVLoHook@@PAUHookContext@@@Z$2 10028936 f   dllmain.obj
 0001:00027942       __unwindfunclet$?CrBanksTxt_AfterLoad@@YGHPAVLoHook@@PAUHookContext@@@Z$3 10028942 f   dllmain.obj
 0001:0002794c       __unwindfunclet$?CrBanksTxt_AfterLoad@@YGHPAVLoHook@@PAUHookContext@@@Z$4 1002894c f   dllmain.obj
 0001:00027958       __unwindfunclet$?CrBanksTxt_AfterLoad@@YGHPAVLoHook@@PAUHookContext@@@Z$5 10028958 f   dllmain.obj
 0001:00027962       __unwindfunclet$?CrBanksTxt_AfterLoad@@YGHPAVLoHook@@PAUHookContext@@@Z$6 10028962 f   dllmain.obj
 0001:0002796e       __unwindfunclet$?CrBanksTxt_AfterLoad@@YGHPAVLoHook@@PAUHookContext@@@Z$7 1002896e f   dllmain.obj
 0001:0002797d       __ehhandler$?CrBanksTxt_AfterLoad@@YGHPAVLoHook@@PAUHookContext@@@Z 1002897d f   dllmain.obj
 0001:00027989       __unwindfunclet$?OnReportVersion@@YGXPAUTEvent@Era@@@Z$0 10028989 f   dllmain.obj
 0001:00027996       __ehhandler$?OnReportVersion@@YGXPAUTEvent@Era@@@Z 10028996 f   dllmain.obj
 0001:000279b0       __ehhandler$?ShrinkToFit@CreatureBanksExtender@cbanks@@AAEXXZ 100289b0 f   CreatureBanksExtender.obj
 0001:000279bc       __ehhandler$?Reserve@CreatureBanksExtender@cbanks@@AAEXG@Z 100289bc f   CreatureBanksExtender.obj
 0001:000279c8       __ehhandler$?Resize@CreatureBanksExtender@cbanks@@AAEXG@Z 100289c8 f   CreatureBanksExtender.obj
 0001:000279d4       __unwindfunclet$?GetBankSetupsNumberFromJson@CreatureBanksExtender@cbanks@@AAE?BHF@Z$34 100289d4 f   CreatureBanksExtender.obj
 0001:000279df       __unwindfunclet$?GetBankSetupsNumberFromJson@CreatureBanksExtender@cbanks@@AAE?BHF@Z$1 100289df f   CreatureBanksExtender.obj
 0001:000279ea       __unwindfunclet$?GetBankSetupsNumberFromJson@CreatureBanksExtender@cbanks@@AAE?BHF@Z$2 100289ea f   CreatureBanksExtender.obj
 0001:000279f2       __unwindfunclet$?GetBankSetupsNumberFromJson@CreatureBanksExtender@cbanks@@AAE?BHF@Z$3 100289f2 f   CreatureBanksExtender.obj
 0001:000279ff       __ehhandler$?GetBankSetupsNumberFromJson@CreatureBanksExtender@cbanks@@AAE?BHF@Z 100289ff f   CreatureBanksExtender.obj
 0001:00027a0b       __ehhandler$?GetCreatureBankId@CreatureBanksExtender@cbanks@@SAHHH@Z 10028a0b f   CreatureBanksExtender.obj
 0001:00027a17       __unwindfunclet$?OnAfterReloadLanguageData@CreatureBanksExtender@cbanks@@CGXPAUTEvent@Era@@@Z$0 10028a17 f   CreatureBanksExtender.obj
 0001:00027a1f       __unwindfunclet$?OnAfterReloadLanguageData@CreatureBanksExtender@cbanks@@CGXPAUTEvent@Era@@@Z$1 10028a1f f   CreatureBanksExtender.obj
 0001:00027a2c       __ehhandler$?OnAfterReloadLanguageData@CreatureBanksExtender@cbanks@@CGXPAUTEvent@Era@@@Z 10028a2c f   CreatureBanksExtender.obj
 0001:00027a38       __unwindfunclet$??0CreatureBanksExtender@cbanks@@AAE@XZ$0 10028a38 f   CreatureBanksExtender.obj
 0001:00027a40       __unwindfunclet$??0CreatureBanksExtender@cbanks@@AAE@XZ$1 10028a40 f   CreatureBanksExtender.obj
 0001:00027a4b       __unwindfunclet$??0CreatureBanksExtender@cbanks@@AAE@XZ$2 10028a4b f   CreatureBanksExtender.obj
 0001:00027a5b       __ehhandler$??0CreatureBanksExtender@cbanks@@AAE@XZ 10028a5b f   CreatureBanksExtender.obj
 0001:00027a67       __unwindfunclet$?Get@CreatureBanksExtender@cbanks@@SAAAV12@XZ$0 10028a67 f   CreatureBanksExtender.obj
 0001:00027a78       __ehhandler$?Get@CreatureBanksExtender@cbanks@@SAAAV12@XZ 10028a78 f   CreatureBanksExtender.obj
 0001:00027a90       __unwindfunclet$?ShowHint@gazebo@@YAHPAVLoHook@@PAUHookContext@@PBD@Z$0 10028a90 f   GazeboExtender.obj
 0001:00027a9d       __ehhandler$?ShowHint@gazebo@@YAHPAVLoHook@@PAUHookContext@@PBD@Z 10028a9d f   GazeboExtender.obj
 0001:00027aa9       __unwindfunclet$?H3AdventureManager__ObjectVisit@GazeboExtender@gazebo@@CGHPAVLoHook@@PAUHookContext@@@Z$0 10028aa9 f   GazeboExtender.obj
 0001:00027ab1       __unwindfunclet$?H3AdventureManager__ObjectVisit@GazeboExtender@gazebo@@CGHPAVLoHook@@PAUHookContext@@@Z$1 10028ab1 f   GazeboExtender.obj
 0001:00027abe       __ehhandler$?H3AdventureManager__ObjectVisit@GazeboExtender@gazebo@@CGHPAVLoHook@@PAUHookContext@@@Z 10028abe f   GazeboExtender.obj
 0001:00027aca       __unwindfunclet$?ShowMessage@gazebo@@YAXPBUH3MapItem@h3@@H_N@Z$0 10028aca f   GazeboExtender.obj
 0001:00027ad2       __unwindfunclet$?ShowMessage@gazebo@@YAXPBUH3MapItem@h3@@H_N@Z$1 10028ad2 f   GazeboExtender.obj
 0001:00027ada       __unwindfunclet$?ShowMessage@gazebo@@YAXPBUH3MapItem@h3@@H_N@Z$2 10028ada f   GazeboExtender.obj
 0001:00027ae2       __unwindfunclet$?ShowMessage@gazebo@@YAXPBUH3MapItem@h3@@H_N@Z$3 10028ae2 f   GazeboExtender.obj
 0001:00027aea       __unwindfunclet$?ShowMessage@gazebo@@YAXPBUH3MapItem@h3@@H_N@Z$4 10028aea f   GazeboExtender.obj
 0001:00027af7       __ehhandler$?ShowMessage@gazebo@@YAXPBUH3MapItem@h3@@H_N@Z 10028af7 f   GazeboExtender.obj
 0001:00027b03       __ehhandler$?AIHero_GetObjectPosWeight@GazeboExtender@gazebo@@CGHPAVLoHook@@PAUHookContext@@@Z 10028b03 f   GazeboExtender.obj
 0001:00027b0f       __unwindfunclet$??0GazeboExtender@gazebo@@AAE@XZ$0 10028b0f f   GazeboExtender.obj
 0001:00027b1c       __ehhandler$??0GazeboExtender@gazebo@@AAE@XZ 10028b1c f   GazeboExtender.obj
 0001:00027b28       __unwindfunclet$?Get@GazeboExtender@gazebo@@SAAAV12@XZ$0 10028b28 f   GazeboExtender.obj
 0001:00027b34       __unwindfunclet$?Get@GazeboExtender@gazebo@@SAAAV12@XZ$1 10028b34 f   GazeboExtender.obj
 0001:00027b43       __ehhandler$?Get@GazeboExtender@gazebo@@SAAAV12@XZ 10028b43 f   GazeboExtender.obj
 0001:00027b50       __ehhandler$?Shrine__AtGetHint@ShrinesExternder@shrines@@CGHPAVLoHook@@PAUHookContext@@@Z 10028b50 f   ShrinesExternder.obj
 0001:00027b5c       __ehhandler$?Shrine__AtGetName@ShrinesExternder@shrines@@CGHPAVLoHook@@PAUHookContext@@@Z 10028b5c f   ShrinesExternder.obj
 0001:00027b68       __unwindfunclet$??0ShrinesExternder@shrines@@AAE@XZ$0 10028b68 f   ShrinesExternder.obj
 0001:00027b75       __ehhandler$??0ShrinesExternder@shrines@@AAE@XZ 10028b75 f   ShrinesExternder.obj
 0001:00027b81       __unwindfunclet$?Get@ShrinesExternder@shrines@@SAAAV12@XZ$0 10028b81 f   ShrinesExternder.obj
 0001:00027b8d       __unwindfunclet$?Get@ShrinesExternder@shrines@@SAAAV12@XZ$1 10028b8d f   ShrinesExternder.obj
 0001:00027b9c       __ehhandler$?Get@ShrinesExternder@shrines@@SAAAV12@XZ 10028b9c f   ShrinesExternder.obj
 0001:00027bb0       __unwindfunclet$?ShowHint@warehouses@@YAHPAVLoHook@@PAUHookContext@@PBD@Z$0 10028bb0 f   WarehousesExtender.obj
 0001:00027bbd       __ehhandler$?ShowHint@warehouses@@YAHPAVLoHook@@PAUHookContext@@PBD@Z 10028bbd f   WarehousesExtender.obj
 0001:00027bc9       __unwindfunclet$?ShowMessage@warehouses@@YAXPBUH3MapItem@h3@@HH@Z$0 10028bc9 f   WarehousesExtender.obj
 0001:00027bd1       __unwindfunclet$?ShowMessage@warehouses@@YAXPBUH3MapItem@h3@@HH@Z$1 10028bd1 f   WarehousesExtender.obj
 0001:00027bd9       __unwindfunclet$?ShowMessage@warehouses@@YAXPBUH3MapItem@h3@@HH@Z$2 10028bd9 f   WarehousesExtender.obj
 0001:00027bf2       __unwindfunclet$?ShowMessage@warehouses@@YAXPBUH3MapItem@h3@@HH@Z$3 10028bf2 f   WarehousesExtender.obj
 0001:00027c10       __ehhandler$?ShowMessage@warehouses@@YAXPBUH3MapItem@h3@@HH@Z 10028c10 f   WarehousesExtender.obj
 0001:00027c1c       __unwindfunclet$??0WarehousesExtender@warehouses@@AAE@XZ$0 10028c1c f   WarehousesExtender.obj
 0001:00027c29       __ehhandler$??0WarehousesExtender@warehouses@@AAE@XZ 10028c29 f   WarehousesExtender.obj
 0001:00027c35       __unwindfunclet$?Get@WarehousesExtender@warehouses@@SAAAV12@XZ$0 10028c35 f   WarehousesExtender.obj
 0001:00027c41       __unwindfunclet$?Get@WarehousesExtender@warehouses@@SAAAV12@XZ$1 10028c41 f   WarehousesExtender.obj
 0001:00027c50       __ehhandler$?Get@WarehousesExtender@warehouses@@SAAAV12@XZ 10028c50 f   WarehousesExtender.obj
 0001:00027c60       __ehhandler$?OnEveryDay@wateringPlace@@YGXPAUTEvent@Era@@@Z 10028c60 f   WateringPlaceExtender.obj
 0001:00027c6c       __unwindfunclet$?ShowHint@wateringPlace@@YAHPAVLoHook@@PAUHookContext@@PBD@Z$0 10028c6c f   WateringPlaceExtender.obj
 0001:00027c79       __ehhandler$?ShowHint@wateringPlace@@YAHPAVLoHook@@PAUHookContext@@PBD@Z 10028c79 f   WateringPlaceExtender.obj
 0001:00027c85       __unwindfunclet$?H3AdventureManager__ObjectVisit@WateringPlaceExtender@wateringPlace@@CGHPAVLoHook@@PAUHookContext@@@Z$0 10028c85 f   WateringPlaceExtender.obj
 0001:00027c8d       __unwindfunclet$?H3AdventureManager__ObjectVisit@WateringPlaceExtender@wateringPlace@@CGHPAVLoHook@@PAUHookContext@@@Z$1 10028c8d f   WateringPlaceExtender.obj
 0001:00027c9a       __ehhandler$?H3AdventureManager__ObjectVisit@WateringPlaceExtender@wateringPlace@@CGHPAVLoHook@@PAUHookContext@@@Z 10028c9a f   WateringPlaceExtender.obj
 0001:00027ca6       __unwindfunclet$?ShowMessage@wateringPlace@@YAXPBUH3MapItem@h3@@_N@Z$0 10028ca6 f   WateringPlaceExtender.obj
 0001:00027cae       __unwindfunclet$?ShowMessage@wateringPlace@@YAXPBUH3MapItem@h3@@_N@Z$1 10028cae f   WateringPlaceExtender.obj
 0001:00027cb6       __unwindfunclet$?ShowMessage@wateringPlace@@YAXPBUH3MapItem@h3@@_N@Z$2 10028cb6 f   WateringPlaceExtender.obj
 0001:00027cc3       __ehhandler$?ShowMessage@wateringPlace@@YAXPBUH3MapItem@h3@@_N@Z 10028cc3 f   WateringPlaceExtender.obj
 0001:00027ccf       __unwindfunclet$??0WateringPlaceExtender@wateringPlace@@AAE@XZ$0 10028ccf f   WateringPlaceExtender.obj
 0001:00027cdc       __ehhandler$??0WateringPlaceExtender@wateringPlace@@AAE@XZ 10028cdc f   WateringPlaceExtender.obj
 0001:00027ce8       __unwindfunclet$?Get@WateringPlaceExtender@wateringPlace@@SAAAV12@XZ$0 10028ce8 f   WateringPlaceExtender.obj
 0001:00027cf4       __unwindfunclet$?Get@WateringPlaceExtender@wateringPlace@@SAAAV12@XZ$1 10028cf4 f   WateringPlaceExtender.obj
 0001:00027d03       __ehhandler$?Get@WateringPlaceExtender@wateringPlace@@SAAAV12@XZ 10028d03 f   WateringPlaceExtender.obj
 0001:00027d10       __unwindfunclet$?H3AdventureManager__ObjectVisit_SoundPlay@ObjectsExtender@extender@@CGHPAVLoHook@@PAUHookContext@@@Z$0 10028d10 f   ObjectsExtender.obj
 0001:00027d18       __unwindfunclet$?H3AdventureManager__ObjectVisit_SoundPlay@ObjectsExtender@extender@@CGHPAVLoHook@@PAUHookContext@@@Z$1 10028d18 f   ObjectsExtender.obj
 0001:00027d25       __ehhandler$?H3AdventureManager__ObjectVisit_SoundPlay@ObjectsExtender@extender@@CGHPAVLoHook@@PAUHookContext@@@Z 10028d25 f   ObjectsExtender.obj
 0001:00027d31       __unwindfunclet$?AddObjectsToObjectGenList@ObjectsExtender@extender@@SAXPAU?$H3Vector@PAUH3RmgObjectGenerator@h3@@@h3@@@Z$0 10028d31 f   ObjectsExtender.obj
 0001:00027d3e       __ehhandler$?AddObjectsToObjectGenList@ObjectsExtender@extender@@SAXPAU?$H3Vector@PAUH3RmgObjectGenerator@h3@@@h3@@@Z 10028d3e f   ObjectsExtender.obj
 0001:00027d4a       __ehhandler$?CreateRmgObjectGen@extender@@YAPAUH3RmgObjectGenerator@h3@@ABURMGObjectInfo@@@Z 10028d4a f   ObjectsExtender.obj
 0001:00027d56       __unwindfunclet$?H3GameMainSetup__LoadObjects@ObjectsExtender@extender@@CGXPAVHiHook@@PBUH3MainSetup@h3@@@Z$14 10028d56 f   ObjectsExtender.obj
 0001:00027d5e       __unwindfunclet$?H3GameMainSetup__LoadObjects@ObjectsExtender@extender@@CGXPAVHiHook@@PBUH3MainSetup@h3@@@Z$12 10028d5e f   ObjectsExtender.obj
 0001:00027d6b       __ehhandler$?H3GameMainSetup__LoadObjects@ObjectsExtender@extender@@CGXPAVHiHook@@PBUH3MainSetup@h3@@@Z 10028d6b f   ObjectsExtender.obj
 0001:00027d77       __unwindfunclet$?LoadObjectsTxt@ObjectsExtender@extender@@CGHPAVLoHook@@PAUHookContext@@@Z$1 10028d77 f   ObjectsExtender.obj
 0001:00027d7f       __unwindfunclet$?LoadObjectsTxt@ObjectsExtender@extender@@CGHPAVLoHook@@PAUHookContext@@@Z$0 10028d7f f   ObjectsExtender.obj
 0001:00027d8c       __ehhandler$?LoadObjectsTxt@ObjectsExtender@extender@@CGHPAVLoHook@@PAUHookContext@@@Z 10028d8c f   ObjectsExtender.obj
 0001:00027d98       __unwindfunclet$??0ObjectsExtender@extender@@IAE@PAVPatcherInstance@@@Z$2 10028d98 f   ObjectsExtender.obj
 0001:00027da5       __ehhandler$??0ObjectsExtender@extender@@IAE@PAVPatcherInstance@@@Z 10028da5 f   ObjectsExtender.obj
 0001:00027dc0       __ehhandler$?GetObjectName@RMGObjectInfo@@SAPBDHH@Z 10028dc0 f   RMGObjectsEditor.obj
 0001:00027dcc       __ehhandler$?GetName@RMGObjectInfo@@QBEPBDXZ 10028dcc f   RMGObjectsEditor.obj
 0001:00027dd8       __ehhandler$??1RMGObjectsEditor@editor@@EAE@XZ 10028dd8 f   RMGObjectsEditor.obj
 0001:00027de4       __unwindfunclet$?InitLoading@RMGObjectsEditor@editor@@AAEXPBF@Z$0 10028de4 f   RMGObjectsEditor.obj
 0001:00027df1       __ehhandler$?InitLoading@RMGObjectsEditor@editor@@AAEXPBF@Z 10028df1 f   RMGObjectsEditor.obj
 0001:00027dfd       __ehhandler$?InitDefaults@RMGObjectsEditor@editor@@AAEXPBF@Z 10028dfd f   RMGObjectsEditor.obj
 0001:00027e09       __unwindfunclet$??0RMGObjectsEditor@editor@@AAE@XZ$0 10028e09 f   RMGObjectsEditor.obj
 0001:00027e14       __unwindfunclet$??0RMGObjectsEditor@editor@@AAE@XZ$1 10028e14 f   RMGObjectsEditor.obj
 0001:00027e22       __unwindfunclet$??0RMGObjectsEditor@editor@@AAE@XZ$2 10028e22 f   RMGObjectsEditor.obj
 0001:00027e30       __unwindfunclet$??0RMGObjectsEditor@editor@@AAE@XZ$3 10028e30 f   RMGObjectsEditor.obj
 0001:00027e43       __ehhandler$??0RMGObjectsEditor@editor@@AAE@XZ 10028e43 f   RMGObjectsEditor.obj
 0001:00027e4f       __unwindfunclet$?Init@RMGObjectsEditor@editor@@SAXPBF@Z$2 10028e4f f   RMGObjectsEditor.obj
 0001:00027e57       __unwindfunclet$?Init@RMGObjectsEditor@editor@@SAXPBF@Z$0 10028e57 f   RMGObjectsEditor.obj
 0001:00027e64       __ehhandler$?Init@RMGObjectsEditor@editor@@SAXPBF@Z 10028e64 f   RMGObjectsEditor.obj
 0001:00027e70       __ehhandler$?Get@RMGObjectsEditor@editor@@SAAAV12@XZ 10028e70 f   RMGObjectsEditor.obj
 0001:00027e80       __unwindfunclet$?GameStart@rmgdlg@@YGXPAVHiHook@@K@Z$3 10028e80 f   RMG_SettingsDlg.obj
 0001:00027e88       __unwindfunclet$?GameStart@rmgdlg@@YGXPAVHiHook@@K@Z$0 10028e88 f   RMG_SettingsDlg.obj
 0001:00027e95       __ehhandler$?GameStart@rmgdlg@@YGXPAVHiHook@@K@Z 10028e95 f   RMG_SettingsDlg.obj
 0001:00027ea1       __ehhandler$?CreateGraphics@rmgdlg@@YAXABU?$H3Vector@PAUH3RmgObjectGenerator@h3@@@h3@@@Z 10028ea1 f   RMG_SettingsDlg.obj
 0001:00027ead       __ehhandler$?CreateResizedObjectPcx@rmgdlg@@YAXXZ 10028ead f   RMG_SettingsDlg.obj
 0001:00027eb9       __ehhandler$?NewScenarioDlg_Create@RMG_SettingsDlg@rmgdlg@@CGXPAVHiHook@@PAUH3SelectScenarioDialog@h3@@K@Z 10028eb9 f   RMG_SettingsDlg.obj
 0001:00027ec5       __unwindfunclet$?SelectScenarioDlgRandomizeProc@rmgdlg@@YIHPAUH3Msg@h3@@@Z$0 10028ec5 f   RMG_SettingsDlg.obj
 0001:00027ed2       __ehhandler$?SelectScenarioDlgRandomizeProc@rmgdlg@@YIHPAUH3Msg@h3@@@Z 10028ed2 f   RMG_SettingsDlg.obj
 0001:00027ede       __unwindfunclet$?Dlg_SelectScenario_Proc@RMG_SettingsDlg@rmgdlg@@CGHPAVLoHook@@PAUHookContext@@@Z$0 10028ede f   RMG_SettingsDlg.obj
 0001:00027eee       __ehhandler$?Dlg_SelectScenario_Proc@RMG_SettingsDlg@rmgdlg@@CGHPAVLoHook@@PAUHookContext@@@Z 10028eee f   RMG_SettingsDlg.obj
 0001:00027efa       __unwindfunclet$?GetObjectPrototypesLists@rmgdlg@@YAXXZ$0 10028efa f   RMG_SettingsDlg.obj
 0001:00027f02       __unwindfunclet$?GetObjectPrototypesLists@rmgdlg@@YAXXZ$1 10028f02 f   RMG_SettingsDlg.obj
 0001:00027f0a       __unwindfunclet$?GetObjectPrototypesLists@rmgdlg@@YAXXZ$2 10028f0a f   RMG_SettingsDlg.obj
 0001:00027f12       __unwindfunclet$?GetObjectPrototypesLists@rmgdlg@@YAXXZ$5 10028f12 f   RMG_SettingsDlg.obj
 0001:00027f1a       __unwindfunclet$?GetObjectPrototypesLists@rmgdlg@@YAXXZ$6 10028f1a f   RMG_SettingsDlg.obj
 0001:00027f25       __unwindfunclet$?GetObjectPrototypesLists@rmgdlg@@YAXXZ$16 10028f25 f   RMG_SettingsDlg.obj
 0001:00027f32       __ehhandler$?GetObjectPrototypesLists@rmgdlg@@YAXXZ 10028f32 f   RMG_SettingsDlg.obj
 0001:00027f3e       __unwindfunclet$?FindDataInObjectGeneratorsList@rmgdlg@@YAXAAV?$vector@U?$pair@UH3ObjectAttributes@h3@@PAUH3LoadedPcx16@2@@std@@V?$allocator@U?$pair@UH3ObjectAttributes@h3@@PAUH3LoadedPcx16@2@@std@@@2@@std@@@Z$0 10028f3e f   RMG_SettingsDlg.obj
 0001:00027f4b       __ehhandler$?FindDataInObjectGeneratorsList@rmgdlg@@YAXAAV?$vector@U?$pair@UH3ObjectAttributes@h3@@PAUH3LoadedPcx16@2@@std@@V?$allocator@U?$pair@UH3ObjectAttributes@h3@@PAUH3LoadedPcx16@2@@std@@@2@@std@@@Z 10028f4b f   RMG_SettingsDlg.obj
 0001:00027f57       __unwindfunclet$?GetObjectPrototypesByTypes@rmgdlg@@YAXAAV?$vector@U?$pair@UH3ObjectAttributes@h3@@PAUH3LoadedPcx16@2@@std@@V?$allocator@U?$pair@UH3ObjectAttributes@h3@@PAUH3LoadedPcx16@2@@std@@@2@@std@@PBHI@Z$0 10028f57 f   RMG_SettingsDlg.obj
 0001:00027f64       __ehhandler$?GetObjectPrototypesByTypes@rmgdlg@@YAXAAV?$vector@U?$pair@UH3ObjectAttributes@h3@@PAUH3LoadedPcx16@2@@std@@V?$allocator@U?$pair@UH3ObjectAttributes@h3@@PAUH3LoadedPcx16@2@@std@@@2@@std@@PBHI@Z 10028f64 f   RMG_SettingsDlg.obj
 0001:00027f70       __unwindfunclet$??0PageHeader@ObjectsPage@RMG_SettingsDlg@rmgdlg@@QAE@HHHHH@Z$0 10028f70 f   RMG_SettingsDlg.obj
 0001:00027f7b       __unwindfunclet$??0PageHeader@ObjectsPage@RMG_SettingsDlg@rmgdlg@@QAE@HHHHH@Z$1 10028f7b f   RMG_SettingsDlg.obj
 0001:00027f86       __unwindfunclet$??0PageHeader@ObjectsPage@RMG_SettingsDlg@rmgdlg@@QAE@HHHHH@Z$2 10028f86 f   RMG_SettingsDlg.obj
 0001:00027f8e       __unwindfunclet$??0PageHeader@ObjectsPage@RMG_SettingsDlg@rmgdlg@@QAE@HHHHH@Z$3 10028f8e f   RMG_SettingsDlg.obj
 0001:00027f99       __unwindfunclet$??0PageHeader@ObjectsPage@RMG_SettingsDlg@rmgdlg@@QAE@HHHHH@Z$4 10028f99 f   RMG_SettingsDlg.obj
 0001:00027fa4       __unwindfunclet$??0PageHeader@ObjectsPage@RMG_SettingsDlg@rmgdlg@@QAE@HHHHH@Z$5 10028fa4 f   RMG_SettingsDlg.obj
 0001:00027fb4       __ehhandler$??0PageHeader@ObjectsPage@RMG_SettingsDlg@rmgdlg@@QAE@HHHHH@Z 10028fb4 f   RMG_SettingsDlg.obj
 0001:00027fc0       __ehhandler$??0RMGObject@rmgdlg@@QAE@ABUH3ObjectAttributes@h3@@PAUH3LoadedPcx16@3@@Z 10028fc0 f   RMG_SettingsDlg.obj
 0001:00027fcc       __ehhandler$?SetActivePage@RMG_SettingsDlg@rmgdlg@@AAEHPAUPage@12@@Z 10028fcc f   RMG_SettingsDlg.obj
 0001:00027fd8       __ehhandler$?ShowObjectExtendedInfo@BanksPage@RMG_SettingsDlg@rmgdlg@@UBEHPBUObjectsPanel@23@ABUH3Msg@h3@@@Z 10028fd8 f   RMG_SettingsDlg.obj
 0001:00027fe4       __ehhandler$?ShowObjectExtendedInfo@ObjectsPage@RMG_SettingsDlg@rmgdlg@@MBEHPBUObjectsPanel@23@ABUH3Msg@h3@@@Z 10028fe4 f   RMG_SettingsDlg.obj
 0001:00027ff0       __ehhandler$?FillObjects@ObjectsPage@RMG_SettingsDlg@rmgdlg@@MAEXH@Z 10028ff0 f   RMG_SettingsDlg.obj
 0001:00027ffc       __unwindfunclet$??0ObjectsPage@RMG_SettingsDlg@rmgdlg@@QAE@PAUH3DlgCaptionButton@h3@@ABV?$vector@U?$pair@UH3ObjectAttributes@h3@@PAUH3LoadedPcx16@2@@std@@V?$allocator@U?$pair@UH3ObjectAttributes@h3@@PAUH3LoadedPcx16@2@@std@@@2@@std@@H@Z$0 10028ffc f   RMG_SettingsDlg.obj
 0001:00028004       __unwindfunclet$??0ObjectsPage@RMG_SettingsDlg@rmgdlg@@QAE@PAUH3DlgCaptionButton@h3@@ABV?$vector@U?$pair@UH3ObjectAttributes@h3@@PAUH3LoadedPcx16@2@@std@@V?$allocator@U?$pair@UH3ObjectAttributes@h3@@PAUH3LoadedPcx16@2@@std@@@2@@std@@H@Z$1 10029004 f   RMG_SettingsDlg.obj
 0001:0002800f       __unwindfunclet$??0ObjectsPage@RMG_SettingsDlg@rmgdlg@@QAE@PAUH3DlgCaptionButton@h3@@ABV?$vector@U?$pair@UH3ObjectAttributes@h3@@PAUH3LoadedPcx16@2@@std@@V?$allocator@U?$pair@UH3ObjectAttributes@h3@@PAUH3LoadedPcx16@2@@std@@@2@@std@@H@Z$2 1002900f f   RMG_SettingsDlg.obj
 0001:0002801a       __unwindfunclet$??0ObjectsPage@RMG_SettingsDlg@rmgdlg@@QAE@PAUH3DlgCaptionButton@h3@@ABV?$vector@U?$pair@UH3ObjectAttributes@h3@@PAUH3LoadedPcx16@2@@std@@V?$allocator@U?$pair@UH3ObjectAttributes@h3@@PAUH3LoadedPcx16@2@@std@@@2@@std@@H@Z$3 1002901a f   RMG_SettingsDlg.obj
 0001:00028029       __unwindfunclet$??0ObjectsPage@RMG_SettingsDlg@rmgdlg@@QAE@PAUH3DlgCaptionButton@h3@@ABV?$vector@U?$pair@UH3ObjectAttributes@h3@@PAUH3LoadedPcx16@2@@std@@V?$allocator@U?$pair@UH3ObjectAttributes@h3@@PAUH3LoadedPcx16@2@@std@@@2@@std@@H@Z$4 10029029 f   RMG_SettingsDlg.obj
 0001:0002803d       __ehhandler$??0ObjectsPage@RMG_SettingsDlg@rmgdlg@@QAE@PAUH3DlgCaptionButton@h3@@ABV?$vector@U?$pair@UH3ObjectAttributes@h3@@PAUH3LoadedPcx16@2@@std@@V?$allocator@U?$pair@UH3ObjectAttributes@h3@@PAUH3LoadedPcx16@2@@std@@@2@@std@@H@Z 1002903d f   RMG_SettingsDlg.obj
 0001:00028049       __ehhandler$??1RMG_SettingsDlg@rmgdlg@@EAE@XZ 10029049 f   RMG_SettingsDlg.obj
 0001:00028055       __ehhandler$?PanelInfoToObjectInfo@ObjectsPanel@RMG_SettingsDlg@rmgdlg@@QAEXXZ 10029055 f   RMG_SettingsDlg.obj
 0001:00028061       __ehhandler$?ObjectInfoToPanelInfo@ObjectsPanel@RMG_SettingsDlg@rmgdlg@@QAEXXZ 10029061 f   RMG_SettingsDlg.obj
 0001:0002806d       __ehhandler$?UnfocusEdits@ObjectsPanel@RMG_SettingsDlg@rmgdlg@@QAE?BHH@Z 1002906d f   RMG_SettingsDlg.obj
 0001:00028079       __ehhandler$?SetObject@ObjectsPanel@RMG_SettingsDlg@rmgdlg@@QAEXPAVRMGObject@3@@Z 10029079 f   RMG_SettingsDlg.obj
 0001:00028085       __unwindfunclet$??0ObjectsPanel@RMG_SettingsDlg@rmgdlg@@QAE@HHPAUPage@12@@Z$0 10029085 f   RMG_SettingsDlg.obj
 0001:00028095       __ehhandler$??0ObjectsPanel@RMG_SettingsDlg@rmgdlg@@QAE@HHPAUPage@12@@Z 10029095 f   RMG_SettingsDlg.obj
 0001:000280a1       __ehhandler$?CreateHorizontalScrollBar@ObjectsPage@RMG_SettingsDlg@rmgdlg@@IAEXXZ 100290a1 f   RMG_SettingsDlg.obj
 0001:000280ad       __ehhandler$?CreateVerticalScrollBar@ObjectsPage@RMG_SettingsDlg@rmgdlg@@IAEXXZ 100290ad f   RMG_SettingsDlg.obj
 0001:000280b9       __unwindfunclet$?SaveObjects@RMG_SettingsDlg@rmgdlg@@AAEHH@Z$0 100290b9 f   RMG_SettingsDlg.obj
 0001:000280c1       __unwindfunclet$?SaveObjects@RMG_SettingsDlg@rmgdlg@@AAEHH@Z$1 100290c1 f   RMG_SettingsDlg.obj
 0001:000280ce       __ehhandler$?SaveObjects@RMG_SettingsDlg@rmgdlg@@AAEHH@Z 100290ce f   RMG_SettingsDlg.obj
 0001:000280da       __ehhandler$?WriteIniDlgSettings@RMG_SettingsDlg@rmgdlg@@ABE?BHXZ 100290da f   RMG_SettingsDlg.obj
 0001:000280e6       __ehhandler$?ReadIniDlgSettings@RMG_SettingsDlg@rmgdlg@@AAE?BHXZ 100290e6 f   RMG_SettingsDlg.obj
 0001:000280f2       __ehhandler$?OnOK@RMG_SettingsDlg@rmgdlg@@EAEXXZ 100290f2 f   RMG_SettingsDlg.obj
 0001:000280fe       __ehhandler$?RemoveEditsFocus@RMG_SettingsDlg@rmgdlg@@ABE?BHH@Z 100290fe f   RMG_SettingsDlg.obj
 0001:0002810a       __unwindfunclet$?OnHelp@RMG_SettingsDlg@rmgdlg@@AAEXXZ$0 1002910a f   RMG_SettingsDlg.obj
 0001:00028112       __unwindfunclet$?OnHelp@RMG_SettingsDlg@rmgdlg@@AAEXXZ$1 10029112 f   RMG_SettingsDlg.obj
 0001:0002811f       __ehhandler$?OnHelp@RMG_SettingsDlg@rmgdlg@@AAEXXZ 1002911f f   RMG_SettingsDlg.obj
 0001:0002812b       __unwindfunclet$??0RMG_SettingsDlg@rmgdlg@@QAE@HHHH@Z$0 1002912b f   RMG_SettingsDlg.obj
 0001:00028133       __unwindfunclet$??0RMG_SettingsDlg@rmgdlg@@QAE@HHHH@Z$1 10029133 f   RMG_SettingsDlg.obj
 0001:00028141       __unwindfunclet$??0RMG_SettingsDlg@rmgdlg@@QAE@HHHH@Z$2 10029141 f   RMG_SettingsDlg.obj
 0001:0002814f       __unwindfunclet$??0RMG_SettingsDlg@rmgdlg@@QAE@HHHH@Z$3 1002914f f   RMG_SettingsDlg.obj
 0001:00028157       __unwindfunclet$??0RMG_SettingsDlg@rmgdlg@@QAE@HHHH@Z$4 10029157 f   RMG_SettingsDlg.obj
 0001:0002815f       __unwindfunclet$??0RMG_SettingsDlg@rmgdlg@@QAE@HHHH@Z$5 1002915f f   RMG_SettingsDlg.obj
 0001:00028167       __unwindfunclet$??0RMG_SettingsDlg@rmgdlg@@QAE@HHHH@Z$6 10029167 f   RMG_SettingsDlg.obj
 0001:0002816f       __unwindfunclet$??0RMG_SettingsDlg@rmgdlg@@QAE@HHHH@Z$7 1002916f f   RMG_SettingsDlg.obj
 0001:0002817e       __unwindfunclet$??0RMG_SettingsDlg@rmgdlg@@QAE@HHHH@Z$8 1002917e f   RMG_SettingsDlg.obj
 0001:0002818d       __unwindfunclet$??0RMG_SettingsDlg@rmgdlg@@QAE@HHHH@Z$9 1002918d f   RMG_SettingsDlg.obj
 0001:0002819c       __unwindfunclet$??0RMG_SettingsDlg@rmgdlg@@QAE@HHHH@Z$10 1002919c f   RMG_SettingsDlg.obj
 0001:000281b0       __ehhandler$??0RMG_SettingsDlg@rmgdlg@@QAE@HHHH@Z 100291b0 f   RMG_SettingsDlg.obj
 0001:000281bc       __unwindfunclet$??R<lambda_1>@?1??SortRmgObjects@sorting@rmgdlg@@YAXAAV?$vector@VRMGObject@rmgdlg@@V?$allocator@VRMGObject@rmgdlg@@@std@@@std@@W4eSorting@23@_N@Z@QBE_NABVRMGObject@3@3@Z$0 100291bc f   RMG_SettingsDlg.obj
 0001:000281c4       __unwindfunclet$??R<lambda_1>@?1??SortRmgObjects@sorting@rmgdlg@@YAXAAV?$vector@VRMGObject@rmgdlg@@V?$allocator@VRMGObject@rmgdlg@@@std@@@std@@W4eSorting@23@_N@Z@QBE_NABVRMGObject@3@3@Z$1 100291c4 f   RMG_SettingsDlg.obj
 0001:000281d1       __ehhandler$??R<lambda_1>@?1??SortRmgObjects@sorting@rmgdlg@@YAXAAV?$vector@VRMGObject@rmgdlg@@V?$allocator@VRMGObject@rmgdlg@@@std@@@std@@W4eSorting@23@_N@Z@QBE_NABVRMGObject@3@3@Z 100291d1 f   RMG_SettingsDlg.obj
 0001:000281e0       ??__F_instance@?1??Get@CreatureBanksExtender@cbanks@@SAAAV12@XZ@YAXXZ 100291e0 f   CreatureBanksExtender.obj
 0001:000281f0       ??__F_instance@?1??Get@GazeboExtender@gazebo@@SAAAV12@XZ@YAXXZ 100291f0 f   GazeboExtender.obj
 0001:00028240       ??__F_instance@?1??Get@ShrinesExternder@shrines@@SAAAV12@XZ@YAXXZ 10029240 f   ShrinesExternder.obj
 0001:00028290       ??__F_instance@?1??Get@WarehousesExtender@warehouses@@SAAAV12@XZ@YAXXZ 10029290 f   WarehousesExtender.obj
 0001:000282e0       ??__F_instance@?1??Get@WateringPlaceExtender@wateringPlace@@SAAAV12@XZ@YAXXZ 100292e0 f   WateringPlaceExtender.obj
 0001:00028330       ??__F?extenders@ObjectsExtender@extender@@0V?$set@PAVObjectsExtender@extender@@U?$less@PAVObjectsExtender@extender@@@std@@V?$allocator@PAVObjectsExtender@extender@@@4@@std@@A@@YAXXZ 10029330 f   ObjectsExtender.obj
 0001:00028340       ??__F?additionalProperties@ObjectsExtender@extender@@1V?$vector@V?$basic_string@DU?$char_traits@D@std@@V?$allocator@D@2@@std@@V?$allocator@V?$basic_string@DU?$char_traits@D@std@@V?$allocator@D@2@@std@@@2@@std@@A@@YAXXZ 10029340 f   ObjectsExtender.obj
 0001:000283c0       ??__F?additionalRmgObjects@ObjectsExtender@extender@@1V?$vector@URMGObjectInfo@@V?$allocator@URMGObjectInfo@@@std@@@std@@A@@YAXXZ 100293c0 f   ObjectsExtender.obj
 0001:000283d0       ??__Finstance@?1??Get@RMGObjectsEditor@editor@@SAAAV12@XZ@YAXXZ 100293d0 f   RMGObjectsEditor.obj
 0001:000283e0       ??__F?m_banks@RMG_SettingsDlg@rmgdlg@@0V?$vector@U?$pair@UH3ObjectAttributes@h3@@PAUH3LoadedPcx16@2@@std@@V?$allocator@U?$pair@UH3ObjectAttributes@h3@@PAUH3LoadedPcx16@2@@std@@@2@@std@@A@@YAXXZ 100293e0 f   RMG_SettingsDlg.obj
 0001:000283f0       ??__F?m_commonObjects@RMG_SettingsDlg@rmgdlg@@0V?$vector@U?$pair@UH3ObjectAttributes@h3@@PAUH3LoadedPcx16@2@@std@@V?$allocator@U?$pair@UH3ObjectAttributes@h3@@PAUH3LoadedPcx16@2@@std@@@2@@std@@A@@YAXXZ 100293f0 f   RMG_SettingsDlg.obj
 0001:00028400       ??__F?m_dwellings@RMG_SettingsDlg@rmgdlg@@0V?$vector@U?$pair@UH3ObjectAttributes@h3@@PAUH3LoadedPcx16@2@@std@@V?$allocator@U?$pair@UH3ObjectAttributes@h3@@PAUH3LoadedPcx16@2@@std@@@2@@std@@A@@YAXXZ 10029400 f   RMG_SettingsDlg.obj
 0001:00028410       ??__F?m_wogObjects@RMG_SettingsDlg@rmgdlg@@0V?$vector@U?$pair@UH3ObjectAttributes@h3@@PAUH3LoadedPcx16@2@@std@@V?$allocator@U?$pair@UH3ObjectAttributes@h3@@PAUH3LoadedPcx16@2@@std@@@2@@std@@A@@YAXXZ 10029410 f   RMG_SettingsDlg.obj
 0001:00028420       ??__F?m_objectAttributes@RMG_SettingsDlg@rmgdlg@@0V?$vector@PAV?$vector@U?$pair@UH3ObjectAttributes@h3@@PAUH3LoadedPcx16@2@@std@@V?$allocator@U?$pair@UH3ObjectAttributes@h3@@PAUH3LoadedPcx16@2@@std@@@2@@std@@V?$allocator@PAV?$vector@U?$pair@UH3ObjectAttributes@h3@@PAUH3LoadedPcx16@2@@std@@V?$allocator@U?$pair@UH3ObjectAttributes@h3@@PAUH3LoadedPcx16@2@@std@@@2@@std@@@2@@std@@B@@YAXXZ 10029420 f   RMG_SettingsDlg.obj
 0002:0000013c       ?hEra$initializer$@Era@@3P6AXXZA 1002a13c     era.obj
 0002:00000140       ?AllocErmFunc$initializer$@Era@@3P6AXXZA 1002a140     era.obj
 0002:00000144       ?CalcHookPatchSize$initializer$@Era@@3P6AXXZA 1002a144     era.obj
 0002:00000148       ?ClearAllIniCache$initializer$@Era@@3P6AXXZA 1002a148     era.obj
 0002:0000014c       ?ClearIniCache$initializer$@Era@@3P6AXXZA 1002a14c     era.obj
 0002:00000150       ?DecorateInt$initializer$@Era@@3P6AXXZA 1002a150     era.obj
 0002:00000154       ?ExecErmCmd$initializer$@Era@@3P6AXXZA 1002a154     era.obj
 0002:00000158       ?ExecPersistedErmCmd$initializer$@Era@@3P6AXXZA 1002a158     era.obj
 0002:0000015c       ?ExtractErm$initializer$@Era@@3P6AXXZA 1002a15c     era.obj
 0002:00000160       ?FastQuitToGameMenu$initializer$@Era@@3P6AXXZA 1002a160     era.obj
 0002:00000164       ?FatalError$initializer$@Era@@3P6AXXZA 1002a164     era.obj
 0002:00000168       ?FindNextObject$initializer$@Era@@3P6AXXZA 1002a168     era.obj
 0002:0000016c       ?FireErmEvent$initializer$@Era@@3P6AXXZA 1002a16c     era.obj
 0002:00000170       ?FireEvent$initializer$@Era@@3P6AXXZA 1002a170     era.obj
 0002:00000174       ?FormatQuantity$initializer$@Era@@3P6AXXZA 1002a174     era.obj
 0002:00000178       ?FreeAppliedPatch$initializer$@Era@@3P6AXXZA 1002a178     era.obj
 0002:0000017c       ?GenerateDebugInfo$initializer$@Era@@3P6AXXZA 1002a17c     era.obj
 0002:00000180       ?GetArgXVars$initializer$@Era@@3P6AXXZA 1002a180     era.obj
 0002:00000184       ?GetAssocVarIntValue$initializer$@Era@@3P6AXXZA 1002a184     era.obj
 0002:00000188       ?GetAssocVarStrValue$initializer$@Era@@3P6AXXZA 1002a188     era.obj
 0002:0000018c       ?GetButtonID$initializer$@Era@@3P6AXXZA 1002a18c     era.obj
 0002:00000190       ?GetCampaignFileName$initializer$@Era@@3P6AXXZA 1002a190     era.obj
 0002:00000194       ?GetCampaignMapInd$initializer$@Era@@3P6AXXZA 1002a194     era.obj
 0002:00000198       ?GetEraRegistryIntValue$initializer$@Era@@3P6AXXZA 1002a198     era.obj
 0002:0000019c       ?GetEraRegistryStrValue$initializer$@Era@@3P6AXXZA 1002a19c     era.obj
 0002:000001a0       ?GetGameState$initializer$@Era@@3P6AXXZA 1002a1a0     era.obj
 0002:000001a4       ?GetMapFileName$initializer$@Era@@3P6AXXZA 1002a1a4     era.obj
 0002:000001a8       ?GetProcessGuid$initializer$@Era@@3P6AXXZA 1002a1a8     era.obj
 0002:000001ac       ?GetRealAddr$initializer$@Era@@3P6AXXZA 1002a1ac     era.obj
 0002:000001b0       ?GetRetXVars$initializer$@Era@@3P6AXXZA 1002a1b0     era.obj
 0002:000001b4       ?GetTriggerReadableName$initializer$@Era@@3P6AXXZA 1002a1b4     era.obj
 0002:000001b8       ?GetVersionNum$initializer$@Era@@3P6AXXZA 1002a1b8     era.obj
 0002:000001bc       ?GlobalRedirectFile$initializer$@Era@@3P6AXXZA 1002a1bc     era.obj
 0002:000001c0       ?Hash32$initializer$@Era@@3P6AXXZA 1002a1c0     era.obj
 0002:000001c4       ?HookCode$initializer$@Era@@3P6AXXZA 1002a1c4     era.obj
 0002:000001c8       ?IsCampaign$initializer$@Era@@3P6AXXZA 1002a1c8     era.obj
 0002:000001cc       ?IsCommanderId$initializer$@Era@@3P6AXXZA 1002a1cc     era.obj
 0002:000001d0       ?LoadImageAsPcx16$initializer$@Era@@3P6AXXZA 1002a1d0     era.obj
 0002:000001d4       ?MemFree$initializer$@Era@@3P6AXXZA 1002a1d4     era.obj
 0002:000001d8       ?NameColor$initializer$@Era@@3P6AXXZA 1002a1d8     era.obj
 0002:000001dc       ?NameTrigger$initializer$@Era@@3P6AXXZA 1002a1dc     era.obj
 0002:000001e0       ?NotifyError$initializer$@Era@@3P6AXXZA 1002a1e0     era.obj
 0002:000001e4       ?PatchExists$initializer$@Era@@3P6AXXZA 1002a1e4     era.obj
 0002:000001e8       ?PcxPngExists$initializer$@Era@@3P6AXXZA 1002a1e8     era.obj
 0002:000001ec       ?PersistErmCmd$initializer$@Era@@3P6AXXZA 1002a1ec     era.obj
 0002:000001f0       ?PluginExists$initializer$@Era@@3P6AXXZA 1002a1f0     era.obj
 0002:000001f4       ?ReadSavegameSection$initializer$@Era@@3P6AXXZA 1002a1f4     era.obj
 0002:000001f8       ?ReadStrFromIni$initializer$@Era@@3P6AXXZA 1002a1f8     era.obj
 0002:000001fc       ?RedirectFile$initializer$@Era@@3P6AXXZA 1002a1fc     era.obj
 0002:00000200       ?RedirectMemoryBlock$initializer$@Era@@3P6AXXZA 1002a200     era.obj
 0002:00000204       ?RegisterHandler$initializer$@Era@@3P6AXXZA 1002a204     era.obj
 0002:00000208       ?ReloadErm$initializer$@Era@@3P6AXXZA 1002a208     era.obj
 0002:0000020c       ?ReloadLanguageData$initializer$@Era@@3P6AXXZA 1002a20c     era.obj
 0002:00000210       ?ReportPluginVersion$initializer$@Era@@3P6AXXZA 1002a210     era.obj
 0002:00000214       ?RollbackAppliedPatch$initializer$@Era@@3P6AXXZA 1002a214     era.obj
 0002:00000218       ?SaveIni$initializer$@Era@@3P6AXXZA 1002a218     era.obj
 0002:0000021c       ?SetAssocVarIntValue$initializer$@Era@@3P6AXXZA 1002a21c     era.obj
 0002:00000220       ?SetAssocVarStrValue$initializer$@Era@@3P6AXXZA 1002a220     era.obj
 0002:00000224       ?SetEraRegistryIntValue$initializer$@Era@@3P6AXXZA 1002a224     era.obj
 0002:00000228       ?SetEraRegistryStrValue$initializer$@Era@@3P6AXXZA 1002a228     era.obj
 0002:0000022c       ?SetIsCommanderIdFunc$initializer$@Era@@3P6AXXZA 1002a22c     era.obj
 0002:00000230       ?SetIsElixirOfLifeStackFunc$initializer$@Era@@3P6AXXZA 1002a230     era.obj
 0002:00000234       ?SetLanguage$initializer$@Era@@3P6AXXZA 1002a234     era.obj
 0002:00000238       ?SetRegenerationAbility$initializer$@Era@@3P6AXXZA 1002a238     era.obj
 0002:0000023c       ?SetStdRegenerationEffect$initializer$@Era@@3P6AXXZA 1002a23c     era.obj
 0002:00000240       ?ShowErmError$initializer$@Era@@3P6AXXZA 1002a240     era.obj
 0002:00000244       ?ShowMessage$initializer$@Era@@3P6AXXZA 1002a244     era.obj
 0002:00000248       ?Splice$initializer$@Era@@3P6AXXZA 1002a248     era.obj
 0002:0000024c       ?SplitMix32$initializer$@Era@@3P6AXXZA 1002a24c     era.obj
 0002:00000250       ?ToStaticStr$initializer$@Era@@3P6AXXZA 1002a250     era.obj
 0002:00000254       ?trStatic$initializer$@Era@@3P6AXXZA 1002a254     era.obj
 0002:00000258       ?trTemp$initializer$@Era@@3P6AXXZA 1002a258     era.obj
 0002:0000025c       ?WriteAtCode$initializer$@Era@@3P6AXXZA 1002a25c     era.obj
 0002:00000260       ?WriteSavegameSection$initializer$@Era@@3P6AXXZA 1002a260     era.obj
 0002:00000264       ?WriteStrToIni$initializer$@Era@@3P6AXXZA 1002a264     era.obj
 0002:00000268       ?GetEraVersion$initializer$@Era@@3P6AXXZA 1002a268     era.obj
 0002:0000026c       ?_tr$initializer$@Era@@3P6AXXZA 1002a26c     era.obj
 0002:00000270       ??extenders$initializer$@ObjectsExtender@extender@@0P6AXXZA@@3P6AXXZA 1002a270     ObjectsExtender.obj
 0002:00000274       ??additionalProperties$initializer$@ObjectsExtender@extender@@1P6AXXZA@@3P6AXXZA 1002a274     ObjectsExtender.obj
 0002:00000278       ??additionalRmgObjects$initializer$@ObjectsExtender@extender@@1P6AXXZA@@3P6AXXZA 1002a278     ObjectsExtender.obj
 0002:0000027c       ??m_banks$initializer$@RMG_SettingsDlg@rmgdlg@@0P6AXXZA@@3P6AXXZA 1002a27c     RMG_SettingsDlg.obj
 0002:00000280       ??m_commonObjects$initializer$@RMG_SettingsDlg@rmgdlg@@0P6AXXZA@@3P6AXXZA 1002a280     RMG_SettingsDlg.obj
 0002:00000284       ??m_dwellings$initializer$@RMG_SettingsDlg@rmgdlg@@0P6AXXZA@@3P6AXXZA 1002a284     RMG_SettingsDlg.obj
 0002:00000288       ??m_wogObjects$initializer$@RMG_SettingsDlg@rmgdlg@@0P6AXXZA@@3P6AXXZA 1002a288     RMG_SettingsDlg.obj
 0002:0000028c       ??m_objectAttributes$initializer$@RMG_SettingsDlg@rmgdlg@@0P6AXXZA@@3P6AXXZA 1002a28c     RMG_SettingsDlg.obj
 0002:00000298       ?pinit@@3P6AHXZA           1002a298     libcpmt:winapisupp.obj
 0002:0000032c       ?msgs@std@@3QBQBDB         1002a32c     libcpmt:thread0.obj
 0002:00000348       ?codes@std@@3QBW4errc@1@B  1002a348     libcpmt:thread0.obj
 0002:00000458       ?_Tail_masks@?1??_Avx2_tail_mask_32@?A0x8417fefe@@YA?AT__m256i@@I@Z@4QBIB 1002a458     libcpmt:vector_algorithms.obj
 0002:00000498       ?_Win_errtab@?A0xdad2e229@@3QBU_Win_errtab_t@1@B 1002a498     libcpmt:syserror.obj
 0002:00000738       ?_Sys_errtab@?A0xdad2e229@@3QBU_Sys_errtab_t@1@B 1002a738     libcpmt:syserror.obj
 0002:00000f48       ?_Whitespace_bitmap@?A0xfa98056f@@3U_Whitespace_bitmap_t@1@B 1002af48     libcpmt:syserror_import_lib.obj
 0002:000010a0       _GS_ExceptionPointers      1002b0a0     LIBCMT:gs_report.obj
 0002:000010c8       ?tokenTable@@3QBUStringLiteral@@B 1002b0c8     libvcruntime:undname.obj
 0002:00001150       ?nameTable@@3QBUStringLiteral@@B 1002b150     libvcruntime:undname.obj
 0002:000013e8       ?rttiTable@@3QBUStringLiteral@@B 1002b3e8     libvcruntime:undname.obj
 0002:00001410       ?IndirectionName@@3QBUStringLiteral@@B 1002b410     libvcruntime:undname.obj
 0002:00001440       ?PrefixName@@3QBUStringLiteral@@B 1002b440     libvcruntime:undname.obj
 0002:00001a7c       ?module_names@?A0x14174aea@@3QBQB_WB 1002ba7c     libvcruntime:winapi_downlevel.obj
 0002:00001b24       ?candidate_modules@?1??try_get_FlsAlloc@@YAP6GKP6GXPAX@Z@ZXZ@4QBW4module_id@?A0x14174aea@@B 1002bb24     libvcruntime:winapi_downlevel.obj
 0002:00001b38       ?candidate_modules@?1??try_get_FlsFree@@YAP6GHK@ZXZ@4QBW4module_id@?A0x14174aea@@B 1002bb38     libvcruntime:winapi_downlevel.obj
 0002:00001b48       ?candidate_modules@?1??try_get_FlsGetValue@@YAP6GPAXK@ZXZ@4QBW4module_id@?A0x14174aea@@B 1002bb48     libvcruntime:winapi_downlevel.obj
 0002:00001b5c       ?candidate_modules@?1??try_get_FlsSetValue@@YAP6GHKPAX@ZXZ@4QBW4module_id@?A0x14174aea@@B 1002bb5c     libvcruntime:winapi_downlevel.obj
 0002:00001b70       ?candidate_modules@?1??try_get_InitializeCriticalSectionEx@@YAP6GHPAU_RTL_CRITICAL_SECTION@@KK@ZXZ@4QBW4module_id@?A0x14174aea@@B 1002bb70     libvcruntime:winapi_downlevel.obj
 0002:00002478       ___acrt_initializers       1002c478     libucrt:initialization.obj
 0002:000024f8       ?errtable@@3QBUerrentry@?A0x31fdb9ec@@B 1002c4f8     libucrt:errno.obj
 0002:00002660       ?strings@?1??fp_format_nan_or_infinity@@YAHW4__acrt_fp_class@@_NPADI1@Z@4QAY03QBDA 1002c660     libucrt:cvt.obj
 0002:000031a8       ?module_names@?A0x391cf84c@@3QBQB_WB 1002d1a8     libucrt:winapi_thunks.obj
 0002:00003620       ?candidate_modules@?1??try_get_AreFileApisANSI@@YAP6GHXZXZ@4QBW4module_id@?A0x391cf84c@@B 1002d620     libucrt:winapi_thunks.obj
 0002:00003634       ?candidate_modules@?1??try_get_FlsAlloc@@YAP6GKP6GXPAX@Z@ZXZ@4QBW4module_id@?A0x391cf84c@@B 1002d634     libucrt:winapi_thunks.obj
 0002:0000363c       ?candidate_modules@?1??try_get_FlsFree@@YAP6GHK@ZXZ@4QBW4module_id@?A0x391cf84c@@B 1002d63c     libucrt:winapi_thunks.obj
 0002:00003644       ?candidate_modules@?1??try_get_FlsGetValue@@YAP6GPAXK@ZXZ@4QBW4module_id@?A0x391cf84c@@B 1002d644     libucrt:winapi_thunks.obj
 0002:0000364c       ?candidate_modules@?1??try_get_FlsSetValue@@YAP6GHKPAX@ZXZ@4QBW4module_id@?A0x391cf84c@@B 1002d64c     libucrt:winapi_thunks.obj
 0002:00003654       ?candidate_modules@?1??try_get_InitializeCriticalSectionEx@@YAP6GHPAU_RTL_CRITICAL_SECTION@@KK@ZXZ@4QBW4module_id@?A0x391cf84c@@B 1002d654     libucrt:winapi_thunks.obj
 0002:0000365c       ?candidate_modules@?1??try_get_LCMapStringEx@@YAP6GHPB_WK0HPA_WHPAU_nlsversioninfo@@PAXJ@ZXZ@4QBW4module_id@?A0x391cf84c@@B 1002d65c     libucrt:winapi_thunks.obj
 0002:00003674       ?candidate_modules@?1??try_get_LocaleNameToLCID@@YAP6GKPB_WK@ZXZ@4QBW4module_id@?A0x391cf84c@@B 1002d674     libucrt:winapi_thunks.obj
 0002:00003690       ?candidate_modules@?1??try_get_RoInitialize@@YAP6GJW4RO_INIT_TYPE@@@ZXZ@4QBW4module_id@?A0x391cf84c@@B 1002d690     libucrt:winapi_thunks.obj
 0002:000036a4       ?candidate_modules@?1??try_get_RoUninitialize@@YAP6GXXZXZ@4QBW4module_id@?A0x391cf84c@@B 1002d6a4     libucrt:winapi_thunks.obj
 0002:000036b8       ?candidate_modules@?1??try_get_AppPolicyGetProcessTerminationMethod@@YAP6GJPAXPAW4AppPolicyProcessTerminationMethod@@@ZXZ@4QBW4module_id@?A0x391cf84c@@B 1002d6b8     libucrt:winapi_thunks.obj
 0002:000036e4       ?candidate_modules@?1??try_get_AppPolicyGetThreadInitializationType@@YAP6GJPAXPAW4AppPolicyThreadInitializationType@@@ZXZ@4QBW4module_id@?A0x391cf84c@@B 1002d6e4     libucrt:winapi_thunks.obj
 0002:00003710       ?_mb_locale_names@@3QBQB_WB 1002d710     libucrt:mbctype.obj
 0002:00004140       ?LcidToLocaleNameTable@?A0x881e4c05@@3QBULcidToLocaleName@1@B 1002e140     libucrt:lcidtoname_downlevel.obj
 0002:00005260       ?LocaleNameToIndexTable@?A0x881e4c05@@3QBULocaleNameIndex@1@B 1002f260     libucrt:lcidtoname_downlevel.obj
 0002:000061b0       LOG_name                   100301b0     libucrt:log10_impl.obj
 0002:000061c0       _One                       100301c0     libucrt:ceil_pentium4.obj
 0002:000061d0       _Bns                       100301d0     libucrt:ceil_pentium4.obj
 0002:000061e0       _Zero                      100301e0     libucrt:ceil_pentium4.obj
 0002:000061f0       _S                         100301f0     libucrt:ceil_pentium4.obj
 0002:00006200       _NegZero                   10030200     libucrt:ceil_pentium4.obj
 0002:00006210       emask                      10030210     libucrt:log10_pentium4.obj
 0002:00006220       CC                         10030220     libucrt:log10_pentium4.obj
 0002:00006230       Magic                      10030230     libucrt:log10_pentium4.obj
 0002:00006240       hi_mask                    10030240     libucrt:log10_pentium4.obj
 0002:00006250       LOG10_2                    10030250     libucrt:log10_pentium4.obj
 0002:00006260       place_L                    10030260     libucrt:log10_pentium4.obj
 0002:00006280       One                        10030280     libucrt:log10_pentium4.obj
 0002:00006290       Zero                       10030290     libucrt:log10_pentium4.obj
 0002:000062a0       Two52                      100302a0     libucrt:log10_pentium4.obj
 0002:000062b0       Infs                       100302b0     libucrt:log10_pentium4.obj
 0002:000062c0       NaN                        100302c0     libucrt:log10_pentium4.obj
 0002:000062d0       coeff                      100302d0     libucrt:log10_pentium4.obj
 0002:0000632e       _log2max                   1003032e     libucrt:87tran.obj
 0002:00006338       _smallarg                  10030338     libucrt:87tran.obj
 0002:00006342       _half                      10030342     libucrt:87tran.obj
 0002:0000638e       One                        1003038e     libucrt:87disp.obj
 0002:00006396       Three                      10030396     libucrt:87disp.obj
 0002:0000639e       XAMtoTagTab                1003039e     libucrt:87disp.obj
 0002:000063b0       One                        100303b0     libucrt:common.obj
 0002:000063c4       DblMax                     100303c4     libucrt:common.obj
 0002:000063cc       DblMin                     100303cc     libucrt:common.obj
 0002:000063d4       IeeeAdjO                   100303d4     libucrt:common.obj
 0002:000063dc       IeeeAdjU                   100303dc     libucrt:common.obj
 0002:000063e4       _infinity                  100303e4     libucrt:common.obj
 0002:000063ec       _zero                      100303ec     libucrt:common.obj
 0002:00006430       _over                      10030430     libucrt:fpctrl.obj
 0002:0000643c       _under                     1003043c     libucrt:fpctrl.obj
 0002:00006c70       ?_names@?1??_get_fname@@9@9 10030c70     libucrt:fpexcept.obj
 0002:00006e10       two32                      10030e10     LIBCMT:ftol2.obj
 0002:00006e14       two63                      10030e14     LIBCMT:ftol2.obj
 0002:00006e18       _NaN                       10030e18     LIBCMT:ftol2.obj
 0002:00006e50       ?KEY_EQUALS@h3@@3QBDB      10030e50     DrawPcx16ResizedBicubic.obj
 0002:00006e54       ?NEW_LINE@h3@@3QBDB        10030e54     DrawPcx16ResizedBicubic.obj
 0002:00006e57       ?_Fake_alloc@std@@3U_Fake_allocator@1@B 10030e57     DrawPcx16ResizedBicubic.obj
 0002:00006e58       ?BOM_HEADER@h3@@3QBDB      10030e58     DrawPcx16ResizedBicubic.obj
 0002:00006e5c       ?_Fake_alloc@std@@3U_Fake_allocator@1@B 10030e5c     era.obj
 0002:00006e5d       ?_Fake_alloc@std@@3U_Fake_allocator@1@B 10030e5d     dllmain.obj
 0002:00006e5e       ?_Fake_alloc@std@@3U_Fake_allocator@1@B 10030e5e     CreatureBanksExtender.obj
 0002:00006e5f       ?_Fake_alloc@std@@3U_Fake_allocator@1@B 10030e5f     GazeboExtender.obj
 0002:00006e68       ?KEY_EQUALS@h3@@3QBDB      10030e68     dllmain.obj
 0002:00006e6c       ?NEW_LINE@h3@@3QBDB        10030e6c     dllmain.obj
 0002:00006e6f       ?_Fake_alloc@std@@3U_Fake_allocator@1@B 10030e6f     ShrinesExternder.obj
 0002:00006e70       ?BOM_HEADER@h3@@3QBDB      10030e70     dllmain.obj
 0002:00006e74       ?KEY_EQUALS@h3@@3QBDB      10030e74     CreatureBanksExtender.obj
 0002:00006e78       ?h3_NullString@h3@@3QBDB   10030e78     CreatureBanksExtender.obj
 0002:00006e7c       ?NEW_LINE@h3@@3QBDB        10030e7c     CreatureBanksExtender.obj
 0002:00006e7f       ?_Fake_alloc@std@@3U_Fake_allocator@1@B 10030e7f     WarehousesExtender.obj
 0002:00006e80       ?BOM_HEADER@h3@@3QBDB      10030e80     CreatureBanksExtender.obj
 0002:00006e84       ?KEY_EQUALS@h3@@3QBDB      10030e84     GazeboExtender.obj
 0002:00006e88       ?NEW_LINE@h3@@3QBDB        10030e88     GazeboExtender.obj
 0002:00006e8b       ?_Fake_alloc@std@@3U_Fake_allocator@1@B 10030e8b     WateringPlaceExtender.obj
 0002:00006e8c       ?BOM_HEADER@h3@@3QBDB      10030e8c     GazeboExtender.obj
 0002:00006e90       ?KEY_EQUALS@h3@@3QBDB      10030e90     ShrinesExternder.obj
 0002:00006e94       ?NEW_LINE@h3@@3QBDB        10030e94     ShrinesExternder.obj
 0002:00006e97       ?_Fake_alloc@std@@3U_Fake_allocator@1@B 10030e97     ObjectsExtender.obj
 0002:00006e98       ?BOM_HEADER@h3@@3QBDB      10030e98     ShrinesExternder.obj
 0002:00006e9c       ?KEY_EQUALS@h3@@3QBDB      10030e9c     WarehousesExtender.obj
 0002:00006ea0       ?NEW_LINE@h3@@3QBDB        10030ea0     WarehousesExtender.obj
 0002:00006ea3       ?_Fake_alloc@std@@3U_Fake_allocator@1@B 10030ea3     RMGObjectsEditor.obj
 0002:00006ea4       ?BOM_HEADER@h3@@3QBDB      10030ea4     WarehousesExtender.obj
 0002:00006ea8       ?KEY_EQUALS@h3@@3QBDB      10030ea8     WateringPlaceExtender.obj
 0002:00006eac       ?NEW_LINE@h3@@3QBDB        10030eac     WateringPlaceExtender.obj
 0002:00006eaf       ?_Fake_alloc@std@@3U_Fake_allocator@1@B 10030eaf     RMG_SettingsDlg.obj
 0002:00006eb0       ?BOM_HEADER@h3@@3QBDB      10030eb0     WateringPlaceExtender.obj
 0002:00006eb4       ?KEY_EQUALS@h3@@3QBDB      10030eb4     ObjectsExtender.obj
 0002:00006eb8       ?NEW_LINE@h3@@3QBDB        10030eb8     ObjectsExtender.obj
 0002:00006ebc       ?BOM_HEADER@h3@@3QBDB      10030ebc     ObjectsExtender.obj
 0002:00006ec0       ?KEY_EQUALS@h3@@3QBDB      10030ec0     RMGObjectsEditor.obj
 0002:00006ec4       ?NEW_LINE@h3@@3QBDB        10030ec4     RMGObjectsEditor.obj
 0002:00006ec8       ?BOM_HEADER@h3@@3QBDB      10030ec8     RMGObjectsEditor.obj
 0002:00006ecc       ?KEY_EQUALS@h3@@3QBDB      10030ecc     RMG_SettingsDlg.obj
 0002:00006ed0       ?NEW_LINE@h3@@3QBDB        10030ed0     RMG_SettingsDlg.obj
 0002:00006ed4       ?BOM_HEADER@h3@@3QBDB      10030ed4     RMG_SettingsDlg.obj
 0002:00006ed8       ?DLGBLUEBOX@HDassets@NH3Dlg@h3@@3QBDB 10030ed8     RMG_SettingsDlg.obj
 0002:00006edc       ?DLGBLUEBACK@HDassets@NH3Dlg@h3@@3QBDB 10030edc     RMG_SettingsDlg.obj
 0002:00006ee0       ?HD_STATUSBAR_PCX@HDassets@NH3Dlg@h3@@3QBDB 10030ee0     RMG_SettingsDlg.obj
 0002:000081f0       _bias_low                  100321f0     LIBCMT:ftol3.obj
 0002:00008200       _bias_high                 10032200     LIBCMT:ftol3.obj
 0002:00008210       _DP2to32                   10032210     LIBCMT:ftol3.obj
 0002:00008218       _NaN                       10032218     LIBCMT:ftol3.obj
 0002:0000821c       _onept5                    1003221c     LIBCMT:ftol3.obj
 0002:000094b0       __ehfuncinfo$??1H3String@h3@@QAE@XZ 100334b0     CreatureBanksExtender.obj
 0002:000094b0       __ehfuncinfo$??$_Invoke@V?$tuple@P8RMGObjectsEditor@editor@@AEXPBF@ZPAV12@PBF@std@@$0A@$00$01@thread@std@@CGIPAX@Z 100334b0     RMGObjectsEditor.obj
 0002:000094b0       __ehfuncinfo$??$_Invoke@V?$tuple@P6AXXZ@std@@$0A@@thread@std@@CGIPAX@Z 100334b0     RMG_SettingsDlg.obj
 0002:000094b0       __ehfuncinfo$??1?$H3BinaryLoader@UH3LoadedDef@h3@@@h3@@QAE@XZ 100334b0     RMG_SettingsDlg.obj
 0002:000094b0       __ehfuncinfo$??1?$H3BinaryLoader@UH3LoadedPcx@h3@@@h3@@QAE@XZ 100334b0     RMG_SettingsDlg.obj
 0002:000094b0       __ehfuncinfo$??1?$array@V?$vector@HV?$allocator@H@std@@@std@@$03@std@@QAE@XZ 100334b0     RMG_SettingsDlg.obj
 0002:000094b0       __ehfuncinfo$??1H3BasePalette565@h3@@QAE@XZ 100334b0     RMG_SettingsDlg.obj
 0002:000094b0       __ehfuncinfo$___crtGetSystemTimePreciseAsFileTime 100334b0     libcpmt:winapisupp.obj
 0002:000094b0       __ehfuncinfo$__Cnd_do_broadcast_at_thread_exit 100334b0     libcpmt:xnotify.obj
 0002:000094d4       __ehfuncinfo$?Format@H3String@h3@@SA?AU12@PBDZZ 100334d4     CreatureBanksExtender.obj
 0002:000094f8       __unwindtable$?Format@H3String@h3@@SA?AU12@PBDZZ 100334f8     CreatureBanksExtender.obj
 0002:00009500       __ehfuncinfo$??0H3CreatureBankSetup@h3@@QAE@XZ 10033500     CreatureBanksExtender.obj
 0002:00009524       __unwindtable$??0H3CreatureBankSetup@h3@@QAE@XZ 10033524     CreatureBanksExtender.obj
 0002:0000952c       __ehfuncinfo$??$_Destroy_range@V?$allocator@UH3CreatureBankSetup@h3@@@std@@@std@@YAXPAUH3CreatureBankSetup@h3@@QAU12@AAV?$allocator@UH3CreatureBankSetup@h3@@@0@@Z 1003352c     CreatureBanksExtender.obj
 0002:0000952c       __ehfuncinfo$??1?$_Uninitialized_backout_al@V?$allocator@UH3CreatureBankSetup@h3@@@std@@@std@@QAE@XZ 1003352c     CreatureBanksExtender.obj
 0002:0000952c       __ehfuncinfo$??1H3CreatureBankSetup@h3@@QAE@XZ 1003352c     CreatureBanksExtender.obj
 0002:0000952c       __ehfuncinfo$??1?$H3Vector@PAUH3RmgObjectGenerator@h3@@@h3@@QAE@XZ 1003352c     RMGObjectsEditor.obj
 0002:0000952c       __ehfuncinfo$??$_Destroy_range@V?$allocator@U?$pair@UH3ObjectAttributes@h3@@PAUH3LoadedPcx16@2@@std@@@std@@@std@@YAXPAU?$pair@UH3ObjectAttributes@h3@@PAUH3LoadedPcx16@2@@0@QAU10@AAV?$allocator@U?$pair@UH3ObjectAttributes@h3@@PAUH3LoadedPcx16@2@@std@@@0@@Z 1003352c     RMG_SettingsDlg.obj
 0002:0000952c       __ehfuncinfo$??1?$_Uninitialized_backout_al@V?$allocator@U?$pair@UH3ObjectAttributes@h3@@PAUH3LoadedPcx16@2@@std@@@std@@@std@@QAE@XZ 1003352c     RMG_SettingsDlg.obj
 0002:0000952c       __ehfuncinfo$??1?$pair@UH3ObjectAttributes@h3@@$$T@std@@QAE@XZ 1003352c     RMG_SettingsDlg.obj
 0002:0000952c       __ehfuncinfo$??1H3Dlg@h3@@QAE@XZ 1003352c     RMG_SettingsDlg.obj
 0002:0000952c       __ehfuncinfo$??1H3NetworkDlg@h3@@QAE@XZ 1003352c     RMG_SettingsDlg.obj
 0002:0000952c       __ehfuncinfo$??_GRMG_SettingsDlg@rmgdlg@@EAEPAXI@Z 1003352c     RMG_SettingsDlg.obj
 0002:0000952c       __ehfuncinfo$?_Tidy@?$vector@U?$pair@UH3ObjectAttributes@h3@@PAUH3LoadedPcx16@2@@std@@V?$allocator@U?$pair@UH3ObjectAttributes@h3@@PAUH3LoadedPcx16@2@@std@@@2@@std@@AAEXXZ 1003352c     RMG_SettingsDlg.obj
 0002:00009550       __unwindtable$??$_Destroy_range@V?$allocator@UH3CreatureBankSetup@h3@@@std@@@std@@YAXPAUH3CreatureBankSetup@h3@@QAU12@AAV?$allocator@UH3CreatureBankSetup@h3@@@0@@Z 10033550     CreatureBanksExtender.obj
 0002:00009550       __unwindtable$??1?$_Uninitialized_backout_al@V?$allocator@UH3CreatureBankSetup@h3@@@std@@@std@@QAE@XZ 10033550     CreatureBanksExtender.obj
 0002:00009550       __unwindtable$??1H3CreatureBankSetup@h3@@QAE@XZ 10033550     CreatureBanksExtender.obj
 0002:00009550       __unwindtable$??1?$H3Vector@PAUH3RmgObjectGenerator@h3@@@h3@@QAE@XZ 10033550     RMGObjectsEditor.obj
 0002:00009550       __unwindtable$??$_Destroy_range@V?$allocator@U?$pair@UH3ObjectAttributes@h3@@PAUH3LoadedPcx16@2@@std@@@std@@@std@@YAXPAU?$pair@UH3ObjectAttributes@h3@@PAUH3LoadedPcx16@2@@0@QAU10@AAV?$allocator@U?$pair@UH3ObjectAttributes@h3@@PAUH3LoadedPcx16@2@@std@@@0@@Z 10033550     RMG_SettingsDlg.obj
 0002:00009550       __unwindtable$??1?$_Uninitialized_backout_al@V?$allocator@U?$pair@UH3ObjectAttributes@h3@@PAUH3LoadedPcx16@2@@std@@@std@@@std@@QAE@XZ 10033550     RMG_SettingsDlg.obj
 0002:00009550       __unwindtable$??1?$pair@UH3ObjectAttributes@h3@@$$T@std@@QAE@XZ 10033550     RMG_SettingsDlg.obj
 0002:00009550       __unwindtable$??1H3Dlg@h3@@QAE@XZ 10033550     RMG_SettingsDlg.obj
 0002:00009550       __unwindtable$??1H3NetworkDlg@h3@@QAE@XZ 10033550     RMG_SettingsDlg.obj
 0002:00009550       __unwindtable$??_GRMG_SettingsDlg@rmgdlg@@EAEPAXI@Z 10033550     RMG_SettingsDlg.obj
 0002:00009550       __unwindtable$?_Tidy@?$vector@U?$pair@UH3ObjectAttributes@h3@@PAUH3LoadedPcx16@2@@std@@V?$allocator@U?$pair@UH3ObjectAttributes@h3@@PAUH3LoadedPcx16@2@@std@@@2@@std@@AAEXXZ 10033550     RMG_SettingsDlg.obj
 0002:00009558       __ehfuncinfo$??$_Reallocate@$00@?$vector@UH3CreatureBankSetup@h3@@V?$allocator@UH3CreatureBankSetup@h3@@@std@@@std@@AAEXAAI@Z 10033558     CreatureBanksExtender.obj
 0002:00009558       __ehfuncinfo$??$_Reallocate@$0A@@?$vector@UH3CreatureBankSetup@h3@@V?$allocator@UH3CreatureBankSetup@h3@@@std@@@std@@AAEXAAI@Z 10033558     CreatureBanksExtender.obj
 0002:0000957c       __unwindtable$??$_Reallocate@$00@?$vector@UH3CreatureBankSetup@h3@@V?$allocator@UH3CreatureBankSetup@h3@@@std@@@std@@AAEXAAI@Z 1003357c     CreatureBanksExtender.obj
 0002:0000957c       __unwindtable$??$_Reallocate@$0A@@?$vector@UH3CreatureBankSetup@h3@@V?$allocator@UH3CreatureBankSetup@h3@@@std@@@std@@AAEXAAI@Z 1003357c     CreatureBanksExtender.obj
 0002:0000959c       __tryblocktable$??$_Reallocate@$00@?$vector@UH3CreatureBankSetup@h3@@V?$allocator@UH3CreatureBankSetup@h3@@@std@@@std@@AAEXAAI@Z 1003359c     CreatureBanksExtender.obj
 0002:0000959c       __tryblocktable$??$_Reallocate@$0A@@?$vector@UH3CreatureBankSetup@h3@@V?$allocator@UH3CreatureBankSetup@h3@@@std@@@std@@AAEXAAI@Z 1003359c     CreatureBanksExtender.obj
 0002:000095b0       __catchsym$??$_Reallocate@$00@?$vector@UH3CreatureBankSetup@h3@@V?$allocator@UH3CreatureBankSetup@h3@@@std@@@std@@AAEXAAI@Z$5 100335b0     CreatureBanksExtender.obj
 0002:000095b0       __catchsym$??$_Reallocate@$0A@@?$vector@UH3CreatureBankSetup@h3@@V?$allocator@UH3CreatureBankSetup@h3@@@std@@@std@@AAEXAAI@Z$5 100335b0     CreatureBanksExtender.obj
 0002:000095c0       __ehfuncinfo$??$_Emplace_reallocate@AAUH3CreatureBankSetup@h3@@@?$vector@UH3CreatureBankSetup@h3@@V?$allocator@UH3CreatureBankSetup@h3@@@std@@@std@@AAEPAUH3CreatureBankSetup@h3@@QAU23@AAU23@@Z 100335c0     CreatureBanksExtender.obj
 0002:000095e4       __unwindtable$??$_Emplace_reallocate@AAUH3CreatureBankSetup@h3@@@?$vector@UH3CreatureBankSetup@h3@@V?$allocator@UH3CreatureBankSetup@h3@@@std@@@std@@AAEPAUH3CreatureBankSetup@h3@@QAU23@AAU23@@Z 100335e4     CreatureBanksExtender.obj
 0002:000095f4       __tryblocktable$??$_Emplace_reallocate@AAUH3CreatureBankSetup@h3@@@?$vector@UH3CreatureBankSetup@h3@@V?$allocator@UH3CreatureBankSetup@h3@@@std@@@std@@AAEPAUH3CreatureBankSetup@h3@@QAU23@AAU23@@Z 100335f4     CreatureBanksExtender.obj
 0002:00009608       __catchsym$??$_Emplace_reallocate@AAUH3CreatureBankSetup@h3@@@?$vector@UH3CreatureBankSetup@h3@@V?$allocator@UH3CreatureBankSetup@h3@@@std@@@std@@AAEPAUH3CreatureBankSetup@h3@@QAU23@AAU23@@Z$2 10033608     CreatureBanksExtender.obj
 0002:00009618       __ehfuncinfo$??$_Uninitialized_copy@PAUH3CreatureBankSetup@h3@@PAU12@V?$allocator@UH3CreatureBankSetup@h3@@@std@@@std@@YAPAUH3CreatureBankSetup@h3@@PAU12@00AAV?$allocator@UH3CreatureBankSetup@h3@@@0@@Z 10033618     CreatureBanksExtender.obj
 0002:00009618       __ehfuncinfo$??$_Uninitialized_value_construct_n@V?$allocator@UH3CreatureBankSetup@h3@@@std@@@std@@YAPAUH3CreatureBankSetup@h3@@PAU12@IAAV?$allocator@UH3CreatureBankSetup@h3@@@0@@Z 10033618     CreatureBanksExtender.obj
 0002:0000963c       __unwindtable$??$_Uninitialized_copy@PAUH3CreatureBankSetup@h3@@PAU12@V?$allocator@UH3CreatureBankSetup@h3@@@std@@@std@@YAPAUH3CreatureBankSetup@h3@@PAU12@00AAV?$allocator@UH3CreatureBankSetup@h3@@@0@@Z 1003363c     CreatureBanksExtender.obj
 0002:0000963c       __unwindtable$??$_Uninitialized_value_construct_n@V?$allocator@UH3CreatureBankSetup@h3@@@std@@@std@@YAPAUH3CreatureBankSetup@h3@@PAU12@IAAV?$allocator@UH3CreatureBankSetup@h3@@@0@@Z 1003363c     CreatureBanksExtender.obj
 0002:0000964c       __ehfuncinfo$??$_Resize_reallocate@U_Value_init_tag@std@@@?$vector@UH3CreatureBankSetup@h3@@V?$allocator@UH3CreatureBankSetup@h3@@@std@@@std@@AAEXIABU_Value_init_tag@1@@Z 1003364c     CreatureBanksExtender.obj
 0002:00009670       __unwindtable$??$_Resize_reallocate@U_Value_init_tag@std@@@?$vector@UH3CreatureBankSetup@h3@@V?$allocator@UH3CreatureBankSetup@h3@@@std@@@std@@AAEXIABU_Value_init_tag@1@@Z 10033670     CreatureBanksExtender.obj
 0002:00009690       __tryblocktable$??$_Resize_reallocate@U_Value_init_tag@std@@@?$vector@UH3CreatureBankSetup@h3@@V?$allocator@UH3CreatureBankSetup@h3@@@std@@@std@@AAEXIABU_Value_init_tag@1@@Z 10033690     CreatureBanksExtender.obj
 0002:000096a4       __catchsym$??$_Resize_reallocate@U_Value_init_tag@std@@@?$vector@UH3CreatureBankSetup@h3@@V?$allocator@UH3CreatureBankSetup@h3@@@std@@@std@@AAEXIABU_Value_init_tag@1@@Z$5 100336a4     CreatureBanksExtender.obj
 0002:000096b4       __ehfuncinfo$??$_Uninitialized_move@PAUH3CreatureBankSetup@h3@@V?$allocator@UH3CreatureBankSetup@h3@@@std@@@std@@YAPAUH3CreatureBankSetup@h3@@QAU12@0PAU12@AAV?$allocator@UH3CreatureBankSetup@h3@@@0@@Z 100336b4     CreatureBanksExtender.obj
 0002:000096d8       __unwindtable$??$_Uninitialized_move@PAUH3CreatureBankSetup@h3@@V?$allocator@UH3CreatureBankSetup@h3@@@std@@@std@@YAPAUH3CreatureBankSetup@h3@@QAU12@0PAU12@AAV?$allocator@UH3CreatureBankSetup@h3@@@0@@Z 100336d8     CreatureBanksExtender.obj
 0002:000096e0       __ehfuncinfo$??$insert@$0A@$0A@@?$_Tree@V?$_Tset_traits@PBDU?$less@PBD@std@@V?$allocator@PBD@2@$0A@@std@@@std@@QAE?AU?$pair@V?$_Tree_const_iterator@V?$_Tree_val@U?$_Tree_simple_types@PBD@std@@@std@@@std@@_N@1@$$QAPBD@Z 100336e0     ObjectsExtender.obj
 0002:00009704       __unwindtable$??$insert@$0A@$0A@@?$_Tree@V?$_Tset_traits@PBDU?$less@PBD@std@@V?$allocator@PBD@2@$0A@@std@@@std@@QAE?AU?$pair@V?$_Tree_const_iterator@V?$_Tree_val@U?$_Tree_simple_types@PBD@std@@@std@@@std@@_N@1@$$QAPBD@Z 10033704     ObjectsExtender.obj
 0002:0000970c       __ehfuncinfo$??$insert@$0A@$0A@@?$_Tree@V?$_Tset_traits@URMGObjectSetable@extender@@U?$less@URMGObjectSetable@extender@@@std@@V?$allocator@URMGObjectSetable@extender@@@4@$0A@@std@@@std@@QAE?AU?$pair@V?$_Tree_const_iterator@V?$_Tree_val@U?$_Tree_simple_types@URMGObjectSetable@extender@@@std@@@std@@@std@@_N@1@$$QAURMGObjectSetable@extender@@@Z 1003370c     ObjectsExtender.obj
 0002:00009730       __unwindtable$??$insert@$0A@$0A@@?$_Tree@V?$_Tset_traits@URMGObjectSetable@extender@@U?$less@URMGObjectSetable@extender@@@std@@V?$allocator@URMGObjectSetable@extender@@@4@$0A@@std@@@std@@QAE?AU?$pair@V?$_Tree_const_iterator@V?$_Tree_val@U?$_Tree_simple_types@URMGObjectSetable@extender@@@std@@@std@@@std@@_N@1@$$QAURMGObjectSetable@extender@@@Z 10033730     ObjectsExtender.obj
 0002:00009738       __ehfuncinfo$??$_Emplace_reallocate@AAPBD@?$vector@V?$basic_string@DU?$char_traits@D@std@@V?$allocator@D@2@@std@@V?$allocator@V?$basic_string@DU?$char_traits@D@std@@V?$allocator@D@2@@std@@@2@@std@@AAEPAV?$basic_string@DU?$char_traits@D@std@@V?$allocator@D@2@@1@QAV21@AAPBD@Z 10033738     ObjectsExtender.obj
 0002:0000975c       __unwindtable$??$_Emplace_reallocate@AAPBD@?$vector@V?$basic_string@DU?$char_traits@D@std@@V?$allocator@D@2@@std@@V?$allocator@V?$basic_string@DU?$char_traits@D@std@@V?$allocator@D@2@@std@@@2@@std@@AAEPAV?$basic_string@DU?$char_traits@D@std@@V?$allocator@D@2@@1@QAV21@AAPBD@Z 1003375c     ObjectsExtender.obj
 0002:0000976c       __tryblocktable$??$_Emplace_reallocate@AAPBD@?$vector@V?$basic_string@DU?$char_traits@D@std@@V?$allocator@D@2@@std@@V?$allocator@V?$basic_string@DU?$char_traits@D@std@@V?$allocator@D@2@@std@@@2@@std@@AAEPAV?$basic_string@DU?$char_traits@D@std@@V?$allocator@D@2@@1@QAV21@AAPBD@Z 1003376c     ObjectsExtender.obj
 0002:00009780       __catchsym$??$_Emplace_reallocate@AAPBD@?$vector@V?$basic_string@DU?$char_traits@D@std@@V?$allocator@D@2@@std@@V?$allocator@V?$basic_string@DU?$char_traits@D@std@@V?$allocator@D@2@@std@@@2@@std@@AAEPAV?$basic_string@DU?$char_traits@D@std@@V?$allocator@D@2@@1@QAV21@AAPBD@Z$2 10033780     ObjectsExtender.obj
 0002:00009790       __ehfuncinfo$?Reserve@?$H3Vector@PAUH3RmgObjectGenerator@h3@@@h3@@QAEHI@Z 10033790     ObjectsExtender.obj
 0002:00009790       __ehfuncinfo$?Reserve@?$H3Vector@PBD@h3@@QAEHI@Z 10033790     ObjectsExtender.obj
 0002:00009790       __ehfuncinfo$?Reserve@?$H3Vector@H@h3@@QAEHI@Z 10033790     RMG_SettingsDlg.obj
 0002:00009790       __ehfuncinfo$?Reserve@?$H3Vector@PAUH3DlgItem@h3@@@h3@@QAEHI@Z 10033790     RMG_SettingsDlg.obj
 0002:000097b4       __unwindtable$?Reserve@?$H3Vector@PAUH3RmgObjectGenerator@h3@@@h3@@QAEHI@Z 100337b4     ObjectsExtender.obj
 0002:000097b4       __unwindtable$?Reserve@?$H3Vector@PBD@h3@@QAEHI@Z 100337b4     ObjectsExtender.obj
 0002:000097b4       __unwindtable$?Reserve@?$H3Vector@H@h3@@QAEHI@Z 100337b4     RMG_SettingsDlg.obj
 0002:000097b4       __unwindtable$?Reserve@?$H3Vector@PAUH3DlgItem@h3@@@h3@@QAEHI@Z 100337b4     RMG_SettingsDlg.obj
 0002:000097c4       __ehfuncinfo$??$_Insert_range_unchecked@PAPBDPAPBD@?$_Tree@V?$_Tset_traits@PBDU?$less@PBD@std@@V?$allocator@PBD@2@$0A@@std@@@std@@IAEXPAPBDQAPBD@Z 100337c4     ObjectsExtender.obj
 0002:000097e8       __unwindtable$??$_Insert_range_unchecked@PAPBDPAPBD@?$_Tree@V?$_Tset_traits@PBDU?$less@PBD@std@@V?$allocator@PBD@2@$0A@@std@@@std@@IAEXPAPBDQAPBD@Z 100337e8     ObjectsExtender.obj
 0002:000097f0       __ehfuncinfo$??1PseudoH3RmgRandomMapGenerator@@QAE@XZ 100337f0     RMGObjectsEditor.obj
 0002:00009814       __unwindtable$??1PseudoH3RmgRandomMapGenerator@@QAE@XZ 10033814     RMGObjectsEditor.obj
 0002:0000982c       __ehfuncinfo$??1?$H3Vector@UH3ObjectAttributes@h3@@@h3@@QAE@XZ 1003382c     RMGObjectsEditor.obj
 0002:00009850       __unwindtable$??1?$H3Vector@UH3ObjectAttributes@h3@@@h3@@QAE@XZ 10033850     RMGObjectsEditor.obj
 0002:00009860       __ehfuncinfo$??$swap@U?$H3Vector@PAUH3RmgObjectGenerator@h3@@@h3@@$0A@@std@@YAXAAU?$H3Vector@PAUH3RmgObjectGenerator@h3@@@h3@@0@Z 10033860     RMGObjectsEditor.obj
 0002:00009860       __ehfuncinfo$?CreateText@H3BaseDlg@h3@@QAEPAUH3DlgText@2@HHHHPBD0HHW4eTextAlignment@NTextAlignment@NH3Dlg@2@H@Z 10033860     RMG_SettingsDlg.obj
 0002:00009860       __ehfuncinfo$?_Change_array@?$vector@U?$pair@UH3ObjectAttributes@h3@@PAUH3LoadedPcx16@2@@std@@V?$allocator@U?$pair@UH3ObjectAttributes@h3@@PAUH3LoadedPcx16@2@@std@@@2@@std@@AAEXQAU?$pair@UH3ObjectAttributes@h3@@PAUH3LoadedPcx16@2@@2@II@Z 10033860     RMG_SettingsDlg.obj
 0002:00009884       __unwindtable$??$swap@U?$H3Vector@PAUH3RmgObjectGenerator@h3@@@h3@@$0A@@std@@YAXAAU?$H3Vector@PAUH3RmgObjectGenerator@h3@@@h3@@0@Z 10033884     RMGObjectsEditor.obj
 0002:00009884       __unwindtable$?CreateText@H3BaseDlg@h3@@QAEPAUH3DlgText@2@HHHHPBD0HHW4eTextAlignment@NTextAlignment@NH3Dlg@2@H@Z 10033884     RMG_SettingsDlg.obj
 0002:00009884       __unwindtable$?_Change_array@?$vector@U?$pair@UH3ObjectAttributes@h3@@PAUH3LoadedPcx16@2@@std@@V?$allocator@U?$pair@UH3ObjectAttributes@h3@@PAUH3LoadedPcx16@2@@std@@@2@@std@@AAEXQAU?$pair@UH3ObjectAttributes@h3@@PAUH3LoadedPcx16@2@@2@II@Z 10033884     RMG_SettingsDlg.obj
 0002:0000988c       __ehfuncinfo$??$_Uninitialized_copy_n@PAV?$vector@URMGObjectInfo@@V?$allocator@URMGObjectInfo@@@std@@@std@@V?$allocator@V?$vector@URMGObjectInfo@@V?$allocator@URMGObjectInfo@@@std@@@std@@@2@@std@@YAPAV?$vector@URMGObjectInfo@@V?$allocator@URMGObjectInfo@@@std@@@0@PAV10@I0AAV?$allocator@V?$vector@URMGObjectInfo@@V?$allocator@URMGObjectInfo@@@std@@@std@@@0@@Z 1003388c     RMGObjectsEditor.obj
 0002:000098b0       __unwindtable$??$_Uninitialized_copy_n@PAV?$vector@URMGObjectInfo@@V?$allocator@URMGObjectInfo@@@std@@@std@@V?$allocator@V?$vector@URMGObjectInfo@@V?$allocator@URMGObjectInfo@@@std@@@std@@@2@@std@@YAPAV?$vector@URMGObjectInfo@@V?$allocator@URMGObjectInfo@@@std@@@0@PAV10@I0AAV?$allocator@V?$vector@URMGObjectInfo@@V?$allocator@URMGObjectInfo@@@std@@@std@@@0@@Z 100338b0     RMGObjectsEditor.obj
 0002:000098b8       __ehfuncinfo$?FrameRegion@H3LoadedPcx16@h3@@QAEHHHHHHHH@Z 100338b8     RMG_SettingsDlg.obj
 0002:000098dc       __unwindtable$?FrameRegion@H3LoadedPcx16@h3@@QAEHHHHHHHH@Z 100338dc     RMG_SettingsDlg.obj
 0002:00009904       __ehfuncinfo$??0H3Dlg@h3@@QAE@HHHHHHH@Z 10033904     RMG_SettingsDlg.obj
 0002:00009928       __unwindtable$??0H3Dlg@h3@@QAE@HHHHHHH@Z 10033928     RMG_SettingsDlg.obj
 0002:00009938       __ehfuncinfo$?AddBackground@H3Dlg@h3@@QAEHHHHHHHHH@Z 10033938     RMG_SettingsDlg.obj
 0002:0000995c       __unwindtable$?AddBackground@H3Dlg@h3@@QAEHHHHHHHHH@Z 1003395c     RMG_SettingsDlg.obj
 0002:00009984       __ehfuncinfo$??$_Reallocate@$00@?$vector@U?$pair@UH3ObjectAttributes@h3@@PAUH3LoadedPcx16@2@@std@@V?$allocator@U?$pair@UH3ObjectAttributes@h3@@PAUH3LoadedPcx16@2@@std@@@2@@std@@AAEXAAI@Z 10033984     RMG_SettingsDlg.obj
 0002:00009984       __ehfuncinfo$??$_Reallocate@$0A@@?$vector@U?$pair@UH3ObjectAttributes@h3@@PAUH3LoadedPcx16@2@@std@@V?$allocator@U?$pair@UH3ObjectAttributes@h3@@PAUH3LoadedPcx16@2@@std@@@2@@std@@AAEXAAI@Z 10033984     RMG_SettingsDlg.obj
 0002:000099a8       __unwindtable$??$_Reallocate@$00@?$vector@U?$pair@UH3ObjectAttributes@h3@@PAUH3LoadedPcx16@2@@std@@V?$allocator@U?$pair@UH3ObjectAttributes@h3@@PAUH3LoadedPcx16@2@@std@@@2@@std@@AAEXAAI@Z 100339a8     RMG_SettingsDlg.obj
 0002:000099a8       __unwindtable$??$_Reallocate@$0A@@?$vector@U?$pair@UH3ObjectAttributes@h3@@PAUH3LoadedPcx16@2@@std@@V?$allocator@U?$pair@UH3ObjectAttributes@h3@@PAUH3LoadedPcx16@2@@std@@@2@@std@@AAEXAAI@Z 100339a8     RMG_SettingsDlg.obj
 0002:000099c0       __ehfuncinfo$??$_Assign_counted_range@PAU?$pair@UH3ObjectAttributes@h3@@PAUH3LoadedPcx16@2@@std@@@?$vector@U?$pair@UH3ObjectAttributes@h3@@PAUH3LoadedPcx16@2@@std@@V?$allocator@U?$pair@UH3ObjectAttributes@h3@@PAUH3LoadedPcx16@2@@std@@@2@@std@@AAEXPAU?$pair@UH3ObjectAttributes@h3@@PAUH3LoadedPcx16@2@@1@I@Z 100339c0     RMG_SettingsDlg.obj
 0002:000099e4       __unwindtable$??$_Assign_counted_range@PAU?$pair@UH3ObjectAttributes@h3@@PAUH3LoadedPcx16@2@@std@@@?$vector@U?$pair@UH3ObjectAttributes@h3@@PAUH3LoadedPcx16@2@@std@@V?$allocator@U?$pair@UH3ObjectAttributes@h3@@PAUH3LoadedPcx16@2@@std@@@2@@std@@AAEXPAU?$pair@UH3ObjectAttributes@h3@@PAUH3LoadedPcx16@2@@1@I@Z 100339e4     RMG_SettingsDlg.obj
 0002:00009a04       __ehfuncinfo$??$_Emplace_reallocate@ABUH3ObjectAttributes@h3@@ABQAUH3LoadedPcx16@2@@?$vector@VRMGObject@rmgdlg@@V?$allocator@VRMGObject@rmgdlg@@@std@@@std@@AAEPAVRMGObject@rmgdlg@@QAV23@ABUH3ObjectAttributes@h3@@ABQAUH3LoadedPcx16@5@@Z 10033a04     RMG_SettingsDlg.obj
 0002:00009a28       __unwindtable$??$_Emplace_reallocate@ABUH3ObjectAttributes@h3@@ABQAUH3LoadedPcx16@2@@?$vector@VRMGObject@rmgdlg@@V?$allocator@VRMGObject@rmgdlg@@@std@@@std@@AAEPAVRMGObject@rmgdlg@@QAV23@ABUH3ObjectAttributes@h3@@ABQAUH3LoadedPcx16@5@@Z 10033a28     RMG_SettingsDlg.obj
 0002:00009a38       __tryblocktable$??$_Emplace_reallocate@ABUH3ObjectAttributes@h3@@ABQAUH3LoadedPcx16@2@@?$vector@VRMGObject@rmgdlg@@V?$allocator@VRMGObject@rmgdlg@@@std@@@std@@AAEPAVRMGObject@rmgdlg@@QAV23@ABUH3ObjectAttributes@h3@@ABQAUH3LoadedPcx16@5@@Z 10033a38     RMG_SettingsDlg.obj
 0002:00009a4c       __catchsym$??$_Emplace_reallocate@ABUH3ObjectAttributes@h3@@ABQAUH3LoadedPcx16@2@@?$vector@VRMGObject@rmgdlg@@V?$allocator@VRMGObject@rmgdlg@@@std@@@std@@AAEPAVRMGObject@rmgdlg@@QAV23@ABUH3ObjectAttributes@h3@@ABQAUH3LoadedPcx16@5@@Z$2 10033a4c     RMG_SettingsDlg.obj
 0002:00009a5c       __ehfuncinfo$??$_Emplace_reallocate@U?$pair@UH3ObjectAttributes@h3@@$$T@std@@@?$vector@U?$pair@UH3ObjectAttributes@h3@@PAUH3LoadedPcx16@2@@std@@V?$allocator@U?$pair@UH3ObjectAttributes@h3@@PAUH3LoadedPcx16@2@@std@@@2@@std@@AAEPAU?$pair@UH3ObjectAttributes@h3@@PAUH3LoadedPcx16@2@@1@QAU21@$$QAU?$pair@UH3ObjectAttributes@h3@@$$T@1@@Z 10033a5c     RMG_SettingsDlg.obj
 0002:00009a80       __unwindtable$??$_Emplace_reallocate@U?$pair@UH3ObjectAttributes@h3@@$$T@std@@@?$vector@U?$pair@UH3ObjectAttributes@h3@@PAUH3LoadedPcx16@2@@std@@V?$allocator@U?$pair@UH3ObjectAttributes@h3@@PAUH3LoadedPcx16@2@@std@@@2@@std@@AAEPAU?$pair@UH3ObjectAttributes@h3@@PAUH3LoadedPcx16@2@@1@QAU21@$$QAU?$pair@UH3ObjectAttributes@h3@@$$T@1@@Z 10033a80     RMG_SettingsDlg.obj
 0002:00009aa8       __ehfuncinfo$??$_Emplace_reallocate@AAU?$pair@UH3ObjectAttributes@h3@@PAUH3LoadedPcx16@2@@std@@@?$vector@U?$pair@UH3ObjectAttributes@h3@@PAUH3LoadedPcx16@2@@std@@V?$allocator@U?$pair@UH3ObjectAttributes@h3@@PAUH3LoadedPcx16@2@@std@@@2@@std@@AAEPAU?$pair@UH3ObjectAttributes@h3@@PAUH3LoadedPcx16@2@@1@QAU21@AAU21@@Z 10033aa8     RMG_SettingsDlg.obj
 0002:00009acc       __unwindtable$??$_Emplace_reallocate@AAU?$pair@UH3ObjectAttributes@h3@@PAUH3LoadedPcx16@2@@std@@@?$vector@U?$pair@UH3ObjectAttributes@h3@@PAUH3LoadedPcx16@2@@std@@V?$allocator@U?$pair@UH3ObjectAttributes@h3@@PAUH3LoadedPcx16@2@@std@@@2@@std@@AAEPAU?$pair@UH3ObjectAttributes@h3@@PAUH3LoadedPcx16@2@@1@QAU21@AAU21@@Z 10033acc     RMG_SettingsDlg.obj
 0002:00009af4       __tryblocktable$??$_Emplace_reallocate@AAU?$pair@UH3ObjectAttributes@h3@@PAUH3LoadedPcx16@2@@std@@@?$vector@U?$pair@UH3ObjectAttributes@h3@@PAUH3LoadedPcx16@2@@std@@V?$allocator@U?$pair@UH3ObjectAttributes@h3@@PAUH3LoadedPcx16@2@@std@@@2@@std@@AAEPAU?$pair@UH3ObjectAttributes@h3@@PAUH3LoadedPcx16@2@@1@QAU21@AAU21@@Z 10033af4     RMG_SettingsDlg.obj
 0002:00009b08       __catchsym$??$_Emplace_reallocate@AAU?$pair@UH3ObjectAttributes@h3@@PAUH3LoadedPcx16@2@@std@@@?$vector@U?$pair@UH3ObjectAttributes@h3@@PAUH3LoadedPcx16@2@@std@@V?$allocator@U?$pair@UH3ObjectAttributes@h3@@PAUH3LoadedPcx16@2@@std@@@2@@std@@AAEPAU?$pair@UH3ObjectAttributes@h3@@PAUH3LoadedPcx16@2@@1@QAU21@AAU21@@Z$15 10033b08     RMG_SettingsDlg.obj
 0002:00009b18       __ehfuncinfo$??$_Insertion_sort_unchecked@PAVRMGObject@rmgdlg@@V<lambda_1>@?1??SortRmgObjects@sorting@2@YAXAAV?$vector@VRMGObject@rmgdlg@@V?$allocator@VRMGObject@rmgdlg@@@std@@@std@@W4eSorting@52@_N@Z@@std@@YAPAVRMGObject@rmgdlg@@QAV12@0V<lambda_1>@?1??SortRmgObjects@sorting@2@YAXAAV?$vector@VRMGObject@rmgdlg@@V?$allocator@VRMGObject@rmgdlg@@@std@@@0@W4eSorting@52@_N@Z@@Z 10033b18     RMG_SettingsDlg.obj
 0002:00009b40       __unwindtable$??$_Insertion_sort_unchecked@PAVRMGObject@rmgdlg@@V<lambda_1>@?1??SortRmgObjects@sorting@2@YAXAAV?$vector@VRMGObject@rmgdlg@@V?$allocator@VRMGObject@rmgdlg@@@std@@@std@@W4eSorting@52@_N@Z@@std@@YAPAVRMGObject@rmgdlg@@QAV12@0V<lambda_1>@?1??SortRmgObjects@sorting@2@YAXAAV?$vector@VRMGObject@rmgdlg@@V?$allocator@VRMGObject@rmgdlg@@@std@@@0@W4eSorting@52@_N@Z@@Z 10033b40     RMG_SettingsDlg.obj
 0002:00009ca0       __ehfuncinfo$??$_Make_heap_unchecked@PAVRMGObject@rmgdlg@@V<lambda_1>@?1??SortRmgObjects@sorting@2@YAXAAV?$vector@VRMGObject@rmgdlg@@V?$allocator@VRMGObject@rmgdlg@@@std@@@std@@W4eSorting@52@_N@Z@@std@@YAXPAVRMGObject@rmgdlg@@0V<lambda_1>@?1??SortRmgObjects@sorting@2@YAXAAV?$vector@VRMGObject@rmgdlg@@V?$allocator@VRMGObject@rmgdlg@@@std@@@0@W4eSorting@52@_N@Z@@Z 10033ca0     RMG_SettingsDlg.obj
 0002:00009cc8       __unwindtable$??$_Make_heap_unchecked@PAVRMGObject@rmgdlg@@V<lambda_1>@?1??SortRmgObjects@sorting@2@YAXAAV?$vector@VRMGObject@rmgdlg@@V?$allocator@VRMGObject@rmgdlg@@@std@@@std@@W4eSorting@52@_N@Z@@std@@YAXPAVRMGObject@rmgdlg@@0V<lambda_1>@?1??SortRmgObjects@sorting@2@YAXAAV?$vector@VRMGObject@rmgdlg@@V?$allocator@VRMGObject@rmgdlg@@@std@@@0@W4eSorting@52@_N@Z@@Z 10033cc8     RMG_SettingsDlg.obj
 0002:00009d78       __ehfuncinfo$??$_Partition_by_median_guess_unchecked@PAVRMGObject@rmgdlg@@V<lambda_1>@?1??SortRmgObjects@sorting@2@YAXAAV?$vector@VRMGObject@rmgdlg@@V?$allocator@VRMGObject@rmgdlg@@@std@@@std@@W4eSorting@52@_N@Z@@std@@YA?AU?$pair@PAVRMGObject@rmgdlg@@PAV12@@0@PAVRMGObject@rmgdlg@@0V<lambda_1>@?1??SortRmgObjects@sorting@3@YAXAAV?$vector@VRMGObject@rmgdlg@@V?$allocator@VRMGObject@rmgdlg@@@std@@@0@W4eSorting@63@_N@Z@@Z 10033d78     RMG_SettingsDlg.obj
 0002:00009da0       __unwindtable$??$_Partition_by_median_guess_unchecked@PAVRMGObject@rmgdlg@@V<lambda_1>@?1??SortRmgObjects@sorting@2@YAXAAV?$vector@VRMGObject@rmgdlg@@V?$allocator@VRMGObject@rmgdlg@@@std@@@std@@W4eSorting@52@_N@Z@@std@@YA?AU?$pair@PAVRMGObject@rmgdlg@@PAV12@@0@PAVRMGObject@rmgdlg@@0V<lambda_1>@?1??SortRmgObjects@sorting@3@YAXAAV?$vector@VRMGObject@rmgdlg@@V?$allocator@VRMGObject@rmgdlg@@@std@@@0@W4eSorting@63@_N@Z@@Z 10033da0     RMG_SettingsDlg.obj
 0002:0000a320       __ehfuncinfo$??$construct@VRMGObject@rmgdlg@@ABUH3ObjectAttributes@h3@@ABQAUH3LoadedPcx16@4@@?$_Default_allocator_traits@V?$allocator@VRMGObject@rmgdlg@@@std@@@std@@SAXAAV?$allocator@VRMGObject@rmgdlg@@@1@QAVRMGObject@rmgdlg@@ABUH3ObjectAttributes@h3@@ABQAUH3LoadedPcx16@6@@Z 10034320     RMG_SettingsDlg.obj
 0002:0000a344       __unwindtable$??$construct@VRMGObject@rmgdlg@@ABUH3ObjectAttributes@h3@@ABQAUH3LoadedPcx16@4@@?$_Default_allocator_traits@V?$allocator@VRMGObject@rmgdlg@@@std@@@std@@SAXAAV?$allocator@VRMGObject@rmgdlg@@@1@QAVRMGObject@rmgdlg@@ABUH3ObjectAttributes@h3@@ABQAUH3LoadedPcx16@6@@Z 10034344     RMG_SettingsDlg.obj
 0002:0000a358       __ehfuncinfo$??$_Pop_heap_hole_by_index@PAVRMGObject@rmgdlg@@V12@V<lambda_1>@?1??SortRmgObjects@sorting@2@YAXAAV?$vector@VRMGObject@rmgdlg@@V?$allocator@VRMGObject@rmgdlg@@@std@@@std@@W4eSorting@52@_N@Z@@std@@YAXPAVRMGObject@rmgdlg@@HH$$QAV12@V<lambda_1>@?1??SortRmgObjects@sorting@2@YAXAAV?$vector@VRMGObject@rmgdlg@@V?$allocator@VRMGObject@rmgdlg@@@std@@@0@W4eSorting@52@_N@Z@@Z 10034358     RMG_SettingsDlg.obj
 0002:0000a380       __unwindtable$??$_Pop_heap_hole_by_index@PAVRMGObject@rmgdlg@@V12@V<lambda_1>@?1??SortRmgObjects@sorting@2@YAXAAV?$vector@VRMGObject@rmgdlg@@V?$allocator@VRMGObject@rmgdlg@@@std@@@std@@W4eSorting@52@_N@Z@@std@@YAXPAVRMGObject@rmgdlg@@HH$$QAV12@V<lambda_1>@?1??SortRmgObjects@sorting@2@YAXAAV?$vector@VRMGObject@rmgdlg@@V?$allocator@VRMGObject@rmgdlg@@@std@@@0@W4eSorting@52@_N@Z@@Z 10034380     RMG_SettingsDlg.obj
 0002:0000a430       __ehfuncinfo$??$_Push_heap_by_index@PAVRMGObject@rmgdlg@@V12@V<lambda_1>@?1??SortRmgObjects@sorting@2@YAXAAV?$vector@VRMGObject@rmgdlg@@V?$allocator@VRMGObject@rmgdlg@@@std@@@std@@W4eSorting@52@_N@Z@@std@@YAXPAVRMGObject@rmgdlg@@HH$$QAV12@V<lambda_1>@?1??SortRmgObjects@sorting@2@YAXAAV?$vector@VRMGObject@rmgdlg@@V?$allocator@VRMGObject@rmgdlg@@@std@@@0@W4eSorting@52@_N@Z@@Z 10034430     RMG_SettingsDlg.obj
 0002:0000a458       __unwindtable$??$_Push_heap_by_index@PAVRMGObject@rmgdlg@@V12@V<lambda_1>@?1??SortRmgObjects@sorting@2@YAXAAV?$vector@VRMGObject@rmgdlg@@V?$allocator@VRMGObject@rmgdlg@@@std@@@std@@W4eSorting@52@_N@Z@@std@@YAXPAVRMGObject@rmgdlg@@HH$$QAV12@V<lambda_1>@?1??SortRmgObjects@sorting@2@YAXAAV?$vector@VRMGObject@rmgdlg@@V?$allocator@VRMGObject@rmgdlg@@@std@@@0@W4eSorting@52@_N@Z@@Z 10034458     RMG_SettingsDlg.obj
 0002:0000a598       __unwindtable$?_Makestr@_System_error@std@@CA?AV?$basic_string@DU?$char_traits@D@std@@V?$allocator@D@2@@2@Verror_code@2@V32@@Z 10034598     libcpmt:thread0.obj
 0002:0000a5a8       __ehfuncinfo$?_Makestr@_System_error@std@@CA?AV?$basic_string@DU?$char_traits@D@std@@V?$allocator@D@2@@2@Verror_code@2@V32@@Z 100345a8     libcpmt:thread0.obj
 0002:0000a5cc       __unwindtable$??0system_error@std@@QAE@HABVerror_category@1@PBD@Z 100345cc     libcpmt:thread0.obj
 0002:0000a5d4       __ehfuncinfo$??0system_error@std@@QAE@HABVerror_category@1@PBD@Z 100345d4     libcpmt:thread0.obj
 0002:0000a658       __sehtable$___scrt_is_nonwritable_in_current_image 10034658     LIBCMT:utility.obj
 0002:0000a678       __sehtable$??_M@YGXPAXIIP6EX0@Z@Z 10034678     LIBCMT:ehvecdtr.obj
 0002:0000a698       __sehtable$?__ArrayUnwind@@YGXPAXIIP6EX0@Z@Z 10034698     LIBCMT:ehvecdtr.obj
 0002:0000a6b8       __sehtable$??_L@YGXPAXIIP6EX0@Z1@Z 100346b8     LIBCMT:ehvecctr.obj
 0002:0000a6d8       __sehtable$?dllmain_crt_process_attach@@YAHQAUHINSTANCE__@@QAX@Z 100346d8     LIBCMT:dll_dllmain.obj
 0002:0000a6f8       __sehtable$?dllmain_crt_process_detach@@YAH_N@Z 100346f8     LIBCMT:dll_dllmain.obj
 0002:0000a720       __sehtable$?dllmain_dispatch@@YAHQAUHINSTANCE__@@KQAX@Z 10034720     LIBCMT:dll_dllmain.obj
 0002:0000a740       __sehtable$___DestructExceptionObject 10034740     libvcruntime:ehhelpers.obj
 0002:0000a760       __sehtable$?FrameUnwindToState@__FrameHandler3@@SAXPAUEHRegistrationNode@@PAXPBU_s_FuncInfo@@H@Z 10034760     libvcruntime:frame.obj
 0002:0000a788       __sehtable$?CallCatchBlock@@YAPAXPAUEHExceptionRecord@@PAUEHRegistrationNode@@PAU_CONTEXT@@PBU_s_FuncInfo@@PAXHK@Z 10034788     libvcruntime:frame.obj
 0002:0000a7b0       __catchsym$?CallUnexpected@@YAXPBU_s_ESTypeList@@@Z$2 100347b0     libvcruntime:frame.obj
 0002:0000a7c0       __unwindtable$?CallUnexpected@@YAXPBU_s_ESTypeList@@@Z 100347c0     libvcruntime:frame.obj
 0002:0000a7d0       __tryblocktable$?CallUnexpected@@YAXPBU_s_ESTypeList@@@Z 100347d0     libvcruntime:frame.obj
 0002:0000a7e4       __ehfuncinfo$?CallUnexpected@@YAXPBU_s_ESTypeList@@@Z 100347e4     libvcruntime:frame.obj
 0002:0000a808       __sehtable$??$BuildCatchObjectHelperInternal@V__FrameHandler3@@@@YAHPAUEHExceptionRecord@@PAXPBU_s_HandlerType@@PBU_s_CatchableType@@@Z 10034808     libvcruntime:frame.obj
 0002:0000a828       __sehtable$??$BuildCatchObjectInternal@V__FrameHandler3@@@@YAXPAUEHExceptionRecord@@PAXPBU_s_HandlerType@@PBU_s_CatchableType@@@Z 10034828     libvcruntime:frame.obj
 0002:0000a880       __sehtable$??$thread_start@P6GIPAX@Z$00@@YGKQAX@Z 10034880     libucrt:thread.obj
 0002:0000a8a0       __sehtable$_terminate      100348a0     libucrt:terminate.obj
 0002:0000a8c0       __sehtable$__query_new_handler 100348c0     libucrt:new_handler.obj
 0002:0000a8e0       __sehtable$??R<lambda_6e4b09c48022b2350581041d5f6b0c4c>@@QBE@XZ 100348e0     libucrt:exit.obj
 0002:0000a900       __sehtable$??$?RV<lambda_03b1d95aef87969028cfba75ccab2455>@@AAV<lambda_6e4b09c48022b2350581041d5f6b0c4c>@@V<lambda_22bdf7517842c4b3e53723af5aa32b9e>@@@?$__crt_seh_guarded_call@X@@QAEX$$QAV<lambda_03b1d95aef87969028cfba75ccab2455>@@AAV<lambda_6e4b09c48022b2350581041d5f6b0c4c>@@$$QAV<lambda_22bdf7517842c4b3e53723af5aa32b9e>@@@Z 10034900     libucrt:exit.obj
 0002:0000a920       __sehtable$??$?RV<lambda_8e746cf0007f6ed984d6f78af1fec997>@@AAV<lambda_22ebabd17bc4fa466a2aca6d8deb888d>@@V<lambda_18ed0c0b38a6dc0daf1e7ac6d6adf05e>@@@?$__crt_seh_guarded_call@H@@QAEH$$QAV<lambda_8e746cf0007f6ed984d6f78af1fec997>@@AAV<lambda_22ebabd17bc4fa466a2aca6d8deb888d>@@$$QAV<lambda_18ed0c0b38a6dc0daf1e7ac6d6adf05e>@@@Z 10034920     libucrt:onexit.obj
 0002:0000a940       __sehtable$??$?RV<lambda_69a2805e680e0e292e8ba93315fe43a8>@@AAV<lambda_f03950bc5685219e0bcd2087efbe011e>@@V<lambda_03fcd07e894ec930e3f35da366ca99d6>@@@?$__crt_seh_guarded_call@H@@QAEH$$QAV<lambda_69a2805e680e0e292e8ba93315fe43a8>@@AAV<lambda_f03950bc5685219e0bcd2087efbe011e>@@$$QAV<lambda_03fcd07e894ec930e3f35da366ca99d6>@@@Z 10034940     libucrt:onexit.obj
 0002:0000a960       __sehtable$??$?RV<lambda_15ade71b0218206bbe3333a0c9b79046>@@AAV<lambda_da44e0f8b0f19ba52fefafb335991732>@@V<lambda_207f2d024fc103971653565357d6cd41>@@@?$__crt_seh_guarded_call@X@@QAEX$$QAV<lambda_15ade71b0218206bbe3333a0c9b79046>@@AAV<lambda_da44e0f8b0f19ba52fefafb335991732>@@$$QAV<lambda_207f2d024fc103971653565357d6cd41>@@@Z 10034960     libucrt:per_thread_data.obj
 0002:0000a980       __sehtable$??$?RV<lambda_a7e850c220f1c8d1e6efeecdedd162c6>@@AAV<lambda_46720907175c18b6c9d2717bc0d2d362>@@V<lambda_9048902d66e8d99359bc9897bbb930a8>@@@?$__crt_seh_guarded_call@X@@QAEX$$QAV<lambda_a7e850c220f1c8d1e6efeecdedd162c6>@@AAV<lambda_46720907175c18b6c9d2717bc0d2d362>@@$$QAV<lambda_9048902d66e8d99359bc9897bbb930a8>@@@Z 10034980     libucrt:per_thread_data.obj
 0002:0000a9a0       __sehtable$??$?RV<lambda_38edbb1296d33220d7e4dd0ed76b244a>@@AAV<lambda_5ce1d447e08cb34b2473517608e21441>@@V<lambda_fb385d3da700c9147fc39e65dd577a8c>@@@?$__crt_seh_guarded_call@X@@QAEX$$QAV<lambda_38edbb1296d33220d7e4dd0ed76b244a>@@AAV<lambda_5ce1d447e08cb34b2473517608e21441>@@$$QAV<lambda_fb385d3da700c9147fc39e65dd577a8c>@@@Z 100349a0     libucrt:per_thread_data.obj
 0002:0000a9c0       __sehtable$??$?RV<lambda_6affb1475c98b40b75cdec977db92e3c>@@AAV<lambda_b8d4b9c228a6ecc3f80208dbb4b4a104>@@V<lambda_608742c3c92a14382c1684fc64f96c88>@@@?$__crt_seh_guarded_call@X@@QAEX$$QAV<lambda_6affb1475c98b40b75cdec977db92e3c>@@AAV<lambda_b8d4b9c228a6ecc3f80208dbb4b4a104>@@$$QAV<lambda_608742c3c92a14382c1684fc64f96c88>@@@Z 100349c0     libucrt:per_thread_data.obj
 0002:0000a9e0       __sehtable$??$?RV<lambda_e5124f882df8998aaf41531e079ba474>@@AAV<lambda_3e16ef9562a7dcce91392c22ab16ea36>@@V<lambda_e25ca0880e6ef98be67edffd8c599615>@@@?$__crt_seh_guarded_call@X@@QAEX$$QAV<lambda_e5124f882df8998aaf41531e079ba474>@@AAV<lambda_3e16ef9562a7dcce91392c22ab16ea36>@@$$QAV<lambda_e25ca0880e6ef98be67edffd8c599615>@@@Z 100349e0     libucrt:wsetlocale.obj
 0002:0000aa00       __sehtable$___acrt_initialize_lowio 10034a00     libucrt:ioinit.obj
 0002:0000aa20       __sehtable$_raise          10034a20     libucrt:signal.obj
 0002:0000aa40       __sehtable$??$?RV<lambda_cbab9ec6f41b0180b23cc171c22676b0>@@AAV<lambda_44731a7d0e6d81c3e6aa82d741081786>@@V<lambda_4b292cb8dd18144e164572427af410ab>@@@?$__crt_seh_guarded_call@P6AXH@Z@@QAEP6AXH@Z$$QAV<lambda_cbab9ec6f41b0180b23cc171c22676b0>@@AAV<lambda_44731a7d0e6d81c3e6aa82d741081786>@@$$QAV<lambda_4b292cb8dd18144e164572427af410ab>@@@Z 10034a40     libucrt:signal.obj
 0002:0000aa60       __sehtable$__fcloseall     10034a60     libucrt:closeall.obj
 0002:0000aa80       __sehtable$??$?RV<lambda_2866be3712abc81a800a822484c830d8>@@AAV<lambda_39ca0ed439415581b5b15c265174cece>@@V<lambda_2b24c74d71094a6cd0cb82e44167d71b>@@@?$__crt_seh_guarded_call@X@@QAEX$$QAV<lambda_2866be3712abc81a800a822484c830d8>@@AAV<lambda_39ca0ed439415581b5b15c265174cece>@@$$QAV<lambda_2b24c74d71094a6cd0cb82e44167d71b>@@@Z 10034a80     libucrt:fflush.obj
 0002:0000aaa0       __sehtable$??$?RV<lambda_2cc53f568c5a2bb6f192f930a45d44ea>@@AAV<lambda_ab61a845afdef5b7c387490eaf3616ee>@@V<lambda_c2ffc0b7726aa6be21d5f0026187e748>@@@?$__crt_seh_guarded_call@X@@QAEX$$QAV<lambda_2cc53f568c5a2bb6f192f930a45d44ea>@@AAV<lambda_ab61a845afdef5b7c387490eaf3616ee>@@$$QAV<lambda_c2ffc0b7726aa6be21d5f0026187e748>@@@Z 10034aa0     libucrt:fflush.obj
 0002:0000aac0       __sehtable$?update_thread_multibyte_data_internal@@YAPAU__crt_multibyte_data@@QAU__acrt_ptd@@QAPAU1@@Z 10034ac0     libucrt:mbctype.obj
 0002:0000aae0       __sehtable$??$?RV<lambda_ceb1ee4838e85a9d631eb091e2fbe199>@@AAV<lambda_ae742caa10f662c28703da3d2ea5e57e>@@V<lambda_cd08b5d6af4937fe54fc07d0c9bf6b37>@@@?$__crt_seh_guarded_call@X@@QAEX$$QAV<lambda_ceb1ee4838e85a9d631eb091e2fbe199>@@AAV<lambda_ae742caa10f662c28703da3d2ea5e57e>@@$$QAV<lambda_cd08b5d6af4937fe54fc07d0c9bf6b37>@@@Z 10034ae0     libucrt:mbctype.obj
 0002:0000ab00       __sehtable$___acrt_update_thread_locale_data 10034b00     libucrt:locale_refcounting.obj
 0002:0000ab20       __sehtable$___acrt_lowio_ensure_fh_exists 10034b20     libucrt:osfinfo.obj
 0002:0000ab40       __sehtable$_fclose         10034b40     libucrt:fclose.obj
 0002:0000ab60       __sehtable$??$?RV<lambda_9e9de3de5fa147e2223d7db92bc10aa6>@@AAV<lambda_38ce7e780aa69e748d6df282ebc68efe>@@V<lambda_8ca6da459f0f6780f1cff60fdc3d00e5>@@@?$__crt_seh_guarded_call@H@@QAEH$$QAV<lambda_9e9de3de5fa147e2223d7db92bc10aa6>@@AAV<lambda_38ce7e780aa69e748d6df282ebc68efe>@@$$QAV<lambda_8ca6da459f0f6780f1cff60fdc3d00e5>@@@Z 10034b60     libucrt:commit.obj
 0002:0000ab80       __sehtable$__write         10034b80     libucrt:write.obj
 0002:0000aba0       __sehtable$??$?RV<lambda_218ce3db14220d0be481dae8ef3383b6>@@AAV<lambda_628dfdc04ba53c8bfc02c9951375f3f5>@@V<lambda_57dc472bd5c9d5f3b2cbca59b8a843ae>@@@?$__crt_seh_guarded_call@H@@QAEH$$QAV<lambda_218ce3db14220d0be481dae8ef3383b6>@@AAV<lambda_628dfdc04ba53c8bfc02c9951375f3f5>@@$$QAV<lambda_57dc472bd5c9d5f3b2cbca59b8a843ae>@@@Z 10034ba0     libucrt:close.obj
 0002:0000abc0       __sehtable$___set_fpsr_sse2 10034bc0     libucrt:fpctrl.obj
 0002:0000abe0       __sehtable$__IsNonwritableInCurrentImage 10034be0     LIBCMT:pesect.obj
 0002:0000ac70       __ehfuncinfo$?CrBanksTxt_AfterLoad@@YGHPAVLoHook@@PAUHookContext@@@Z 10034c70     dllmain.obj
 0002:0000ac98       __unwindtable$?CrBanksTxt_AfterLoad@@YGHPAVLoHook@@PAUHookContext@@@Z 10034c98     dllmain.obj
 0002:0000acd8       __ehfuncinfo$?OnReportVersion@@YGXPAUTEvent@Era@@@Z 10034cd8     dllmain.obj
 0002:0000acfc       __unwindtable$?OnReportVersion@@YGXPAUTEvent@Era@@@Z 10034cfc     dllmain.obj
 0002:0000ad04       __ehfuncinfo$?ShrinkToFit@CreatureBanksExtender@cbanks@@AAEXXZ 10034d04     CreatureBanksExtender.obj
 0002:0000ad28       __ehfuncinfo$?Reserve@CreatureBanksExtender@cbanks@@AAEXG@Z 10034d28     CreatureBanksExtender.obj
 0002:0000ad4c       __ehfuncinfo$?Resize@CreatureBanksExtender@cbanks@@AAEXG@Z 10034d4c     CreatureBanksExtender.obj
 0002:0000ad70       __ehfuncinfo$?GetBankSetupsNumberFromJson@CreatureBanksExtender@cbanks@@AAE?BHF@Z 10034d70     CreatureBanksExtender.obj
 0002:0000ad98       __unwindtable$?GetBankSetupsNumberFromJson@CreatureBanksExtender@cbanks@@AAE?BHF@Z 10034d98     CreatureBanksExtender.obj
 0002:0000ae88       __ehfuncinfo$?GetCreatureBankId@CreatureBanksExtender@cbanks@@SAHHH@Z 10034e88     CreatureBanksExtender.obj
 0002:0000aeac       __ehfuncinfo$?OnAfterReloadLanguageData@CreatureBanksExtender@cbanks@@CGXPAUTEvent@Era@@@Z 10034eac     CreatureBanksExtender.obj
 0002:0000aed0       __unwindtable$?OnAfterReloadLanguageData@CreatureBanksExtender@cbanks@@CGXPAUTEvent@Era@@@Z 10034ed0     CreatureBanksExtender.obj
 0002:0000af00       __ehfuncinfo$??0CreatureBanksExtender@cbanks@@AAE@XZ 10034f00     CreatureBanksExtender.obj
 0002:0000af24       __unwindtable$??0CreatureBanksExtender@cbanks@@AAE@XZ 10034f24     CreatureBanksExtender.obj
 0002:0000af3c       __ehfuncinfo$?Get@CreatureBanksExtender@cbanks@@SAAAV12@XZ 10034f3c     CreatureBanksExtender.obj
 0002:0000af60       __unwindtable$?Get@CreatureBanksExtender@cbanks@@SAAAV12@XZ 10034f60     CreatureBanksExtender.obj
 0002:0000af68       __ehfuncinfo$?ShowHint@gazebo@@YAHPAVLoHook@@PAUHookContext@@PBD@Z 10034f68     GazeboExtender.obj
 0002:0000af8c       __unwindtable$?ShowHint@gazebo@@YAHPAVLoHook@@PAUHookContext@@PBD@Z 10034f8c     GazeboExtender.obj
 0002:0000afa4       __ehfuncinfo$?H3AdventureManager__ObjectVisit@GazeboExtender@gazebo@@CGHPAVLoHook@@PAUHookContext@@@Z 10034fa4     GazeboExtender.obj
 0002:0000afc8       __unwindtable$?H3AdventureManager__ObjectVisit@GazeboExtender@gazebo@@CGHPAVLoHook@@PAUHookContext@@@Z 10034fc8     GazeboExtender.obj
 0002:0000aff8       __ehfuncinfo$?ShowMessage@gazebo@@YAXPBUH3MapItem@h3@@H_N@Z 10034ff8     GazeboExtender.obj
 0002:0000b020       __unwindtable$?ShowMessage@gazebo@@YAXPBUH3MapItem@h3@@H_N@Z 10035020     GazeboExtender.obj
 0002:0000b090       __ehfuncinfo$?AIHero_GetObjectPosWeight@GazeboExtender@gazebo@@CGHPAVLoHook@@PAUHookContext@@@Z 10035090     GazeboExtender.obj
 0002:0000b0b4       __unwindtable$?AIHero_GetObjectPosWeight@GazeboExtender@gazebo@@CGHPAVLoHook@@PAUHookContext@@@Z 100350b4     GazeboExtender.obj
 0002:0000b0bc       __ehfuncinfo$??0GazeboExtender@gazebo@@AAE@XZ 100350bc     GazeboExtender.obj
 0002:0000b0e0       __unwindtable$??0GazeboExtender@gazebo@@AAE@XZ 100350e0     GazeboExtender.obj
 0002:0000b0e8       __ehfuncinfo$?Get@GazeboExtender@gazebo@@SAAAV12@XZ 100350e8     GazeboExtender.obj
 0002:0000b10c       __unwindtable$?Get@GazeboExtender@gazebo@@SAAAV12@XZ 1003510c     GazeboExtender.obj
 0002:0000b11c       __ehfuncinfo$?Shrine__AtGetHint@ShrinesExternder@shrines@@CGHPAVLoHook@@PAUHookContext@@@Z 1003511c     ShrinesExternder.obj
 0002:0000b140       __unwindtable$?Shrine__AtGetHint@ShrinesExternder@shrines@@CGHPAVLoHook@@PAUHookContext@@@Z 10035140     ShrinesExternder.obj
 0002:0000b150       __ehfuncinfo$?Shrine__AtGetName@ShrinesExternder@shrines@@CGHPAVLoHook@@PAUHookContext@@@Z 10035150     ShrinesExternder.obj
 0002:0000b174       __unwindtable$?Shrine__AtGetName@ShrinesExternder@shrines@@CGHPAVLoHook@@PAUHookContext@@@Z 10035174     ShrinesExternder.obj
 0002:0000b184       __ehfuncinfo$??0ShrinesExternder@shrines@@AAE@XZ 10035184     ShrinesExternder.obj
 0002:0000b1a8       __unwindtable$??0ShrinesExternder@shrines@@AAE@XZ 100351a8     ShrinesExternder.obj
 0002:0000b1b0       __ehfuncinfo$?Get@ShrinesExternder@shrines@@SAAAV12@XZ 100351b0     ShrinesExternder.obj
 0002:0000b1d4       __unwindtable$?Get@ShrinesExternder@shrines@@SAAAV12@XZ 100351d4     ShrinesExternder.obj
 0002:0000b1e4       __ehfuncinfo$?ShowHint@warehouses@@YAHPAVLoHook@@PAUHookContext@@PBD@Z 100351e4     WarehousesExtender.obj
 0002:0000b208       __unwindtable$?ShowHint@warehouses@@YAHPAVLoHook@@PAUHookContext@@PBD@Z 10035208     WarehousesExtender.obj
 0002:0000b218       __ehfuncinfo$?ShowMessage@warehouses@@YAXPBUH3MapItem@h3@@HH@Z 10035218     WarehousesExtender.obj
 0002:0000b240       __unwindtable$?ShowMessage@warehouses@@YAXPBUH3MapItem@h3@@HH@Z 10035240     WarehousesExtender.obj
 0002:0000b290       __ehfuncinfo$??0WarehousesExtender@warehouses@@AAE@XZ 10035290     WarehousesExtender.obj
 0002:0000b2b4       __unwindtable$??0WarehousesExtender@warehouses@@AAE@XZ 100352b4     WarehousesExtender.obj
 0002:0000b2bc       __ehfuncinfo$?Get@WarehousesExtender@warehouses@@SAAAV12@XZ 100352bc     WarehousesExtender.obj
 0002:0000b2e0       __unwindtable$?Get@WarehousesExtender@warehouses@@SAAAV12@XZ 100352e0     WarehousesExtender.obj
 0002:0000b2f0       __ehfuncinfo$?OnEveryDay@wateringPlace@@YGXPAUTEvent@Era@@@Z 100352f0     WateringPlaceExtender.obj
 0002:0000b314       __unwindtable$?OnEveryDay@wateringPlace@@YGXPAUTEvent@Era@@@Z 10035314     WateringPlaceExtender.obj
 0002:0000b31c       __ehfuncinfo$?ShowHint@wateringPlace@@YAHPAVLoHook@@PAUHookContext@@PBD@Z 1003531c     WateringPlaceExtender.obj
 0002:0000b340       __unwindtable$?ShowHint@wateringPlace@@YAHPAVLoHook@@PAUHookContext@@PBD@Z 10035340     WateringPlaceExtender.obj
 0002:0000b358       __ehfuncinfo$?H3AdventureManager__ObjectVisit@WateringPlaceExtender@wateringPlace@@CGHPAVLoHook@@PAUHookContext@@@Z 10035358     WateringPlaceExtender.obj
 0002:0000b37c       __unwindtable$?H3AdventureManager__ObjectVisit@WateringPlaceExtender@wateringPlace@@CGHPAVLoHook@@PAUHookContext@@@Z 1003537c     WateringPlaceExtender.obj
 0002:0000b3ac       __ehfuncinfo$?ShowMessage@wateringPlace@@YAXPBUH3MapItem@h3@@_N@Z 100353ac     WateringPlaceExtender.obj
 0002:0000b3d0       __unwindtable$?ShowMessage@wateringPlace@@YAXPBUH3MapItem@h3@@_N@Z 100353d0     WateringPlaceExtender.obj
 0002:0000b410       __ehfuncinfo$??0WateringPlaceExtender@wateringPlace@@AAE@XZ 10035410     WateringPlaceExtender.obj
 0002:0000b434       __unwindtable$??0WateringPlaceExtender@wateringPlace@@AAE@XZ 10035434     WateringPlaceExtender.obj
 0002:0000b43c       __ehfuncinfo$?Get@WateringPlaceExtender@wateringPlace@@SAAAV12@XZ 1003543c     WateringPlaceExtender.obj
 0002:0000b460       __unwindtable$?Get@WateringPlaceExtender@wateringPlace@@SAAAV12@XZ 10035460     WateringPlaceExtender.obj
 0002:0000b470       __ehfuncinfo$?H3AdventureManager__ObjectVisit_SoundPlay@ObjectsExtender@extender@@CGHPAVLoHook@@PAUHookContext@@@Z 10035470     ObjectsExtender.obj
 0002:0000b494       __unwindtable$?H3AdventureManager__ObjectVisit_SoundPlay@ObjectsExtender@extender@@CGHPAVLoHook@@PAUHookContext@@@Z 10035494     ObjectsExtender.obj
 0002:0000b4cc       __ehfuncinfo$?AddObjectsToObjectGenList@ObjectsExtender@extender@@SAXPAU?$H3Vector@PAUH3RmgObjectGenerator@h3@@@h3@@@Z 100354cc     ObjectsExtender.obj
 0002:0000b4f0       __unwindtable$?AddObjectsToObjectGenList@ObjectsExtender@extender@@SAXPAU?$H3Vector@PAUH3RmgObjectGenerator@h3@@@h3@@@Z 100354f0     ObjectsExtender.obj
 0002:0000b508       __ehfuncinfo$?CreateRmgObjectGen@extender@@YAPAUH3RmgObjectGenerator@h3@@ABURMGObjectInfo@@@Z 10035508     ObjectsExtender.obj
 0002:0000b52c       __unwindtable$?CreateRmgObjectGen@extender@@YAPAUH3RmgObjectGenerator@h3@@ABURMGObjectInfo@@@Z 1003552c     ObjectsExtender.obj
 0002:0000b53c       __ehfuncinfo$?H3GameMainSetup__LoadObjects@ObjectsExtender@extender@@CGXPAVHiHook@@PBUH3MainSetup@h3@@@Z 1003553c     ObjectsExtender.obj
 0002:0000b560       __unwindtable$?H3GameMainSetup__LoadObjects@ObjectsExtender@extender@@CGXPAVHiHook@@PBUH3MainSetup@h3@@@Z 10035560     ObjectsExtender.obj
 0002:0000b5c0       __ehfuncinfo$?LoadObjectsTxt@ObjectsExtender@extender@@CGHPAVLoHook@@PAUHookContext@@@Z 100355c0     ObjectsExtender.obj
 0002:0000b5e4       __unwindtable$?LoadObjectsTxt@ObjectsExtender@extender@@CGHPAVLoHook@@PAUHookContext@@@Z 100355e4     ObjectsExtender.obj
 0002:0000b5f4       __ehfuncinfo$??0ObjectsExtender@extender@@IAE@PAVPatcherInstance@@@Z 100355f4     ObjectsExtender.obj
 0002:0000b618       __unwindtable$??0ObjectsExtender@extender@@IAE@PAVPatcherInstance@@@Z 10035618     ObjectsExtender.obj
 0002:0000b620       __ehfuncinfo$?GetObjectName@RMGObjectInfo@@SAPBDHH@Z 10035620     RMGObjectsEditor.obj
 0002:0000b644       __unwindtable$?GetObjectName@RMGObjectInfo@@SAPBDHH@Z 10035644     RMGObjectsEditor.obj
 0002:0000b654       __ehfuncinfo$?GetName@RMGObjectInfo@@QBEPBDXZ 10035654     RMGObjectsEditor.obj
 0002:0000b678       __ehfuncinfo$??1RMGObjectsEditor@editor@@EAE@XZ 10035678     RMGObjectsEditor.obj
 0002:0000b69c       __unwindtable$??1RMGObjectsEditor@editor@@EAE@XZ 1003569c     RMGObjectsEditor.obj
 0002:0000b6a4       __ehfuncinfo$?InitLoading@RMGObjectsEditor@editor@@AAEXPBF@Z 100356a4     RMGObjectsEditor.obj
 0002:0000b6c8       __unwindtable$?InitLoading@RMGObjectsEditor@editor@@AAEXPBF@Z 100356c8     RMGObjectsEditor.obj
 0002:0000b6d8       __ehfuncinfo$?InitDefaults@RMGObjectsEditor@editor@@AAEXPBF@Z 100356d8     RMGObjectsEditor.obj
 0002:0000b6fc       __unwindtable$?InitDefaults@RMGObjectsEditor@editor@@AAEXPBF@Z 100356fc     RMGObjectsEditor.obj
 0002:0000b71c       __ehfuncinfo$??0RMGObjectsEditor@editor@@AAE@XZ 1003571c     RMGObjectsEditor.obj
 0002:0000b740       __unwindtable$??0RMGObjectsEditor@editor@@AAE@XZ 10035740     RMGObjectsEditor.obj
 0002:0000b760       __ehfuncinfo$?Init@RMGObjectsEditor@editor@@SAXPBF@Z 10035760     RMGObjectsEditor.obj
 0002:0000b784       __unwindtable$?Init@RMGObjectsEditor@editor@@SAXPBF@Z 10035784     RMGObjectsEditor.obj
 0002:0000b794       __ehfuncinfo$?Get@RMGObjectsEditor@editor@@SAAAV12@XZ 10035794     RMGObjectsEditor.obj
 0002:0000b7b8       __ehfuncinfo$?GameStart@rmgdlg@@YGXPAVHiHook@@K@Z 100357b8     RMG_SettingsDlg.obj
 0002:0000b7dc       __unwindtable$?GameStart@rmgdlg@@YGXPAVHiHook@@K@Z 100357dc     RMG_SettingsDlg.obj
 0002:0000b7f4       __ehfuncinfo$?CreateGraphics@rmgdlg@@YAXABU?$H3Vector@PAUH3RmgObjectGenerator@h3@@@h3@@@Z 100357f4     RMG_SettingsDlg.obj
 0002:0000b818       __unwindtable$?CreateGraphics@rmgdlg@@YAXABU?$H3Vector@PAUH3RmgObjectGenerator@h3@@@h3@@@Z 10035818     RMG_SettingsDlg.obj
 0002:0000b820       __ehfuncinfo$?CreateResizedObjectPcx@rmgdlg@@YAXXZ 10035820     RMG_SettingsDlg.obj
 0002:0000b844       __unwindtable$?CreateResizedObjectPcx@rmgdlg@@YAXXZ 10035844     RMG_SettingsDlg.obj
 0002:0000b84c       __ehfuncinfo$?NewScenarioDlg_Create@RMG_SettingsDlg@rmgdlg@@CGXPAVHiHook@@PAUH3SelectScenarioDialog@h3@@K@Z 1003584c     RMG_SettingsDlg.obj
 0002:0000b870       __unwindtable$?NewScenarioDlg_Create@RMG_SettingsDlg@rmgdlg@@CGXPAVHiHook@@PAUH3SelectScenarioDialog@h3@@K@Z 10035870     RMG_SettingsDlg.obj
 0002:0000b8a0       __ehfuncinfo$?SelectScenarioDlgRandomizeProc@rmgdlg@@YIHPAUH3Msg@h3@@@Z 100358a0     RMG_SettingsDlg.obj
 0002:0000b8c4       __unwindtable$?SelectScenarioDlgRandomizeProc@rmgdlg@@YIHPAUH3Msg@h3@@@Z 100358c4     RMG_SettingsDlg.obj
 0002:0000b8d4       __ehfuncinfo$?Dlg_SelectScenario_Proc@RMG_SettingsDlg@rmgdlg@@CGHPAVLoHook@@PAUHookContext@@@Z 100358d4     RMG_SettingsDlg.obj
 0002:0000b8f8       __unwindtable$?Dlg_SelectScenario_Proc@RMG_SettingsDlg@rmgdlg@@CGHPAVLoHook@@PAUHookContext@@@Z 100358f8     RMG_SettingsDlg.obj
 0002:0000b900       __ehfuncinfo$?GetObjectPrototypesLists@rmgdlg@@YAXXZ 10035900     RMG_SettingsDlg.obj
 0002:0000b928       __unwindtable$?GetObjectPrototypesLists@rmgdlg@@YAXXZ 10035928     RMG_SettingsDlg.obj
 0002:0000b970       __ehfuncinfo$?FindDataInObjectGeneratorsList@rmgdlg@@YAXAAV?$vector@U?$pair@UH3ObjectAttributes@h3@@PAUH3LoadedPcx16@2@@std@@V?$allocator@U?$pair@UH3ObjectAttributes@h3@@PAUH3LoadedPcx16@2@@std@@@2@@std@@@Z 10035970     RMG_SettingsDlg.obj
 0002:0000b994       __unwindtable$?FindDataInObjectGeneratorsList@rmgdlg@@YAXAAV?$vector@U?$pair@UH3ObjectAttributes@h3@@PAUH3LoadedPcx16@2@@std@@V?$allocator@U?$pair@UH3ObjectAttributes@h3@@PAUH3LoadedPcx16@2@@std@@@2@@std@@@Z 10035994     RMG_SettingsDlg.obj
 0002:0000b99c       __ehfuncinfo$?GetObjectPrototypesByTypes@rmgdlg@@YAXAAV?$vector@U?$pair@UH3ObjectAttributes@h3@@PAUH3LoadedPcx16@2@@std@@V?$allocator@U?$pair@UH3ObjectAttributes@h3@@PAUH3LoadedPcx16@2@@std@@@2@@std@@PBHI@Z 1003599c     RMG_SettingsDlg.obj
 0002:0000b9c0       __unwindtable$?GetObjectPrototypesByTypes@rmgdlg@@YAXAAV?$vector@U?$pair@UH3ObjectAttributes@h3@@PAUH3LoadedPcx16@2@@std@@V?$allocator@U?$pair@UH3ObjectAttributes@h3@@PAUH3LoadedPcx16@2@@std@@@2@@std@@PBHI@Z 100359c0     RMG_SettingsDlg.obj
 0002:0000b9d8       __ehfuncinfo$??0PageHeader@ObjectsPage@RMG_SettingsDlg@rmgdlg@@QAE@HHHHH@Z 100359d8     RMG_SettingsDlg.obj
 0002:0000ba00       __unwindtable$??0PageHeader@ObjectsPage@RMG_SettingsDlg@rmgdlg@@QAE@HHHHH@Z 10035a00     RMG_SettingsDlg.obj
 0002:0000baa0       __ehfuncinfo$??0RMGObject@rmgdlg@@QAE@ABUH3ObjectAttributes@h3@@PAUH3LoadedPcx16@3@@Z 10035aa0     RMG_SettingsDlg.obj
 0002:0000bac4       __unwindtable$??0RMGObject@rmgdlg@@QAE@ABUH3ObjectAttributes@h3@@PAUH3LoadedPcx16@3@@Z 10035ac4     RMG_SettingsDlg.obj
 0002:0000bad4       __ehfuncinfo$?SetActivePage@RMG_SettingsDlg@rmgdlg@@AAEHPAUPage@12@@Z 10035ad4     RMG_SettingsDlg.obj
 0002:0000baf8       __unwindtable$?SetActivePage@RMG_SettingsDlg@rmgdlg@@AAEHPAUPage@12@@Z 10035af8     RMG_SettingsDlg.obj
 0002:0000bb00       __ehfuncinfo$?ShowObjectExtendedInfo@BanksPage@RMG_SettingsDlg@rmgdlg@@UBEHPBUObjectsPanel@23@ABUH3Msg@h3@@@Z 10035b00     RMG_SettingsDlg.obj
 0002:0000bb24       __unwindtable$?ShowObjectExtendedInfo@BanksPage@RMG_SettingsDlg@rmgdlg@@UBEHPBUObjectsPanel@23@ABUH3Msg@h3@@@Z 10035b24     RMG_SettingsDlg.obj
 0002:0000bb2c       __ehfuncinfo$?ShowObjectExtendedInfo@ObjectsPage@RMG_SettingsDlg@rmgdlg@@MBEHPBUObjectsPanel@23@ABUH3Msg@h3@@@Z 10035b2c     RMG_SettingsDlg.obj
 0002:0000bb50       __unwindtable$?ShowObjectExtendedInfo@ObjectsPage@RMG_SettingsDlg@rmgdlg@@MBEHPBUObjectsPanel@23@ABUH3Msg@h3@@@Z 10035b50     RMG_SettingsDlg.obj
 0002:0000bb78       __ehfuncinfo$?FillObjects@ObjectsPage@RMG_SettingsDlg@rmgdlg@@MAEXH@Z 10035b78     RMG_SettingsDlg.obj
 0002:0000bb9c       __unwindtable$?FillObjects@ObjectsPage@RMG_SettingsDlg@rmgdlg@@MAEXH@Z 10035b9c     RMG_SettingsDlg.obj
 0002:0000bbb4       __ehfuncinfo$??0ObjectsPage@RMG_SettingsDlg@rmgdlg@@QAE@PAUH3DlgCaptionButton@h3@@ABV?$vector@U?$pair@UH3ObjectAttributes@h3@@PAUH3LoadedPcx16@2@@std@@V?$allocator@U?$pair@UH3ObjectAttributes@h3@@PAUH3LoadedPcx16@2@@std@@@2@@std@@H@Z 10035bb4     RMG_SettingsDlg.obj
 0002:0000bbd8       __unwindtable$??0ObjectsPage@RMG_SettingsDlg@rmgdlg@@QAE@PAUH3DlgCaptionButton@h3@@ABV?$vector@U?$pair@UH3ObjectAttributes@h3@@PAUH3LoadedPcx16@2@@std@@V?$allocator@U?$pair@UH3ObjectAttributes@h3@@PAUH3LoadedPcx16@2@@std@@@2@@std@@H@Z 10035bd8     RMG_SettingsDlg.obj
 0002:0000bc08       __ehfuncinfo$??1RMG_SettingsDlg@rmgdlg@@EAE@XZ 10035c08     RMG_SettingsDlg.obj
 0002:0000bc2c       __unwindtable$??1RMG_SettingsDlg@rmgdlg@@EAE@XZ 10035c2c     RMG_SettingsDlg.obj
 0002:0000bc3c       __ehfuncinfo$?PanelInfoToObjectInfo@ObjectsPanel@RMG_SettingsDlg@rmgdlg@@QAEXXZ 10035c3c     RMG_SettingsDlg.obj
 0002:0000bc60       __ehfuncinfo$?ObjectInfoToPanelInfo@ObjectsPanel@RMG_SettingsDlg@rmgdlg@@QAEXXZ 10035c60     RMG_SettingsDlg.obj
 0002:0000bc84       __ehfuncinfo$?UnfocusEdits@ObjectsPanel@RMG_SettingsDlg@rmgdlg@@QAE?BHH@Z 10035c84     RMG_SettingsDlg.obj
 0002:0000bca8       __unwindtable$?UnfocusEdits@ObjectsPanel@RMG_SettingsDlg@rmgdlg@@QAE?BHH@Z 10035ca8     RMG_SettingsDlg.obj
 0002:0000bcb0       __ehfuncinfo$?SetObject@ObjectsPanel@RMG_SettingsDlg@rmgdlg@@QAEXPAVRMGObject@3@@Z 10035cb0     RMG_SettingsDlg.obj
 0002:0000bcd4       __unwindtable$?SetObject@ObjectsPanel@RMG_SettingsDlg@rmgdlg@@QAEXPAVRMGObject@3@@Z 10035cd4     RMG_SettingsDlg.obj
 0002:0000bcdc       __ehfuncinfo$??0ObjectsPanel@RMG_SettingsDlg@rmgdlg@@QAE@HHPAUPage@12@@Z 10035cdc     RMG_SettingsDlg.obj
 0002:0000bd00       __unwindtable$??0ObjectsPanel@RMG_SettingsDlg@rmgdlg@@QAE@HHPAUPage@12@@Z 10035d00     RMG_SettingsDlg.obj
 0002:0000bd58       __ehfuncinfo$?CreateHorizontalScrollBar@ObjectsPage@RMG_SettingsDlg@rmgdlg@@IAEXXZ 10035d58     RMG_SettingsDlg.obj
 0002:0000bd7c       __unwindtable$?CreateHorizontalScrollBar@ObjectsPage@RMG_SettingsDlg@rmgdlg@@IAEXXZ 10035d7c     RMG_SettingsDlg.obj
 0002:0000bd84       __ehfuncinfo$?CreateVerticalScrollBar@ObjectsPage@RMG_SettingsDlg@rmgdlg@@IAEXXZ 10035d84     RMG_SettingsDlg.obj
 0002:0000bda8       __unwindtable$?CreateVerticalScrollBar@ObjectsPage@RMG_SettingsDlg@rmgdlg@@IAEXXZ 10035da8     RMG_SettingsDlg.obj
 0002:0000bdb0       __ehfuncinfo$?SaveObjects@RMG_SettingsDlg@rmgdlg@@AAEHH@Z 10035db0     RMG_SettingsDlg.obj
 0002:0000bdd4       __unwindtable$?SaveObjects@RMG_SettingsDlg@rmgdlg@@AAEHH@Z 10035dd4     RMG_SettingsDlg.obj
 0002:0000bdec       __ehfuncinfo$?WriteIniDlgSettings@RMG_SettingsDlg@rmgdlg@@ABE?BHXZ 10035dec     RMG_SettingsDlg.obj
 0002:0000be10       __ehfuncinfo$?ReadIniDlgSettings@RMG_SettingsDlg@rmgdlg@@AAE?BHXZ 10035e10     RMG_SettingsDlg.obj
 0002:0000be34       __ehfuncinfo$?OnOK@RMG_SettingsDlg@rmgdlg@@EAEXXZ 10035e34     RMG_SettingsDlg.obj
 0002:0000be58       __unwindtable$?OnOK@RMG_SettingsDlg@rmgdlg@@EAEXXZ 10035e58     RMG_SettingsDlg.obj
 0002:0000be60       __ehfuncinfo$?RemoveEditsFocus@RMG_SettingsDlg@rmgdlg@@ABE?BHH@Z 10035e60     RMG_SettingsDlg.obj
 0002:0000be84       __unwindtable$?RemoveEditsFocus@RMG_SettingsDlg@rmgdlg@@ABE?BHH@Z 10035e84     RMG_SettingsDlg.obj
 0002:0000be8c       __ehfuncinfo$?OnHelp@RMG_SettingsDlg@rmgdlg@@AAEXXZ 10035e8c     RMG_SettingsDlg.obj
 0002:0000beb0       __unwindtable$?OnHelp@RMG_SettingsDlg@rmgdlg@@AAEXXZ 10035eb0     RMG_SettingsDlg.obj
 0002:0000bee8       __ehfuncinfo$??0RMG_SettingsDlg@rmgdlg@@QAE@HHHH@Z 10035ee8     RMG_SettingsDlg.obj
 0002:0000bf10       __unwindtable$??0RMG_SettingsDlg@rmgdlg@@QAE@HHHH@Z 10035f10     RMG_SettingsDlg.obj
 0002:0000bfe8       __ehfuncinfo$??R<lambda_1>@?1??SortRmgObjects@sorting@rmgdlg@@YAXAAV?$vector@VRMGObject@rmgdlg@@V?$allocator@VRMGObject@rmgdlg@@@std@@@std@@W4eSorting@23@_N@Z@QBE_NABVRMGObject@3@3@Z 10035fe8     RMG_SettingsDlg.obj
 0002:0000c010       __unwindtable$??R<lambda_1>@?1??SortRmgObjects@sorting@rmgdlg@@YAXAAV?$vector@VRMGObject@rmgdlg@@V?$allocator@VRMGObject@rmgdlg@@@std@@@std@@W4eSorting@23@_N@Z@QBE_NABVRMGObject@3@3@Z 10036010     RMG_SettingsDlg.obj
 0002:0000c0c0       __sehtable$___RTDynamicCast 100360c0     libvcruntime:rtti.obj
 0002:0000c170       .edata                     10036170     RMG_CustomizeObjectProperties.exp
 0002:0000c198       rgpv                       10036198     RMG_CustomizeObjectProperties.exp
 0002:0000c1a0       rgszName                   100361a0     RMG_CustomizeObjectProperties.exp
 0002:0000c1a8       rgwOrd                     100361a8     RMG_CustomizeObjectProperties.exp
 0002:0000c1ac       szName                     100361ac     RMG_CustomizeObjectProperties.exp
 0002:0000c1ce       $N00001                    100361ce     RMG_CustomizeObjectProperties.exp
 0002:0000c1d3       $N00002                    100361d3     RMG_CustomizeObjectProperties.exp
 0002:0000c37e       .idata$6                   1003637e     kernel32:KERNEL32.dll
 0003:00000008       ?_Thread_exit_data_mutex@?A0x7f1b0160@@3Vmutex@std@@A 10037008     libcpmt:xnotify.obj
 0003:000000a0       ?__vcrt_flsindex@@3KA      100370a0     libvcruntime:per_thread_data.obj
 0003:00000170       ?errno_no_memory@@3HA      10037170     libucrt:errno.obj
 0003:00000174       ?doserrno_no_memory@@3KA   10037174     libucrt:errno.obj
 0003:00000178       ?__acrt_flsindex@@3KA      10037178     libucrt:per_thread_data.obj
 0003:00000468       __mbctypes                 10037468     libucrt:mbctype.obj
 0003:00000570       __mbcasemaps               10037570     libucrt:mbctype.obj
 0003:00000670       ?__rgctypeflag@@3PADA      10037670     libucrt:mbctype.obj
 0003:00000678       ?__rgcode_page_info@@3PAUcode_page_info@@A 10037678     libucrt:mbctype.obj
 0003:000008d0       ?__dcrt_lowio_console_output_handle@@3PAXA 100378d0     libucrt:initcon.obj
 0003:000008e0       ?__DAZ_ENABLED@?1??__set_fpsr_sse2@@9@9 100378e0     libucrt:fpctrl.obj
 0003:000008f0       ?firstLaunch@?7??SelectScenarioDlgRandomizeProc@rmgdlg@@YIHPAUH3Msg@h3@@@Z@4_NA 100378f0     RMG_SettingsDlg.obj
 0003:00000de0       ?_Thread_exit_data@?A0x7f1b0160@@3U_At_thread_exit_block@1@A 10037de0     libcpmt:xnotify.obj
 0003:00000f78       ?__KERNEL32Function_GetSystemTimePreciseAsFileTime@?A0x995b63b9@@3P6GXPAU_FILETIME@@@ZA 10037f78     libcpmt:winapisupp.obj
 0003:00000f7c       ?__KERNEL32Function_GetTempPath2W@?A0x995b63b9@@3P6GKKPA_W@ZA 10037f7c     libcpmt:winapisupp.obj
 0003:00000f80       ?g_tss_cv@@3U_RTL_CONDITION_VARIABLE@@A 10037f80     LIBCMT:thread_safe_statics.obj
 0003:00000f84       ?g_tss_srw@@3U_RTL_SRWLOCK@@A 10037f84     LIBCMT:thread_safe_statics.obj
 0003:00000f90       ?is_initialized_as_dll@@3_NA 10037f90     LIBCMT:utility.obj
 0003:00000f91       ?module_local_atexit_table_initialized@@3_NA 10037f91     LIBCMT:utility.obj
 0003:00000f94       ?module_local_atexit_table@@3U_onexit_table_t@@A 10037f94     LIBCMT:utility.obj
 0003:00000fa0       ?module_local_at_quick_exit_table@@3U_onexit_table_t@@A 10037fa0     LIBCMT:utility.obj
 0003:00000fac       ?__proc_attached@@3HA      10037fac     LIBCMT:dll_dllmain.obj
 0003:00000fd8       _GS_ExceptionRecord        10037fd8     LIBCMT:gs_report.obj
 0003:00001028       _GS_ContextRecord          10038028     LIBCMT:gs_report.obj
 0003:000012f8       ?__vcrt_startup_thread_ptd@@3U__vcrt_ptd@@A 100382f8     libvcruntime:per_thread_data.obj
 0003:00001324       ___vcrt_lock_table         10038324     libvcruntime:locks.obj
 0003:0000133c       ___vcrt_locks_initialized  1003833c     libvcruntime:locks.obj
 0003:00001368       ?heap@@3V_HeapManager@@A   10038368     libvcruntime:undname.obj
 0003:0000137c       ?module_handles@@3PAPAUHINSTANCE__@@A 1003837c     libvcruntime:winapi_downlevel.obj
 0003:00001388       ?function_pointers@@3PAPAXA 10038388     libvcruntime:winapi_downlevel.obj
 0003:0000139c       ?__acrt_invalid_parameter_handler@@3V?$dual_state_global@P6AXPB_W00II@Z@__crt_state_management@@A 1003839c     libucrt:invalid_parameter.obj
 0003:000013a8       ?__acrt_new_handler@@3V?$dual_state_global@P6AHI@Z@__crt_state_management@@A 100383a8     libucrt:new_handler.obj
 0003:000013ac       ?c_termination_complete@@3JA 100383ac     libucrt:exit.obj
 0003:000013b0       ?thread_local_exit_callback_func@@3P6GXPAXK0@ZA 100383b0     libucrt:exit.obj
 0003:000013b8       ?program_name@?1???$common_configure_argv@D@@YAHW4_crt_argv_mode@@@Z@4PADA 100383b8     libucrt:argv_parsing.obj
 0003:000014e8       ?internal_state@?1??_mbtowc_l@@9@4U_Mbstatet@@A 100384e8     libucrt:mbtowc.obj
 0003:000014f0       ?enable_percent_n@@3IA     100384f0     libucrt:printf_count_output.obj
 0003:00001710       ?module_handles@@3PAPAUHINSTANCE__@@A 10038710     libucrt:winapi_thunks.obj
 0003:00001760       ?encoded_function_pointers@@3PAPAXA 10038760     libucrt:winapi_thunks.obj
 0003:000017e8       ?state_cache@?1???$get_cached_win_policy@Ubegin_thread_init_policy_properties@?1??__acrt_get_begin_thread_init_policy@@YA?AW4begin_thread_init_policy@@XZ@@@YA?AW4begin_thread_init_policy@@W4AppPolicyThreadInitializationType@@@Z@4JA 100387e8     libucrt:win_policies.obj
 0003:000017ec       ?ctrlc_action@@3V?$dual_state_global@P6AXH@Z@__crt_state_management@@A 100387ec     libucrt:signal.obj
 0003:000017f0       ?ctrlbreak_action@@3V?$dual_state_global@P6AXH@Z@__crt_state_management@@A 100387f0     libucrt:signal.obj
 0003:000017f4       ?abort_action@@3V?$dual_state_global@P6AXH@Z@__crt_state_management@@A 100387f4     libucrt:signal.obj
 0003:000017f8       ?term_action@@3V?$dual_state_global@P6AXH@Z@__crt_state_management@@A 100387f8     libucrt:signal.obj
 0003:00001800       ?__acrt_lock_table@@3PAU_RTL_CRITICAL_SECTION@@A 10038800     libucrt:locks.obj
 0003:00001950       ?__acrt_locks_initialized@@3IA 10038950     libucrt:locks.obj
 0003:00001960       ?fSystemSet@@3HA           10038960     libucrt:mbctype.obj
 0003:00001964       ?initialized@?1??__acrt_initialize_multibyte@@9@4_NA 10038964     libucrt:mbctype.obj
 0003:00001984       ?user_matherr@@3V?$dual_state_global@P6AHPAU_exception@@@Z@__crt_state_management@@A 10038984     libucrt:matherr.obj
 0003:00001988       ?__acrt_global_new_mode@@3V?$dual_state_global@J@__crt_state_management@@A 10038988     libucrt:new_mode.obj
 0003:00001994       ?internal_pst@?1??__mbrtoc32_utf8@__crt_mbstring@@YAIPA_UPBDIPAU_Mbstatet@@@Z@4U3@A 10038994     libucrt:mbrtoc32.obj
 0003:0000199c       ?__acrt_app_type@@3W4_crt_app_type@@A 1003899c     libucrt:report_runtime_error.obj
 0003:000019a4       __pmatherr_set             100389a4     libucrt:libm_error.obj
 0003:00001a64       ?plugin_On@?1??DllMain@@9@12@4HA 10038a64     dllmain.obj
 0003:00001a68       ?assetsCreated@?1??GameStart@rmgdlg@@YGXPAVHiHook@@K@Z@4_NA 10038a68     RMG_SettingsDlg.obj
 0003:00001a6c       ?$TSS0@?1??Get@CreatureBanksExtender@cbanks@@SAAAV23@XZ@4HA 10038a6c     CreatureBanksExtender.obj
 0003:00001a70       ?_instance@?1??Get@CreatureBanksExtender@cbanks@@SAAAV23@XZ@4V23@A 10038a70     CreatureBanksExtender.obj
 0003:00001ae0       ?$TSS0@?1??Get@GazeboExtender@gazebo@@SAAAV23@XZ@4HA 10038ae0     GazeboExtender.obj
 0003:00001ae4       ?_instance@?1??Get@GazeboExtender@gazebo@@SAAAV23@XZ@4V23@A 10038ae4     GazeboExtender.obj
 0003:00001af4       ?$TSS0@?1??Get@ShrinesExternder@shrines@@SAAAV23@XZ@4HA 10038af4     ShrinesExternder.obj
 0003:00001af8       ?_instance@?1??Get@ShrinesExternder@shrines@@SAAAV23@XZ@4V23@A 10038af8     ShrinesExternder.obj
 0003:00001b08       ?_instance@?1??Get@WarehousesExtender@warehouses@@SAAAV23@XZ@4V23@A 10038b08     WarehousesExtender.obj
 0003:00001b18       ?$TSS0@?1??Get@WarehousesExtender@warehouses@@SAAAV23@XZ@4HA 10038b18     WarehousesExtender.obj
 0003:00001b1c       ?$TSS0@?1??Get@WateringPlaceExtender@wateringPlace@@SAAAV23@XZ@4HA 10038b1c     WateringPlaceExtender.obj
 0003:00001b20       ?_instance@?1??Get@WateringPlaceExtender@wateringPlace@@SAAAV23@XZ@4V23@A 10038b20     WateringPlaceExtender.obj
 0003:00001b30       ?instance@?1??Get@RMGObjectsEditor@editor@@SAAAV23@XZ@4V23@A 10038b30     RMGObjectsEditor.obj
 0003:000033c8       ?$TSS0@?1??Get@RMGObjectsEditor@editor@@SAAAV23@XZ@4HA 1003a3c8     RMGObjectsEditor.obj
 0004:00000060       $R000000                   1003b060     * linker generated manifest res *
